ARM GAS  C:\Users\Jay\AppData\Local\Temp\cci0ZEVx.s 			page 1


   1              		.cpu cortex-m4
   2              		.eabi_attribute 27, 1
   3              		.eabi_attribute 28, 1
   4              		.eabi_attribute 20, 1
   5              		.eabi_attribute 21, 1
   6              		.eabi_attribute 23, 3
   7              		.eabi_attribute 24, 1
   8              		.eabi_attribute 25, 1
   9              		.eabi_attribute 26, 1
  10              		.eabi_attribute 30, 2
  11              		.eabi_attribute 34, 1
  12              		.eabi_attribute 18, 4
  13              		.file	"ff.c"
  14              		.text
  15              		.section	.text.get_ldnumber,"ax",%progbits
  16              		.align	1
  17              		.p2align 2,,3
  18              		.syntax unified
  19              		.thumb
  20              		.thumb_func
  21              		.fpu fpv4-sp-d16
  23              	get_ldnumber:
  24              		@ args = 0, pretend = 0, frame = 0
  25              		@ frame_needed = 0, uses_anonymous_args = 0
  26              		@ link register save eliminated.
  27 0000 0168     		ldr	r1, [r0]
  28 0002 E9B1     		cbz	r1, .L7
  29 0004 0A46     		mov	r2, r1
  30 0006 01E0     		b	.L4
  31              	.L19:
  32 0008 3A2B     		cmp	r3, #58
  33 000a 06D0     		beq	.L18
  34              	.L4:
  35 000c 12F8013B 		ldrb	r3, [r2], #1	@ zero_extendqisi2
  36 0010 1F2B     		cmp	r3, #31
  37 0012 F9D8     		bhi	.L19
  38 0014 0C4B     		ldr	r3, .L20
  39 0016 1878     		ldrb	r0, [r3]	@ zero_extendqisi2
  40 0018 7047     		bx	lr
  41              	.L18:
  42 001a 10B4     		push	{r4}
  43 001c 0B78     		ldrb	r3, [r1]	@ zero_extendqisi2
  44 001e A3F13004 		sub	r4, r3, #48
  45 0022 092C     		cmp	r4, #9
  46 0024 09D8     		bhi	.L16
  47 0026 0231     		adds	r1, r1, #2
  48 0028 8A42     		cmp	r2, r1
  49 002a 06D1     		bne	.L16
  50 002c 302B     		cmp	r3, #48
  51 002e 04D1     		bne	.L16
  52 0030 0260     		str	r2, [r0]
  53 0032 0020     		movs	r0, #0
  54              	.L1:
  55 0034 5DF8044B 		ldr	r4, [sp], #4
  56 0038 7047     		bx	lr
  57              	.L16:
  58 003a 4FF0FF30 		mov	r0, #-1
ARM GAS  C:\Users\Jay\AppData\Local\Temp\cci0ZEVx.s 			page 2


  59 003e F9E7     		b	.L1
  60              	.L7:
  61 0040 4FF0FF30 		mov	r0, #-1
  62 0044 7047     		bx	lr
  63              	.L21:
  64 0046 00BF     		.align	2
  65              	.L20:
  66 0048 00000000 		.word	.LANCHOR0
  68              		.section	.text.validate,"ax",%progbits
  69              		.align	1
  70              		.p2align 2,,3
  71              		.syntax unified
  72              		.thumb
  73              		.thumb_func
  74              		.fpu fpv4-sp-d16
  76              	validate:
  77              		@ args = 0, pretend = 0, frame = 8
  78              		@ frame_needed = 0, uses_anonymous_args = 0
  79 0000 D8B1     		cbz	r0, .L35
  80 0002 10B5     		push	{r4, lr}
  81 0004 0368     		ldr	r3, [r0]
  82 0006 82B0     		sub	sp, sp, #8
  83 0008 0446     		mov	r4, r0
  84 000a 2BB1     		cbz	r3, .L25
  85 000c 1A78     		ldrb	r2, [r3]	@ zero_extendqisi2
  86 000e 1AB1     		cbz	r2, .L25
  87 0010 8088     		ldrh	r0, [r0, #4]
  88 0012 DA88     		ldrh	r2, [r3, #6]
  89 0014 9042     		cmp	r0, r2
  90 0016 04D0     		beq	.L36
  91              	.L25:
  92 0018 0920     		movs	r0, #9
  93 001a 0023     		movs	r3, #0
  94 001c 0B60     		str	r3, [r1]
  95 001e 02B0     		add	sp, sp, #8
  96              		@ sp needed
  97 0020 10BD     		pop	{r4, pc}
  98              	.L36:
  99 0022 5878     		ldrb	r0, [r3, #1]	@ zero_extendqisi2
 100 0024 0191     		str	r1, [sp, #4]
 101 0026 FFF7FEFF 		bl	disk_status
 102 002a 10F00100 		ands	r0, r0, #1
 103 002e 0199     		ldr	r1, [sp, #4]
 104 0030 F2D1     		bne	.L25
 105 0032 2368     		ldr	r3, [r4]
 106 0034 0B60     		str	r3, [r1]
 107 0036 02B0     		add	sp, sp, #8
 108              		@ sp needed
 109 0038 10BD     		pop	{r4, pc}
 110              	.L35:
 111 003a 0023     		movs	r3, #0
 112 003c 0920     		movs	r0, #9
 113 003e 0B60     		str	r3, [r1]
 114 0040 7047     		bx	lr
 116 0042 00BF     		.section	.text.mem_cpy.part.0,"ax",%progbits
 117              		.align	1
 118              		.p2align 2,,3
ARM GAS  C:\Users\Jay\AppData\Local\Temp\cci0ZEVx.s 			page 3


 119              		.syntax unified
 120              		.thumb
 121              		.thumb_func
 122              		.fpu fpv4-sp-d16
 124              	mem_cpy.part.0:
 125              		@ args = 0, pretend = 0, frame = 0
 126              		@ frame_needed = 0, uses_anonymous_args = 0
 127              		@ link register save eliminated.
 128 0000 0A44     		add	r2, r2, r1
 129 0002 0138     		subs	r0, r0, #1
 130              	.L38:
 131 0004 11F8013B 		ldrb	r3, [r1], #1	@ zero_extendqisi2
 132 0008 00F8013F 		strb	r3, [r0, #1]!
 133 000c 9142     		cmp	r1, r2
 134 000e F9D1     		bne	.L38
 135 0010 7047     		bx	lr
 137 0012 00BF     		.section	.text.sync_window.part.5,"ax",%progbits
 138              		.align	1
 139              		.p2align 2,,3
 140              		.syntax unified
 141              		.thumb
 142              		.thumb_func
 143              		.fpu fpv4-sp-d16
 145              	sync_window.part.5:
 146              		@ args = 0, pretend = 0, frame = 0
 147              		@ frame_needed = 0, uses_anonymous_args = 0
 148 0000 70B5     		push	{r4, r5, r6, lr}
 149 0002 00F13806 		add	r6, r0, #56
 150 0006 0446     		mov	r4, r0
 151 0008 426B     		ldr	r2, [r0, #52]
 152 000a 4078     		ldrb	r0, [r0, #1]	@ zero_extendqisi2
 153 000c 3146     		mov	r1, r6
 154 000e 0123     		movs	r3, #1
 155 0010 FFF7FEFF 		bl	disk_write
 156 0014 60B9     		cbnz	r0, .L42
 157 0016 616B     		ldr	r1, [r4, #52]
 158 0018 A36A     		ldr	r3, [r4, #40]
 159 001a 226A     		ldr	r2, [r4, #32]
 160 001c E070     		strb	r0, [r4, #3]
 161 001e CB1A     		subs	r3, r1, r3
 162 0020 9342     		cmp	r3, r2
 163 0022 0546     		mov	r5, r0
 164 0024 02D2     		bcs	.L44
 165 0026 A378     		ldrb	r3, [r4, #2]	@ zero_extendqisi2
 166 0028 022B     		cmp	r3, #2
 167 002a 03D0     		beq	.L46
 168              	.L44:
 169 002c 2846     		mov	r0, r5
 170 002e 70BD     		pop	{r4, r5, r6, pc}
 171              	.L42:
 172 0030 0120     		movs	r0, #1
 173 0032 70BD     		pop	{r4, r5, r6, pc}
 174              	.L46:
 175 0034 0A44     		add	r2, r2, r1
 176 0036 6078     		ldrb	r0, [r4, #1]	@ zero_extendqisi2
 177 0038 3146     		mov	r1, r6
 178 003a 0123     		movs	r3, #1
ARM GAS  C:\Users\Jay\AppData\Local\Temp\cci0ZEVx.s 			page 4


 179 003c FFF7FEFF 		bl	disk_write
 180 0040 2846     		mov	r0, r5
 181 0042 70BD     		pop	{r4, r5, r6, pc}
 183              		.section	.text.dir_clear,"ax",%progbits
 184              		.align	1
 185              		.p2align 2,,3
 186              		.syntax unified
 187              		.thumb
 188              		.thumb_func
 189              		.fpu fpv4-sp-d16
 191              	dir_clear:
 192              		@ args = 0, pretend = 0, frame = 0
 193              		@ frame_needed = 0, uses_anonymous_args = 0
 194 0000 F8B5     		push	{r3, r4, r5, r6, r7, lr}
 195 0002 C378     		ldrb	r3, [r0, #3]	@ zero_extendqisi2
 196 0004 0546     		mov	r5, r0
 197 0006 0E46     		mov	r6, r1
 198 0008 5BBB     		cbnz	r3, .L48
 199              	.L52:
 200 000a EA69     		ldr	r2, [r5, #28]
 201 000c B31E     		subs	r3, r6, #2
 202 000e 023A     		subs	r2, r2, #2
 203 0010 9342     		cmp	r3, r2
 204 0012 24D2     		bcs	.L57
 205 0014 6E89     		ldrh	r6, [r5, #10]
 206 0016 2A6B     		ldr	r2, [r5, #48]
 207 0018 03FB0626 		mla	r6, r3, r6, r2
 208              	.L49:
 209 001c 05F13807 		add	r7, r5, #56
 210 0020 6E63     		str	r6, [r5, #52]
 211 0022 3B46     		mov	r3, r7
 212 0024 05F50E71 		add	r1, r5, #568
 213 0028 0022     		movs	r2, #0
 214              	.L53:
 215 002a 03F8012B 		strb	r2, [r3], #1
 216 002e 8B42     		cmp	r3, r1
 217 0030 FBD1     		bne	.L53
 218 0032 6889     		ldrh	r0, [r5, #10]
 219 0034 0446     		mov	r4, r0
 220 0036 70B1     		cbz	r0, .L55
 221 0038 0024     		movs	r4, #0
 222 003a 03E0     		b	.L54
 223              	.L56:
 224 003c 6889     		ldrh	r0, [r5, #10]
 225 003e 0134     		adds	r4, r4, #1
 226 0040 A042     		cmp	r0, r4
 227 0042 08D9     		bls	.L55
 228              	.L54:
 229 0044 0123     		movs	r3, #1
 230 0046 3219     		adds	r2, r6, r4
 231 0048 3946     		mov	r1, r7
 232 004a 6878     		ldrb	r0, [r5, #1]	@ zero_extendqisi2
 233 004c FFF7FEFF 		bl	disk_write
 234 0050 0028     		cmp	r0, #0
 235 0052 F3D0     		beq	.L56
 236 0054 6889     		ldrh	r0, [r5, #10]
 237              	.L55:
ARM GAS  C:\Users\Jay\AppData\Local\Temp\cci0ZEVx.s 			page 5


 238 0056 201A     		subs	r0, r4, r0
 239 0058 18BF     		it	ne
 240 005a 0120     		movne	r0, #1
 241 005c F8BD     		pop	{r3, r4, r5, r6, r7, pc}
 242              	.L57:
 243 005e 0026     		movs	r6, #0
 244 0060 DCE7     		b	.L49
 245              	.L48:
 246 0062 FFF7FEFF 		bl	sync_window.part.5
 247 0066 0028     		cmp	r0, #0
 248 0068 CFD0     		beq	.L52
 249 006a 0120     		movs	r0, #1
 250 006c F8BD     		pop	{r3, r4, r5, r6, r7, pc}
 252 006e 00BF     		.section	.text.sync_fs,"ax",%progbits
 253              		.align	1
 254              		.p2align 2,,3
 255              		.syntax unified
 256              		.thumb
 257              		.thumb_func
 258              		.fpu fpv4-sp-d16
 260              	sync_fs:
 261              		@ args = 0, pretend = 0, frame = 0
 262              		@ frame_needed = 0, uses_anonymous_args = 0
 263 0000 70B5     		push	{r4, r5, r6, lr}
 264 0002 C378     		ldrb	r3, [r0, #3]	@ zero_extendqisi2
 265 0004 0546     		mov	r5, r0
 266 0006 5BB9     		cbnz	r3, .L64
 267 0008 2B78     		ldrb	r3, [r5]	@ zero_extendqisi2
 268 000a 032B     		cmp	r3, #3
 269 000c 0FD0     		beq	.L76
 270              	.L66:
 271 000e 0022     		movs	r2, #0
 272 0010 6878     		ldrb	r0, [r5, #1]	@ zero_extendqisi2
 273 0012 1146     		mov	r1, r2
 274 0014 FFF7FEFF 		bl	disk_ioctl
 275 0018 0030     		adds	r0, r0, #0
 276 001a 18BF     		it	ne
 277 001c 0120     		movne	r0, #1
 278              	.L68:
 279 001e 70BD     		pop	{r4, r5, r6, pc}
 280              	.L64:
 281 0020 FFF7FEFF 		bl	sync_window.part.5
 282 0024 0028     		cmp	r0, #0
 283 0026 FAD1     		bne	.L68
 284 0028 2B78     		ldrb	r3, [r5]	@ zero_extendqisi2
 285 002a 032B     		cmp	r3, #3
 286 002c EFD1     		bne	.L66
 287              	.L76:
 288 002e 2B79     		ldrb	r3, [r5, #4]	@ zero_extendqisi2
 289 0030 012B     		cmp	r3, #1
 290 0032 ECD1     		bne	.L66
 291 0034 05F13801 		add	r1, r5, #56
 292 0038 0B46     		mov	r3, r1
 293 003a 05F50E72 		add	r2, r5, #568
 294 003e 0024     		movs	r4, #0
 295              	.L69:
 296 0040 03F8014B 		strb	r4, [r3], #1
ARM GAS  C:\Users\Jay\AppData\Local\Temp\cci0ZEVx.s 			page 6


 297 0044 9A42     		cmp	r2, r3
 298 0046 FBD1     		bne	.L69
 299 0048 D5E90430 		ldrd	r3, r0, [r5, #16]
 300 004c 060A     		lsrs	r6, r0, #8
 301 004e 85F82002 		strb	r0, [r5, #544]
 302 0052 85F82162 		strb	r6, [r5, #545]
 303 0056 060C     		lsrs	r6, r0, #16
 304 0058 000E     		lsrs	r0, r0, #24
 305 005a 6A6A     		ldr	r2, [r5, #36]
 306 005c 85F82262 		strb	r6, [r5, #546]
 307 0060 85F82302 		strb	r0, [r5, #547]
 308 0064 1E0A     		lsrs	r6, r3, #8
 309 0066 180C     		lsrs	r0, r3, #16
 310 0068 85F82432 		strb	r3, [r5, #548]
 311 006c 1B0E     		lsrs	r3, r3, #24
 312 006e 85F82562 		strb	r6, [r5, #549]
 313 0072 85F82602 		strb	r0, [r5, #550]
 314 0076 5526     		movs	r6, #85
 315 0078 AA20     		movs	r0, #170
 316 007a 85F82732 		strb	r3, [r5, #551]
 317 007e 5223     		movs	r3, #82
 318 0080 0132     		adds	r2, r2, #1
 319 0082 85F83662 		strb	r6, [r5, #566]
 320 0086 85F83702 		strb	r0, [r5, #567]
 321 008a 6126     		movs	r6, #97
 322 008c 4120     		movs	r0, #65
 323 008e 85F83830 		strb	r3, [r5, #56]
 324 0092 85F83930 		strb	r3, [r5, #57]
 325 0096 7223     		movs	r3, #114
 326 0098 85F83B00 		strb	r0, [r5, #59]
 327 009c 85F81E02 		strb	r0, [r5, #542]
 328 00a0 85F81C32 		strb	r3, [r5, #540]
 329 00a4 85F81D32 		strb	r3, [r5, #541]
 330 00a8 6A63     		str	r2, [r5, #52]
 331 00aa 85F83A60 		strb	r6, [r5, #58]
 332 00ae 85F81F62 		strb	r6, [r5, #543]
 333 00b2 0123     		movs	r3, #1
 334 00b4 6878     		ldrb	r0, [r5, #1]	@ zero_extendqisi2
 335 00b6 FFF7FEFF 		bl	disk_write
 336 00ba 2C71     		strb	r4, [r5, #4]
 337 00bc A7E7     		b	.L66
 339 00be 00BF     		.section	.text.move_window.part.6,"ax",%progbits
 340              		.align	1
 341              		.p2align 2,,3
 342              		.syntax unified
 343              		.thumb
 344              		.thumb_func
 345              		.fpu fpv4-sp-d16
 347              	move_window.part.6:
 348              		@ args = 0, pretend = 0, frame = 0
 349              		@ frame_needed = 0, uses_anonymous_args = 0
 350 0000 38B5     		push	{r3, r4, r5, lr}
 351 0002 C378     		ldrb	r3, [r0, #3]	@ zero_extendqisi2
 352 0004 0446     		mov	r4, r0
 353 0006 0D46     		mov	r5, r1
 354 0008 13B1     		cbz	r3, .L80
 355 000a FFF7FEFF 		bl	sync_window.part.5
ARM GAS  C:\Users\Jay\AppData\Local\Temp\cci0ZEVx.s 			page 7


 356 000e 70B9     		cbnz	r0, .L81
 357              	.L80:
 358 0010 2A46     		mov	r2, r5
 359 0012 0123     		movs	r3, #1
 360 0014 04F13801 		add	r1, r4, #56
 361 0018 6078     		ldrb	r0, [r4, #1]	@ zero_extendqisi2
 362 001a FFF7FEFF 		bl	disk_read
 363 001e 0028     		cmp	r0, #0
 364 0020 18BF     		it	ne
 365 0022 4FF0FF35 		movne	r5, #-1
 366 0026 6563     		str	r5, [r4, #52]
 367 0028 0CBF     		ite	eq
 368 002a 0020     		moveq	r0, #0
 369 002c 0120     		movne	r0, #1
 370              	.L81:
 371 002e 38BD     		pop	{r3, r4, r5, pc}
 373              		.section	.text.check_fs,"ax",%progbits
 374              		.align	1
 375              		.p2align 2,,3
 376              		.syntax unified
 377              		.thumb
 378              		.thumb_func
 379              		.fpu fpv4-sp-d16
 381              	check_fs:
 382              		@ args = 0, pretend = 0, frame = 0
 383              		@ frame_needed = 0, uses_anonymous_args = 0
 384 0000 4FF0FF33 		mov	r3, #-1
 385 0004 0022     		movs	r2, #0
 386 0006 9942     		cmp	r1, r3
 387 0008 10B5     		push	{r4, lr}
 388 000a 0446     		mov	r4, r0
 389 000c C270     		strb	r2, [r0, #3]
 390 000e 4363     		str	r3, [r0, #52]
 391 0010 21D1     		bne	.L88
 392              	.L91:
 393 0012 94F83712 		ldrb	r1, [r4, #567]	@ zero_extendqisi2
 394 0016 94F83632 		ldrb	r3, [r4, #566]	@ zero_extendqisi2
 395 001a 4AF65522 		movw	r2, #43605
 396 001e 43EA0123 		orr	r3, r3, r1, lsl #8
 397 0022 9342     		cmp	r3, r2
 398 0024 15D1     		bne	.L108
 399 0026 94F83830 		ldrb	r3, [r4, #56]	@ zero_extendqisi2
 400 002a EB2B     		cmp	r3, #235
 401 002c 03D0     		beq	.L92
 402 002e 1833     		adds	r3, r3, #24
 403 0030 DBB2     		uxtb	r3, r3
 404 0032 012B     		cmp	r3, #1
 405 0034 2AD8     		bhi	.L99
 406              	.L92:
 407 0036 94F86E30 		ldrb	r3, [r4, #110]	@ zero_extendqisi2
 408 003a 462B     		cmp	r3, #70
 409 003c 11D1     		bne	.L93
 410 003e 94F86F30 		ldrb	r3, [r4, #111]	@ zero_extendqisi2
 411 0042 412B     		cmp	r3, #65
 412 0044 0DD1     		bne	.L93
 413 0046 94F87030 		ldrb	r3, [r4, #112]	@ zero_extendqisi2
 414 004a 542B     		cmp	r3, #84
ARM GAS  C:\Users\Jay\AppData\Local\Temp\cci0ZEVx.s 			page 8


 415 004c 09D1     		bne	.L93
 416 004e 0020     		movs	r0, #0
 417 0050 10BD     		pop	{r4, pc}
 418              	.L108:
 419 0052 0320     		movs	r0, #3
 420 0054 10BD     		pop	{r4, pc}
 421              	.L88:
 422 0056 FFF7FEFF 		bl	move_window.part.6
 423 005a 0028     		cmp	r0, #0
 424 005c D9D0     		beq	.L91
 425 005e 0420     		movs	r0, #4
 426 0060 10BD     		pop	{r4, pc}
 427              	.L93:
 428 0062 94F88A30 		ldrb	r3, [r4, #138]	@ zero_extendqisi2
 429 0066 0A49     		ldr	r1, .L109
 430 0068 04F18B02 		add	r2, r4, #139
 431 006c 463B     		subs	r3, r3, #70
 432 006e 8F34     		adds	r4, r4, #143
 433              	.L94:
 434 0070 63B9     		cbnz	r3, .L99
 435 0072 12F8013B 		ldrb	r3, [r2], #1	@ zero_extendqisi2
 436 0076 11F8010F 		ldrb	r0, [r1, #1]!	@ zero_extendqisi2
 437 007a A242     		cmp	r2, r4
 438 007c A3EB0003 		sub	r3, r3, r0
 439 0080 F6D1     		bne	.L94
 440 0082 002B     		cmp	r3, #0
 441 0084 14BF     		ite	ne
 442 0086 0220     		movne	r0, #2
 443 0088 0020     		moveq	r0, #0
 444 008a 10BD     		pop	{r4, pc}
 445              	.L99:
 446 008c 0220     		movs	r0, #2
 447 008e 10BD     		pop	{r4, pc}
 448              	.L110:
 449              		.align	2
 450              	.L109:
 451 0090 00000000 		.word	.LC0
 453              		.section	.text.put_fat.part.8,"ax",%progbits
 454              		.align	1
 455              		.p2align 2,,3
 456              		.syntax unified
 457              		.thumb
 458              		.thumb_func
 459              		.fpu fpv4-sp-d16
 461              	put_fat.part.8:
 462              		@ args = 0, pretend = 0, frame = 0
 463              		@ frame_needed = 0, uses_anonymous_args = 0
 464 0000 2DE9F843 		push	{r3, r4, r5, r6, r7, r8, r9, lr}
 465 0004 0378     		ldrb	r3, [r0]	@ zero_extendqisi2
 466 0006 022B     		cmp	r3, #2
 467 0008 0446     		mov	r4, r0
 468 000a 0D46     		mov	r5, r1
 469 000c 1646     		mov	r6, r2
 470 000e 58D0     		beq	.L113
 471 0010 032B     		cmp	r3, #3
 472 0012 37D0     		beq	.L114
 473 0014 012B     		cmp	r3, #1
ARM GAS  C:\Users\Jay\AppData\Local\Temp\cci0ZEVx.s 			page 9


 474 0016 02D0     		beq	.L145
 475 0018 0220     		movs	r0, #2
 476              	.L134:
 477 001a BDE8F883 		pop	{r3, r4, r5, r6, r7, r8, r9, pc}
 478              	.L145:
 479 001e 816A     		ldr	r1, [r0, #40]
 480 0020 436B     		ldr	r3, [r0, #52]
 481 0022 05EB5507 		add	r7, r5, r5, lsr #1
 482 0026 01EB5721 		add	r1, r1, r7, lsr #9
 483 002a 9942     		cmp	r1, r3
 484 002c 62D1     		bne	.L116
 485              	.L119:
 486 002e 07F10108 		add	r8, r7, #1
 487 0032 EB07     		lsls	r3, r5, #31
 488 0034 C7F30807 		ubfx	r7, r7, #0, #9
 489 0038 4FEA5821 		lsr	r1, r8, #9
 490 003c 04F13809 		add	r9, r4, #56
 491 0040 62D5     		bpl	.L146
 492 0042 19F80730 		ldrb	r3, [r9, r7]	@ zero_extendqisi2
 493 0046 03F00F03 		and	r3, r3, #15
 494 004a 43EA0613 		orr	r3, r3, r6, lsl #4
 495 004e 09F80730 		strb	r3, [r9, r7]
 496 0052 A26A     		ldr	r2, [r4, #40]
 497 0054 636B     		ldr	r3, [r4, #52]
 498 0056 1144     		add	r1, r1, r2
 499 0058 9942     		cmp	r1, r3
 500 005a 4FF00102 		mov	r2, #1
 501 005e E270     		strb	r2, [r4, #3]
 502 0060 04D0     		beq	.L142
 503 0062 2046     		mov	r0, r4
 504 0064 FFF7FEFF 		bl	move_window.part.6
 505 0068 0028     		cmp	r0, #0
 506 006a D6D1     		bne	.L134
 507              	.L142:
 508 006c C8F30808 		ubfx	r8, r8, #0, #9
 509 0070 C844     		add	r8, r8, r9
 510 0072 C6F30716 		ubfx	r6, r6, #4, #8
 511              	.L124:
 512 0076 0123     		movs	r3, #1
 513 0078 88F80060 		strb	r6, [r8]
 514 007c E370     		strb	r3, [r4, #3]
 515 007e 0020     		movs	r0, #0
 516 0080 BDE8F883 		pop	{r3, r4, r5, r6, r7, r8, r9, pc}
 517              	.L114:
 518 0084 816A     		ldr	r1, [r0, #40]
 519 0086 436B     		ldr	r3, [r0, #52]
 520 0088 01EBD511 		add	r1, r1, r5, lsr #7
 521 008c 9942     		cmp	r1, r3
 522 008e 36D1     		bne	.L127
 523              	.L128:
 524 0090 AD00     		lsls	r5, r5, #2
 525 0092 04F13801 		add	r1, r4, #56
 526 0096 05F4FE75 		and	r5, r5, #508
 527 009a 4B19     		adds	r3, r1, r5
 528 009c 26F07046 		bic	r6, r6, #-268435456
 529 00a0 5A88     		ldrh	r2, [r3, #2]	@ unaligned
 530 00a2 1204     		lsls	r2, r2, #16
ARM GAS  C:\Users\Jay\AppData\Local\Temp\cci0ZEVx.s 			page 10


 531 00a4 02F07042 		and	r2, r2, #-268435456
 532 00a8 3243     		orrs	r2, r2, r6
 533 00aa 4A55     		strb	r2, [r1, r5]
 534 00ac 160A     		lsrs	r6, r2, #8
 535 00ae 100C     		lsrs	r0, r2, #16
 536 00b0 0121     		movs	r1, #1
 537 00b2 120E     		lsrs	r2, r2, #24
 538 00b4 9870     		strb	r0, [r3, #2]
 539 00b6 5E70     		strb	r6, [r3, #1]
 540 00b8 DA70     		strb	r2, [r3, #3]
 541 00ba E170     		strb	r1, [r4, #3]
 542 00bc 0020     		movs	r0, #0
 543 00be BDE8F883 		pop	{r3, r4, r5, r6, r7, r8, r9, pc}
 544              	.L113:
 545 00c2 816A     		ldr	r1, [r0, #40]
 546 00c4 436B     		ldr	r3, [r0, #52]
 547 00c6 01EB1521 		add	r1, r1, r5, lsr #8
 548 00ca 9942     		cmp	r1, r3
 549 00cc 03D0     		beq	.L126
 550 00ce FFF7FEFF 		bl	move_window.part.6
 551 00d2 0028     		cmp	r0, #0
 552 00d4 A1D1     		bne	.L134
 553              	.L126:
 554 00d6 6D00     		lsls	r5, r5, #1
 555 00d8 04F13803 		add	r3, r4, #56
 556 00dc 05F4FF75 		and	r5, r5, #510
 557 00e0 5A19     		adds	r2, r3, r5
 558 00e2 5E55     		strb	r6, [r3, r5]
 559 00e4 C6F30721 		ubfx	r1, r6, #8, #8
 560 00e8 0123     		movs	r3, #1
 561 00ea 5170     		strb	r1, [r2, #1]
 562 00ec E370     		strb	r3, [r4, #3]
 563 00ee 0020     		movs	r0, #0
 564 00f0 BDE8F883 		pop	{r3, r4, r5, r6, r7, r8, r9, pc}
 565              	.L116:
 566 00f4 FFF7FEFF 		bl	move_window.part.6
 567 00f8 0028     		cmp	r0, #0
 568 00fa 98D0     		beq	.L119
 569 00fc 8DE7     		b	.L134
 570              	.L127:
 571 00fe FFF7FEFF 		bl	move_window.part.6
 572 0102 0028     		cmp	r0, #0
 573 0104 C4D0     		beq	.L128
 574 0106 88E7     		b	.L134
 575              	.L146:
 576 0108 09F80760 		strb	r6, [r9, r7]
 577 010c A26A     		ldr	r2, [r4, #40]
 578 010e 636B     		ldr	r3, [r4, #52]
 579 0110 1144     		add	r1, r1, r2
 580 0112 9942     		cmp	r1, r3
 581 0114 4FF00102 		mov	r2, #1
 582 0118 E270     		strb	r2, [r4, #3]
 583 011a 0AD1     		bne	.L147
 584              	.L143:
 585 011c C8F30808 		ubfx	r8, r8, #0, #9
 586 0120 C844     		add	r8, r8, r9
 587 0122 C6F30322 		ubfx	r2, r6, #8, #4
ARM GAS  C:\Users\Jay\AppData\Local\Temp\cci0ZEVx.s 			page 11


 588 0126 98F80030 		ldrb	r3, [r8]	@ zero_extendqisi2
 589 012a 23F00F06 		bic	r6, r3, #15
 590 012e 1643     		orrs	r6, r6, r2
 591 0130 A1E7     		b	.L124
 592              	.L147:
 593 0132 2046     		mov	r0, r4
 594 0134 FFF7FEFF 		bl	move_window.part.6
 595 0138 0028     		cmp	r0, #0
 596 013a 7FF46EAF 		bne	.L134
 597 013e EDE7     		b	.L143
 599              		.section	.text.get_fat.isra.9,"ax",%progbits
 600              		.align	1
 601              		.p2align 2,,3
 602              		.syntax unified
 603              		.thumb
 604              		.thumb_func
 605              		.fpu fpv4-sp-d16
 607              	get_fat.isra.9:
 608              		@ args = 0, pretend = 0, frame = 0
 609              		@ frame_needed = 0, uses_anonymous_args = 0
 610 0000 0129     		cmp	r1, #1
 611 0002 2CD9     		bls	.L164
 612 0004 C269     		ldr	r2, [r0, #28]
 613 0006 9142     		cmp	r1, r2
 614 0008 F8B5     		push	{r3, r4, r5, r6, r7, lr}
 615 000a 0646     		mov	r6, r0
 616 000c 25D2     		bcs	.L167
 617 000e 0378     		ldrb	r3, [r0]	@ zero_extendqisi2
 618 0010 022B     		cmp	r3, #2
 619 0012 0C46     		mov	r4, r1
 620 0014 3BD0     		beq	.L150
 621 0016 032B     		cmp	r3, #3
 622 0018 23D0     		beq	.L151
 623 001a 012B     		cmp	r3, #1
 624 001c 1DD1     		bne	.L167
 625 001e 836A     		ldr	r3, [r0, #40]
 626 0020 D0F834C0 		ldr	ip, [r0, #52]
 627 0024 01EB5107 		add	r7, r1, r1, lsr #1
 628 0028 03EB5721 		add	r1, r3, r7, lsr #9
 629 002c 6145     		cmp	r1, ip
 630 002e 4AD1     		bne	.L173
 631              	.L153:
 632 0030 C7F30802 		ubfx	r2, r7, #0, #9
 633 0034 0137     		adds	r7, r7, #1
 634 0036 3244     		add	r2, r2, r6
 635 0038 03EB5721 		add	r1, r3, r7, lsr #9
 636 003c 6145     		cmp	r1, ip
 637 003e 92F83850 		ldrb	r5, [r2, #56]	@ zero_extendqisi2
 638 0042 48D1     		bne	.L155
 639              	.L159:
 640 0044 C7F30803 		ubfx	r3, r7, #0, #9
 641 0048 3344     		add	r3, r3, r6
 642 004a 93F83800 		ldrb	r0, [r3, #56]	@ zero_extendqisi2
 643 004e E307     		lsls	r3, r4, #31
 644 0050 45EA0020 		orr	r0, r5, r0, lsl #8
 645 0054 45D5     		bpl	.L174
 646 0056 0009     		lsrs	r0, r0, #4
ARM GAS  C:\Users\Jay\AppData\Local\Temp\cci0ZEVx.s 			page 12


 647 0058 F8BD     		pop	{r3, r4, r5, r6, r7, pc}
 648              	.L167:
 649 005a 0120     		movs	r0, #1
 650 005c F8BD     		pop	{r3, r4, r5, r6, r7, pc}
 651              	.L164:
 652 005e 0120     		movs	r0, #1
 653 0060 7047     		bx	lr
 654              	.L151:
 655 0062 816A     		ldr	r1, [r0, #40]
 656 0064 436B     		ldr	r3, [r0, #52]
 657 0066 01EBD411 		add	r1, r1, r4, lsr #7
 658 006a 9942     		cmp	r1, r3
 659 006c 26D1     		bne	.L162
 660              	.L163:
 661 006e A100     		lsls	r1, r4, #2
 662 0070 06F13803 		add	r3, r6, #56
 663 0074 01F4FE71 		and	r1, r1, #508
 664 0078 5A18     		adds	r2, r3, r1
 665 007a 585C     		ldrb	r0, [r3, r1]	@ zero_extendqisi2
 666 007c 5188     		ldrh	r1, [r2, #2]	@ unaligned
 667 007e 5378     		ldrb	r3, [r2, #1]	@ zero_extendqisi2
 668 0080 43EA0123 		orr	r3, r3, r1, lsl #8
 669 0084 40EA0320 		orr	r0, r0, r3, lsl #8
 670 0088 20F07040 		bic	r0, r0, #-268435456
 671 008c F8BD     		pop	{r3, r4, r5, r6, r7, pc}
 672              	.L150:
 673 008e 816A     		ldr	r1, [r0, #40]
 674 0090 436B     		ldr	r3, [r0, #52]
 675 0092 01EB1421 		add	r1, r1, r4, lsr #8
 676 0096 9942     		cmp	r1, r3
 677 0098 05D0     		beq	.L161
 678 009a FFF7FEFF 		bl	move_window.part.6
 679 009e 10B1     		cbz	r0, .L161
 680              	.L158:
 681 00a0 4FF0FF30 		mov	r0, #-1
 682 00a4 F8BD     		pop	{r3, r4, r5, r6, r7, pc}
 683              	.L161:
 684 00a6 6100     		lsls	r1, r4, #1
 685 00a8 06F13803 		add	r3, r6, #56
 686 00ac 01F4FF71 		and	r1, r1, #510
 687 00b0 5A18     		adds	r2, r3, r1
 688 00b2 585C     		ldrb	r0, [r3, r1]	@ zero_extendqisi2
 689 00b4 5378     		ldrb	r3, [r2, #1]	@ zero_extendqisi2
 690 00b6 40EA0320 		orr	r0, r0, r3, lsl #8
 691 00ba F8BD     		pop	{r3, r4, r5, r6, r7, pc}
 692              	.L162:
 693 00bc FFF7FEFF 		bl	move_window.part.6
 694 00c0 0028     		cmp	r0, #0
 695 00c2 D4D0     		beq	.L163
 696 00c4 ECE7     		b	.L158
 697              	.L173:
 698 00c6 FFF7FEFF 		bl	move_window.part.6
 699 00ca 0028     		cmp	r0, #0
 700 00cc E8D1     		bne	.L158
 701 00ce B36A     		ldr	r3, [r6, #40]
 702 00d0 D6F834C0 		ldr	ip, [r6, #52]
 703 00d4 ACE7     		b	.L153
ARM GAS  C:\Users\Jay\AppData\Local\Temp\cci0ZEVx.s 			page 13


 704              	.L155:
 705 00d6 3046     		mov	r0, r6
 706 00d8 FFF7FEFF 		bl	move_window.part.6
 707 00dc 0028     		cmp	r0, #0
 708 00de B1D0     		beq	.L159
 709 00e0 DEE7     		b	.L158
 710              	.L174:
 711 00e2 C0F30B00 		ubfx	r0, r0, #0, #12
 712 00e6 F8BD     		pop	{r3, r4, r5, r6, r7, pc}
 714              		.section	.text.dir_sdi,"ax",%progbits
 715              		.align	1
 716              		.p2align 2,,3
 717              		.syntax unified
 718              		.thumb
 719              		.thumb_func
 720              		.fpu fpv4-sp-d16
 722              	dir_sdi:
 723              		@ args = 0, pretend = 0, frame = 0
 724              		@ frame_needed = 0, uses_anonymous_args = 0
 725 0000 B1F5001F 		cmp	r1, #2097152
 726 0004 29D2     		bcs	.L194
 727 0006 CA06     		lsls	r2, r1, #27
 728 0008 F8B5     		push	{r3, r4, r5, r6, r7, lr}
 729 000a 0C46     		mov	r4, r1
 730 000c 23D1     		bne	.L178
 731 000e 8168     		ldr	r1, [r0, #8]
 732 0010 0461     		str	r4, [r0, #16]
 733 0012 0546     		mov	r5, r0
 734 0014 0668     		ldr	r6, [r0]
 735 0016 19BB     		cbnz	r1, .L179
 736 0018 3378     		ldrb	r3, [r6]	@ zero_extendqisi2
 737 001a 022B     		cmp	r3, #2
 738 001c 01D9     		bls	.L180
 739 001e F36A     		ldr	r3, [r6, #44]
 740 0020 EBB9     		cbnz	r3, .L186
 741              	.L180:
 742 0022 3389     		ldrh	r3, [r6, #8]
 743 0024 B3EB541F 		cmp	r3, r4, lsr #5
 744 0028 15D9     		bls	.L178
 745 002a F36A     		ldr	r3, [r6, #44]
 746 002c AB61     		str	r3, [r5, #24]
 747              	.L181:
 748 002e 6961     		str	r1, [r5, #20]
 749 0030 8BB1     		cbz	r3, .L178
 750 0032 C4F30802 		ubfx	r2, r4, #0, #9
 751 0036 3836     		adds	r6, r6, #56
 752 0038 03EB5424 		add	r4, r3, r4, lsr #9
 753 003c 1644     		add	r6, r6, r2
 754 003e C5E90646 		strd	r4, r6, [r5, #24]
 755 0042 0020     		movs	r0, #0
 756 0044 F8BD     		pop	{r3, r4, r5, r6, r7, pc}
 757              	.L182:
 758 0046 F369     		ldr	r3, [r6, #28]
 759              	.L183:
 760 0048 023B     		subs	r3, r3, #2
 761 004a 8A1E     		subs	r2, r1, #2
 762 004c 9A42     		cmp	r2, r3
ARM GAS  C:\Users\Jay\AppData\Local\Temp\cci0ZEVx.s 			page 14


 763 004e 1ED3     		bcc	.L185
 764 0050 0023     		movs	r3, #0
 765 0052 C5E90513 		strd	r1, r3, [r5, #20]
 766              	.L178:
 767 0056 0220     		movs	r0, #2
 768 0058 F8BD     		pop	{r3, r4, r5, r6, r7, pc}
 769              	.L194:
 770 005a 0220     		movs	r0, #2
 771 005c 7047     		bx	lr
 772              	.L186:
 773 005e 1946     		mov	r1, r3
 774              	.L179:
 775 0060 7789     		ldrh	r7, [r6, #10]
 776 0062 7F02     		lsls	r7, r7, #9
 777 0064 BC42     		cmp	r4, r7
 778 0066 EED3     		bcc	.L182
 779 0068 3046     		mov	r0, r6
 780 006a 07E0     		b	.L184
 781              	.L195:
 782 006c 0128     		cmp	r0, #1
 783 006e F2D9     		bls	.L178
 784 0070 F369     		ldr	r3, [r6, #28]
 785 0072 8342     		cmp	r3, r0
 786 0074 EFD9     		bls	.L178
 787 0076 A742     		cmp	r7, r4
 788 0078 E6D8     		bhi	.L183
 789 007a 2868     		ldr	r0, [r5]
 790              	.L184:
 791 007c FFF7FEFF 		bl	get_fat.isra.9
 792 0080 431C     		adds	r3, r0, #1
 793 0082 0146     		mov	r1, r0
 794 0084 A4EB0704 		sub	r4, r4, r7
 795 0088 F0D1     		bne	.L195
 796 008a 0120     		movs	r0, #1
 797 008c F8BD     		pop	{r3, r4, r5, r6, r7, pc}
 798              	.L185:
 799 008e 7389     		ldrh	r3, [r6, #10]
 800 0090 306B     		ldr	r0, [r6, #48]
 801 0092 02FB0303 		mla	r3, r2, r3, r0
 802 0096 AB61     		str	r3, [r5, #24]
 803 0098 C9E7     		b	.L181
 805 009a 00BF     		.section	.text.create_chain,"ax",%progbits
 806              		.align	1
 807              		.p2align 2,,3
 808              		.syntax unified
 809              		.thumb
 810              		.thumb_func
 811              		.fpu fpv4-sp-d16
 813              	create_chain:
 814              		@ args = 0, pretend = 0, frame = 0
 815              		@ frame_needed = 0, uses_anonymous_args = 0
 816 0000 2DE9F041 		push	{r4, r5, r6, r7, r8, lr}
 817 0004 0746     		mov	r7, r0
 818 0006 8846     		mov	r8, r1
 819 0008 0668     		ldr	r6, [r0]
 820 000a 71BB     		cbnz	r1, .L197
 821 000c 3569     		ldr	r5, [r6, #16]
ARM GAS  C:\Users\Jay\AppData\Local\Temp\cci0ZEVx.s 			page 15


 822 000e 4DB1     		cbz	r5, .L217
 823 0010 F369     		ldr	r3, [r6, #28]
 824 0012 AB42     		cmp	r3, r5
 825 0014 98BF     		it	ls
 826 0016 0125     		movls	r5, #1
 827 0018 7369     		ldr	r3, [r6, #20]
 828 001a 3BB9     		cbnz	r3, .L252
 829              	.L209:
 830 001c 0024     		movs	r4, #0
 831              	.L196:
 832 001e 2046     		mov	r0, r4
 833 0020 BDE8F081 		pop	{r4, r5, r6, r7, r8, pc}
 834              	.L217:
 835 0024 7369     		ldr	r3, [r6, #20]
 836 0026 0125     		movs	r5, #1
 837 0028 002B     		cmp	r3, #0
 838 002a F7D0     		beq	.L209
 839              	.L252:
 840 002c F369     		ldr	r3, [r6, #28]
 841              	.L206:
 842 002e 2C46     		mov	r4, r5
 843 0030 06E0     		b	.L210
 844              	.L253:
 845 0032 0128     		cmp	r0, #1
 846 0034 15D0     		beq	.L199
 847 0036 0130     		adds	r0, r0, #1
 848 0038 44D0     		beq	.L204
 849 003a AC42     		cmp	r4, r5
 850 003c EED0     		beq	.L209
 851 003e F369     		ldr	r3, [r6, #28]
 852              	.L210:
 853 0040 0134     		adds	r4, r4, #1
 854 0042 9C42     		cmp	r4, r3
 855 0044 02D3     		bcc	.L208
 856 0046 012D     		cmp	r5, #1
 857 0048 E8D9     		bls	.L209
 858 004a 0224     		movs	r4, #2
 859              	.L208:
 860 004c 2146     		mov	r1, r4
 861 004e 3868     		ldr	r0, [r7]
 862 0050 FFF7FEFF 		bl	get_fat.isra.9
 863 0054 0028     		cmp	r0, #0
 864 0056 ECD1     		bne	.L253
 865              	.L207:
 866 0058 012C     		cmp	r4, #1
 867 005a 02D9     		bls	.L199
 868 005c F369     		ldr	r3, [r6, #28]
 869 005e 9C42     		cmp	r4, r3
 870 0060 27D3     		bcc	.L254
 871              	.L199:
 872 0062 0124     		movs	r4, #1
 873 0064 2046     		mov	r0, r4
 874 0066 BDE8F081 		pop	{r4, r5, r6, r7, r8, pc}
 875              	.L197:
 876 006a 3046     		mov	r0, r6
 877 006c FFF7FEFF 		bl	get_fat.isra.9
 878 0070 0128     		cmp	r0, #1
ARM GAS  C:\Users\Jay\AppData\Local\Temp\cci0ZEVx.s 			page 16


 879 0072 0446     		mov	r4, r0
 880 0074 F5D9     		bls	.L199
 881 0076 421C     		adds	r2, r0, #1
 882 0078 24D0     		beq	.L204
 883 007a F369     		ldr	r3, [r6, #28]
 884 007c 8342     		cmp	r3, r0
 885 007e CED8     		bhi	.L196
 886 0080 7269     		ldr	r2, [r6, #20]
 887 0082 002A     		cmp	r2, #0
 888 0084 CAD0     		beq	.L209
 889 0086 08F10104 		add	r4, r8, #1
 890 008a A342     		cmp	r3, r4
 891 008c 98BF     		it	ls
 892 008e 0224     		movls	r4, #2
 893 0090 2146     		mov	r1, r4
 894 0092 3868     		ldr	r0, [r7]
 895 0094 FFF7FEFF 		bl	get_fat.isra.9
 896 0098 0128     		cmp	r0, #1
 897 009a E2D0     		beq	.L199
 898 009c 431C     		adds	r3, r0, #1
 899 009e 11D0     		beq	.L204
 900 00a0 A8B1     		cbz	r0, .L205
 901 00a2 3569     		ldr	r5, [r6, #16]
 902 00a4 F369     		ldr	r3, [r6, #28]
 903 00a6 012D     		cmp	r5, #1
 904 00a8 16D9     		bls	.L220
 905 00aa 9D42     		cmp	r5, r3
 906 00ac 28BF     		it	cs
 907 00ae 4546     		movcs	r5, r8
 908 00b0 BDE7     		b	.L206
 909              	.L254:
 910 00b2 4FF0FF32 		mov	r2, #-1
 911 00b6 2146     		mov	r1, r4
 912 00b8 3046     		mov	r0, r6
 913 00ba FFF7FEFF 		bl	put_fat.part.8
 914 00be 68B1     		cbz	r0, .L255
 915              	.L211:
 916 00c0 0128     		cmp	r0, #1
 917 00c2 CED1     		bne	.L199
 918              	.L204:
 919 00c4 4FF0FF34 		mov	r4, #-1
 920 00c8 2046     		mov	r0, r4
 921 00ca BDE8F081 		pop	{r4, r5, r6, r7, r8, pc}
 922              	.L205:
 923 00ce 002C     		cmp	r4, #0
 924 00d0 C2D1     		bne	.L207
 925 00d2 F369     		ldr	r3, [r6, #28]
 926 00d4 4546     		mov	r5, r8
 927 00d6 AAE7     		b	.L206
 928              	.L220:
 929 00d8 4546     		mov	r5, r8
 930 00da A8E7     		b	.L206
 931              	.L255:
 932 00dc B8F1000F 		cmp	r8, #0
 933 00e0 0CD0     		beq	.L215
 934 00e2 B8F1010F 		cmp	r8, #1
 935 00e6 BCD9     		bls	.L199
ARM GAS  C:\Users\Jay\AppData\Local\Temp\cci0ZEVx.s 			page 17


 936 00e8 F369     		ldr	r3, [r6, #28]
 937 00ea 9845     		cmp	r8, r3
 938 00ec B9D2     		bcs	.L199
 939 00ee 4146     		mov	r1, r8
 940 00f0 2246     		mov	r2, r4
 941 00f2 3046     		mov	r0, r6
 942 00f4 FFF7FEFF 		bl	put_fat.part.8
 943 00f8 0028     		cmp	r0, #0
 944 00fa E1D1     		bne	.L211
 945              	.L215:
 946 00fc F369     		ldr	r3, [r6, #28]
 947 00fe 7269     		ldr	r2, [r6, #20]
 948 0100 3461     		str	r4, [r6, #16]
 949 0102 023B     		subs	r3, r3, #2
 950 0104 9A42     		cmp	r2, r3
 951 0106 01D8     		bhi	.L214
 952 0108 013A     		subs	r2, r2, #1
 953 010a 7261     		str	r2, [r6, #20]
 954              	.L214:
 955 010c 3379     		ldrb	r3, [r6, #4]	@ zero_extendqisi2
 956 010e 43F00103 		orr	r3, r3, #1
 957 0112 3371     		strb	r3, [r6, #4]
 958 0114 83E7     		b	.L196
 960 0116 00BF     		.section	.text.remove_chain,"ax",%progbits
 961              		.align	1
 962              		.p2align 2,,3
 963              		.syntax unified
 964              		.thumb
 965              		.thumb_func
 966              		.fpu fpv4-sp-d16
 968              	remove_chain:
 969              		@ args = 0, pretend = 0, frame = 0
 970              		@ frame_needed = 0, uses_anonymous_args = 0
 971 0000 0129     		cmp	r1, #1
 972 0002 3FD9     		bls	.L270
 973 0004 F8B5     		push	{r3, r4, r5, r6, r7, lr}
 974 0006 0568     		ldr	r5, [r0]
 975 0008 EB69     		ldr	r3, [r5, #28]
 976 000a 8B42     		cmp	r3, r1
 977 000c 0C46     		mov	r4, r1
 978 000e 0746     		mov	r7, r0
 979 0010 2CD9     		bls	.L257
 980 0012 3ABB     		cbnz	r2, .L273
 981 0014 2846     		mov	r0, r5
 982 0016 1BE0     		b	.L263
 983              	.L260:
 984 0018 012E     		cmp	r6, #1
 985 001a 2846     		mov	r0, r5
 986 001c 26D0     		beq	.L257
 987 001e 731C     		adds	r3, r6, #1
 988 0020 32D0     		beq	.L265
 989 0022 012C     		cmp	r4, #1
 990 0024 22D9     		bls	.L257
 991 0026 EB69     		ldr	r3, [r5, #28]
 992 0028 9C42     		cmp	r4, r3
 993 002a 1FD2     		bcs	.L257
 994 002c FFF7FEFF 		bl	put_fat.part.8
ARM GAS  C:\Users\Jay\AppData\Local\Temp\cci0ZEVx.s 			page 18


 995 0030 B8B9     		cbnz	r0, .L259
 996 0032 EA69     		ldr	r2, [r5, #28]
 997 0034 6B69     		ldr	r3, [r5, #20]
 998 0036 911E     		subs	r1, r2, #2
 999 0038 8B42     		cmp	r3, r1
 1000 003a 05D2     		bcs	.L261
 1001 003c 2979     		ldrb	r1, [r5, #4]	@ zero_extendqisi2
 1002 003e 0133     		adds	r3, r3, #1
 1003 0040 41F00101 		orr	r1, r1, #1
 1004 0044 6B61     		str	r3, [r5, #20]
 1005 0046 2971     		strb	r1, [r5, #4]
 1006              	.L261:
 1007 0048 B242     		cmp	r2, r6
 1008 004a 09D9     		bls	.L262
 1009 004c 3868     		ldr	r0, [r7]
 1010 004e 3446     		mov	r4, r6
 1011              	.L263:
 1012 0050 2146     		mov	r1, r4
 1013 0052 FFF7FEFF 		bl	get_fat.isra.9
 1014 0056 2146     		mov	r1, r4
 1015 0058 0646     		mov	r6, r0
 1016 005a 0022     		movs	r2, #0
 1017 005c 0028     		cmp	r0, #0
 1018 005e DBD1     		bne	.L260
 1019              	.L262:
 1020 0060 0020     		movs	r0, #0
 1021              	.L259:
 1022 0062 F8BD     		pop	{r3, r4, r5, r6, r7, pc}
 1023              	.L273:
 1024 0064 012A     		cmp	r2, #1
 1025 0066 01D9     		bls	.L257
 1026 0068 9342     		cmp	r3, r2
 1027 006a 01D8     		bhi	.L274
 1028              	.L257:
 1029 006c 0220     		movs	r0, #2
 1030 006e F8BD     		pop	{r3, r4, r5, r6, r7, pc}
 1031              	.L274:
 1032 0070 1146     		mov	r1, r2
 1033 0072 2846     		mov	r0, r5
 1034 0074 4FF0FF32 		mov	r2, #-1
 1035 0078 FFF7FEFF 		bl	put_fat.part.8
 1036 007c 0028     		cmp	r0, #0
 1037 007e F0D1     		bne	.L259
 1038 0080 3868     		ldr	r0, [r7]
 1039 0082 E5E7     		b	.L263
 1040              	.L270:
 1041 0084 0220     		movs	r0, #2
 1042 0086 7047     		bx	lr
 1043              	.L265:
 1044 0088 0120     		movs	r0, #1
 1045 008a F8BD     		pop	{r3, r4, r5, r6, r7, pc}
 1047              		.section	.text.dir_next,"ax",%progbits
 1048              		.align	1
 1049              		.p2align 2,,3
 1050              		.syntax unified
 1051              		.thumb
 1052              		.thumb_func
ARM GAS  C:\Users\Jay\AppData\Local\Temp\cci0ZEVx.s 			page 19


 1053              		.fpu fpv4-sp-d16
 1055              	dir_next:
 1056              		@ args = 0, pretend = 0, frame = 8
 1057              		@ frame_needed = 0, uses_anonymous_args = 0
 1058 0000 2DE9F041 		push	{r4, r5, r6, r7, r8, lr}
 1059 0004 0569     		ldr	r5, [r0, #16]
 1060 0006 2035     		adds	r5, r5, #32
 1061 0008 B5F5001F 		cmp	r5, #2097152
 1062 000c 82B0     		sub	sp, sp, #8
 1063 000e 0446     		mov	r4, r0
 1064 0010 17D2     		bcs	.L281
 1065 0012 8369     		ldr	r3, [r0, #24]
 1066 0014 002B     		cmp	r3, #0
 1067 0016 50D0     		beq	.L289
 1068 0018 C5F30807 		ubfx	r7, r5, #0, #9
 1069 001c 0668     		ldr	r6, [r0]
 1070 001e 3FB1     		cbz	r7, .L302
 1071              	.L279:
 1072 0020 3836     		adds	r6, r6, #56
 1073 0022 3E44     		add	r6, r6, r7
 1074 0024 E661     		str	r6, [r4, #28]
 1075 0026 2561     		str	r5, [r4, #16]
 1076 0028 0020     		movs	r0, #0
 1077              	.L277:
 1078 002a 02B0     		add	sp, sp, #8
 1079              		@ sp needed
 1080 002c BDE8F081 		pop	{r4, r5, r6, r7, r8, pc}
 1081              	.L302:
 1082 0030 8846     		mov	r8, r1
 1083 0032 4169     		ldr	r1, [r0, #20]
 1084 0034 0133     		adds	r3, r3, #1
 1085 0036 8361     		str	r3, [r0, #24]
 1086 0038 49B9     		cbnz	r1, .L280
 1087 003a 3389     		ldrh	r3, [r6, #8]
 1088 003c B3EB551F 		cmp	r3, r5, lsr #5
 1089 0040 EED8     		bhi	.L279
 1090              	.L281:
 1091 0042 0023     		movs	r3, #0
 1092 0044 0420     		movs	r0, #4
 1093 0046 A361     		str	r3, [r4, #24]
 1094 0048 02B0     		add	sp, sp, #8
 1095              		@ sp needed
 1096 004a BDE8F081 		pop	{r4, r5, r6, r7, r8, pc}
 1097              	.L280:
 1098 004e 7389     		ldrh	r3, [r6, #10]
 1099 0050 013B     		subs	r3, r3, #1
 1100 0052 13EA5523 		ands	r3, r3, r5, lsr #9
 1101 0056 E3D1     		bne	.L279
 1102 0058 3046     		mov	r0, r6
 1103 005a FFF7FEFF 		bl	get_fat.isra.9
 1104 005e 0128     		cmp	r0, #1
 1105 0060 0346     		mov	r3, r0
 1106 0062 24D9     		bls	.L286
 1107 0064 411C     		adds	r1, r0, #1
 1108 0066 24D0     		beq	.L287
 1109 0068 F269     		ldr	r2, [r6, #28]
 1110 006a 8242     		cmp	r2, r0
ARM GAS  C:\Users\Jay\AppData\Local\Temp\cci0ZEVx.s 			page 20


 1111 006c 13D8     		bhi	.L285
 1112 006e B8F1000F 		cmp	r8, #0
 1113 0072 E6D0     		beq	.L281
 1114 0074 6169     		ldr	r1, [r4, #20]
 1115 0076 2046     		mov	r0, r4
 1116 0078 FFF7FEFF 		bl	create_chain
 1117 007c D8B1     		cbz	r0, .L290
 1118 007e 0128     		cmp	r0, #1
 1119 0080 15D0     		beq	.L286
 1120 0082 421C     		adds	r2, r0, #1
 1121 0084 15D0     		beq	.L287
 1122 0086 0146     		mov	r1, r0
 1123 0088 0190     		str	r0, [sp, #4]
 1124 008a 3046     		mov	r0, r6
 1125 008c FFF7FEFF 		bl	dir_clear
 1126 0090 78B9     		cbnz	r0, .L287
 1127 0092 F269     		ldr	r2, [r6, #28]
 1128 0094 019B     		ldr	r3, [sp, #4]
 1129              	.L285:
 1130 0096 6361     		str	r3, [r4, #20]
 1131 0098 023A     		subs	r2, r2, #2
 1132 009a 023B     		subs	r3, r3, #2
 1133 009c 9342     		cmp	r3, r2
 1134 009e 3BBF     		ittet	cc
 1135 00a0 7289     		ldrhcc	r2, [r6, #10]
 1136 00a2 316B     		ldrcc	r1, [r6, #48]
 1137 00a4 0023     		movcs	r3, #0
 1138 00a6 03FB0213 		mlacc	r3, r3, r2, r1
 1139 00aa A361     		str	r3, [r4, #24]
 1140 00ac B8E7     		b	.L279
 1141              	.L286:
 1142 00ae 0220     		movs	r0, #2
 1143 00b0 BBE7     		b	.L277
 1144              	.L287:
 1145 00b2 0120     		movs	r0, #1
 1146 00b4 B9E7     		b	.L277
 1147              	.L290:
 1148 00b6 0720     		movs	r0, #7
 1149 00b8 B7E7     		b	.L277
 1150              	.L289:
 1151 00ba 0420     		movs	r0, #4
 1152 00bc B5E7     		b	.L277
 1154 00be 00BF     		.section	.text.dir_remove,"ax",%progbits
 1155              		.align	1
 1156              		.p2align 2,,3
 1157              		.syntax unified
 1158              		.thumb
 1159              		.thumb_func
 1160              		.fpu fpv4-sp-d16
 1162              	dir_remove:
 1163              		@ args = 0, pretend = 0, frame = 0
 1164              		@ frame_needed = 0, uses_anonymous_args = 0
 1165 0000 C16A     		ldr	r1, [r0, #44]
 1166 0002 4B1C     		adds	r3, r1, #1
 1167 0004 2DE9F041 		push	{r4, r5, r6, r7, r8, lr}
 1168 0008 0446     		mov	r4, r0
 1169 000a 0568     		ldr	r5, [r0]
ARM GAS  C:\Users\Jay\AppData\Local\Temp\cci0ZEVx.s 			page 21


 1170 000c 0669     		ldr	r6, [r0, #16]
 1171 000e 1CD1     		bne	.L304
 1172              	.L306:
 1173 0010 4FF0E508 		mov	r8, #229
 1174 0014 0127     		movs	r7, #1
 1175 0016 02E0     		b	.L305
 1176              	.L318:
 1177 0018 FFF7FEFF 		bl	dir_next
 1178 001c D8B9     		cbnz	r0, .L310
 1179              	.L305:
 1180 001e A369     		ldr	r3, [r4, #24]
 1181 0020 6A6B     		ldr	r2, [r5, #52]
 1182 0022 9342     		cmp	r3, r2
 1183 0024 2846     		mov	r0, r5
 1184 0026 1946     		mov	r1, r3
 1185 0028 02D0     		beq	.L311
 1186 002a FFF7FEFF 		bl	move_window.part.6
 1187 002e 90B9     		cbnz	r0, .L310
 1188              	.L311:
 1189 0030 E369     		ldr	r3, [r4, #28]
 1190 0032 83F80080 		strb	r8, [r3]
 1191 0036 EF70     		strb	r7, [r5, #3]
 1192 0038 2369     		ldr	r3, [r4, #16]
 1193 003a B342     		cmp	r3, r6
 1194 003c 4FF00001 		mov	r1, #0
 1195 0040 2046     		mov	r0, r4
 1196 0042 E9D3     		bcc	.L318
 1197 0044 0020     		movs	r0, #0
 1198 0046 BDE8F081 		pop	{r4, r5, r6, r7, r8, pc}
 1199              	.L304:
 1200 004a FFF7FEFF 		bl	dir_sdi
 1201 004e 0028     		cmp	r0, #0
 1202 0050 DED0     		beq	.L306
 1203 0052 BDE8F081 		pop	{r4, r5, r6, r7, r8, pc}
 1204              	.L310:
 1205 0056 0428     		cmp	r0, #4
 1206 0058 08BF     		it	eq
 1207 005a 0220     		moveq	r0, #2
 1208 005c BDE8F081 		pop	{r4, r5, r6, r7, r8, pc}
 1210              		.section	.text.dir_find,"ax",%progbits
 1211              		.align	1
 1212              		.p2align 2,,3
 1213              		.syntax unified
 1214              		.thumb
 1215              		.thumb_func
 1216              		.fpu fpv4-sp-d16
 1218              	dir_find:
 1219              		@ args = 0, pretend = 0, frame = 24
 1220              		@ frame_needed = 0, uses_anonymous_args = 0
 1221 0000 2DE9F04F 		push	{r4, r5, r6, r7, r8, r9, r10, fp, lr}
 1222 0004 0021     		movs	r1, #0
 1223 0006 87B0     		sub	sp, sp, #28
 1224 0008 0546     		mov	r5, r0
 1225 000a 0768     		ldr	r7, [r0]
 1226 000c FFF7FEFF 		bl	dir_sdi
 1227 0010 8246     		mov	r10, r0
 1228 0012 0028     		cmp	r0, #0
ARM GAS  C:\Users\Jay\AppData\Local\Temp\cci0ZEVx.s 			page 22


 1229 0014 45D1     		bne	.L321
 1230 0016 4FF0FF33 		mov	r3, #-1
 1231 001a 4FF0FF0B 		mov	fp, #255
 1232 001e EB62     		str	r3, [r5, #44]
 1233 0020 9846     		mov	r8, r3
 1234 0022 D946     		mov	r9, fp
 1235 0024 0BE0     		b	.L343
 1236              	.L378:
 1237 0026 0F2B     		cmp	r3, #15
 1238 0028 3FD0     		beq	.L327
 1239              	.L339:
 1240 002a C5F82C80 		str	r8, [r5, #44]
 1241 002e 4FF0FF09 		mov	r9, #255
 1242              	.L328:
 1243 0032 0021     		movs	r1, #0
 1244 0034 2846     		mov	r0, r5
 1245 0036 FFF7FEFF 		bl	dir_next
 1246 003a 0028     		cmp	r0, #0
 1247 003c 4CD1     		bne	.L345
 1248              	.L343:
 1249 003e A969     		ldr	r1, [r5, #24]
 1250 0040 7B6B     		ldr	r3, [r7, #52]
 1251 0042 9942     		cmp	r1, r3
 1252 0044 04D0     		beq	.L324
 1253 0046 3846     		mov	r0, r7
 1254 0048 FFF7FEFF 		bl	move_window.part.6
 1255 004c 0028     		cmp	r0, #0
 1256 004e 43D1     		bne	.L345
 1257              	.L324:
 1258 0050 EC69     		ldr	r4, [r5, #28]
 1259 0052 2678     		ldrb	r6, [r4]	@ zero_extendqisi2
 1260 0054 002E     		cmp	r6, #0
 1261 0056 5BD0     		beq	.L377
 1262 0058 E27A     		ldrb	r2, [r4, #11]	@ zero_extendqisi2
 1263 005a E52E     		cmp	r6, #229
 1264 005c 02F03F03 		and	r3, r2, #63
 1265 0060 AB71     		strb	r3, [r5, #6]
 1266 0062 E2D0     		beq	.L339
 1267 0064 1207     		lsls	r2, r2, #28
 1268 0066 DED4     		bmi	.L378
 1269 0068 0F2B     		cmp	r3, #15
 1270 006a 1ED0     		beq	.L327
 1271 006c B9F1000F 		cmp	r9, #0
 1272 0070 37D0     		beq	.L379
 1273              	.L337:
 1274 0072 95F82B30 		ldrb	r3, [r5, #43]	@ zero_extendqisi2
 1275 0076 DB07     		lsls	r3, r3, #31
 1276 0078 D7D4     		bmi	.L339
 1277 007a 2046     		mov	r0, r4
 1278 007c 2946     		mov	r1, r5
 1279 007e 10F80B3B 		ldrb	r3, [r0], #11	@ zero_extendqisi2
 1280 0082 11F8202F 		ldrb	r2, [r1, #32]!	@ zero_extendqisi2
 1281 0086 0134     		adds	r4, r4, #1
 1282 0088 9B1A     		subs	r3, r3, r2
 1283              	.L340:
 1284 008a 002B     		cmp	r3, #0
 1285 008c CDD1     		bne	.L339
ARM GAS  C:\Users\Jay\AppData\Local\Temp\cci0ZEVx.s 			page 23


 1286 008e 14F8013B 		ldrb	r3, [r4], #1	@ zero_extendqisi2
 1287 0092 11F8012F 		ldrb	r2, [r1, #1]!	@ zero_extendqisi2
 1288 0096 8442     		cmp	r4, r0
 1289 0098 A3EB0203 		sub	r3, r3, r2
 1290 009c F5D1     		bne	.L340
 1291 009e 002B     		cmp	r3, #0
 1292 00a0 C3D1     		bne	.L339
 1293              	.L321:
 1294 00a2 5046     		mov	r0, r10
 1295 00a4 07B0     		add	sp, sp, #28
 1296              		@ sp needed
 1297 00a6 BDE8F08F 		pop	{r4, r5, r6, r7, r8, r9, r10, fp, pc}
 1298              	.L327:
 1299 00aa 95F82B30 		ldrb	r3, [r5, #43]	@ zero_extendqisi2
 1300 00ae 5806     		lsls	r0, r3, #25
 1301 00b0 BFD4     		bmi	.L328
 1302 00b2 7106     		lsls	r1, r6, #25
 1303 00b4 27D5     		bpl	.L330
 1304 00b6 2B69     		ldr	r3, [r5, #16]
 1305 00b8 94F80DB0 		ldrb	fp, [r4, #13]	@ zero_extendqisi2
 1306 00bc EB62     		str	r3, [r5, #44]
 1307 00be 06F0BF06 		and	r6, r6, #191
 1308              	.L331:
 1309 00c2 637B     		ldrb	r3, [r4, #13]	@ zero_extendqisi2
 1310 00c4 5B45     		cmp	r3, fp
 1311 00c6 29D0     		beq	.L380
 1312              	.L352:
 1313 00c8 4FF0FF09 		mov	r9, #255
 1314              	.L381:
 1315 00cc 0021     		movs	r1, #0
 1316 00ce 2846     		mov	r0, r5
 1317 00d0 FFF7FEFF 		bl	dir_next
 1318 00d4 0028     		cmp	r0, #0
 1319 00d6 B2D0     		beq	.L343
 1320              	.L345:
 1321 00d8 8246     		mov	r10, r0
 1322 00da 5046     		mov	r0, r10
 1323 00dc 07B0     		add	sp, sp, #28
 1324              		@ sp needed
 1325 00de BDE8F08F 		pop	{r4, r5, r6, r7, r8, r9, r10, fp, pc}
 1326              	.L379:
 1327 00e2 04F10B00 		add	r0, r4, #11
 1328 00e6 2146     		mov	r1, r4
 1329              	.L338:
 1330 00e8 11F8012B 		ldrb	r2, [r1], #1	@ zero_extendqisi2
 1331 00ec 4FEAC913 		lsl	r3, r9, #7
 1332 00f0 43EA5909 		orr	r9, r3, r9, lsr #1
 1333 00f4 52FA89F9 		uxtab	r9, r2, r9
 1334 00f8 8142     		cmp	r1, r0
 1335 00fa 5FFA89F9 		uxtb	r9, r9
 1336 00fe F3D1     		bne	.L338
 1337 0100 CB45     		cmp	fp, r9
 1338 0102 B6D1     		bne	.L337
 1339 0104 CDE7     		b	.L321
 1340              	.L330:
 1341 0106 B145     		cmp	r9, r6
 1342 0108 DBD0     		beq	.L331
ARM GAS  C:\Users\Jay\AppData\Local\Temp\cci0ZEVx.s 			page 24


 1343 010a 4FF0FF09 		mov	r9, #255
 1344 010e DDE7     		b	.L381
 1345              	.L377:
 1346 0110 4FF0040A 		mov	r10, #4
 1347 0114 5046     		mov	r0, r10
 1348 0116 07B0     		add	sp, sp, #28
 1349              		@ sp needed
 1350 0118 BDE8F08F 		pop	{r4, r5, r6, r7, r8, r9, r10, fp, pc}
 1351              	.L380:
 1352 011c E27E     		ldrb	r2, [r4, #27]	@ zero_extendqisi2
 1353 011e A37E     		ldrb	r3, [r4, #26]	@ zero_extendqisi2
 1354 0120 53EA0223 		orrs	r3, r3, r2, lsl #8
 1355 0124 D0D1     		bne	.L352
 1356 0126 2378     		ldrb	r3, [r4]	@ zero_extendqisi2
 1357 0128 F968     		ldr	r1, [r7, #12]
 1358 012a 2A4A     		ldr	r2, .L383
 1359 012c 0491     		str	r1, [sp, #16]
 1360 012e 03F03F03 		and	r3, r3, #63
 1361 0132 013B     		subs	r3, r3, #1
 1362 0134 03EB4300 		add	r0, r3, r3, lsl #1
 1363 0138 03EB8003 		add	r3, r3, r0, lsl #2
 1364 013c 0121     		movs	r1, #1
 1365 013e CDE900B7 		strd	fp, r7, [sp]
 1366 0142 CDE902A5 		strd	r10, r5, [sp, #8]
 1367 0146 049F     		ldr	r7, [sp, #16]
 1368 0148 0596     		str	r6, [sp, #20]
 1369 014a 2546     		mov	r5, r4
 1370 014c 9146     		mov	r9, r2
 1371 014e 1C46     		mov	r4, r3
 1372 0150 0B46     		mov	r3, r1
 1373 0152 11E0     		b	.L335
 1374              	.L382:
 1375 0154 FF2C     		cmp	r4, #255
 1376 0156 1DD8     		bhi	.L351
 1377 0158 FFF7FEFF 		bl	ff_wtoupper
 1378 015c 8346     		mov	fp, r0
 1379 015e 37F81400 		ldrh	r0, [r7, r4, lsl #1]
 1380 0162 FFF7FEFF 		bl	ff_wtoupper
 1381 0166 8345     		cmp	fp, r0
 1382 0168 14D1     		bne	.L351
 1383 016a 3346     		mov	r3, r6
 1384 016c 5446     		mov	r4, r10
 1385              	.L333:
 1386 016e 1A4A     		ldr	r2, .L383+4
 1387 0170 4A45     		cmp	r2, r9
 1388 0172 16D0     		beq	.L334
 1389 0174 19F8011F 		ldrb	r1, [r9, #1]!	@ zero_extendqisi2
 1390              	.L335:
 1391 0178 6E5C     		ldrb	r6, [r5, r1]	@ zero_extendqisi2
 1392 017a 6818     		adds	r0, r5, r1
 1393 017c 04F1010A 		add	r10, r4, #1
 1394 0180 4078     		ldrb	r0, [r0, #1]	@ zero_extendqisi2
 1395 0182 46EA0026 		orr	r6, r6, r0, lsl #8
 1396 0186 3046     		mov	r0, r6
 1397 0188 002B     		cmp	r3, #0
 1398 018a E3D1     		bne	.L382
 1399 018c 4FF6FF72 		movw	r2, #65535
ARM GAS  C:\Users\Jay\AppData\Local\Temp\cci0ZEVx.s 			page 25


 1400 0190 9642     		cmp	r6, r2
 1401 0192 ECD0     		beq	.L333
 1402              	.L351:
 1403 0194 DDE900B7 		ldrd	fp, r7, [sp]
 1404 0198 DDE902A5 		ldrd	r10, r5, [sp, #8]
 1405 019c 4FF0FF09 		mov	r9, #255
 1406 01a0 47E7     		b	.L328
 1407              	.L334:
 1408 01a2 9C46     		mov	ip, r3
 1409 01a4 2346     		mov	r3, r4
 1410 01a6 2C46     		mov	r4, r5
 1411 01a8 DDE900B7 		ldrd	fp, r7, [sp]
 1412 01ac 2278     		ldrb	r2, [r4]	@ zero_extendqisi2
 1413 01ae 059E     		ldr	r6, [sp, #20]
 1414 01b0 5206     		lsls	r2, r2, #25
 1415 01b2 DDE902A5 		ldrd	r10, r5, [sp, #8]
 1416 01b6 08D5     		bpl	.L336
 1417 01b8 BCF1000F 		cmp	ip, #0
 1418 01bc 05D0     		beq	.L336
 1419 01be 049A     		ldr	r2, [sp, #16]
 1420 01c0 32F81330 		ldrh	r3, [r2, r3, lsl #1]
 1421 01c4 002B     		cmp	r3, #0
 1422 01c6 7FF47FAF 		bne	.L352
 1423              	.L336:
 1424 01ca 013E     		subs	r6, r6, #1
 1425 01cc 5FFA86F9 		uxtb	r9, r6
 1426 01d0 2FE7     		b	.L328
 1427              	.L384:
 1428 01d2 00BF     		.align	2
 1429              	.L383:
 1430 01d4 00000000 		.word	.LANCHOR1
 1431 01d8 0C000000 		.word	.LANCHOR1+12
 1433              		.section	.text.follow_path,"ax",%progbits
 1434              		.align	1
 1435              		.p2align 2,,3
 1436              		.syntax unified
 1437              		.thumb
 1438              		.thumb_func
 1439              		.fpu fpv4-sp-d16
 1441              	follow_path:
 1442              		@ args = 0, pretend = 0, frame = 8
 1443              		@ frame_needed = 0, uses_anonymous_args = 0
 1444 0000 2DE9F04F 		push	{r4, r5, r6, r7, r8, r9, r10, fp, lr}
 1445 0004 0B78     		ldrb	r3, [r1]	@ zero_extendqisi2
 1446 0006 D0F800B0 		ldr	fp, [r0]
 1447 000a 2F2B     		cmp	r3, #47
 1448 000c 83B0     		sub	sp, sp, #12
 1449 000e 0D46     		mov	r5, r1
 1450 0010 8046     		mov	r8, r0
 1451 0012 13D0     		beq	.L388
 1452 0014 5C2B     		cmp	r3, #92
 1453 0016 11D0     		beq	.L388
 1454 0018 DBF81830 		ldr	r3, [fp, #24]
 1455 001c 8360     		str	r3, [r0, #8]
 1456 001e 2878     		ldrb	r0, [r5]	@ zero_extendqisi2
 1457 0020 1F28     		cmp	r0, #31
 1458 0022 15D8     		bhi	.L456
ARM GAS  C:\Users\Jay\AppData\Local\Temp\cci0ZEVx.s 			page 26


 1459              	.L558:
 1460 0024 8023     		movs	r3, #128
 1461 0026 4046     		mov	r0, r8
 1462 0028 0021     		movs	r1, #0
 1463 002a 88F82B30 		strb	r3, [r8, #43]
 1464 002e 03B0     		add	sp, sp, #12
 1465              		@ sp needed
 1466 0030 BDE8F04F 		pop	{r4, r5, r6, r7, r8, r9, r10, fp, lr}
 1467 0034 FFF7FEBF 		b	dir_sdi
 1468              	.L389:
 1469 0038 15F8013F 		ldrb	r3, [r5, #1]!	@ zero_extendqisi2
 1470              	.L388:
 1471 003c 2F2B     		cmp	r3, #47
 1472 003e FBD0     		beq	.L389
 1473 0040 5C2B     		cmp	r3, #92
 1474 0042 F9D0     		beq	.L389
 1475 0044 0023     		movs	r3, #0
 1476 0046 C8F80830 		str	r3, [r8, #8]
 1477 004a 2878     		ldrb	r0, [r5]	@ zero_extendqisi2
 1478 004c 1F28     		cmp	r0, #31
 1479 004e E9D9     		bls	.L558
 1480              	.L456:
 1481 0050 5B46     		mov	r3, fp
 1482              	.L390:
 1483 0052 DE68     		ldr	r6, [r3, #12]
 1484 0054 6F1C     		adds	r7, r5, #1
 1485 0056 A6F10209 		sub	r9, r6, #2
 1486 005a 0024     		movs	r4, #0
 1487              	.L397:
 1488 005c 80B2     		uxth	r0, r0
 1489 005e 3D46     		mov	r5, r7
 1490 0060 E0B9     		cbnz	r0, .L559
 1491              	.L459:
 1492 0062 012C     		cmp	r4, #1
 1493 0064 4FF00407 		mov	r7, #4
 1494 0068 3AD0     		beq	.L560
 1495              	.L400:
 1496 006a 022C     		cmp	r4, #2
 1497 006c 4BD0     		beq	.L561
 1498 006e 7CB1     		cbz	r4, .L551
 1499 0070 04F10042 		add	r2, r4, #-2147483648
 1500 0074 013A     		subs	r2, r2, #1
 1501 0076 36F81230 		ldrh	r3, [r6, r2, lsl #1]
 1502              	.L402:
 1503 007a 06EB4202 		add	r2, r6, r2, lsl #1
 1504 007e 01E0     		b	.L411
 1505              	.L562:
 1506 0080 32F8023D 		ldrh	r3, [r2, #-2]!
 1507              	.L411:
 1508 0084 202B     		cmp	r3, #32
 1509 0086 01D0     		beq	.L409
 1510 0088 2E2B     		cmp	r3, #46
 1511 008a 42D1     		bne	.L410
 1512              	.L409:
 1513 008c 013C     		subs	r4, r4, #1
 1514 008e F7D1     		bne	.L562
 1515              	.L551:
ARM GAS  C:\Users\Jay\AppData\Local\Temp\cci0ZEVx.s 			page 27


 1516 0090 0023     		movs	r3, #0
 1517 0092 3380     		strh	r3, [r6]	@ movhi
 1518              	.L557:
 1519 0094 0620     		movs	r0, #6
 1520              	.L468:
 1521 0096 03B0     		add	sp, sp, #12
 1522              		@ sp needed
 1523 0098 BDE8F08F 		pop	{r4, r5, r6, r7, r8, r9, r10, fp, pc}
 1524              	.L559:
 1525 009c 40F2B511 		movw	r1, #437
 1526 00a0 FFF7FEFF 		bl	ff_oem2uni
 1527 00a4 0028     		cmp	r0, #0
 1528 00a6 F5D0     		beq	.L557
 1529 00a8 1F28     		cmp	r0, #31
 1530 00aa DAD9     		bls	.L459
 1531 00ac 2F28     		cmp	r0, #47
 1532 00ae 0BD0     		beq	.L398
 1533 00b0 5C28     		cmp	r0, #92
 1534 00b2 09D0     		beq	.L398
 1535 00b4 7F28     		cmp	r0, #127
 1536 00b6 1AD9     		bls	.L563
 1537              	.L394:
 1538 00b8 FF2C     		cmp	r4, #255
 1539 00ba EBD0     		beq	.L557
 1540 00bc 29F8020F 		strh	r0, [r9, #2]!	@ movhi
 1541 00c0 0134     		adds	r4, r4, #1
 1542 00c2 17F8010B 		ldrb	r0, [r7], #1	@ zero_extendqisi2
 1543 00c6 C9E7     		b	.L397
 1544              	.L398:
 1545 00c8 3B78     		ldrb	r3, [r7]	@ zero_extendqisi2
 1546 00ca 2F2B     		cmp	r3, #47
 1547 00cc 3D46     		mov	r5, r7
 1548 00ce 07F10107 		add	r7, r7, #1
 1549 00d2 F9D0     		beq	.L398
 1550 00d4 5C2B     		cmp	r3, #92
 1551 00d6 F7D0     		beq	.L398
 1552 00d8 012C     		cmp	r4, #1
 1553 00da 4FF00007 		mov	r7, #0
 1554 00de C4D1     		bne	.L400
 1555              	.L560:
 1556 00e0 3388     		ldrh	r3, [r6]
 1557 00e2 2E2B     		cmp	r3, #46
 1558 00e4 00F00981 		beq	.L401
 1559 00e8 4FF00042 		mov	r2, #-2147483648
 1560 00ec C5E7     		b	.L402
 1561              	.L563:
 1562 00ee 2228     		cmp	r0, #34
 1563 00f0 D0D0     		beq	.L557
 1564 00f2 9E4A     		ldr	r2, .L568
 1565 00f4 2A23     		movs	r3, #42
 1566 00f6 03E0     		b	.L395
 1567              	.L396:
 1568 00f8 12F8013F 		ldrb	r3, [r2, #1]!	@ zero_extendqisi2
 1569 00fc 002B     		cmp	r3, #0
 1570 00fe DBD0     		beq	.L394
 1571              	.L395:
 1572 0100 9842     		cmp	r0, r3
ARM GAS  C:\Users\Jay\AppData\Local\Temp\cci0ZEVx.s 			page 28


 1573 0102 F9D1     		bne	.L396
 1574 0104 C6E7     		b	.L557
 1575              	.L561:
 1576 0106 7388     		ldrh	r3, [r6, #2]
 1577 0108 2E2B     		cmp	r3, #46
 1578 010a 00F0F280 		beq	.L404
 1579              	.L555:
 1580 010e 984A     		ldr	r2, .L568+4
 1581 0110 B3E7     		b	.L402
 1582              	.L410:
 1583 0112 0022     		movs	r2, #0
 1584 0114 26F81420 		strh	r2, [r6, r4, lsl #1]	@ movhi
 1585 0118 3188     		ldrh	r1, [r6]
 1586 011a 2029     		cmp	r1, #32
 1587 011c 06EB4403 		add	r3, r6, r4, lsl #1
 1588 0120 40F0C480 		bne	.L564
 1589 0124 3146     		mov	r1, r6
 1590              	.L412:
 1591 0126 31F8020F 		ldrh	r0, [r1, #2]!
 1592 012a 2028     		cmp	r0, #32
 1593 012c 02F10102 		add	r2, r2, #1
 1594 0130 F9D0     		beq	.L412
 1595              	.L413:
 1596 0132 47F00307 		orr	r7, r7, #3
 1597              	.L415:
 1598 0136 33F8021D 		ldrh	r1, [r3, #-2]!
 1599 013a 2E29     		cmp	r1, #46
 1600 013c 01D0     		beq	.L416
 1601 013e 013C     		subs	r4, r4, #1
 1602 0140 F9D1     		bne	.L415
 1603              	.L416:
 1604 0142 08F12003 		add	r3, r8, #32
 1605 0146 08F12B00 		add	r0, r8, #43
 1606 014a 2021     		movs	r1, #32
 1607              	.L418:
 1608 014c 03F8011B 		strb	r1, [r3], #1
 1609 0150 8342     		cmp	r3, r0
 1610 0152 FBD1     		bne	.L418
 1611 0154 4FF00009 		mov	r9, #0
 1612 0158 CA46     		mov	r10, r9
 1613 015a 0823     		movs	r3, #8
 1614              	.L419:
 1615 015c 36F81200 		ldrh	r0, [r6, r2, lsl #1]
 1616 0160 0132     		adds	r2, r2, #1
 1617 0162 A0B3     		cbz	r0, .L420
 1618 0164 2028     		cmp	r0, #32
 1619 0166 00F08E80 		beq	.L421
 1620 016a 2E28     		cmp	r0, #46
 1621 016c 00F08E80 		beq	.L565
 1622 0170 9945     		cmp	r9, r3
 1623 0172 24D2     		bcs	.L425
 1624 0174 A242     		cmp	r2, r4
 1625 0176 00F08B80 		beq	.L452
 1626 017a 7F28     		cmp	r0, #127
 1627 017c 00F29A80 		bhi	.L566
 1628              	.L431:
 1629 0180 2B28     		cmp	r0, #43
ARM GAS  C:\Users\Jay\AppData\Local\Temp\cci0ZEVx.s 			page 29


 1630 0182 00F0AC80 		beq	.L436
 1631 0186 DFF8F0C1 		ldr	ip, .L568+12
 1632 018a 2C21     		movs	r1, #44
 1633              	.L437:
 1634 018c 8142     		cmp	r1, r0
 1635 018e 00F0A680 		beq	.L436
 1636 0192 1CF8011F 		ldrb	r1, [ip, #1]!	@ zero_extendqisi2
 1637 0196 0029     		cmp	r1, #0
 1638 0198 F8D1     		bne	.L437
 1639 019a A0F14101 		sub	r1, r0, #65
 1640 019e 89B2     		uxth	r1, r1
 1641 01a0 1929     		cmp	r1, #25
 1642 01a2 01D8     		bhi	.L455
 1643 01a4 4AF0020A 		orr	r10, r10, #2
 1644              	.L455:
 1645 01a8 A0F16101 		sub	r1, r0, #97
 1646 01ac 89B2     		uxth	r1, r1
 1647 01ae 1929     		cmp	r1, #25
 1648 01b0 97BF     		itett	ls
 1649 01b2 2038     		subls	r0, r0, #32
 1650 01b4 C0B2     		uxtbhi	r0, r0
 1651 01b6 C0B2     		uxtbls	r0, r0
 1652 01b8 4AF0010A 		orrls	r10, r10, #1
 1653 01bc 92E0     		b	.L435
 1654              	.L425:
 1655 01be 0B2B     		cmp	r3, #11
 1656 01c0 00F0C280 		beq	.L453
 1657 01c4 A242     		cmp	r2, r4
 1658 01c6 65D0     		beq	.L430
 1659 01c8 47F00307 		orr	r7, r7, #3
 1660 01cc 62D9     		bls	.L430
 1661              	.L420:
 1662 01ce 98F82020 		ldrb	r2, [r8, #32]	@ zero_extendqisi2
 1663 01d2 E52A     		cmp	r2, #229
 1664 01d4 04BF     		itt	eq
 1665 01d6 0522     		moveq	r2, #5
 1666 01d8 88F82020 		strbeq	r2, [r8, #32]
 1667 01dc 082B     		cmp	r3, #8
 1668 01de 04BF     		itt	eq
 1669 01e0 4FEA8A0A 		lsleq	r10, r10, #2
 1670 01e4 5FFA8AFA 		uxtbeq	r10, r10
 1671              	.L429:
 1672 01e8 0AF00C03 		and	r3, r10, #12
 1673 01ec 0C2B     		cmp	r3, #12
 1674 01ee 5AD0     		beq	.L442
 1675 01f0 0AF00303 		and	r3, r10, #3
 1676 01f4 032B     		cmp	r3, #3
 1677 01f6 56D0     		beq	.L442
 1678 01f8 B807     		lsls	r0, r7, #30
 1679 01fa 09D4     		bmi	.L444
 1680 01fc 1AF0010F 		tst	r10, #1
 1681 0200 18BF     		it	ne
 1682 0202 47F01007 		orrne	r7, r7, #16
 1683 0206 1AF0040F 		tst	r10, #4
 1684 020a 18BF     		it	ne
 1685 020c 47F00807 		orrne	r7, r7, #8
 1686              	.L444:
ARM GAS  C:\Users\Jay\AppData\Local\Temp\cci0ZEVx.s 			page 30


 1687 0210 88F82B70 		strb	r7, [r8, #43]
 1688              	.L408:
 1689 0214 4046     		mov	r0, r8
 1690 0216 FFF7FEFF 		bl	dir_find
 1691 021a 98F82B30 		ldrb	r3, [r8, #43]	@ zero_extendqisi2
 1692 021e 78B1     		cbz	r0, .L446
 1693 0220 0428     		cmp	r0, #4
 1694 0222 7FF438AF 		bne	.L468
 1695 0226 9906     		lsls	r1, r3, #26
 1696 0228 03F00402 		and	r2, r3, #4
 1697 022c 40F19980 		bpl	.L447
 1698 0230 2AB3     		cbz	r2, .L448
 1699 0232 8023     		movs	r3, #128
 1700 0234 0020     		movs	r0, #0
 1701 0236 88F82B30 		strb	r3, [r8, #43]
 1702 023a 03B0     		add	sp, sp, #12
 1703              		@ sp needed
 1704 023c BDE8F08F 		pop	{r4, r5, r6, r7, r8, r9, r10, fp, pc}
 1705              	.L446:
 1706 0240 5A07     		lsls	r2, r3, #29
 1707 0242 3FF528AF 		bmi	.L468
 1708 0246 98F80630 		ldrb	r3, [r8, #6]	@ zero_extendqisi2
 1709 024a DB06     		lsls	r3, r3, #27
 1710 024c 40F18780 		bpl	.L467
 1711 0250 D8F81030 		ldr	r3, [r8, #16]
 1712 0254 9BF80010 		ldrb	r1, [fp]	@ zero_extendqisi2
 1713 0258 C3F30802 		ubfx	r2, r3, #0, #9
 1714 025c 0BF13803 		add	r3, fp, #56
 1715 0260 1344     		add	r3, r3, r2
 1716 0262 0329     		cmp	r1, #3
 1717 0264 D87E     		ldrb	r0, [r3, #27]	@ zero_extendqisi2
 1718 0266 9A7E     		ldrb	r2, [r3, #26]	@ zero_extendqisi2
 1719 0268 42EA0022 		orr	r2, r2, r0, lsl #8
 1720 026c 05D1     		bne	.L449
 1721 026e 597D     		ldrb	r1, [r3, #21]	@ zero_extendqisi2
 1722 0270 1B7D     		ldrb	r3, [r3, #20]	@ zero_extendqisi2
 1723 0272 43EA0123 		orr	r3, r3, r1, lsl #8
 1724 0276 42EA0342 		orr	r2, r2, r3, lsl #16
 1725              	.L449:
 1726 027a C8F80820 		str	r2, [r8, #8]
 1727              	.L448:
 1728 027e D8F80030 		ldr	r3, [r8]
 1729 0282 2878     		ldrb	r0, [r5]	@ zero_extendqisi2
 1730 0284 E5E6     		b	.L390
 1731              	.L421:
 1732 0286 47F00307 		orr	r7, r7, #3
 1733 028a 67E7     		b	.L419
 1734              	.L565:
 1735 028c A242     		cmp	r2, r4
 1736 028e FAD1     		bne	.L421
 1737              	.L452:
 1738 0290 0B2B     		cmp	r3, #11
 1739 0292 59D0     		beq	.L453
 1740              	.L430:
 1741 0294 4FEA8A0A 		lsl	r10, r10, #2
 1742 0298 5FFA8AFA 		uxtb	r10, r10
 1743 029c 2246     		mov	r2, r4
ARM GAS  C:\Users\Jay\AppData\Local\Temp\cci0ZEVx.s 			page 31


 1744 029e 0B23     		movs	r3, #11
 1745 02a0 4FF00809 		mov	r9, #8
 1746 02a4 5AE7     		b	.L419
 1747              	.L442:
 1748 02a6 47F00207 		orr	r7, r7, #2
 1749 02aa B1E7     		b	.L444
 1750              	.L564:
 1751 02ac 2E29     		cmp	r1, #46
 1752 02ae 7FF442AF 		bne	.L415
 1753 02b2 3EE7     		b	.L413
 1754              	.L566:
 1755 02b4 40F2B511 		movw	r1, #437
 1756 02b8 CDE90023 		strd	r2, r3, [sp]
 1757 02bc FFF7FEFF 		bl	ff_uni2oem
 1758 02c0 10F0800F 		tst	r0, #128
 1759 02c4 47F0020E 		orr	lr, r7, #2
 1760 02c8 DDE90023 		ldrd	r2, r3, [sp]
 1761 02cc 28D0     		beq	.L432
 1762 02ce 00F07F00 		and	r0, r0, #127
 1763 02d2 2849     		ldr	r1, .L568+8
 1764 02d4 085C     		ldrb	r0, [r1, r0]	@ zero_extendqisi2
 1765              	.L433:
 1766 02d6 7746     		mov	r7, lr
 1767 02d8 0028     		cmp	r0, #0
 1768 02da 7FF451AF 		bne	.L431
 1769              	.L436:
 1770 02de 47F00307 		orr	r7, r7, #3
 1771 02e2 5F20     		movs	r0, #95
 1772              	.L435:
 1773 02e4 08EB0901 		add	r1, r8, r9
 1774 02e8 09F10109 		add	r9, r9, #1
 1775 02ec 81F82000 		strb	r0, [r1, #32]
 1776 02f0 34E7     		b	.L419
 1777              	.L404:
 1778 02f2 3288     		ldrh	r2, [r6]
 1779 02f4 2E2A     		cmp	r2, #46
 1780 02f6 7FF40AAF 		bne	.L555
 1781              	.L401:
 1782 02fa 0023     		movs	r3, #0
 1783 02fc 26F81430 		strh	r3, [r6, r4, lsl #1]	@ movhi
 1784 0300 08F11F02 		add	r2, r8, #31
 1785              	.L407:
 1786 0304 9C42     		cmp	r4, r3
 1787 0306 94BF     		ite	ls
 1788 0308 2021     		movls	r1, #32
 1789 030a 2E21     		movhi	r1, #46
 1790 030c 0133     		adds	r3, r3, #1
 1791 030e 0B2B     		cmp	r3, #11
 1792 0310 02F8011F 		strb	r1, [r2, #1]!
 1793 0314 F6D1     		bne	.L407
 1794 0316 47F02007 		orr	r7, r7, #32
 1795 031a 88F82B70 		strb	r7, [r8, #43]
 1796 031e 79E7     		b	.L408
 1797              	.L432:
 1798 0320 FF28     		cmp	r0, #255
 1799 0322 D8D9     		bls	.L433
 1800 0324 591E     		subs	r1, r3, #1
ARM GAS  C:\Users\Jay\AppData\Local\Temp\cci0ZEVx.s 			page 32


 1801 0326 8945     		cmp	r9, r1
 1802 0328 0AD2     		bcs	.L567
 1803 032a 08EB0901 		add	r1, r8, r9
 1804 032e 4FEA102C 		lsr	ip, r0, #8
 1805 0332 7746     		mov	r7, lr
 1806 0334 09F10109 		add	r9, r9, #1
 1807 0338 81F820C0 		strb	ip, [r1, #32]
 1808 033c C0B2     		uxtb	r0, r0
 1809 033e D1E7     		b	.L435
 1810              	.L567:
 1811 0340 47F00307 		orr	r7, r7, #3
 1812 0344 9946     		mov	r9, r3
 1813 0346 09E7     		b	.L419
 1814              	.L453:
 1815 0348 98F82030 		ldrb	r3, [r8, #32]	@ zero_extendqisi2
 1816 034c E52B     		cmp	r3, #229
 1817 034e 47F00307 		orr	r7, r7, #3
 1818 0352 7FF449AF 		bne	.L429
 1819 0356 0523     		movs	r3, #5
 1820 0358 88F82030 		strb	r3, [r8, #32]
 1821 035c 44E7     		b	.L429
 1822              	.L467:
 1823 035e 0520     		movs	r0, #5
 1824 0360 99E6     		b	.L468
 1825              	.L447:
 1826 0362 002A     		cmp	r2, #0
 1827 0364 08BF     		it	eq
 1828 0366 0520     		moveq	r0, #5
 1829 0368 95E6     		b	.L468
 1830              	.L569:
 1831 036a 00BF     		.align	2
 1832              	.L568:
 1833 036c 01000000 		.word	.LC1+1
 1834 0370 01000080 		.word	-2147483647
 1835 0374 00000000 		.word	.LANCHOR2
 1836 0378 01000000 		.word	.LC2+1
 1838              		.section	.text.dir_register,"ax",%progbits
 1839              		.align	1
 1840              		.p2align 2,,3
 1841              		.syntax unified
 1842              		.thumb
 1843              		.thumb_func
 1844              		.fpu fpv4-sp-d16
 1846              	dir_register:
 1847              		@ args = 0, pretend = 0, frame = 40
 1848              		@ frame_needed = 0, uses_anonymous_args = 0
 1849 0000 2DE9F04F 		push	{r4, r5, r6, r7, r8, r9, r10, fp, lr}
 1850 0004 90F82B30 		ldrb	r3, [r0, #43]	@ zero_extendqisi2
 1851 0008 13F0A007 		ands	r7, r3, #160
 1852 000c 8BB0     		sub	sp, sp, #44
 1853 000e 40F0F080 		bne	.L614
 1854 0012 D0F800A0 		ldr	r10, [r0]
 1855 0016 DAF80C30 		ldr	r3, [r10, #12]
 1856 001a 1A88     		ldrh	r2, [r3]
 1857 001c 002A     		cmp	r2, #0
 1858 001e 00F07C81 		beq	.L615
 1859              	.L573:
ARM GAS  C:\Users\Jay\AppData\Local\Temp\cci0ZEVx.s 			page 33


 1860 0022 33F8022F 		ldrh	r2, [r3, #2]!
 1861 0026 0137     		adds	r7, r7, #1
 1862 0028 002A     		cmp	r2, #0
 1863 002a FAD1     		bne	.L573
 1864              	.L572:
 1865 002c 00F12005 		add	r5, r0, #32
 1866 0030 0446     		mov	r4, r0
 1867 0032 2946     		mov	r1, r5
 1868 0034 07A8     		add	r0, sp, #28
 1869 0036 0C22     		movs	r2, #12
 1870 0038 FFF7FEFF 		bl	mem_cpy.part.0
 1871 003c 9DF82730 		ldrb	r3, [sp, #39]	@ zero_extendqisi2
 1872 0040 DE07     		lsls	r6, r3, #31
 1873 0042 54D4     		bmi	.L663
 1874 0044 9B07     		lsls	r3, r3, #30
 1875 0046 40F1D280 		bpl	.L620
 1876              	.L666:
 1877 004a B54B     		ldr	r3, .L669
 1878 004c 0C37     		adds	r7, r7, #12
 1879 004e A3FB0737 		umull	r3, r7, r3, r7
 1880 0052 BF08     		lsrs	r7, r7, #2
 1881 0054 0137     		adds	r7, r7, #1
 1882              	.L588:
 1883 0056 0021     		movs	r1, #0
 1884 0058 2046     		mov	r0, r4
 1885 005a D4F80080 		ldr	r8, [r4]
 1886 005e FFF7FEFF 		bl	dir_sdi
 1887 0062 8346     		mov	fp, r0
 1888 0064 0028     		cmp	r0, #0
 1889 0066 40F0AE80 		bne	.L589
 1890 006a 0646     		mov	r6, r0
 1891 006c 08E0     		b	.L597
 1892              	.L660:
 1893 006e BBB1     		cbz	r3, .L591
 1894 0070 0026     		movs	r6, #0
 1895              	.L594:
 1896 0072 0121     		movs	r1, #1
 1897 0074 2046     		mov	r0, r4
 1898 0076 FFF7FEFF 		bl	dir_next
 1899 007a 0028     		cmp	r0, #0
 1900 007c 40F0A280 		bne	.L621
 1901              	.L597:
 1902 0080 A369     		ldr	r3, [r4, #24]
 1903 0082 D8F83420 		ldr	r2, [r8, #52]
 1904 0086 9342     		cmp	r3, r2
 1905 0088 4046     		mov	r0, r8
 1906 008a 1946     		mov	r1, r3
 1907 008c 04D0     		beq	.L593
 1908 008e FFF7FEFF 		bl	move_window.part.6
 1909 0092 0028     		cmp	r0, #0
 1910 0094 40F09680 		bne	.L621
 1911              	.L593:
 1912 0098 E369     		ldr	r3, [r4, #28]
 1913 009a 1B78     		ldrb	r3, [r3]	@ zero_extendqisi2
 1914 009c E52B     		cmp	r3, #229
 1915 009e E6D1     		bne	.L660
 1916              	.L591:
ARM GAS  C:\Users\Jay\AppData\Local\Temp\cci0ZEVx.s 			page 34


 1917 00a0 0136     		adds	r6, r6, #1
 1918 00a2 B742     		cmp	r7, r6
 1919 00a4 E5D1     		bne	.L594
 1920 00a6 7B1E     		subs	r3, r7, #1
 1921 00a8 0093     		str	r3, [sp]
 1922 00aa 40F0B380 		bne	.L664
 1923              	.L596:
 1924 00ae A169     		ldr	r1, [r4, #24]
 1925 00b0 DAF83430 		ldr	r3, [r10, #52]
 1926 00b4 9942     		cmp	r1, r3
 1927 00b6 40F0A280 		bne	.L609
 1928              	.L611:
 1929 00ba E369     		ldr	r3, [r4, #28]
 1930 00bc 0021     		movs	r1, #0
 1931 00be 03F12002 		add	r2, r3, #32
 1932              	.L610:
 1933 00c2 03F8011B 		strb	r1, [r3], #1
 1934 00c6 9342     		cmp	r3, r2
 1935 00c8 FBD1     		bne	.L610
 1936 00ca 2946     		mov	r1, r5
 1937 00cc 0B22     		movs	r2, #11
 1938 00ce E069     		ldr	r0, [r4, #28]
 1939 00d0 FFF7FEFF 		bl	mem_cpy.part.0
 1940 00d4 94F82B30 		ldrb	r3, [r4, #43]	@ zero_extendqisi2
 1941 00d8 E169     		ldr	r1, [r4, #28]
 1942 00da 03F01803 		and	r3, r3, #24
 1943 00de 0122     		movs	r2, #1
 1944 00e0 0B73     		strb	r3, [r1, #12]
 1945 00e2 8AF80320 		strb	r2, [r10, #3]
 1946              	.L627:
 1947 00e6 5846     		mov	r0, fp
 1948 00e8 0BB0     		add	sp, sp, #44
 1949              		@ sp needed
 1950 00ea BDE8F08F 		pop	{r4, r5, r6, r7, r8, r9, r10, fp, pc}
 1951              	.L663:
 1952 00ee 4023     		movs	r3, #64
 1953 00f0 84F82B30 		strb	r3, [r4, #43]
 1954 00f4 0B22     		movs	r2, #11
 1955 00f6 07A9     		add	r1, sp, #28
 1956 00f8 2846     		mov	r0, r5
 1957 00fa 4FF00108 		mov	r8, #1
 1958 00fe 894E     		ldr	r6, .L669+4
 1959 0100 FFF7FEFF 		bl	mem_cpy.part.0
 1960 0104 4346     		mov	r3, r8
 1961              	.L575:
 1962 0106 0DF11B0C 		add	ip, sp, #27
 1963 010a 0722     		movs	r2, #7
 1964              	.L581:
 1965 010c 03F00F00 		and	r0, r3, #15
 1966 0110 00F13001 		add	r1, r0, #48
 1967 0114 3929     		cmp	r1, #57
 1968 0116 88BF     		it	hi
 1969 0118 00F13701 		addhi	r1, r0, #55
 1970 011c 1B09     		lsrs	r3, r3, #4
 1971 011e 02F1FF32 		add	r2, r2, #-1
 1972 0122 0CF80119 		strb	r1, [ip], #-1
 1973 0126 F1D1     		bne	.L581
ARM GAS  C:\Users\Jay\AppData\Local\Temp\cci0ZEVx.s 			page 35


 1974 0128 0AA9     		add	r1, sp, #40
 1975 012a 1144     		add	r1, r1, r2
 1976 012c 7E20     		movs	r0, #126
 1977 012e 01F8140C 		strb	r0, [r1, #-20]
 1978 0132 002A     		cmp	r2, #0
 1979 0134 50D0     		beq	.L618
 1980 0136 94F82010 		ldrb	r1, [r4, #32]	@ zero_extendqisi2
 1981 013a 2029     		cmp	r1, #32
 1982 013c 08D0     		beq	.L582
 1983 013e 2946     		mov	r1, r5
 1984 0140 03E0     		b	.L583
 1985              	.L665:
 1986 0142 11F8010F 		ldrb	r0, [r1, #1]!	@ zero_extendqisi2
 1987 0146 2028     		cmp	r0, #32
 1988 0148 02D0     		beq	.L582
 1989              	.L583:
 1990 014a 0133     		adds	r3, r3, #1
 1991 014c 9A42     		cmp	r2, r3
 1992 014e F8D1     		bne	.L665
 1993              	.L582:
 1994 0150 591E     		subs	r1, r3, #1
 1995 0152 2944     		add	r1, r1, r5
 1996              	.L585:
 1997 0154 0AA8     		add	r0, sp, #40
 1998 0156 1044     		add	r0, r0, r2
 1999 0158 072A     		cmp	r2, #7
 2000 015a 03F10103 		add	r3, r3, #1
 2001 015e 96BF     		itet	ls
 2002 0160 10F8140C 		ldrbls	r0, [r0, #-20]	@ zero_extendqisi2
 2003 0164 2020     		movhi	r0, #32
 2004 0166 0132     		addls	r2, r2, #1
 2005 0168 072B     		cmp	r3, #7
 2006 016a 01F8010F 		strb	r0, [r1, #1]!
 2007 016e F1D9     		bls	.L585
 2008 0170 2046     		mov	r0, r4
 2009 0172 FFF7FEFF 		bl	dir_find
 2010 0176 8346     		mov	fp, r0
 2011 0178 80BB     		cbnz	r0, .L586
 2012 017a 08F10108 		add	r8, r8, #1
 2013 017e B8F1640F 		cmp	r8, #100
 2014 0182 23D0     		beq	.L613
 2015 0184 0B22     		movs	r2, #11
 2016 0186 07A9     		add	r1, sp, #28
 2017 0188 2846     		mov	r0, r5
 2018 018a DAF80C90 		ldr	r9, [r10, #12]
 2019 018e FFF7FEFF 		bl	mem_cpy.part.0
 2020 0192 B8F1050F 		cmp	r8, #5
 2021 0196 13D9     		bls	.L616
 2022 0198 A9F1020C 		sub	ip, r9, #2
 2023 019c 4346     		mov	r3, r8
 2024              	.L577:
 2025 019e 3CF8022F 		ldrh	r2, [ip, #2]!
 2026 01a2 002A     		cmp	r2, #0
 2027 01a4 AFD0     		beq	.L575
 2028 01a6 1021     		movs	r1, #16
 2029              	.L579:
 2030 01a8 02F00100 		and	r0, r2, #1
ARM GAS  C:\Users\Jay\AppData\Local\Temp\cci0ZEVx.s 			page 36


 2031 01ac 00EB4303 		add	r3, r0, r3, lsl #1
 2032 01b0 D803     		lsls	r0, r3, #15
 2033 01b2 48BF     		it	mi
 2034 01b4 7340     		eormi	r3, r3, r6
 2035 01b6 0139     		subs	r1, r1, #1
 2036 01b8 4FEA5202 		lsr	r2, r2, #1
 2037 01bc F4D1     		bne	.L579
 2038 01be EEE7     		b	.L577
 2039              	.L616:
 2040 01c0 4346     		mov	r3, r8
 2041 01c2 A0E7     		b	.L575
 2042              	.L621:
 2043 01c4 8346     		mov	fp, r0
 2044              	.L589:
 2045 01c6 BBF1040F 		cmp	fp, #4
 2046 01ca 8CD1     		bne	.L627
 2047              	.L613:
 2048 01cc 4FF0070B 		mov	fp, #7
 2049 01d0 5846     		mov	r0, fp
 2050 01d2 0BB0     		add	sp, sp, #44
 2051              		@ sp needed
 2052 01d4 BDE8F08F 		pop	{r4, r5, r6, r7, r8, r9, r10, fp, pc}
 2053              	.L618:
 2054 01d8 1346     		mov	r3, r2
 2055 01da B9E7     		b	.L582
 2056              	.L586:
 2057 01dc 0428     		cmp	r0, #4
 2058 01de 82D1     		bne	.L627
 2059 01e0 9DF82730 		ldrb	r3, [sp, #39]	@ zero_extendqisi2
 2060 01e4 84F82B30 		strb	r3, [r4, #43]
 2061 01e8 9B07     		lsls	r3, r3, #30
 2062 01ea 3FF52EAF 		bmi	.L666
 2063              	.L620:
 2064 01ee 0127     		movs	r7, #1
 2065 01f0 31E7     		b	.L588
 2066              	.L614:
 2067 01f2 4FF0060B 		mov	fp, #6
 2068 01f6 5846     		mov	r0, fp
 2069 01f8 0BB0     		add	sp, sp, #44
 2070              		@ sp needed
 2071 01fa BDE8F08F 		pop	{r4, r5, r6, r7, r8, r9, r10, fp, pc}
 2072              	.L609:
 2073 01fe 5046     		mov	r0, r10
 2074 0200 FFF7FEFF 		bl	move_window.part.6
 2075 0204 0028     		cmp	r0, #0
 2076 0206 3FF458AF 		beq	.L611
 2077              	.L626:
 2078 020a 8346     		mov	fp, r0
 2079 020c 5846     		mov	r0, fp
 2080 020e 0BB0     		add	sp, sp, #44
 2081              		@ sp needed
 2082 0210 BDE8F08F 		pop	{r4, r5, r6, r7, r8, r9, r10, fp, pc}
 2083              	.L664:
 2084 0214 2169     		ldr	r1, [r4, #16]
 2085 0216 009B     		ldr	r3, [sp]
 2086 0218 2046     		mov	r0, r4
 2087 021a A1EB4311 		sub	r1, r1, r3, lsl #5
ARM GAS  C:\Users\Jay\AppData\Local\Temp\cci0ZEVx.s 			page 37


 2088 021e FFF7FEFF 		bl	dir_sdi
 2089 0222 0028     		cmp	r0, #0
 2090 0224 F1D1     		bne	.L626
 2091 0226 0246     		mov	r2, r0
 2092 0228 2946     		mov	r1, r5
 2093 022a 04F12B00 		add	r0, r4, #43
 2094              	.L598:
 2095 022e D301     		lsls	r3, r2, #7
 2096 0230 11F8016B 		ldrb	r6, [r1], #1	@ zero_extendqisi2
 2097 0234 43EA5203 		orr	r3, r3, r2, lsr #1
 2098 0238 56FA83F3 		uxtab	r3, r6, r3
 2099 023c 8142     		cmp	r1, r0
 2100 023e DAB2     		uxtb	r2, r3
 2101 0240 F5D1     		bne	.L598
 2102 0242 CDE9025B 		strd	r5, fp, [sp, #8]
 2103 0246 DFF8E090 		ldr	r9, .L669+8
 2104 024a 0192     		str	r2, [sp, #4]
 2105              	.L608:
 2106 024c A169     		ldr	r1, [r4, #24]
 2107 024e DAF83430 		ldr	r3, [r10, #52]
 2108 0252 9942     		cmp	r1, r3
 2109 0254 04D0     		beq	.L601
 2110 0256 5046     		mov	r0, r10
 2111 0258 FFF7FEFF 		bl	move_window.part.6
 2112 025c 0028     		cmp	r0, #0
 2113 025e D4D1     		bne	.L626
 2114              	.L601:
 2115 0260 9DF800B0 		ldrb	fp, [sp]	@ zero_extendqisi2
 2116 0264 E169     		ldr	r1, [r4, #28]
 2117 0266 019E     		ldr	r6, [sp, #4]
 2118 0268 DAF80CE0 		ldr	lr, [r10, #12]
 2119 026c 4E73     		strb	r6, [r1, #13]
 2120 026e 0BF1FF32 		add	r2, fp, #-1
 2121 0272 0025     		movs	r5, #0
 2122 0274 02EB4200 		add	r0, r2, r2, lsl #1
 2123 0278 4FF00F06 		mov	r6, #15
 2124 027c 0D73     		strb	r5, [r1, #12]
 2125 027e 2B46     		mov	r3, r5
 2126 0280 02EB8002 		add	r2, r2, r0, lsl #2
 2127 0284 8D76     		strb	r5, [r1, #26]
 2128 0286 2846     		mov	r0, r5
 2129 0288 CD76     		strb	r5, [r1, #27]
 2130 028a CE72     		strb	r6, [r1, #11]
 2131 028c 0125     		movs	r5, #1
 2132 028e 4FF6FF78 		movw	r8, #65535
 2133 0292 4FF0FF0C 		mov	ip, #255
 2134 0296 16E0     		b	.L600
 2135              	.L667:
 2136 0298 3EF81230 		ldrh	r3, [lr, r2, lsl #1]
 2137 029c 4B55     		strb	r3, [r1, r5]
 2138 029e 1D0A     		lsrs	r5, r3, #8
 2139 02a0 0132     		adds	r2, r2, #1
 2140 02a2 7D70     		strb	r5, [r7, #1]
 2141 02a4 BBBB     		cbnz	r3, .L625
 2142 02a6 0C2E     		cmp	r6, #12
 2143 02a8 21D8     		bhi	.L607
 2144 02aa 19F80630 		ldrb	r3, [r9, r6]	@ zero_extendqisi2
ARM GAS  C:\Users\Jay\AppData\Local\Temp\cci0ZEVx.s 			page 38


 2145 02ae CD18     		adds	r5, r1, r3
 2146 02b0 01F803C0 		strb	ip, [r1, r3]
 2147 02b4 0230     		adds	r0, r0, #2
 2148 02b6 85F801C0 		strb	ip, [r5, #1]
 2149 02ba 4FF6FF73 		movw	r3, #65535
 2150              	.L603:
 2151 02be 0C28     		cmp	r0, #12
 2152 02c0 0ED8     		bhi	.L606
 2153              	.L668:
 2154 02c2 19F80050 		ldrb	r5, [r9, r0]	@ zero_extendqisi2
 2155              	.L600:
 2156 02c6 4345     		cmp	r3, r8
 2157 02c8 01EB0507 		add	r7, r1, r5
 2158 02cc 00F10106 		add	r6, r0, #1
 2159 02d0 E2D1     		bne	.L667
 2160 02d2 3046     		mov	r0, r6
 2161 02d4 0C28     		cmp	r0, #12
 2162 02d6 01F805C0 		strb	ip, [r1, r5]
 2163 02da 87F801C0 		strb	ip, [r7, #1]
 2164 02de F0D9     		bls	.L668
 2165              	.L606:
 2166 02e0 4FF6FF70 		movw	r0, #65535
 2167 02e4 8342     		cmp	r3, r0
 2168 02e6 02D0     		beq	.L607
 2169 02e8 3EF81230 		ldrh	r3, [lr, r2, lsl #1]
 2170 02ec 0BB9     		cbnz	r3, .L605
 2171              	.L607:
 2172 02ee 4BF0400B 		orr	fp, fp, #64
 2173              	.L605:
 2174 02f2 0123     		movs	r3, #1
 2175 02f4 81F800B0 		strb	fp, [r1]
 2176 02f8 2046     		mov	r0, r4
 2177 02fa 0021     		movs	r1, #0
 2178 02fc 8AF80330 		strb	r3, [r10, #3]
 2179 0300 FFF7FEFF 		bl	dir_next
 2180 0304 0028     		cmp	r0, #0
 2181 0306 80D1     		bne	.L626
 2182 0308 009B     		ldr	r3, [sp]
 2183 030a 013B     		subs	r3, r3, #1
 2184 030c 0093     		str	r3, [sp]
 2185 030e 9DD1     		bne	.L608
 2186 0310 DDE9025B 		ldrd	r5, fp, [sp, #8]
 2187 0314 CBE6     		b	.L596
 2188              	.L625:
 2189 0316 3046     		mov	r0, r6
 2190 0318 D1E7     		b	.L603
 2191              	.L615:
 2192 031a 1746     		mov	r7, r2
 2193 031c 86E6     		b	.L572
 2194              	.L670:
 2195 031e 00BF     		.align	2
 2196              	.L669:
 2197 0320 4FECC44E 		.word	1321528399
 2198 0324 21100100 		.word	69665
 2199 0328 00000000 		.word	.LANCHOR1
 2201              		.section	.text.get_fileinfo,"ax",%progbits
 2202              		.align	1
ARM GAS  C:\Users\Jay\AppData\Local\Temp\cci0ZEVx.s 			page 39


 2203              		.p2align 2,,3
 2204              		.syntax unified
 2205              		.thumb
 2206              		.thumb_func
 2207              		.fpu fpv4-sp-d16
 2209              	get_fileinfo:
 2210              		@ args = 0, pretend = 0, frame = 0
 2211              		@ frame_needed = 0, uses_anonymous_args = 0
 2212 0000 2DE9F843 		push	{r3, r4, r5, r6, r7, r8, r9, lr}
 2213 0004 0024     		movs	r4, #0
 2214 0006 D0F80090 		ldr	r9, [r0]
 2215 000a 8C75     		strb	r4, [r1, #22]
 2216 000c 8369     		ldr	r3, [r0, #24]
 2217 000e 002B     		cmp	r3, #0
 2218 0010 00F09180 		beq	.L671
 2219 0014 C36A     		ldr	r3, [r0, #44]
 2220 0016 0133     		adds	r3, r3, #1
 2221 0018 0E46     		mov	r6, r1
 2222 001a 8046     		mov	r8, r0
 2223 001c 00F0A880 		beq	.L694
 2224 0020 D9F80C20 		ldr	r2, [r9, #12]
 2225 0024 105B     		ldrh	r0, [r2, r4]
 2226 0026 2546     		mov	r5, r4
 2227 0028 2746     		mov	r7, r4
 2228 002a 0028     		cmp	r0, #0
 2229 002c 00F09480 		beq	.L715
 2230              	.L680:
 2231 0030 35B9     		cbnz	r5, .L675
 2232 0032 00F52053 		add	r3, r0, #10240
 2233 0036 9BB2     		uxth	r3, r3
 2234 0038 B3F5006F 		cmp	r3, #2048
 2235 003c C0F08E80 		bcc	.L695
 2236              	.L675:
 2237 0040 40EA0540 		orr	r0, r0, r5, lsl #16
 2238 0044 40F2B511 		movw	r1, #437
 2239 0048 FFF7FEFF 		bl	ff_uni2oem
 2240 004c FF28     		cmp	r0, #255
 2241 004e C7F1FF03 		rsb	r3, r7, #255
 2242 0052 72D9     		bls	.L677
 2243 0054 012B     		cmp	r3, #1
 2244 0056 00F28580 		bhi	.L716
 2245 005a 0023     		movs	r3, #0
 2246              	.L678:
 2247 005c 002D     		cmp	r5, #0
 2248 005e 18BF     		it	ne
 2249 0060 0023     		movne	r3, #0
 2250 0062 3344     		add	r3, r3, r6
 2251 0064 0022     		movs	r2, #0
 2252 0066 9A75     		strb	r2, [r3, #22]
 2253 0068 96F816C0 		ldrb	ip, [r6, #22]	@ zero_extendqisi2
 2254              	.L673:
 2255 006c D8F81CE0 		ldr	lr, [r8, #28]
 2256 0070 0020     		movs	r0, #0
 2257 0072 0EF1FF35 		add	r5, lr, #-1
 2258 0076 0246     		mov	r2, r0
 2259 0078 4FF02E08 		mov	r8, #46
 2260              	.L685:
ARM GAS  C:\Users\Jay\AppData\Local\Temp\cci0ZEVx.s 			page 40


 2261 007c 15F8013F 		ldrb	r3, [r5, #1]!	@ zero_extendqisi2
 2262 0080 9CB2     		uxth	r4, r3
 2263 0082 202C     		cmp	r4, #32
 2264 0084 02F10102 		add	r2, r2, #1
 2265 0088 00F10101 		add	r1, r0, #1
 2266 008c 07D0     		beq	.L682
 2267 008e 052C     		cmp	r4, #5
 2268 0090 08BF     		it	eq
 2269 0092 E523     		moveq	r3, #229
 2270 0094 092A     		cmp	r2, #9
 2271 0096 6DD0     		beq	.L717
 2272              	.L684:
 2273 0098 3718     		adds	r7, r6, r0
 2274 009a 0846     		mov	r0, r1
 2275 009c 7B72     		strb	r3, [r7, #9]
 2276              	.L682:
 2277 009e 0B2A     		cmp	r2, #11
 2278 00a0 ECD1     		bne	.L685
 2279 00a2 3318     		adds	r3, r6, r0
 2280 00a4 0022     		movs	r2, #0
 2281 00a6 5A72     		strb	r2, [r3, #9]
 2282 00a8 BCF1000F 		cmp	ip, #0
 2283 00ac 27D1     		bne	.L687
 2284 00ae E0B1     		cbz	r0, .L688
 2285 00b0 737A     		ldrb	r3, [r6, #9]	@ zero_extendqisi2
 2286 00b2 6446     		mov	r4, ip
 2287 00b4 E3B1     		cbz	r3, .L690
 2288 00b6 06F10901 		add	r1, r6, #9
 2289 00ba 06F11502 		add	r2, r6, #21
 2290 00be 0825     		movs	r5, #8
 2291 00c0 0CE0     		b	.L692
 2292              	.L718:
 2293 00c2 1928     		cmp	r0, #25
 2294 00c4 04D8     		bhi	.L691
 2295 00c6 9EF80C00 		ldrb	r0, [lr, #12]	@ zero_extendqisi2
 2296 00ca 0542     		tst	r5, r0
 2297 00cc 00D0     		beq	.L691
 2298 00ce 2033     		adds	r3, r3, #32
 2299              	.L691:
 2300 00d0 02F8013F 		strb	r3, [r2, #1]!
 2301 00d4 11F8013F 		ldrb	r3, [r1, #1]!	@ zero_extendqisi2
 2302 00d8 0134     		adds	r4, r4, #1
 2303 00da 4BB1     		cbz	r3, .L690
 2304              	.L692:
 2305 00dc 9BB2     		uxth	r3, r3
 2306 00de 2E2B     		cmp	r3, #46
 2307 00e0 A3F14100 		sub	r0, r3, #65
 2308 00e4 EDD1     		bne	.L718
 2309 00e6 1025     		movs	r5, #16
 2310 00e8 F2E7     		b	.L691
 2311              	.L688:
 2312 00ea 3F23     		movs	r3, #63
 2313 00ec B375     		strb	r3, [r6, #22]
 2314 00ee 0124     		movs	r4, #1
 2315              	.L690:
 2316 00f0 3444     		add	r4, r4, r6
 2317 00f2 0023     		movs	r3, #0
ARM GAS  C:\Users\Jay\AppData\Local\Temp\cci0ZEVx.s 			page 41


 2318 00f4 A375     		strb	r3, [r4, #22]
 2319 00f6 9EF80C30 		ldrb	r3, [lr, #12]	@ zero_extendqisi2
 2320 00fa 03B9     		cbnz	r3, .L687
 2321 00fc 7372     		strb	r3, [r6, #9]
 2322              	.L687:
 2323 00fe 9EF80B30 		ldrb	r3, [lr, #11]	@ zero_extendqisi2
 2324 0102 3372     		strb	r3, [r6, #8]
 2325 0104 BEF81E10 		ldrh	r1, [lr, #30]	@ unaligned
 2326 0108 9EF81D20 		ldrb	r2, [lr, #29]	@ zero_extendqisi2
 2327 010c 9EF81C30 		ldrb	r3, [lr, #28]	@ zero_extendqisi2
 2328 0110 42EA0122 		orr	r2, r2, r1, lsl #8
 2329 0114 43EA0223 		orr	r3, r3, r2, lsl #8
 2330 0118 3360     		str	r3, [r6]
 2331 011a 9EF81720 		ldrb	r2, [lr, #23]	@ zero_extendqisi2
 2332 011e 9EF81630 		ldrb	r3, [lr, #22]	@ zero_extendqisi2
 2333 0122 43EA0223 		orr	r3, r3, r2, lsl #8
 2334 0126 F380     		strh	r3, [r6, #6]	@ movhi
 2335 0128 9EF81920 		ldrb	r2, [lr, #25]	@ zero_extendqisi2
 2336 012c 9EF81830 		ldrb	r3, [lr, #24]	@ zero_extendqisi2
 2337 0130 43EA0223 		orr	r3, r3, r2, lsl #8
 2338 0134 B380     		strh	r3, [r6, #4]	@ movhi
 2339              	.L671:
 2340 0136 BDE8F883 		pop	{r3, r4, r5, r6, r7, r8, r9, pc}
 2341              	.L677:
 2342 013a 88B1     		cbz	r0, .L697
 2343 013c 002B     		cmp	r3, #0
 2344 013e 8DD0     		beq	.L678
 2345 0140 F219     		adds	r2, r6, r7
 2346 0142 0123     		movs	r3, #1
 2347 0144 9075     		strb	r0, [r2, #22]
 2348              	.L679:
 2349 0146 D9F80C20 		ldr	r2, [r9, #12]
 2350 014a 1F44     		add	r7, r7, r3
 2351 014c 0025     		movs	r5, #0
 2352              	.L676:
 2353 014e 0234     		adds	r4, r4, #2
 2354 0150 105B     		ldrh	r0, [r2, r4]
 2355 0152 0028     		cmp	r0, #0
 2356 0154 7FF46CAF 		bne	.L680
 2357              	.L715:
 2358 0158 3B46     		mov	r3, r7
 2359 015a 7FE7     		b	.L678
 2360              	.L695:
 2361 015c 0546     		mov	r5, r0
 2362 015e F6E7     		b	.L676
 2363              	.L697:
 2364 0160 0346     		mov	r3, r0
 2365 0162 7BE7     		b	.L678
 2366              	.L716:
 2367 0164 F319     		adds	r3, r6, r7
 2368 0166 020A     		lsrs	r2, r0, #8
 2369 0168 D875     		strb	r0, [r3, #23]
 2370 016a 9A75     		strb	r2, [r3, #22]
 2371 016c 0223     		movs	r3, #2
 2372 016e EAE7     		b	.L679
 2373              	.L694:
 2374 0170 A446     		mov	ip, r4
ARM GAS  C:\Users\Jay\AppData\Local\Temp\cci0ZEVx.s 			page 42


 2375 0172 7BE7     		b	.L673
 2376              	.L717:
 2377 0174 0B28     		cmp	r0, #11
 2378 0176 8FD8     		bhi	.L684
 2379 0178 3718     		adds	r7, r6, r0
 2380 017a 841C     		adds	r4, r0, #2
 2381 017c 87F80980 		strb	r8, [r7, #9]
 2382 0180 0846     		mov	r0, r1
 2383 0182 2146     		mov	r1, r4
 2384 0184 88E7     		b	.L684
 2386 0186 00BF     		.section	.text.mount_volume,"ax",%progbits
 2387              		.align	1
 2388              		.p2align 2,,3
 2389              		.syntax unified
 2390              		.thumb
 2391              		.thumb_func
 2392              		.fpu fpv4-sp-d16
 2394              	mount_volume:
 2395              		@ args = 0, pretend = 0, frame = 16
 2396              		@ frame_needed = 0, uses_anonymous_args = 0
 2397 0000 2DE9F041 		push	{r4, r5, r6, r7, r8, lr}
 2398 0004 0023     		movs	r3, #0
 2399 0006 84B0     		sub	sp, sp, #16
 2400 0008 0B60     		str	r3, [r1]
 2401 000a 0F46     		mov	r7, r1
 2402 000c 1546     		mov	r5, r2
 2403 000e FFF7FEFF 		bl	get_ldnumber
 2404 0012 061E     		subs	r6, r0, #0
 2405 0014 C0F2C780 		blt	.L747
 2406 0018 BD4B     		ldr	r3, .L786
 2407 001a 53F82640 		ldr	r4, [r3, r6, lsl #2]
 2408 001e 002C     		cmp	r4, #0
 2409 0020 00F0F380 		beq	.L748
 2410 0024 3C60     		str	r4, [r7]
 2411 0026 2378     		ldrb	r3, [r4]	@ zero_extendqisi2
 2412 0028 05F0FE05 		and	r5, r5, #254
 2413 002c 7BB1     		cbz	r3, .L721
 2414 002e 6078     		ldrb	r0, [r4, #1]	@ zero_extendqisi2
 2415 0030 FFF7FEFF 		bl	disk_status
 2416 0034 C307     		lsls	r3, r0, #31
 2417 0036 0AD4     		bmi	.L721
 2418 0038 002D     		cmp	r5, #0
 2419 003a 00F0EC80 		beq	.L749
 2420 003e 10F00400 		ands	r0, r0, #4
 2421 0042 00F0B180 		beq	.L775
 2422              	.L723:
 2423 0046 0A20     		movs	r0, #10
 2424 0048 04B0     		add	sp, sp, #16
 2425              		@ sp needed
 2426 004a BDE8F081 		pop	{r4, r5, r6, r7, r8, pc}
 2427              	.L721:
 2428 004e F0B2     		uxtb	r0, r6
 2429 0050 0023     		movs	r3, #0
 2430 0052 6070     		strb	r0, [r4, #1]
 2431 0054 2370     		strb	r3, [r4]
 2432 0056 FFF7FEFF 		bl	disk_initialize
 2433 005a C707     		lsls	r7, r0, #31
ARM GAS  C:\Users\Jay\AppData\Local\Temp\cci0ZEVx.s 			page 43


 2434 005c 00F1A780 		bmi	.L751
 2435 0060 0DB1     		cbz	r5, .L722
 2436 0062 4607     		lsls	r6, r0, #29
 2437 0064 EFD4     		bmi	.L723
 2438              	.L722:
 2439 0066 0021     		movs	r1, #0
 2440 0068 2046     		mov	r0, r4
 2441 006a FFF7FEFF 		bl	check_fs
 2442 006e 0228     		cmp	r0, #2
 2443 0070 00F0A180 		beq	.L783
 2444 0074 0428     		cmp	r0, #4
 2445 0076 00F0CC80 		beq	.L754
 2446 007a 0128     		cmp	r0, #1
 2447 007c 00F2C180 		bhi	.L731
 2448              	.L730:
 2449 0080 94F84420 		ldrb	r2, [r4, #68]	@ zero_extendqisi2
 2450 0084 94F84330 		ldrb	r3, [r4, #67]	@ zero_extendqisi2
 2451 0088 43EA0223 		orr	r3, r3, r2, lsl #8
 2452 008c B3F5007F 		cmp	r3, #512
 2453 0090 40F0B780 		bne	.L731
 2454 0094 94F84F20 		ldrb	r2, [r4, #79]	@ zero_extendqisi2
 2455 0098 94F84E30 		ldrb	r3, [r4, #78]	@ zero_extendqisi2
 2456 009c 53EA0223 		orrs	r3, r3, r2, lsl #8
 2457 00a0 09D1     		bne	.L733
 2458 00a2 B4F85E10 		ldrh	r1, [r4, #94]	@ unaligned
 2459 00a6 94F85D30 		ldrb	r3, [r4, #93]	@ zero_extendqisi2
 2460 00aa 94F85C20 		ldrb	r2, [r4, #92]	@ zero_extendqisi2
 2461 00ae 43EA0123 		orr	r3, r3, r1, lsl #8
 2462 00b2 42EA0323 		orr	r3, r2, r3, lsl #8
 2463              	.L733:
 2464 00b6 94F84820 		ldrb	r2, [r4, #72]	@ zero_extendqisi2
 2465 00ba 2362     		str	r3, [r4, #32]
 2466 00bc 501E     		subs	r0, r2, #1
 2467 00be 0128     		cmp	r0, #1
 2468 00c0 A270     		strb	r2, [r4, #2]
 2469 00c2 616B     		ldr	r1, [r4, #52]
 2470 00c4 00F29D80 		bhi	.L731
 2471 00c8 94F84500 		ldrb	r0, [r4, #69]	@ zero_extendqisi2
 2472 00cc 85B2     		uxth	r5, r0
 2473 00ce 6581     		strh	r5, [r4, #10]	@ movhi
 2474 00d0 002D     		cmp	r5, #0
 2475 00d2 00F09680 		beq	.L731
 2476 00d6 451E     		subs	r5, r0, #1
 2477 00d8 0542     		tst	r5, r0
 2478 00da 40F09280 		bne	.L731
 2479 00de 94F84A50 		ldrb	r5, [r4, #74]	@ zero_extendqisi2
 2480 00e2 94F84960 		ldrb	r6, [r4, #73]	@ zero_extendqisi2
 2481 00e6 46EA0526 		orr	r6, r6, r5, lsl #8
 2482 00ea 3507     		lsls	r5, r6, #28
 2483 00ec 2681     		strh	r6, [r4, #8]	@ movhi
 2484 00ee 40F08880 		bne	.L731
 2485 00f2 94F84C70 		ldrb	r7, [r4, #76]	@ zero_extendqisi2
 2486 00f6 94F84B50 		ldrb	r5, [r4, #75]	@ zero_extendqisi2
 2487 00fa 55EA0725 		orrs	r5, r5, r7, lsl #8
 2488 00fe 09D1     		bne	.L735
 2489 0100 B4F85AC0 		ldrh	ip, [r4, #90]	@ unaligned
 2490 0104 94F85970 		ldrb	r7, [r4, #89]	@ zero_extendqisi2
ARM GAS  C:\Users\Jay\AppData\Local\Temp\cci0ZEVx.s 			page 44


 2491 0108 94F85850 		ldrb	r5, [r4, #88]	@ zero_extendqisi2
 2492 010c 47EA0C27 		orr	r7, r7, ip, lsl #8
 2493 0110 45EA0725 		orr	r5, r5, r7, lsl #8
 2494              	.L735:
 2495 0114 94F847C0 		ldrb	ip, [r4, #71]	@ zero_extendqisi2
 2496 0118 94F84670 		ldrb	r7, [r4, #70]	@ zero_extendqisi2
 2497 011c 57EA0C2C 		orrs	ip, r7, ip, lsl #8
 2498 0120 6FD0     		beq	.L731
 2499 0122 03FB02FE 		mul	lr, r3, r2
 2500 0126 0CEB1617 		add	r7, ip, r6, lsr #4
 2501 012a 7744     		add	r7, r7, lr
 2502 012c BD42     		cmp	r5, r7
 2503 012e 68D3     		bcc	.L731
 2504 0130 784A     		ldr	r2, .L786+4
 2505 0132 ED1B     		subs	r5, r5, r7
 2506 0134 B5FBF0F0 		udiv	r0, r5, r0
 2507 0138 451E     		subs	r5, r0, #1
 2508 013a 9542     		cmp	r5, r2
 2509 013c 61D8     		bhi	.L731
 2510 013e 4FF6F578 		movw	r8, #65525
 2511 0142 4045     		cmp	r0, r8
 2512 0144 0CEB0105 		add	r5, ip, r1
 2513 0148 0F44     		add	r7, r7, r1
 2514 014a 00F10202 		add	r2, r0, #2
 2515 014e 64D8     		bhi	.L736
 2516 0150 40F6F57C 		movw	ip, #4085
 2517 0154 6045     		cmp	r0, ip
 2518 0156 E261     		str	r2, [r4, #28]
 2519 0158 C4E90915 		strd	r1, r5, [r4, #36]
 2520 015c 2763     		str	r7, [r4, #48]
 2521 015e 00F28A80 		bhi	.L737
 2522 0162 002E     		cmp	r6, #0
 2523 0164 4DD0     		beq	.L731
 2524 0166 02EB4201 		add	r1, r2, r2, lsl #1
 2525 016a 7544     		add	r5, r5, lr
 2526 016c 02F00102 		and	r2, r2, #1
 2527 0170 02EB5102 		add	r2, r2, r1, lsr #1
 2528 0174 E562     		str	r5, [r4, #44]
 2529 0176 0121     		movs	r1, #1
 2530              	.L744:
 2531 0178 02F2FF12 		addw	r2, r2, #511
 2532 017c B3EB522F 		cmp	r3, r2, lsr #9
 2533 0180 3FD3     		bcc	.L731
 2534 0182 4FF0FF33 		mov	r3, #-1
 2535 0186 C4E90433 		strd	r3, r3, [r4, #16]
 2536 018a 8022     		movs	r2, #128
 2537 018c 2271     		strb	r2, [r4, #4]
 2538              	.L741:
 2539 018e 624A     		ldr	r2, .L786+8
 2540 0190 624D     		ldr	r5, .L786+12
 2541 0192 1388     		ldrh	r3, [r2]
 2542 0194 2170     		strb	r1, [r4]
 2543 0196 0133     		adds	r3, r3, #1
 2544 0198 9BB2     		uxth	r3, r3
 2545 019a 0020     		movs	r0, #0
 2546 019c 1380     		strh	r3, [r2]	@ movhi
 2547 019e E380     		strh	r3, [r4, #6]	@ movhi
ARM GAS  C:\Users\Jay\AppData\Local\Temp\cci0ZEVx.s 			page 45


 2548 01a0 E560     		str	r5, [r4, #12]
 2549 01a2 A061     		str	r0, [r4, #24]
 2550 01a4 00E0     		b	.L775
 2551              	.L747:
 2552 01a6 0B20     		movs	r0, #11
 2553              	.L775:
 2554 01a8 04B0     		add	sp, sp, #16
 2555              		@ sp needed
 2556 01aa BDE8F081 		pop	{r4, r5, r6, r7, r8, pc}
 2557              	.L751:
 2558 01ae 0320     		movs	r0, #3
 2559 01b0 04B0     		add	sp, sp, #16
 2560              		@ sp needed
 2561 01b2 BDE8F081 		pop	{r4, r5, r6, r7, r8, pc}
 2562              	.L783:
 2563 01b6 6D46     		mov	r5, sp
 2564 01b8 2846     		mov	r0, r5
 2565 01ba 04F50073 		add	r3, r4, #512
 2566 01be 04F51077 		add	r7, r4, #576
 2567              	.L725:
 2568 01c2 1E88     		ldrh	r6, [r3]	@ unaligned
 2569 01c4 13F8011C 		ldrb	r1, [r3, #-1]	@ zero_extendqisi2
 2570 01c8 13F8022C 		ldrb	r2, [r3, #-2]	@ zero_extendqisi2
 2571 01cc 41EA0621 		orr	r1, r1, r6, lsl #8
 2572 01d0 1033     		adds	r3, r3, #16
 2573 01d2 42EA0122 		orr	r2, r2, r1, lsl #8
 2574 01d6 BB42     		cmp	r3, r7
 2575 01d8 40F8042B 		str	r2, [r0], #4
 2576 01dc F1D1     		bne	.L725
 2577 01de 05F11006 		add	r6, r5, #16
 2578 01e2 02E0     		b	.L728
 2579              	.L752:
 2580 01e4 0320     		movs	r0, #3
 2581              	.L726:
 2582 01e6 B542     		cmp	r5, r6
 2583 01e8 09D0     		beq	.L784
 2584              	.L728:
 2585 01ea 55F8041B 		ldr	r1, [r5], #4
 2586 01ee 0029     		cmp	r1, #0
 2587 01f0 F8D0     		beq	.L752
 2588 01f2 2046     		mov	r0, r4
 2589 01f4 FFF7FEFF 		bl	check_fs
 2590 01f8 0128     		cmp	r0, #1
 2591 01fa F4D8     		bhi	.L726
 2592 01fc 40E7     		b	.L730
 2593              	.L784:
 2594 01fe 0428     		cmp	r0, #4
 2595 0200 07D0     		beq	.L754
 2596              	.L731:
 2597 0202 0D20     		movs	r0, #13
 2598 0204 04B0     		add	sp, sp, #16
 2599              		@ sp needed
 2600 0206 BDE8F081 		pop	{r4, r5, r6, r7, r8, pc}
 2601              	.L748:
 2602 020a 0C20     		movs	r0, #12
 2603 020c 04B0     		add	sp, sp, #16
 2604              		@ sp needed
ARM GAS  C:\Users\Jay\AppData\Local\Temp\cci0ZEVx.s 			page 46


 2605 020e BDE8F081 		pop	{r4, r5, r6, r7, r8, pc}
 2606              	.L754:
 2607 0212 0120     		movs	r0, #1
 2608 0214 C8E7     		b	.L775
 2609              	.L749:
 2610 0216 2846     		mov	r0, r5
 2611 0218 C6E7     		b	.L775
 2612              	.L736:
 2613 021a 94F863C0 		ldrb	ip, [r4, #99]	@ zero_extendqisi2
 2614 021e 94F86200 		ldrb	r0, [r4, #98]	@ zero_extendqisi2
 2615 0222 E261     		str	r2, [r4, #28]
 2616 0224 50EA0C20 		orrs	r0, r0, ip, lsl #8
 2617 0228 C4E90915 		strd	r1, r5, [r4, #36]
 2618 022c 2763     		str	r7, [r4, #48]
 2619 022e E8D1     		bne	.L731
 2620 0230 002E     		cmp	r6, #0
 2621 0232 E6D1     		bne	.L731
 2622 0234 B4F86670 		ldrh	r7, [r4, #102]	@ unaligned
 2623 0238 94F86550 		ldrb	r5, [r4, #101]	@ zero_extendqisi2
 2624 023c 94F86400 		ldrb	r0, [r4, #100]	@ zero_extendqisi2
 2625 0240 9200     		lsls	r2, r2, #2
 2626 0242 45EA0725 		orr	r5, r5, r7, lsl #8
 2627 0246 02F2FF12 		addw	r2, r2, #511
 2628 024a 40EA0520 		orr	r0, r0, r5, lsl #8
 2629 024e B3EB522F 		cmp	r3, r2, lsr #9
 2630 0252 E062     		str	r0, [r4, #44]
 2631 0254 D5D3     		bcc	.L731
 2632 0256 94F86920 		ldrb	r2, [r4, #105]	@ zero_extendqisi2
 2633 025a 94F86830 		ldrb	r3, [r4, #104]	@ zero_extendqisi2
 2634 025e 43EA0223 		orr	r3, r3, r2, lsl #8
 2635 0262 8020     		movs	r0, #128
 2636 0264 4FF0FF32 		mov	r2, #-1
 2637 0268 012B     		cmp	r3, #1
 2638 026a C4E90422 		strd	r2, r2, [r4, #16]
 2639 026e 2071     		strb	r0, [r4, #4]
 2640 0270 08D0     		beq	.L785
 2641              	.L782:
 2642 0272 0321     		movs	r1, #3
 2643 0274 8BE7     		b	.L741
 2644              	.L737:
 2645 0276 002E     		cmp	r6, #0
 2646 0278 C3D0     		beq	.L731
 2647 027a 7544     		add	r5, r5, lr
 2648 027c E562     		str	r5, [r4, #44]
 2649 027e 5200     		lsls	r2, r2, #1
 2650 0280 0221     		movs	r1, #2
 2651 0282 79E7     		b	.L744
 2652              	.L785:
 2653 0284 0131     		adds	r1, r1, #1
 2654 0286 2046     		mov	r0, r4
 2655 0288 FFF7FEFF 		bl	move_window.part.6
 2656 028c 0028     		cmp	r0, #0
 2657 028e F0D1     		bne	.L782
 2658 0290 94F83722 		ldrb	r2, [r4, #567]	@ zero_extendqisi2
 2659 0294 94F83632 		ldrb	r3, [r4, #566]	@ zero_extendqisi2
 2660 0298 2671     		strb	r6, [r4, #4]
 2661 029a 43EA0223 		orr	r3, r3, r2, lsl #8
ARM GAS  C:\Users\Jay\AppData\Local\Temp\cci0ZEVx.s 			page 47


 2662 029e 4AF65522 		movw	r2, #43605
 2663 02a2 9342     		cmp	r3, r2
 2664 02a4 E5D1     		bne	.L782
 2665 02a6 608F     		ldrh	r0, [r4, #58]	@ unaligned
 2666 02a8 94F83920 		ldrb	r2, [r4, #57]	@ zero_extendqisi2
 2667 02ac 94F83830 		ldrb	r3, [r4, #56]	@ zero_extendqisi2
 2668 02b0 1B49     		ldr	r1, .L786+16
 2669 02b2 42EA0022 		orr	r2, r2, r0, lsl #8
 2670 02b6 43EA0223 		orr	r3, r3, r2, lsl #8
 2671 02ba 8B42     		cmp	r3, r1
 2672 02bc D9D1     		bne	.L782
 2673 02be B4F81E02 		ldrh	r0, [r4, #542]	@ unaligned
 2674 02c2 94F81D22 		ldrb	r2, [r4, #541]	@ zero_extendqisi2
 2675 02c6 94F81C32 		ldrb	r3, [r4, #540]	@ zero_extendqisi2
 2676 02ca 01F1FF51 		add	r1, r1, #534773760
 2677 02ce 01F50051 		add	r1, r1, #8192
 2678 02d2 42EA0022 		orr	r2, r2, r0, lsl #8
 2679 02d6 2031     		adds	r1, r1, #32
 2680 02d8 43EA0223 		orr	r3, r3, r2, lsl #8
 2681 02dc 8B42     		cmp	r3, r1
 2682 02de C8D1     		bne	.L782
 2683 02e0 B4F82262 		ldrh	r6, [r4, #546]	@ unaligned
 2684 02e4 94F82102 		ldrb	r0, [r4, #545]	@ zero_extendqisi2
 2685 02e8 B4F82652 		ldrh	r5, [r4, #550]	@ unaligned
 2686 02ec 94F82512 		ldrb	r1, [r4, #549]	@ zero_extendqisi2
 2687 02f0 94F82022 		ldrb	r2, [r4, #544]	@ zero_extendqisi2
 2688 02f4 94F82432 		ldrb	r3, [r4, #548]	@ zero_extendqisi2
 2689 02f8 40EA0620 		orr	r0, r0, r6, lsl #8
 2690 02fc 41EA0521 		orr	r1, r1, r5, lsl #8
 2691 0300 42EA0022 		orr	r2, r2, r0, lsl #8
 2692 0304 43EA0123 		orr	r3, r3, r1, lsl #8
 2693 0308 C4E90432 		strd	r3, r2, [r4, #16]
 2694 030c B1E7     		b	.L782
 2695              	.L787:
 2696 030e 00BF     		.align	2
 2697              	.L786:
 2698 0310 00000000 		.word	.LANCHOR3
 2699 0314 F4FFFF0F 		.word	268435444
 2700 0318 00000000 		.word	.LANCHOR4
 2701 031c 00000000 		.word	.LANCHOR5
 2702 0320 52526141 		.word	1096897106
 2704              		.section	.text.dir_read.constprop.12,"ax",%progbits
 2705              		.align	1
 2706              		.p2align 2,,3
 2707              		.syntax unified
 2708              		.thumb
 2709              		.thumb_func
 2710              		.fpu fpv4-sp-d16
 2712              	dir_read.constprop.12:
 2713              		@ args = 0, pretend = 0, frame = 0
 2714              		@ frame_needed = 0, uses_anonymous_args = 0
 2715 0000 2DE9F047 		push	{r4, r5, r6, r7, r8, r9, r10, lr}
 2716 0004 FF27     		movs	r7, #255
 2717 0006 0446     		mov	r4, r0
 2718 0008 0568     		ldr	r5, [r0]
 2719 000a 3E46     		mov	r6, r7
 2720 000c 0420     		movs	r0, #4
ARM GAS  C:\Users\Jay\AppData\Local\Temp\cci0ZEVx.s 			page 48


 2721 000e 06E0     		b	.L789
 2722              	.L817:
 2723 0010 FF26     		movs	r6, #255
 2724              	.L794:
 2725 0012 0021     		movs	r1, #0
 2726 0014 2046     		mov	r0, r4
 2727 0016 FFF7FEFF 		bl	dir_next
 2728 001a 0028     		cmp	r0, #0
 2729 001c 58D1     		bne	.L791
 2730              	.L789:
 2731 001e A169     		ldr	r1, [r4, #24]
 2732 0020 0029     		cmp	r1, #0
 2733 0022 59D0     		beq	.L832
 2734 0024 6B6B     		ldr	r3, [r5, #52]
 2735 0026 8B42     		cmp	r3, r1
 2736 0028 04D0     		beq	.L793
 2737 002a 2846     		mov	r0, r5
 2738 002c FFF7FEFF 		bl	move_window.part.6
 2739 0030 0028     		cmp	r0, #0
 2740 0032 4DD1     		bne	.L791
 2741              	.L793:
 2742 0034 E169     		ldr	r1, [r4, #28]
 2743 0036 0A78     		ldrb	r2, [r1]	@ zero_extendqisi2
 2744 0038 002A     		cmp	r2, #0
 2745 003a 48D0     		beq	.L833
 2746 003c CB7A     		ldrb	r3, [r1, #11]	@ zero_extendqisi2
 2747 003e E52A     		cmp	r2, #229
 2748 0040 03F03F03 		and	r3, r3, #63
 2749 0044 A371     		strb	r3, [r4, #6]
 2750 0046 E3D0     		beq	.L817
 2751 0048 2E2A     		cmp	r2, #46
 2752 004a E1D0     		beq	.L817
 2753 004c 23F02000 		bic	r0, r3, #32
 2754 0050 0828     		cmp	r0, #8
 2755 0052 DDD0     		beq	.L817
 2756 0054 0F2B     		cmp	r3, #15
 2757 0056 44D1     		bne	.L795
 2758 0058 5006     		lsls	r0, r2, #25
 2759 005a 35D5     		bpl	.L796
 2760 005c 2369     		ldr	r3, [r4, #16]
 2761 005e 4F7B     		ldrb	r7, [r1, #13]	@ zero_extendqisi2
 2762 0060 E362     		str	r3, [r4, #44]
 2763 0062 02F0BF06 		and	r6, r2, #191
 2764              	.L797:
 2765 0066 4B7B     		ldrb	r3, [r1, #13]	@ zero_extendqisi2
 2766 0068 BB42     		cmp	r3, r7
 2767 006a D1D1     		bne	.L817
 2768 006c CA7E     		ldrb	r2, [r1, #27]	@ zero_extendqisi2
 2769 006e 8B7E     		ldrb	r3, [r1, #26]	@ zero_extendqisi2
 2770 0070 53EA0223 		orrs	r3, r3, r2, lsl #8
 2771 0074 CCD1     		bne	.L817
 2772 0076 0A78     		ldrb	r2, [r1]	@ zero_extendqisi2
 2773 0078 2B48     		ldr	r0, .L835
 2774 007a D5F80C80 		ldr	r8, [r5, #12]
 2775 007e 22F04002 		bic	r2, r2, #64
 2776 0082 013A     		subs	r2, r2, #1
 2777 0084 02EB420C 		add	ip, r2, r2, lsl #1
ARM GAS  C:\Users\Jay\AppData\Local\Temp\cci0ZEVx.s 			page 49


 2778 0088 0123     		movs	r3, #1
 2779 008a 02EB8C02 		add	r2, r2, ip, lsl #2
 2780 008e 00F10C0E 		add	lr, r0, #12
 2781 0092 9C46     		mov	ip, r3
 2782 0094 4FF6FF79 		movw	r9, #65535
 2783 0098 09E0     		b	.L801
 2784              	.L834:
 2785 009a FF2A     		cmp	r2, #255
 2786 009c B8D8     		bhi	.L817
 2787 009e 28F81230 		strh	r3, [r8, r2, lsl #1]	@ movhi
 2788 00a2 9C46     		mov	ip, r3
 2789 00a4 0132     		adds	r2, r2, #1
 2790              	.L799:
 2791 00a6 8645     		cmp	lr, r0
 2792 00a8 2ED0     		beq	.L800
 2793 00aa 10F8013F 		ldrb	r3, [r0, #1]!	@ zero_extendqisi2
 2794              	.L801:
 2795 00ae 01EB030A 		add	r10, r1, r3
 2796 00b2 CB5C     		ldrb	r3, [r1, r3]	@ zero_extendqisi2
 2797 00b4 9AF801A0 		ldrb	r10, [r10, #1]	@ zero_extendqisi2
 2798 00b8 43EA0A23 		orr	r3, r3, r10, lsl #8
 2799 00bc BCF1000F 		cmp	ip, #0
 2800 00c0 EBD1     		bne	.L834
 2801 00c2 4B45     		cmp	r3, r9
 2802 00c4 EFD0     		beq	.L799
 2803 00c6 A3E7     		b	.L817
 2804              	.L796:
 2805 00c8 B242     		cmp	r2, r6
 2806 00ca A1D1     		bne	.L817
 2807 00cc CBE7     		b	.L797
 2808              	.L833:
 2809 00ce 0420     		movs	r0, #4
 2810              	.L791:
 2811 00d0 0023     		movs	r3, #0
 2812 00d2 A361     		str	r3, [r4, #24]
 2813 00d4 BDE8F087 		pop	{r4, r5, r6, r7, r8, r9, r10, pc}
 2814              	.L832:
 2815 00d8 0028     		cmp	r0, #0
 2816 00da F9D1     		bne	.L791
 2817              	.L831:
 2818 00dc 0020     		movs	r0, #0
 2819 00de BDE8F087 		pop	{r4, r5, r6, r7, r8, r9, r10, pc}
 2820              	.L795:
 2821 00e2 6EB9     		cbnz	r6, .L803
 2822 00e4 01F10B00 		add	r0, r1, #11
 2823              	.L804:
 2824 00e8 11F8012B 		ldrb	r2, [r1], #1	@ zero_extendqisi2
 2825 00ec F301     		lsls	r3, r6, #7
 2826 00ee 43EA5606 		orr	r6, r3, r6, lsr #1
 2827 00f2 52FA86F6 		uxtab	r6, r2, r6
 2828 00f6 8142     		cmp	r1, r0
 2829 00f8 F6B2     		uxtb	r6, r6
 2830 00fa F5D1     		bne	.L804
 2831 00fc BE42     		cmp	r6, r7
 2832 00fe EDD0     		beq	.L831
 2833              	.L803:
 2834 0100 4FF0FF33 		mov	r3, #-1
ARM GAS  C:\Users\Jay\AppData\Local\Temp\cci0ZEVx.s 			page 50


 2835 0104 E362     		str	r3, [r4, #44]
 2836 0106 E9E7     		b	.L831
 2837              	.L800:
 2838 0108 0B78     		ldrb	r3, [r1]	@ zero_extendqisi2
 2839 010a 5B06     		lsls	r3, r3, #25
 2840 010c 08D5     		bpl	.L802
 2841 010e BCF1000F 		cmp	ip, #0
 2842 0112 05D0     		beq	.L802
 2843 0114 FF2A     		cmp	r2, #255
 2844 0116 3FF67BAF 		bhi	.L817
 2845 011a 0023     		movs	r3, #0
 2846 011c 28F81230 		strh	r3, [r8, r2, lsl #1]	@ movhi
 2847              	.L802:
 2848 0120 013E     		subs	r6, r6, #1
 2849 0122 F6B2     		uxtb	r6, r6
 2850 0124 75E7     		b	.L794
 2851              	.L836:
 2852 0126 00BF     		.align	2
 2853              	.L835:
 2854 0128 00000000 		.word	.LANCHOR1
 2856              		.section	.text.f_mount,"ax",%progbits
 2857              		.align	1
 2858              		.p2align 2,,3
 2859              		.global	f_mount
 2860              		.syntax unified
 2861              		.thumb
 2862              		.thumb_func
 2863              		.fpu fpv4-sp-d16
 2865              	f_mount:
 2866              		@ args = 0, pretend = 0, frame = 16
 2867              		@ frame_needed = 0, uses_anonymous_args = 0
 2868 0000 10B5     		push	{r4, lr}
 2869 0002 84B0     		sub	sp, sp, #16
 2870 0004 04AB     		add	r3, sp, #16
 2871 0006 0190     		str	r0, [sp, #4]
 2872 0008 43F8041D 		str	r1, [r3, #-4]!
 2873 000c 1846     		mov	r0, r3
 2874 000e 0091     		str	r1, [sp]
 2875 0010 1446     		mov	r4, r2
 2876 0012 FFF7FEFF 		bl	get_ldnumber
 2877 0016 0028     		cmp	r0, #0
 2878 0018 16DB     		blt	.L841
 2879 001a 0D4A     		ldr	r2, .L851
 2880 001c 52F82030 		ldr	r3, [r2, r0, lsl #2]
 2881 0020 0BB1     		cbz	r3, .L839
 2882 0022 0021     		movs	r1, #0
 2883 0024 1970     		strb	r1, [r3]
 2884              	.L839:
 2885 0026 019B     		ldr	r3, [sp, #4]
 2886 0028 0BB1     		cbz	r3, .L840
 2887 002a 0021     		movs	r1, #0
 2888 002c 1970     		strb	r1, [r3]
 2889              	.L840:
 2890 002e 42F82030 		str	r3, [r2, r0, lsl #2]
 2891 0032 14B9     		cbnz	r4, .L850
 2892 0034 2046     		mov	r0, r4
 2893 0036 04B0     		add	sp, sp, #16
ARM GAS  C:\Users\Jay\AppData\Local\Temp\cci0ZEVx.s 			page 51


 2894              		@ sp needed
 2895 0038 10BD     		pop	{r4, pc}
 2896              	.L850:
 2897 003a 0022     		movs	r2, #0
 2898 003c 01A9     		add	r1, sp, #4
 2899 003e 6846     		mov	r0, sp
 2900 0040 FFF7FEFF 		bl	mount_volume
 2901 0044 04B0     		add	sp, sp, #16
 2902              		@ sp needed
 2903 0046 10BD     		pop	{r4, pc}
 2904              	.L841:
 2905 0048 0B20     		movs	r0, #11
 2906 004a 04B0     		add	sp, sp, #16
 2907              		@ sp needed
 2908 004c 10BD     		pop	{r4, pc}
 2909              	.L852:
 2910 004e 00BF     		.align	2
 2911              	.L851:
 2912 0050 00000000 		.word	.LANCHOR3
 2914              		.section	.text.f_open,"ax",%progbits
 2915              		.align	1
 2916              		.p2align 2,,3
 2917              		.global	f_open
 2918              		.syntax unified
 2919              		.thumb
 2920              		.thumb_func
 2921              		.fpu fpv4-sp-d16
 2923              	f_open:
 2924              		@ args = 0, pretend = 0, frame = 64
 2925              		@ frame_needed = 0, uses_anonymous_args = 0
 2926 0000 2DE9F041 		push	{r4, r5, r6, r7, r8, lr}
 2927 0004 90B0     		sub	sp, sp, #64
 2928 0006 0191     		str	r1, [sp, #4]
 2929 0008 48B3     		cbz	r0, .L881
 2930 000a 02F03F07 		and	r7, r2, #63
 2931 000e 0446     		mov	r4, r0
 2932 0010 1546     		mov	r5, r2
 2933 0012 03A9     		add	r1, sp, #12
 2934 0014 3A46     		mov	r2, r7
 2935 0016 01A8     		add	r0, sp, #4
 2936 0018 FFF7FEFF 		bl	mount_volume
 2937 001c 0646     		mov	r6, r0
 2938 001e 28B1     		cbz	r0, .L913
 2939              	.L855:
 2940 0020 0023     		movs	r3, #0
 2941 0022 2360     		str	r3, [r4]
 2942              	.L893:
 2943 0024 3046     		mov	r0, r6
 2944 0026 10B0     		add	sp, sp, #64
 2945              		@ sp needed
 2946 0028 BDE8F081 		pop	{r4, r5, r6, r7, r8, pc}
 2947              	.L913:
 2948 002c 039B     		ldr	r3, [sp, #12]
 2949 002e 0199     		ldr	r1, [sp, #4]
 2950 0030 0493     		str	r3, [sp, #16]
 2951 0032 04A8     		add	r0, sp, #16
 2952 0034 FFF7FEFF 		bl	follow_path
ARM GAS  C:\Users\Jay\AppData\Local\Temp\cci0ZEVx.s 			page 52


 2953 0038 05F01C03 		and	r3, r5, #28
 2954 003c A0B9     		cbnz	r0, .L856
 2955 003e 9DF93B20 		ldrsb	r2, [sp, #59]
 2956 0042 002A     		cmp	r2, #0
 2957 0044 C0F2C380 		blt	.L882
 2958 0048 9DF81620 		ldrb	r2, [sp, #22]	@ zero_extendqisi2
 2959 004c 8BB1     		cbz	r3, .L914
 2960 004e 12F0110F 		tst	r2, #17
 2961 0052 16D1     		bne	.L891
 2962 0054 6B07     		lsls	r3, r5, #29
 2963 0056 40F1BE80 		bpl	.L915
 2964 005a 0826     		movs	r6, #8
 2965 005c E0E7     		b	.L855
 2966              	.L881:
 2967 005e 0926     		movs	r6, #9
 2968 0060 3046     		mov	r0, r6
 2969 0062 10B0     		add	sp, sp, #64
 2970              		@ sp needed
 2971 0064 BDE8F081 		pop	{r4, r5, r6, r7, r8, pc}
 2972              	.L856:
 2973 0068 0BB1     		cbz	r3, .L912
 2974 006a 0428     		cmp	r0, #4
 2975 006c 0DD0     		beq	.L875
 2976              	.L912:
 2977 006e 0646     		mov	r6, r0
 2978 0070 D6E7     		b	.L855
 2979              	.L914:
 2980 0072 D306     		lsls	r3, r2, #27
 2981 0074 07D4     		bmi	.L916
 2982 0076 A907     		lsls	r1, r5, #30
 2983 0078 40F1A180 		bpl	.L867
 2984 007c D307     		lsls	r3, r2, #31
 2985 007e 40F19E80 		bpl	.L867
 2986              	.L891:
 2987 0082 0726     		movs	r6, #7
 2988 0084 CCE7     		b	.L855
 2989              	.L916:
 2990 0086 0426     		movs	r6, #4
 2991 0088 CAE7     		b	.L855
 2992              	.L875:
 2993 008a 04A8     		add	r0, sp, #16
 2994 008c FFF7FEFF 		bl	dir_register
 2995 0090 47F00807 		orr	r7, r7, #8
 2996 0094 0028     		cmp	r0, #0
 2997 0096 EAD1     		bne	.L912
 2998 0098 DDF80CC0 		ldr	ip, [sp, #12]
 2999 009c 0B9B     		ldr	r3, [sp, #44]
 3000              	.L860:
 3001 009e 9CF80020 		ldrb	r2, [ip]	@ zero_extendqisi2
 3002 00a2 D97E     		ldrb	r1, [r3, #27]	@ zero_extendqisi2
 3003 00a4 9D7E     		ldrb	r5, [r3, #26]	@ zero_extendqisi2
 3004 00a6 032A     		cmp	r2, #3
 3005 00a8 45EA0125 		orr	r5, r5, r1, lsl #8
 3006 00ac 00F0B280 		beq	.L917
 3007              	.L862:
 3008 00b0 0022     		movs	r2, #0
 3009 00b2 4E21     		movs	r1, #78
ARM GAS  C:\Users\Jay\AppData\Local\Temp\cci0ZEVx.s 			page 53


 3010 00b4 2120     		movs	r0, #33
 3011 00b6 5974     		strb	r1, [r3, #17]
 3012 00b8 9A73     		strb	r2, [r3, #14]
 3013 00ba DA73     		strb	r2, [r3, #15]
 3014 00bc 1874     		strb	r0, [r3, #16]
 3015 00be 0B9B     		ldr	r3, [sp, #44]
 3016 00c0 2021     		movs	r1, #32
 3017 00c2 D972     		strb	r1, [r3, #11]
 3018 00c4 0B9B     		ldr	r3, [sp, #44]
 3019 00c6 9A76     		strb	r2, [r3, #26]
 3020 00c8 DA76     		strb	r2, [r3, #27]
 3021 00ca 9CF80010 		ldrb	r1, [ip]	@ zero_extendqisi2
 3022 00ce 0329     		cmp	r1, #3
 3023 00d0 00F09D80 		beq	.L918
 3024              	.L863:
 3025 00d4 0B9B     		ldr	r3, [sp, #44]
 3026 00d6 0022     		movs	r2, #0
 3027 00d8 0121     		movs	r1, #1
 3028 00da 1A77     		strb	r2, [r3, #28]
 3029 00dc 5A77     		strb	r2, [r3, #29]
 3030 00de 9A77     		strb	r2, [r3, #30]
 3031 00e0 DA77     		strb	r2, [r3, #31]
 3032 00e2 8CF80310 		strb	r1, [ip, #3]
 3033 00e6 D5B1     		cbz	r5, .L866
 3034 00e8 04A8     		add	r0, sp, #16
 3035 00ea 2946     		mov	r1, r5
 3036 00ec DCF83480 		ldr	r8, [ip, #52]
 3037 00f0 FFF7FEFF 		bl	remove_chain
 3038 00f4 0028     		cmp	r0, #0
 3039 00f6 BAD1     		bne	.L912
 3040 00f8 DDF80CC0 		ldr	ip, [sp, #12]
 3041 00fc DCF83430 		ldr	r3, [ip, #52]
 3042 0100 9845     		cmp	r8, r3
 3043 0102 05F1FF35 		add	r5, r5, #-1
 3044 0106 00F08C80 		beq	.L919
 3045 010a 6046     		mov	r0, ip
 3046 010c 4146     		mov	r1, r8
 3047 010e FFF7FEFF 		bl	move_window.part.6
 3048 0112 DDF80CC0 		ldr	ip, [sp, #12]
 3049 0116 CCF81050 		str	r5, [ip, #16]
 3050 011a 0028     		cmp	r0, #0
 3051 011c A7D1     		bne	.L912
 3052              	.L866:
 3053 011e DCF83480 		ldr	r8, [ip, #52]
 3054              	.L865:
 3055 0122 0B9B     		ldr	r3, [sp, #44]
 3056              	.L880:
 3057 0124 47F04007 		orr	r7, r7, #64
 3058              	.L861:
 3059 0128 C4E90883 		strd	r8, r3, [r4, #32]
 3060 012c 9CF80010 		ldrb	r1, [ip]	@ zero_extendqisi2
 3061 0130 D87E     		ldrb	r0, [r3, #27]	@ zero_extendqisi2
 3062 0132 9A7E     		ldrb	r2, [r3, #26]	@ zero_extendqisi2
 3063 0134 0329     		cmp	r1, #3
 3064 0136 42EA0022 		orr	r2, r2, r0, lsl #8
 3065 013a 05D1     		bne	.L868
 3066 013c 587D     		ldrb	r0, [r3, #21]	@ zero_extendqisi2
ARM GAS  C:\Users\Jay\AppData\Local\Temp\cci0ZEVx.s 			page 54


 3067 013e 197D     		ldrb	r1, [r3, #20]	@ zero_extendqisi2
 3068 0140 41EA0021 		orr	r1, r1, r0, lsl #8
 3069 0144 42EA0142 		orr	r2, r2, r1, lsl #16
 3070              	.L868:
 3071 0148 A260     		str	r2, [r4, #8]
 3072 014a D88B     		ldrh	r0, [r3, #30]	@ unaligned
 3073 014c 5A7F     		ldrb	r2, [r3, #29]	@ zero_extendqisi2
 3074 014e 1B7F     		ldrb	r3, [r3, #28]	@ zero_extendqisi2
 3075 0150 BCF80610 		ldrh	r1, [ip, #6]
 3076 0154 A180     		strh	r1, [r4, #4]	@ movhi
 3077 0156 42EA0022 		orr	r2, r2, r0, lsl #8
 3078 015a 43EA0223 		orr	r3, r3, r2, lsl #8
 3079 015e 04F12805 		add	r5, r4, #40
 3080 0162 0022     		movs	r2, #0
 3081 0164 E360     		str	r3, [r4, #12]
 3082 0166 C4F800C0 		str	ip, [r4]
 3083 016a 2774     		strb	r7, [r4, #16]
 3084 016c 6274     		strb	r2, [r4, #17]
 3085 016e E261     		str	r2, [r4, #28]
 3086 0170 6261     		str	r2, [r4, #20]
 3087 0172 2B46     		mov	r3, r5
 3088 0174 04F50A71 		add	r1, r4, #552
 3089              	.L869:
 3090 0178 03F8012B 		strb	r2, [r3], #1
 3091 017c 8B42     		cmp	r3, r1
 3092 017e FBD1     		bne	.L869
 3093 0180 B906     		lsls	r1, r7, #26
 3094 0182 7FF54FAF 		bpl	.L893
 3095 0186 E768     		ldr	r7, [r4, #12]
 3096 0188 002F     		cmp	r7, #0
 3097 018a 3FF44BAF 		beq	.L893
 3098 018e BCF80A80 		ldrh	r8, [ip, #10]
 3099 0192 A168     		ldr	r1, [r4, #8]
 3100 0194 6761     		str	r7, [r4, #20]
 3101 0196 4FEA4828 		lsl	r8, r8, #9
 3102 019a 4745     		cmp	r7, r8
 3103 019c 04D8     		bhi	.L874
 3104 019e 23E0     		b	.L872
 3105              	.L920:
 3106 01a0 421C     		adds	r2, r0, #1
 3107 01a2 16D0     		beq	.L888
 3108 01a4 B845     		cmp	r8, r7
 3109 01a6 1FD2     		bcs	.L872
 3110              	.L874:
 3111 01a8 2068     		ldr	r0, [r4]
 3112 01aa FFF7FEFF 		bl	get_fat.isra.9
 3113 01ae 0128     		cmp	r0, #1
 3114 01b0 0146     		mov	r1, r0
 3115 01b2 A7EB0807 		sub	r7, r7, r8
 3116 01b6 F3D8     		bhi	.L920
 3117 01b8 0226     		movs	r6, #2
 3118              	.L873:
 3119 01ba A161     		str	r1, [r4, #24]
 3120 01bc 30E7     		b	.L855
 3121              	.L867:
 3122 01be DDF80CC0 		ldr	ip, [sp, #12]
 3123 01c2 0B9B     		ldr	r3, [sp, #44]
ARM GAS  C:\Users\Jay\AppData\Local\Temp\cci0ZEVx.s 			page 55


 3124 01c4 DCF83480 		ldr	r8, [ip, #52]
 3125 01c8 2807     		lsls	r0, r5, #28
 3126 01ca ADD5     		bpl	.L861
 3127 01cc AAE7     		b	.L880
 3128              	.L882:
 3129 01ce 0626     		movs	r6, #6
 3130 01d0 26E7     		b	.L855
 3131              	.L888:
 3132 01d2 0126     		movs	r6, #1
 3133 01d4 F1E7     		b	.L873
 3134              	.L915:
 3135 01d6 2807     		lsls	r0, r5, #28
 3136 01d8 DDF80CC0 		ldr	ip, [sp, #12]
 3137 01dc 0B9B     		ldr	r3, [sp, #44]
 3138 01de 3FF55EAF 		bmi	.L860
 3139 01e2 DCF83480 		ldr	r8, [ip, #52]
 3140 01e6 9FE7     		b	.L861
 3141              	.L872:
 3142 01e8 C7F30803 		ubfx	r3, r7, #0, #9
 3143 01ec A161     		str	r1, [r4, #24]
 3144 01ee 002B     		cmp	r3, #0
 3145 01f0 3FF418AF 		beq	.L893
 3146 01f4 039B     		ldr	r3, [sp, #12]
 3147 01f6 DA69     		ldr	r2, [r3, #28]
 3148 01f8 0239     		subs	r1, r1, #2
 3149 01fa 023A     		subs	r2, r2, #2
 3150 01fc 9142     		cmp	r1, r2
 3151 01fe 04D2     		bcs	.L890
 3152 0200 5A89     		ldrh	r2, [r3, #10]
 3153 0202 186B     		ldr	r0, [r3, #48]
 3154 0204 01FB0202 		mla	r2, r1, r2, r0
 3155 0208 72B9     		cbnz	r2, .L921
 3156              	.L890:
 3157 020a 0226     		movs	r6, #2
 3158 020c 08E7     		b	.L855
 3159              	.L918:
 3160 020e 1A75     		strb	r2, [r3, #20]
 3161 0210 5A75     		strb	r2, [r3, #21]
 3162 0212 5FE7     		b	.L863
 3163              	.L917:
 3164 0214 597D     		ldrb	r1, [r3, #21]	@ zero_extendqisi2
 3165 0216 1A7D     		ldrb	r2, [r3, #20]	@ zero_extendqisi2
 3166 0218 42EA0122 		orr	r2, r2, r1, lsl #8
 3167 021c 45EA0245 		orr	r5, r5, r2, lsl #16
 3168 0220 46E7     		b	.L862
 3169              	.L919:
 3170 0222 CCF81050 		str	r5, [ip, #16]
 3171 0226 7CE7     		b	.L865
 3172              	.L921:
 3173 0228 02EB5722 		add	r2, r2, r7, lsr #9
 3174 022c E261     		str	r2, [r4, #28]
 3175 022e 5878     		ldrb	r0, [r3, #1]	@ zero_extendqisi2
 3176 0230 2946     		mov	r1, r5
 3177 0232 0123     		movs	r3, #1
 3178 0234 FFF7FEFF 		bl	disk_read
 3179 0238 0028     		cmp	r0, #0
 3180 023a 3FF4F3AE 		beq	.L893
ARM GAS  C:\Users\Jay\AppData\Local\Temp\cci0ZEVx.s 			page 56


 3181 023e 0126     		movs	r6, #1
 3182 0240 EEE6     		b	.L855
 3184 0242 00BF     		.section	.text.f_read,"ax",%progbits
 3185              		.align	1
 3186              		.p2align 2,,3
 3187              		.global	f_read
 3188              		.syntax unified
 3189              		.thumb
 3190              		.thumb_func
 3191              		.fpu fpv4-sp-d16
 3193              	f_read:
 3194              		@ args = 0, pretend = 0, frame = 16
 3195              		@ frame_needed = 0, uses_anonymous_args = 0
 3196 0000 2DE9F04F 		push	{r4, r5, r6, r7, r8, r9, r10, fp, lr}
 3197 0004 9846     		mov	r8, r3
 3198 0006 85B0     		sub	sp, sp, #20
 3199 0008 0023     		movs	r3, #0
 3200 000a 8946     		mov	r9, r1
 3201 000c C8F80030 		str	r3, [r8]
 3202 0010 03A9     		add	r1, sp, #12
 3203 0012 1446     		mov	r4, r2
 3204 0014 0546     		mov	r5, r0
 3205 0016 FFF7FEFF 		bl	validate
 3206 001a 0746     		mov	r7, r0
 3207 001c 0028     		cmp	r0, #0
 3208 001e 38D1     		bne	.L923
 3209 0020 6F7C     		ldrb	r7, [r5, #17]	@ zero_extendqisi2
 3210 0022 002F     		cmp	r7, #0
 3211 0024 35D1     		bne	.L923
 3212 0026 2B7C     		ldrb	r3, [r5, #16]	@ zero_extendqisi2
 3213 0028 DA07     		lsls	r2, r3, #31
 3214 002a 69D5     		bpl	.L942
 3215 002c 6B69     		ldr	r3, [r5, #20]
 3216 002e EE68     		ldr	r6, [r5, #12]
 3217 0030 F61A     		subs	r6, r6, r3
 3218 0032 A642     		cmp	r6, r4
 3219 0034 28BF     		it	cs
 3220 0036 2646     		movcs	r6, r4
 3221 0038 5EB3     		cbz	r6, .L923
 3222 003a 05F1280A 		add	r10, r5, #40
 3223              	.L924:
 3224 003e C3F30801 		ubfx	r1, r3, #0, #9
 3225 0042 0029     		cmp	r1, #0
 3226 0044 3DD1     		bne	.L926
 3227 0046 0399     		ldr	r1, [sp, #12]
 3228 0048 4A89     		ldrh	r2, [r1, #10]
 3229 004a 013A     		subs	r2, r2, #1
 3230 004c 12EA5322 		ands	r2, r2, r3, lsr #9
 3231 0050 4DD0     		beq	.L927
 3232 0052 A869     		ldr	r0, [r5, #24]
 3233              	.L928:
 3234 0054 CB69     		ldr	r3, [r1, #28]
 3235 0056 0238     		subs	r0, r0, #2
 3236 0058 023B     		subs	r3, r3, #2
 3237 005a 9842     		cmp	r0, r3
 3238 005c 79D2     		bcs	.L933
 3239 005e B1F80AC0 		ldrh	ip, [r1, #10]
ARM GAS  C:\Users\Jay\AppData\Local\Temp\cci0ZEVx.s 			page 57


 3240 0062 0B6B     		ldr	r3, [r1, #48]
 3241 0064 0CFB0030 		mla	r0, ip, r0, r3
 3242 0068 0028     		cmp	r0, #0
 3243 006a 72D0     		beq	.L933
 3244 006c 740A     		lsrs	r4, r6, #9
 3245 006e 02EB000B 		add	fp, r2, r0
 3246 0072 12D0     		beq	.L934
 3247 0074 1319     		adds	r3, r2, r4
 3248 0076 6345     		cmp	r3, ip
 3249 0078 88BF     		it	hi
 3250 007a ACEB0204 		subhi	r4, ip, r2
 3251 007e 4878     		ldrb	r0, [r1, #1]	@ zero_extendqisi2
 3252 0080 2346     		mov	r3, r4
 3253 0082 5A46     		mov	r2, fp
 3254 0084 4946     		mov	r1, r9
 3255 0086 FFF7FEFF 		bl	disk_read
 3256 008a 0028     		cmp	r0, #0
 3257 008c 3AD0     		beq	.L949
 3258              	.L936:
 3259 008e 0127     		movs	r7, #1
 3260 0090 6F74     		strb	r7, [r5, #17]
 3261              	.L923:
 3262 0092 3846     		mov	r0, r7
 3263 0094 05B0     		add	sp, sp, #20
 3264              		@ sp needed
 3265 0096 BDE8F08F 		pop	{r4, r5, r6, r7, r8, r9, r10, fp, pc}
 3266              	.L934:
 3267 009a EA69     		ldr	r2, [r5, #28]
 3268 009c 5A45     		cmp	r2, fp
 3269 009e 0BD0     		beq	.L939
 3270 00a0 95F91030 		ldrsb	r3, [r5, #16]
 3271 00a4 4878     		ldrb	r0, [r1, #1]	@ zero_extendqisi2
 3272 00a6 002B     		cmp	r3, #0
 3273 00a8 39DB     		blt	.L950
 3274              	.L940:
 3275 00aa 0123     		movs	r3, #1
 3276 00ac 5A46     		mov	r2, fp
 3277 00ae 5146     		mov	r1, r10
 3278 00b0 FFF7FEFF 		bl	disk_read
 3279 00b4 0028     		cmp	r0, #0
 3280 00b6 EAD1     		bne	.L936
 3281              	.L939:
 3282 00b8 6969     		ldr	r1, [r5, #20]
 3283 00ba C5F81CB0 		str	fp, [r5, #28]
 3284 00be C1F30801 		ubfx	r1, r1, #0, #9
 3285              	.L926:
 3286 00c2 C1F50074 		rsb	r4, r1, #512
 3287 00c6 B442     		cmp	r4, r6
 3288 00c8 28BF     		it	cs
 3289 00ca 3446     		movcs	r4, r6
 3290 00cc 5144     		add	r1, r1, r10
 3291 00ce 2246     		mov	r2, r4
 3292 00d0 4846     		mov	r0, r9
 3293 00d2 FFF7FEFF 		bl	mem_cpy.part.0
 3294              	.L938:
 3295 00d6 D8F80020 		ldr	r2, [r8]
 3296 00da 6B69     		ldr	r3, [r5, #20]
ARM GAS  C:\Users\Jay\AppData\Local\Temp\cci0ZEVx.s 			page 58


 3297 00dc 2244     		add	r2, r2, r4
 3298 00de 2344     		add	r3, r3, r4
 3299 00e0 361B     		subs	r6, r6, r4
 3300 00e2 C8F80020 		str	r2, [r8]
 3301 00e6 A144     		add	r9, r9, r4
 3302 00e8 6B61     		str	r3, [r5, #20]
 3303 00ea A8D1     		bne	.L924
 3304 00ec D1E7     		b	.L923
 3305              	.L927:
 3306 00ee 7BB9     		cbnz	r3, .L929
 3307 00f0 A868     		ldr	r0, [r5, #8]
 3308              	.L930:
 3309 00f2 0128     		cmp	r0, #1
 3310 00f4 2DD9     		bls	.L933
 3311 00f6 431C     		adds	r3, r0, #1
 3312 00f8 C9D0     		beq	.L936
 3313 00fa 0399     		ldr	r1, [sp, #12]
 3314 00fc A861     		str	r0, [r5, #24]
 3315 00fe A9E7     		b	.L928
 3316              	.L942:
 3317 0100 0727     		movs	r7, #7
 3318 0102 C6E7     		b	.L923
 3319              	.L949:
 3320 0104 95F91030 		ldrsb	r3, [r5, #16]
 3321 0108 002B     		cmp	r3, #0
 3322 010a 15DB     		blt	.L951
 3323              	.L937:
 3324 010c 6402     		lsls	r4, r4, #9
 3325 010e E2E7     		b	.L938
 3326              	.L929:
 3327 0110 A969     		ldr	r1, [r5, #24]
 3328 0112 2868     		ldr	r0, [r5]
 3329 0114 0192     		str	r2, [sp, #4]
 3330 0116 FFF7FEFF 		bl	get_fat.isra.9
 3331 011a 019A     		ldr	r2, [sp, #4]
 3332 011c E9E7     		b	.L930
 3333              	.L950:
 3334 011e 0123     		movs	r3, #1
 3335 0120 5146     		mov	r1, r10
 3336 0122 FFF7FEFF 		bl	disk_write
 3337 0126 0028     		cmp	r0, #0
 3338 0128 B1D1     		bne	.L936
 3339 012a 2B7C     		ldrb	r3, [r5, #16]	@ zero_extendqisi2
 3340 012c 039A     		ldr	r2, [sp, #12]
 3341 012e 03F07F03 		and	r3, r3, #127
 3342 0132 2B74     		strb	r3, [r5, #16]
 3343 0134 5078     		ldrb	r0, [r2, #1]	@ zero_extendqisi2
 3344 0136 B8E7     		b	.L940
 3345              	.L951:
 3346 0138 E869     		ldr	r0, [r5, #28]
 3347 013a A0EB0B00 		sub	r0, r0, fp
 3348 013e A042     		cmp	r0, r4
 3349 0140 E4D2     		bcs	.L937
 3350 0142 09EB4020 		add	r0, r9, r0, lsl #9
 3351 0146 4FF40072 		mov	r2, #512
 3352 014a 5146     		mov	r1, r10
 3353 014c FFF7FEFF 		bl	mem_cpy.part.0
ARM GAS  C:\Users\Jay\AppData\Local\Temp\cci0ZEVx.s 			page 59


 3354 0150 DCE7     		b	.L937
 3355              	.L933:
 3356 0152 0227     		movs	r7, #2
 3357 0154 6F74     		strb	r7, [r5, #17]
 3358 0156 9CE7     		b	.L923
 3360              		.section	.text.f_write,"ax",%progbits
 3361              		.align	1
 3362              		.p2align 2,,3
 3363              		.global	f_write
 3364              		.syntax unified
 3365              		.thumb
 3366              		.thumb_func
 3367              		.fpu fpv4-sp-d16
 3369              	f_write:
 3370              		@ args = 0, pretend = 0, frame = 16
 3371              		@ frame_needed = 0, uses_anonymous_args = 0
 3372 0000 2DE9F04F 		push	{r4, r5, r6, r7, r8, r9, r10, fp, lr}
 3373 0004 9A46     		mov	r10, r3
 3374 0006 85B0     		sub	sp, sp, #20
 3375 0008 0023     		movs	r3, #0
 3376 000a 8B46     		mov	fp, r1
 3377 000c CAF80030 		str	r3, [r10]
 3378 0010 03A9     		add	r1, sp, #12
 3379 0012 1646     		mov	r6, r2
 3380 0014 0446     		mov	r4, r0
 3381 0016 FFF7FEFF 		bl	validate
 3382 001a 8046     		mov	r8, r0
 3383 001c 0028     		cmp	r0, #0
 3384 001e 54D1     		bne	.L953
 3385 0020 94F81180 		ldrb	r8, [r4, #17]	@ zero_extendqisi2
 3386 0024 B8F1000F 		cmp	r8, #0
 3387 0028 4FD1     		bne	.L953
 3388 002a 227C     		ldrb	r2, [r4, #16]	@ zero_extendqisi2
 3389 002c 9107     		lsls	r1, r2, #30
 3390 002e 40F18C80 		bpl	.L974
 3391 0032 6369     		ldr	r3, [r4, #20]
 3392 0034 F342     		cmn	r3, r6
 3393 0036 00D3     		bcc	.L954
 3394 0038 DE43     		mvns	r6, r3
 3395              	.L954:
 3396 003a 002E     		cmp	r6, #0
 3397 003c 73D0     		beq	.L961
 3398 003e 04F12802 		add	r2, r4, #40
 3399 0042 0192     		str	r2, [sp, #4]
 3400              	.L973:
 3401 0044 C3F30800 		ubfx	r0, r3, #0, #9
 3402 0048 0028     		cmp	r0, #0
 3403 004a 4CD1     		bne	.L956
 3404 004c 039A     		ldr	r2, [sp, #12]
 3405 004e B2F80A90 		ldrh	r9, [r2, #10]
 3406 0052 09F1FF39 		add	r9, r9, #-1
 3407 0056 19EA5329 		ands	r9, r9, r3, lsr #9
 3408 005a 0FD1     		bne	.L957
 3409 005c 002B     		cmp	r3, #0
 3410 005e 7DD1     		bne	.L958
 3411 0060 A068     		ldr	r0, [r4, #8]
 3412 0062 0028     		cmp	r0, #0
ARM GAS  C:\Users\Jay\AppData\Local\Temp\cci0ZEVx.s 			page 60


 3413 0064 00F08280 		beq	.L982
 3414              	.L959:
 3415 0068 0128     		cmp	r0, #1
 3416 006a 00F09D80 		beq	.L967
 3417 006e 431C     		adds	r3, r0, #1
 3418 0070 27D0     		beq	.L966
 3419 0072 A368     		ldr	r3, [r4, #8]
 3420 0074 A061     		str	r0, [r4, #24]
 3421 0076 039A     		ldr	r2, [sp, #12]
 3422 0078 03B9     		cbnz	r3, .L957
 3423 007a A060     		str	r0, [r4, #8]
 3424              	.L957:
 3425 007c 94F91030 		ldrsb	r3, [r4, #16]
 3426 0080 002B     		cmp	r3, #0
 3427 0082 54DB     		blt	.L983
 3428              	.L965:
 3429 0084 A769     		ldr	r7, [r4, #24]
 3430 0086 D369     		ldr	r3, [r2, #28]
 3431 0088 023F     		subs	r7, r7, #2
 3432 008a 023B     		subs	r3, r3, #2
 3433 008c 9F42     		cmp	r7, r3
 3434 008e 80F08B80 		bcs	.L967
 3435 0092 5389     		ldrh	r3, [r2, #10]
 3436 0094 116B     		ldr	r1, [r2, #48]
 3437 0096 03FB0717 		mla	r7, r3, r7, r1
 3438 009a 002F     		cmp	r7, #0
 3439 009c 00F08480 		beq	.L967
 3440 00a0 750A     		lsrs	r5, r6, #9
 3441 00a2 4F44     		add	r7, r7, r9
 3442 00a4 15D0     		beq	.L968
 3443 00a6 09EB0501 		add	r1, r9, r5
 3444 00aa 9942     		cmp	r1, r3
 3445 00ac 88BF     		it	hi
 3446 00ae A3EB0905 		subhi	r5, r3, r9
 3447 00b2 5078     		ldrb	r0, [r2, #1]	@ zero_extendqisi2
 3448 00b4 2B46     		mov	r3, r5
 3449 00b6 3A46     		mov	r2, r7
 3450 00b8 5946     		mov	r1, fp
 3451 00ba FFF7FEFF 		bl	disk_write
 3452 00be 0028     		cmp	r0, #0
 3453 00c0 46D0     		beq	.L984
 3454              	.L966:
 3455 00c2 4FF00108 		mov	r8, #1
 3456 00c6 84F81180 		strb	r8, [r4, #17]
 3457              	.L953:
 3458 00ca 4046     		mov	r0, r8
 3459 00cc 05B0     		add	sp, sp, #20
 3460              		@ sp needed
 3461 00ce BDE8F08F 		pop	{r4, r5, r6, r7, r8, r9, r10, fp, pc}
 3462              	.L968:
 3463 00d2 E369     		ldr	r3, [r4, #28]
 3464 00d4 6069     		ldr	r0, [r4, #20]
 3465 00d6 BB42     		cmp	r3, r7
 3466 00d8 02D0     		beq	.L972
 3467 00da E368     		ldr	r3, [r4, #12]
 3468 00dc 8342     		cmp	r3, r0
 3469 00de 4DD8     		bhi	.L985
ARM GAS  C:\Users\Jay\AppData\Local\Temp\cci0ZEVx.s 			page 61


 3470              	.L972:
 3471 00e0 E761     		str	r7, [r4, #28]
 3472 00e2 C0F30800 		ubfx	r0, r0, #0, #9
 3473              	.L956:
 3474 00e6 C0F50075 		rsb	r5, r0, #512
 3475 00ea 019B     		ldr	r3, [sp, #4]
 3476 00ec B542     		cmp	r5, r6
 3477 00ee 28BF     		it	cs
 3478 00f0 3546     		movcs	r5, r6
 3479 00f2 1844     		add	r0, r0, r3
 3480 00f4 2A46     		mov	r2, r5
 3481 00f6 5946     		mov	r1, fp
 3482 00f8 FFF7FEFF 		bl	mem_cpy.part.0
 3483 00fc 237C     		ldrb	r3, [r4, #16]	@ zero_extendqisi2
 3484 00fe 63F07F03 		orn	r3, r3, #127
 3485 0102 2374     		strb	r3, [r4, #16]
 3486              	.L971:
 3487 0104 6369     		ldr	r3, [r4, #20]
 3488 0106 E268     		ldr	r2, [r4, #12]
 3489 0108 DAF80010 		ldr	r1, [r10]
 3490 010c 2B44     		add	r3, r3, r5
 3491 010e 9A42     		cmp	r2, r3
 3492 0110 38BF     		it	cc
 3493 0112 1A46     		movcc	r2, r3
 3494 0114 2944     		add	r1, r1, r5
 3495 0116 761B     		subs	r6, r6, r5
 3496 0118 CAF80010 		str	r1, [r10]
 3497 011c AB44     		add	fp, fp, r5
 3498 011e E260     		str	r2, [r4, #12]
 3499 0120 6361     		str	r3, [r4, #20]
 3500 0122 8FD1     		bne	.L973
 3501              	.L981:
 3502 0124 227C     		ldrb	r2, [r4, #16]	@ zero_extendqisi2
 3503              	.L961:
 3504 0126 42F04002 		orr	r2, r2, #64
 3505 012a 2274     		strb	r2, [r4, #16]
 3506 012c CDE7     		b	.L953
 3507              	.L983:
 3508 012e 5078     		ldrb	r0, [r2, #1]	@ zero_extendqisi2
 3509 0130 0199     		ldr	r1, [sp, #4]
 3510 0132 E269     		ldr	r2, [r4, #28]
 3511 0134 0123     		movs	r3, #1
 3512 0136 FFF7FEFF 		bl	disk_write
 3513 013a 0028     		cmp	r0, #0
 3514 013c C1D1     		bne	.L966
 3515 013e 237C     		ldrb	r3, [r4, #16]	@ zero_extendqisi2
 3516 0140 039A     		ldr	r2, [sp, #12]
 3517 0142 03F07F03 		and	r3, r3, #127
 3518 0146 2374     		strb	r3, [r4, #16]
 3519 0148 9CE7     		b	.L965
 3520              	.L974:
 3521 014a 4FF00708 		mov	r8, #7
 3522 014e BCE7     		b	.L953
 3523              	.L984:
 3524 0150 E169     		ldr	r1, [r4, #28]
 3525 0152 C91B     		subs	r1, r1, r7
 3526 0154 A942     		cmp	r1, r5
ARM GAS  C:\Users\Jay\AppData\Local\Temp\cci0ZEVx.s 			page 62


 3527 0156 1BD3     		bcc	.L986
 3528              	.L970:
 3529 0158 6D02     		lsls	r5, r5, #9
 3530 015a D3E7     		b	.L971
 3531              	.L958:
 3532 015c A169     		ldr	r1, [r4, #24]
 3533 015e 2046     		mov	r0, r4
 3534 0160 FFF7FEFF 		bl	create_chain
 3535 0164 0028     		cmp	r0, #0
 3536 0166 7FF47FAF 		bne	.L959
 3537 016a DBE7     		b	.L981
 3538              	.L982:
 3539 016c 4946     		mov	r1, r9
 3540 016e 2046     		mov	r0, r4
 3541 0170 FFF7FEFF 		bl	create_chain
 3542 0174 0028     		cmp	r0, #0
 3543 0176 7FF477AF 		bne	.L959
 3544 017a D3E7     		b	.L981
 3545              	.L985:
 3546 017c 5078     		ldrb	r0, [r2, #1]	@ zero_extendqisi2
 3547 017e 0199     		ldr	r1, [sp, #4]
 3548 0180 0123     		movs	r3, #1
 3549 0182 3A46     		mov	r2, r7
 3550 0184 FFF7FEFF 		bl	disk_read
 3551 0188 0028     		cmp	r0, #0
 3552 018a 9AD1     		bne	.L966
 3553 018c 6069     		ldr	r0, [r4, #20]
 3554 018e A7E7     		b	.L972
 3555              	.L986:
 3556 0190 0BEB4121 		add	r1, fp, r1, lsl #9
 3557 0194 4FF40072 		mov	r2, #512
 3558 0198 0198     		ldr	r0, [sp, #4]
 3559 019a FFF7FEFF 		bl	mem_cpy.part.0
 3560 019e 237C     		ldrb	r3, [r4, #16]	@ zero_extendqisi2
 3561 01a0 03F07F03 		and	r3, r3, #127
 3562 01a4 2374     		strb	r3, [r4, #16]
 3563 01a6 D7E7     		b	.L970
 3564              	.L967:
 3565 01a8 4FF00208 		mov	r8, #2
 3566 01ac 84F81180 		strb	r8, [r4, #17]
 3567 01b0 8BE7     		b	.L953
 3569              		.section	.text.f_sync,"ax",%progbits
 3570              		.align	1
 3571              		.p2align 2,,3
 3572              		.global	f_sync
 3573              		.syntax unified
 3574              		.thumb
 3575              		.thumb_func
 3576              		.fpu fpv4-sp-d16
 3578              	f_sync:
 3579              		@ args = 0, pretend = 0, frame = 8
 3580              		@ frame_needed = 0, uses_anonymous_args = 0
 3581 0000 70B5     		push	{r4, r5, r6, lr}
 3582 0002 82B0     		sub	sp, sp, #8
 3583 0004 01A9     		add	r1, sp, #4
 3584 0006 0446     		mov	r4, r0
 3585 0008 FFF7FEFF 		bl	validate
ARM GAS  C:\Users\Jay\AppData\Local\Temp\cci0ZEVx.s 			page 63


 3586 000c 88BB     		cbnz	r0, .L988
 3587 000e 237C     		ldrb	r3, [r4, #16]	@ zero_extendqisi2
 3588 0010 5A06     		lsls	r2, r3, #25
 3589 0012 2ED5     		bpl	.L988
 3590 0014 1B06     		lsls	r3, r3, #24
 3591 0016 019D     		ldr	r5, [sp, #4]
 3592 0018 39D4     		bmi	.L997
 3593              	.L989:
 3594 001a 216A     		ldr	r1, [r4, #32]
 3595 001c 6B6B     		ldr	r3, [r5, #52]
 3596 001e 9942     		cmp	r1, r3
 3597 0020 29D1     		bne	.L998
 3598              	.L990:
 3599 0022 636A     		ldr	r3, [r4, #36]
 3600 0024 DA7A     		ldrb	r2, [r3, #11]	@ zero_extendqisi2
 3601 0026 42F02002 		orr	r2, r2, #32
 3602 002a DA72     		strb	r2, [r3, #11]
 3603 002c A268     		ldr	r2, [r4, #8]
 3604 002e 2168     		ldr	r1, [r4]
 3605 0030 9A76     		strb	r2, [r3, #26]
 3606 0032 C2F30720 		ubfx	r0, r2, #8, #8
 3607 0036 D876     		strb	r0, [r3, #27]
 3608 0038 0978     		ldrb	r1, [r1]	@ zero_extendqisi2
 3609 003a 0329     		cmp	r1, #3
 3610 003c 22D0     		beq	.L999
 3611              	.L991:
 3612 003e E268     		ldr	r2, [r4, #12]
 3613 0040 1A77     		strb	r2, [r3, #28]
 3614 0042 110A     		lsrs	r1, r2, #8
 3615 0044 100C     		lsrs	r0, r2, #16
 3616 0046 120E     		lsrs	r2, r2, #24
 3617 0048 5977     		strb	r1, [r3, #29]
 3618 004a 9877     		strb	r0, [r3, #30]
 3619 004c 0021     		movs	r1, #0
 3620 004e DA77     		strb	r2, [r3, #31]
 3621 0050 4E20     		movs	r0, #78
 3622 0052 0122     		movs	r2, #1
 3623 0054 2126     		movs	r6, #33
 3624 0056 5876     		strb	r0, [r3, #25]
 3625 0058 9975     		strb	r1, [r3, #22]
 3626 005a D975     		strb	r1, [r3, #23]
 3627 005c 9974     		strb	r1, [r3, #18]
 3628 005e D974     		strb	r1, [r3, #19]
 3629 0060 1E76     		strb	r6, [r3, #24]
 3630 0062 2846     		mov	r0, r5
 3631 0064 EA70     		strb	r2, [r5, #3]
 3632 0066 FFF7FEFF 		bl	sync_fs
 3633 006a 237C     		ldrb	r3, [r4, #16]	@ zero_extendqisi2
 3634 006c 23F04003 		bic	r3, r3, #64
 3635 0070 2374     		strb	r3, [r4, #16]
 3636              	.L988:
 3637 0072 02B0     		add	sp, sp, #8
 3638              		@ sp needed
 3639 0074 70BD     		pop	{r4, r5, r6, pc}
 3640              	.L998:
 3641 0076 2846     		mov	r0, r5
 3642 0078 FFF7FEFF 		bl	move_window.part.6
ARM GAS  C:\Users\Jay\AppData\Local\Temp\cci0ZEVx.s 			page 64


 3643 007c 0028     		cmp	r0, #0
 3644 007e F8D1     		bne	.L988
 3645 0080 019D     		ldr	r5, [sp, #4]
 3646 0082 CEE7     		b	.L990
 3647              	.L999:
 3648 0084 120C     		lsrs	r2, r2, #16
 3649 0086 110A     		lsrs	r1, r2, #8
 3650 0088 1A75     		strb	r2, [r3, #20]
 3651 008a 5975     		strb	r1, [r3, #21]
 3652 008c D7E7     		b	.L991
 3653              	.L997:
 3654 008e 6878     		ldrb	r0, [r5, #1]	@ zero_extendqisi2
 3655 0090 E269     		ldr	r2, [r4, #28]
 3656 0092 0123     		movs	r3, #1
 3657 0094 04F12801 		add	r1, r4, #40
 3658 0098 FFF7FEFF 		bl	disk_write
 3659 009c 28B9     		cbnz	r0, .L992
 3660 009e 237C     		ldrb	r3, [r4, #16]	@ zero_extendqisi2
 3661 00a0 019D     		ldr	r5, [sp, #4]
 3662 00a2 03F07F03 		and	r3, r3, #127
 3663 00a6 2374     		strb	r3, [r4, #16]
 3664 00a8 B7E7     		b	.L989
 3665              	.L992:
 3666 00aa 0120     		movs	r0, #1
 3667 00ac E1E7     		b	.L988
 3669 00ae 00BF     		.section	.text.f_close,"ax",%progbits
 3670              		.align	1
 3671              		.p2align 2,,3
 3672              		.global	f_close
 3673              		.syntax unified
 3674              		.thumb
 3675              		.thumb_func
 3676              		.fpu fpv4-sp-d16
 3678              	f_close:
 3679              		@ args = 0, pretend = 0, frame = 8
 3680              		@ frame_needed = 0, uses_anonymous_args = 0
 3681 0000 10B5     		push	{r4, lr}
 3682 0002 82B0     		sub	sp, sp, #8
 3683 0004 0446     		mov	r4, r0
 3684 0006 FFF7FEFF 		bl	f_sync
 3685 000a 08B1     		cbz	r0, .L1003
 3686              	.L1001:
 3687 000c 02B0     		add	sp, sp, #8
 3688              		@ sp needed
 3689 000e 10BD     		pop	{r4, pc}
 3690              	.L1003:
 3691 0010 01A9     		add	r1, sp, #4
 3692 0012 2046     		mov	r0, r4
 3693 0014 FFF7FEFF 		bl	validate
 3694 0018 0028     		cmp	r0, #0
 3695 001a F7D1     		bne	.L1001
 3696 001c 2060     		str	r0, [r4]
 3697 001e 02B0     		add	sp, sp, #8
 3698              		@ sp needed
 3699 0020 10BD     		pop	{r4, pc}
 3701 0022 00BF     		.section	.text.f_chdrive,"ax",%progbits
 3702              		.align	1
ARM GAS  C:\Users\Jay\AppData\Local\Temp\cci0ZEVx.s 			page 65


 3703              		.p2align 2,,3
 3704              		.global	f_chdrive
 3705              		.syntax unified
 3706              		.thumb
 3707              		.thumb_func
 3708              		.fpu fpv4-sp-d16
 3710              	f_chdrive:
 3711              		@ args = 0, pretend = 0, frame = 8
 3712              		@ frame_needed = 0, uses_anonymous_args = 0
 3713 0000 00B5     		push	{lr}
 3714 0002 83B0     		sub	sp, sp, #12
 3715 0004 02AB     		add	r3, sp, #8
 3716 0006 43F8040D 		str	r0, [r3, #-4]!
 3717 000a 1846     		mov	r0, r3
 3718 000c FFF7FEFF 		bl	get_ldnumber
 3719 0010 031E     		subs	r3, r0, #0
 3720 0012 A5BF     		ittet	ge
 3721 0014 034A     		ldrge	r2, .L1008
 3722 0016 0020     		movge	r0, #0
 3723 0018 0B20     		movlt	r0, #11
 3724 001a 1370     		strbge	r3, [r2]
 3725 001c 03B0     		add	sp, sp, #12
 3726              		@ sp needed
 3727 001e 5DF804FB 		ldr	pc, [sp], #4
 3728              	.L1009:
 3729 0022 00BF     		.align	2
 3730              	.L1008:
 3731 0024 00000000 		.word	.LANCHOR0
 3733              		.section	.text.f_chdir,"ax",%progbits
 3734              		.align	1
 3735              		.p2align 2,,3
 3736              		.global	f_chdir
 3737              		.syntax unified
 3738              		.thumb
 3739              		.thumb_func
 3740              		.fpu fpv4-sp-d16
 3742              	f_chdir:
 3743              		@ args = 0, pretend = 0, frame = 64
 3744              		@ frame_needed = 0, uses_anonymous_args = 0
 3745 0000 30B5     		push	{r4, r5, lr}
 3746 0002 91B0     		sub	sp, sp, #68
 3747 0004 0022     		movs	r2, #0
 3748 0006 0190     		str	r0, [sp, #4]
 3749 0008 03A9     		add	r1, sp, #12
 3750 000a 01A8     		add	r0, sp, #4
 3751 000c FFF7FEFF 		bl	mount_volume
 3752 0010 08B1     		cbz	r0, .L1017
 3753              	.L1011:
 3754 0012 11B0     		add	sp, sp, #68
 3755              		@ sp needed
 3756 0014 30BD     		pop	{r4, r5, pc}
 3757              	.L1017:
 3758 0016 039B     		ldr	r3, [sp, #12]
 3759 0018 0199     		ldr	r1, [sp, #4]
 3760 001a 0493     		str	r3, [sp, #16]
 3761 001c 04A8     		add	r0, sp, #16
 3762 001e FFF7FEFF 		bl	follow_path
ARM GAS  C:\Users\Jay\AppData\Local\Temp\cci0ZEVx.s 			page 66


 3763 0022 C0B9     		cbnz	r0, .L1012
 3764 0024 9DF93B30 		ldrsb	r3, [sp, #59]
 3765 0028 002B     		cmp	r3, #0
 3766 002a 19DB     		blt	.L1018
 3767 002c 9DF81630 		ldrb	r3, [sp, #22]	@ zero_extendqisi2
 3768 0030 DB06     		lsls	r3, r3, #27
 3769 0032 19D5     		bpl	.L1015
 3770 0034 0399     		ldr	r1, [sp, #12]
 3771 0036 0B9A     		ldr	r2, [sp, #44]
 3772 0038 0C78     		ldrb	r4, [r1]	@ zero_extendqisi2
 3773 003a D57E     		ldrb	r5, [r2, #27]	@ zero_extendqisi2
 3774 003c 937E     		ldrb	r3, [r2, #26]	@ zero_extendqisi2
 3775 003e 032C     		cmp	r4, #3
 3776 0040 43EA0523 		orr	r3, r3, r5, lsl #8
 3777 0044 05D1     		bne	.L1014
 3778 0046 547D     		ldrb	r4, [r2, #21]	@ zero_extendqisi2
 3779 0048 127D     		ldrb	r2, [r2, #20]	@ zero_extendqisi2
 3780 004a 42EA0422 		orr	r2, r2, r4, lsl #8
 3781 004e 43EA0243 		orr	r3, r3, r2, lsl #16
 3782              	.L1014:
 3783 0052 8B61     		str	r3, [r1, #24]
 3784 0054 DDE7     		b	.L1011
 3785              	.L1012:
 3786 0056 0428     		cmp	r0, #4
 3787 0058 08BF     		it	eq
 3788 005a 0520     		moveq	r0, #5
 3789 005c 11B0     		add	sp, sp, #68
 3790              		@ sp needed
 3791 005e 30BD     		pop	{r4, r5, pc}
 3792              	.L1018:
 3793 0060 039B     		ldr	r3, [sp, #12]
 3794 0062 069A     		ldr	r2, [sp, #24]
 3795 0064 9A61     		str	r2, [r3, #24]
 3796 0066 D4E7     		b	.L1011
 3797              	.L1015:
 3798 0068 0520     		movs	r0, #5
 3799 006a D2E7     		b	.L1011
 3801              		.section	.text.f_getcwd,"ax",%progbits
 3802              		.align	1
 3803              		.p2align 2,,3
 3804              		.global	f_getcwd
 3805              		.syntax unified
 3806              		.thumb
 3807              		.thumb_func
 3808              		.fpu fpv4-sp-d16
 3810              	f_getcwd:
 3811              		@ args = 0, pretend = 0, frame = 344
 3812              		@ frame_needed = 0, uses_anonymous_args = 0
 3813 0000 2DE9F041 		push	{r4, r5, r6, r7, r8, lr}
 3814 0004 D6B0     		sub	sp, sp, #344
 3815 0006 0023     		movs	r3, #0
 3816 0008 0190     		str	r0, [sp, #4]
 3817 000a 0546     		mov	r5, r0
 3818 000c 0370     		strb	r3, [r0]
 3819 000e 0F46     		mov	r7, r1
 3820 0010 1A46     		mov	r2, r3
 3821 0012 01A8     		add	r0, sp, #4
ARM GAS  C:\Users\Jay\AppData\Local\Temp\cci0ZEVx.s 			page 67


 3822 0014 03A9     		add	r1, sp, #12
 3823 0016 FFF7FEFF 		bl	mount_volume
 3824 001a 0646     		mov	r6, r0
 3825 001c 0028     		cmp	r0, #0
 3826 001e 52D1     		bne	.L1020
 3827 0020 039B     		ldr	r3, [sp, #12]
 3828 0022 0493     		str	r3, [sp, #16]
 3829 0024 D3F81880 		ldr	r8, [r3, #24]
 3830 0028 CDF81880 		str	r8, [sp, #24]
 3831 002c B8F1000F 		cmp	r8, #0
 3832 0030 00F08B80 		beq	.L1021
 3833 0034 3C46     		mov	r4, r7
 3834              	.L1033:
 3835 0036 2021     		movs	r1, #32
 3836 0038 04A8     		add	r0, sp, #16
 3837 003a FFF7FEFF 		bl	dir_sdi
 3838 003e 0028     		cmp	r0, #0
 3839 0040 7CD1     		bne	.L1039
 3840 0042 0398     		ldr	r0, [sp, #12]
 3841 0044 0A99     		ldr	r1, [sp, #40]
 3842 0046 436B     		ldr	r3, [r0, #52]
 3843 0048 9942     		cmp	r1, r3
 3844 004a 04D0     		beq	.L1022
 3845 004c FFF7FEFF 		bl	move_window.part.6
 3846 0050 0028     		cmp	r0, #0
 3847 0052 73D1     		bne	.L1039
 3848 0054 0398     		ldr	r0, [sp, #12]
 3849              	.L1022:
 3850 0056 0B9A     		ldr	r2, [sp, #44]
 3851 0058 0178     		ldrb	r1, [r0]	@ zero_extendqisi2
 3852 005a 937E     		ldrb	r3, [r2, #26]	@ zero_extendqisi2
 3853 005c D07E     		ldrb	r0, [r2, #27]	@ zero_extendqisi2
 3854 005e 0329     		cmp	r1, #3
 3855 0060 43EA0023 		orr	r3, r3, r0, lsl #8
 3856 0064 05D1     		bne	.L1023
 3857 0066 517D     		ldrb	r1, [r2, #21]	@ zero_extendqisi2
 3858 0068 127D     		ldrb	r2, [r2, #20]	@ zero_extendqisi2
 3859 006a 42EA0122 		orr	r2, r2, r1, lsl #8
 3860 006e 43EA0243 		orr	r3, r3, r2, lsl #16
 3861              	.L1023:
 3862 0072 0021     		movs	r1, #0
 3863 0074 04A8     		add	r0, sp, #16
 3864 0076 0693     		str	r3, [sp, #24]
 3865 0078 FFF7FEFF 		bl	dir_sdi
 3866 007c C8B1     		cbz	r0, .L1027
 3867 007e 5DE0     		b	.L1039
 3868              	.L1056:
 3869 0080 0398     		ldr	r0, [sp, #12]
 3870 0082 0B9A     		ldr	r2, [sp, #44]
 3871 0084 90F800C0 		ldrb	ip, [r0]	@ zero_extendqisi2
 3872 0088 92F81BE0 		ldrb	lr, [r2, #27]	@ zero_extendqisi2
 3873 008c 937E     		ldrb	r3, [r2, #26]	@ zero_extendqisi2
 3874 008e BCF1030F 		cmp	ip, #3
 3875 0092 04A8     		add	r0, sp, #16
 3876 0094 43EA0E23 		orr	r3, r3, lr, lsl #8
 3877 0098 06D1     		bne	.L1025
 3878 009a 92F815C0 		ldrb	ip, [r2, #21]	@ zero_extendqisi2
ARM GAS  C:\Users\Jay\AppData\Local\Temp\cci0ZEVx.s 			page 68


 3879 009e 127D     		ldrb	r2, [r2, #20]	@ zero_extendqisi2
 3880 00a0 42EA0C22 		orr	r2, r2, ip, lsl #8
 3881 00a4 43EA0243 		orr	r3, r3, r2, lsl #16
 3882              	.L1025:
 3883 00a8 4345     		cmp	r3, r8
 3884 00aa 12D0     		beq	.L1026
 3885 00ac FFF7FEFF 		bl	dir_next
 3886 00b0 28B9     		cbnz	r0, .L1024
 3887              	.L1027:
 3888 00b2 04A8     		add	r0, sp, #16
 3889 00b4 FFF7FEFF 		bl	dir_read.constprop.12
 3890 00b8 0021     		movs	r1, #0
 3891 00ba 0028     		cmp	r0, #0
 3892 00bc E0D0     		beq	.L1056
 3893              	.L1024:
 3894 00be 0428     		cmp	r0, #4
 3895 00c0 14BF     		ite	ne
 3896 00c2 0646     		movne	r6, r0
 3897 00c4 0226     		moveq	r6, #2
 3898              	.L1020:
 3899 00c6 0023     		movs	r3, #0
 3900 00c8 3046     		mov	r0, r6
 3901 00ca 2B70     		strb	r3, [r5]
 3902 00cc 56B0     		add	sp, sp, #344
 3903              		@ sp needed
 3904 00ce BDE8F081 		pop	{r4, r5, r6, r7, r8, pc}
 3905              	.L1026:
 3906 00d2 10A9     		add	r1, sp, #64
 3907 00d4 04A8     		add	r0, sp, #16
 3908 00d6 FFF7FEFF 		bl	get_fileinfo
 3909 00da 9DF85630 		ldrb	r3, [sp, #86]	@ zero_extendqisi2
 3910 00de 53B3     		cbz	r3, .L1028
 3911 00e0 0DF15601 		add	r1, sp, #86
 3912 00e4 0023     		movs	r3, #0
 3913 00e6 00E0     		b	.L1029
 3914              	.L1040:
 3915 00e8 1346     		mov	r3, r2
 3916              	.L1029:
 3917 00ea 11F8010F 		ldrb	r0, [r1, #1]!	@ zero_extendqisi2
 3918 00ee 5A1C     		adds	r2, r3, #1
 3919 00f0 0028     		cmp	r0, #0
 3920 00f2 F9D1     		bne	.L1040
 3921 00f4 991C     		adds	r1, r3, #2
 3922 00f6 A142     		cmp	r1, r4
 3923 00f8 2CD8     		bhi	.L1042
 3924 00fa 1633     		adds	r3, r3, #22
 3925 00fc 10A9     		add	r1, sp, #64
 3926 00fe 0B44     		add	r3, r3, r1
 3927 0100 A21A     		subs	r2, r4, r2
 3928              	.L1032:
 3929 0102 013C     		subs	r4, r4, #1
 3930 0104 0199     		ldr	r1, [sp, #4]
 3931 0106 13F80109 		ldrb	r0, [r3], #-1	@ zero_extendqisi2
 3932 010a 0855     		strb	r0, [r1, r4]
 3933 010c 9442     		cmp	r4, r2
 3934 010e F8D1     		bne	.L1032
 3935              	.L1031:
ARM GAS  C:\Users\Jay\AppData\Local\Temp\cci0ZEVx.s 			page 69


 3936 0110 541E     		subs	r4, r2, #1
 3937 0112 019B     		ldr	r3, [sp, #4]
 3938 0114 2F22     		movs	r2, #47
 3939 0116 1A55     		strb	r2, [r3, r4]
 3940 0118 DDF81880 		ldr	r8, [sp, #24]
 3941 011c B8F1000F 		cmp	r8, #0
 3942 0120 89D1     		bne	.L1033
 3943 0122 A742     		cmp	r7, r4
 3944 0124 11D0     		beq	.L1021
 3945              	.L1035:
 3946 0126 019B     		ldr	r3, [sp, #4]
 3947 0128 1B5D     		ldrb	r3, [r3, r4]	@ zero_extendqisi2
 3948 012a 05F8013B 		strb	r3, [r5], #1
 3949 012e 0134     		adds	r4, r4, #1
 3950 0130 A742     		cmp	r7, r4
 3951 0132 F8D8     		bhi	.L1035
 3952 0134 C7E7     		b	.L1020
 3953              	.L1028:
 3954 0136 6CB1     		cbz	r4, .L1042
 3955 0138 2246     		mov	r2, r4
 3956 013a E9E7     		b	.L1031
 3957              	.L1039:
 3958 013c 0646     		mov	r6, r0
 3959 013e 0023     		movs	r3, #0
 3960 0140 3046     		mov	r0, r6
 3961 0142 2B70     		strb	r3, [r5]
 3962 0144 56B0     		add	sp, sp, #344
 3963              		@ sp needed
 3964 0146 BDE8F081 		pop	{r4, r5, r6, r7, r8, pc}
 3965              	.L1021:
 3966 014a 7C1E     		subs	r4, r7, #1
 3967 014c 019B     		ldr	r3, [sp, #4]
 3968 014e 2F22     		movs	r2, #47
 3969 0150 1A55     		strb	r2, [r3, r4]
 3970 0152 E8E7     		b	.L1035
 3971              	.L1042:
 3972 0154 1126     		movs	r6, #17
 3973 0156 B6E7     		b	.L1020
 3975              		.section	.text.f_lseek,"ax",%progbits
 3976              		.align	1
 3977              		.p2align 2,,3
 3978              		.global	f_lseek
 3979              		.syntax unified
 3980              		.thumb
 3981              		.thumb_func
 3982              		.fpu fpv4-sp-d16
 3984              	f_lseek:
 3985              		@ args = 0, pretend = 0, frame = 8
 3986              		@ frame_needed = 0, uses_anonymous_args = 0
 3987 0000 F0B5     		push	{r4, r5, r6, r7, lr}
 3988 0002 83B0     		sub	sp, sp, #12
 3989 0004 0E46     		mov	r6, r1
 3990 0006 01A9     		add	r1, sp, #4
 3991 0008 0446     		mov	r4, r0
 3992 000a FFF7FEFF 		bl	validate
 3993 000e 0746     		mov	r7, r0
 3994 0010 0028     		cmp	r0, #0
ARM GAS  C:\Users\Jay\AppData\Local\Temp\cci0ZEVx.s 			page 70


 3995 0012 62D1     		bne	.L1058
 3996 0014 677C     		ldrb	r7, [r4, #17]	@ zero_extendqisi2
 3997 0016 002F     		cmp	r7, #0
 3998 0018 5FD1     		bne	.L1058
 3999 001a E368     		ldr	r3, [r4, #12]
 4000 001c B342     		cmp	r3, r6
 4001 001e 04D2     		bcs	.L1059
 4002 0020 227C     		ldrb	r2, [r4, #16]	@ zero_extendqisi2
 4003 0022 12F0020F 		tst	r2, #2
 4004 0026 08BF     		it	eq
 4005 0028 1E46     		moveq	r6, r3
 4006              	.L1059:
 4007 002a 0022     		movs	r2, #0
 4008 002c 6369     		ldr	r3, [r4, #20]
 4009 002e 6261     		str	r2, [r4, #20]
 4010 0030 002E     		cmp	r6, #0
 4011 0032 52D0     		beq	.L1058
 4012 0034 019A     		ldr	r2, [sp, #4]
 4013 0036 5589     		ldrh	r5, [r2, #10]
 4014 0038 6D02     		lsls	r5, r5, #9
 4015 003a 002B     		cmp	r3, #0
 4016 003c 50D0     		beq	.L1060
 4017 003e 013B     		subs	r3, r3, #1
 4018 0040 721E     		subs	r2, r6, #1
 4019 0042 B3FBF5F1 		udiv	r1, r3, r5
 4020 0046 B2FBF5F2 		udiv	r2, r2, r5
 4021 004a 8A42     		cmp	r2, r1
 4022 004c 48D3     		bcc	.L1060
 4023 004e 6A42     		negs	r2, r5
 4024 0050 1340     		ands	r3, r3, r2
 4025 0052 A269     		ldr	r2, [r4, #24]
 4026 0054 6361     		str	r3, [r4, #20]
 4027 0056 F61A     		subs	r6, r6, r3
 4028              	.L1061:
 4029 0058 0AB3     		cbz	r2, .L1077
 4030 005a AE42     		cmp	r6, r5
 4031 005c 11D8     		bhi	.L1073
 4032 005e 64E0     		b	.L1066
 4033              	.L1097:
 4034 0060 FFF7FEFF 		bl	create_chain
 4035 0064 0246     		mov	r2, r0
 4036 0066 0028     		cmp	r0, #0
 4037 0068 74D0     		beq	.L1096
 4038              	.L1068:
 4039 006a 531C     		adds	r3, r2, #1
 4040 006c 4ED0     		beq	.L1069
 4041 006e 012A     		cmp	r2, #1
 4042 0070 51D9     		bls	.L1071
 4043 0072 019B     		ldr	r3, [sp, #4]
 4044 0074 DB69     		ldr	r3, [r3, #28]
 4045 0076 9342     		cmp	r3, r2
 4046 0078 4DD9     		bls	.L1071
 4047 007a B542     		cmp	r5, r6
 4048 007c A261     		str	r2, [r4, #24]
 4049 007e 6369     		ldr	r3, [r4, #20]
 4050 0080 53D2     		bcs	.L1066
 4051              	.L1073:
ARM GAS  C:\Users\Jay\AppData\Local\Temp\cci0ZEVx.s 			page 71


 4052 0082 2B44     		add	r3, r3, r5
 4053 0084 6361     		str	r3, [r4, #20]
 4054 0086 237C     		ldrb	r3, [r4, #16]	@ zero_extendqisi2
 4055 0088 9B07     		lsls	r3, r3, #30
 4056 008a 1146     		mov	r1, r2
 4057 008c 2046     		mov	r0, r4
 4058 008e A6EB0506 		sub	r6, r6, r5
 4059 0092 E5D4     		bmi	.L1097
 4060 0094 2068     		ldr	r0, [r4]
 4061 0096 FFF7FEFF 		bl	get_fat.isra.9
 4062 009a 0246     		mov	r2, r0
 4063 009c E5E7     		b	.L1068
 4064              	.L1077:
 4065 009e 1546     		mov	r5, r2
 4066              	.L1065:
 4067 00a0 E268     		ldr	r2, [r4, #12]
 4068 00a2 9A42     		cmp	r2, r3
 4069 00a4 C3F30801 		ubfx	r1, r3, #0, #9
 4070 00a8 04D2     		bcs	.L1074
 4071 00aa 227C     		ldrb	r2, [r4, #16]	@ zero_extendqisi2
 4072 00ac E360     		str	r3, [r4, #12]
 4073 00ae 42F04003 		orr	r3, r2, #64
 4074 00b2 2374     		strb	r3, [r4, #16]
 4075              	.L1074:
 4076 00b4 89B1     		cbz	r1, .L1058
 4077 00b6 E269     		ldr	r2, [r4, #28]
 4078 00b8 AA42     		cmp	r2, r5
 4079 00ba 0ED0     		beq	.L1058
 4080 00bc 94F91030 		ldrsb	r3, [r4, #16]
 4081 00c0 0199     		ldr	r1, [sp, #4]
 4082 00c2 002B     		cmp	r3, #0
 4083 00c4 4878     		ldrb	r0, [r1, #1]	@ zero_extendqisi2
 4084 00c6 04F12806 		add	r6, r4, #40
 4085 00ca 1ADB     		blt	.L1098
 4086              	.L1075:
 4087 00cc 3146     		mov	r1, r6
 4088 00ce 0123     		movs	r3, #1
 4089 00d0 2A46     		mov	r2, r5
 4090 00d2 FFF7FEFF 		bl	disk_read
 4091 00d6 C8B9     		cbnz	r0, .L1069
 4092 00d8 E561     		str	r5, [r4, #28]
 4093              	.L1058:
 4094 00da 3846     		mov	r0, r7
 4095 00dc 03B0     		add	sp, sp, #12
 4096              		@ sp needed
 4097 00de F0BD     		pop	{r4, r5, r6, r7, pc}
 4098              	.L1060:
 4099 00e0 A268     		ldr	r2, [r4, #8]
 4100 00e2 12B1     		cbz	r2, .L1099
 4101 00e4 0023     		movs	r3, #0
 4102              	.L1062:
 4103 00e6 A261     		str	r2, [r4, #24]
 4104 00e8 B6E7     		b	.L1061
 4105              	.L1099:
 4106 00ea 1146     		mov	r1, r2
 4107 00ec 2046     		mov	r0, r4
 4108 00ee FFF7FEFF 		bl	create_chain
ARM GAS  C:\Users\Jay\AppData\Local\Temp\cci0ZEVx.s 			page 72


 4109 00f2 0128     		cmp	r0, #1
 4110 00f4 0246     		mov	r2, r0
 4111 00f6 0ED0     		beq	.L1071
 4112 00f8 411C     		adds	r1, r0, #1
 4113 00fa 07D0     		beq	.L1069
 4114 00fc A060     		str	r0, [r4, #8]
 4115 00fe 6369     		ldr	r3, [r4, #20]
 4116 0100 F1E7     		b	.L1062
 4117              	.L1098:
 4118 0102 0123     		movs	r3, #1
 4119 0104 3146     		mov	r1, r6
 4120 0106 FFF7FEFF 		bl	disk_write
 4121 010a 38B1     		cbz	r0, .L1100
 4122              	.L1069:
 4123 010c 0127     		movs	r7, #1
 4124 010e 3846     		mov	r0, r7
 4125 0110 6774     		strb	r7, [r4, #17]
 4126 0112 03B0     		add	sp, sp, #12
 4127              		@ sp needed
 4128 0114 F0BD     		pop	{r4, r5, r6, r7, pc}
 4129              	.L1071:
 4130 0116 0227     		movs	r7, #2
 4131 0118 6774     		strb	r7, [r4, #17]
 4132 011a DEE7     		b	.L1058
 4133              	.L1100:
 4134 011c 237C     		ldrb	r3, [r4, #16]	@ zero_extendqisi2
 4135 011e 019A     		ldr	r2, [sp, #4]
 4136 0120 03F07F03 		and	r3, r3, #127
 4137 0124 2374     		strb	r3, [r4, #16]
 4138 0126 5078     		ldrb	r0, [r2, #1]	@ zero_extendqisi2
 4139 0128 D0E7     		b	.L1075
 4140              	.L1066:
 4141 012a 3344     		add	r3, r3, r6
 4142 012c C6F30805 		ubfx	r5, r6, #0, #9
 4143 0130 6361     		str	r3, [r4, #20]
 4144 0132 002D     		cmp	r5, #0
 4145 0134 B4D0     		beq	.L1065
 4146 0136 0198     		ldr	r0, [sp, #4]
 4147 0138 C169     		ldr	r1, [r0, #28]
 4148 013a 023A     		subs	r2, r2, #2
 4149 013c 0239     		subs	r1, r1, #2
 4150 013e 8A42     		cmp	r2, r1
 4151 0140 E9D2     		bcs	.L1071
 4152 0142 4589     		ldrh	r5, [r0, #10]
 4153 0144 016B     		ldr	r1, [r0, #48]
 4154 0146 02FB0515 		mla	r5, r2, r5, r1
 4155 014a 002D     		cmp	r5, #0
 4156 014c E3D0     		beq	.L1071
 4157 014e 05EB5625 		add	r5, r5, r6, lsr #9
 4158 0152 A5E7     		b	.L1065
 4159              	.L1096:
 4160 0154 0546     		mov	r5, r0
 4161 0156 6369     		ldr	r3, [r4, #20]
 4162 0158 A2E7     		b	.L1065
 4164 015a 00BF     		.section	.text.f_opendir,"ax",%progbits
 4165              		.align	1
 4166              		.p2align 2,,3
ARM GAS  C:\Users\Jay\AppData\Local\Temp\cci0ZEVx.s 			page 73


 4167              		.global	f_opendir
 4168              		.syntax unified
 4169              		.thumb
 4170              		.thumb_func
 4171              		.fpu fpv4-sp-d16
 4173              	f_opendir:
 4174              		@ args = 0, pretend = 0, frame = 16
 4175              		@ frame_needed = 0, uses_anonymous_args = 0
 4176 0000 30B5     		push	{r4, r5, lr}
 4177 0002 85B0     		sub	sp, sp, #20
 4178 0004 0191     		str	r1, [sp, #4]
 4179 0006 0028     		cmp	r0, #0
 4180 0008 34D0     		beq	.L1110
 4181 000a 0446     		mov	r4, r0
 4182 000c 0022     		movs	r2, #0
 4183 000e 03A9     		add	r1, sp, #12
 4184 0010 01A8     		add	r0, sp, #4
 4185 0012 FFF7FEFF 		bl	mount_volume
 4186 0016 18B1     		cbz	r0, .L1123
 4187              	.L1103:
 4188 0018 0023     		movs	r3, #0
 4189 001a 2360     		str	r3, [r4]
 4190 001c 05B0     		add	sp, sp, #20
 4191              		@ sp needed
 4192 001e 30BD     		pop	{r4, r5, pc}
 4193              	.L1123:
 4194 0020 039B     		ldr	r3, [sp, #12]
 4195 0022 2360     		str	r3, [r4]
 4196 0024 0199     		ldr	r1, [sp, #4]
 4197 0026 2046     		mov	r0, r4
 4198 0028 FFF7FEFF 		bl	follow_path
 4199 002c 28BB     		cbnz	r0, .L1104
 4200 002e 94F92B30 		ldrsb	r3, [r4, #43]
 4201 0032 002B     		cmp	r3, #0
 4202 0034 25DB     		blt	.L1124
 4203 0036 A379     		ldrb	r3, [r4, #6]	@ zero_extendqisi2
 4204 0038 DB06     		lsls	r3, r3, #27
 4205 003a 20D5     		bpl	.L1109
 4206 003c 039A     		ldr	r2, [sp, #12]
 4207 003e E169     		ldr	r1, [r4, #28]
 4208 0040 1078     		ldrb	r0, [r2]	@ zero_extendqisi2
 4209 0042 CD7E     		ldrb	r5, [r1, #27]	@ zero_extendqisi2
 4210 0044 8B7E     		ldrb	r3, [r1, #26]	@ zero_extendqisi2
 4211 0046 0328     		cmp	r0, #3
 4212 0048 43EA0523 		orr	r3, r3, r5, lsl #8
 4213 004c 05D1     		bne	.L1108
 4214 004e 487D     		ldrb	r0, [r1, #21]	@ zero_extendqisi2
 4215 0050 097D     		ldrb	r1, [r1, #20]	@ zero_extendqisi2
 4216 0052 41EA0021 		orr	r1, r1, r0, lsl #8
 4217 0056 43EA0143 		orr	r3, r3, r1, lsl #16
 4218              	.L1108:
 4219 005a A360     		str	r3, [r4, #8]
 4220              	.L1106:
 4221 005c D388     		ldrh	r3, [r2, #6]
 4222 005e A380     		strh	r3, [r4, #4]	@ movhi
 4223 0060 0021     		movs	r1, #0
 4224 0062 2046     		mov	r0, r4
ARM GAS  C:\Users\Jay\AppData\Local\Temp\cci0ZEVx.s 			page 74


 4225 0064 FFF7FEFF 		bl	dir_sdi
 4226 0068 0428     		cmp	r0, #4
 4227 006a 08D0     		beq	.L1109
 4228 006c 0028     		cmp	r0, #0
 4229 006e D3D1     		bne	.L1103
 4230 0070 05B0     		add	sp, sp, #20
 4231              		@ sp needed
 4232 0072 30BD     		pop	{r4, r5, pc}
 4233              	.L1110:
 4234 0074 0920     		movs	r0, #9
 4235 0076 05B0     		add	sp, sp, #20
 4236              		@ sp needed
 4237 0078 30BD     		pop	{r4, r5, pc}
 4238              	.L1104:
 4239 007a 0428     		cmp	r0, #4
 4240 007c CCD1     		bne	.L1103
 4241              	.L1109:
 4242 007e 0520     		movs	r0, #5
 4243 0080 CAE7     		b	.L1103
 4244              	.L1124:
 4245 0082 039A     		ldr	r2, [sp, #12]
 4246 0084 EAE7     		b	.L1106
 4248              		.section	.text.f_closedir,"ax",%progbits
 4249              		.align	1
 4250              		.p2align 2,,3
 4251              		.global	f_closedir
 4252              		.syntax unified
 4253              		.thumb
 4254              		.thumb_func
 4255              		.fpu fpv4-sp-d16
 4257              	f_closedir:
 4258              		@ args = 0, pretend = 0, frame = 8
 4259              		@ frame_needed = 0, uses_anonymous_args = 0
 4260 0000 10B5     		push	{r4, lr}
 4261 0002 82B0     		sub	sp, sp, #8
 4262 0004 01A9     		add	r1, sp, #4
 4263 0006 0446     		mov	r4, r0
 4264 0008 FFF7FEFF 		bl	validate
 4265 000c 00B9     		cbnz	r0, .L1126
 4266 000e 2060     		str	r0, [r4]
 4267              	.L1126:
 4268 0010 02B0     		add	sp, sp, #8
 4269              		@ sp needed
 4270 0012 10BD     		pop	{r4, pc}
 4272              		.section	.text.f_readdir,"ax",%progbits
 4273              		.align	1
 4274              		.p2align 2,,3
 4275              		.global	f_readdir
 4276              		.syntax unified
 4277              		.thumb
 4278              		.thumb_func
 4279              		.fpu fpv4-sp-d16
 4281              	f_readdir:
 4282              		@ args = 0, pretend = 0, frame = 8
 4283              		@ frame_needed = 0, uses_anonymous_args = 0
 4284 0000 70B5     		push	{r4, r5, r6, lr}
 4285 0002 82B0     		sub	sp, sp, #8
ARM GAS  C:\Users\Jay\AppData\Local\Temp\cci0ZEVx.s 			page 75


 4286 0004 0D46     		mov	r5, r1
 4287 0006 01A9     		add	r1, sp, #4
 4288 0008 0446     		mov	r4, r0
 4289 000a FFF7FEFF 		bl	validate
 4290 000e 88B9     		cbnz	r0, .L1129
 4291 0010 95B1     		cbz	r5, .L1132
 4292 0012 2046     		mov	r0, r4
 4293 0014 FFF7FEFF 		bl	dir_read.constprop.12
 4294 0018 10F0FB06 		ands	r6, r0, #251
 4295 001c 0AD1     		bne	.L1129
 4296 001e 2946     		mov	r1, r5
 4297 0020 2046     		mov	r0, r4
 4298 0022 FFF7FEFF 		bl	get_fileinfo
 4299 0026 3146     		mov	r1, r6
 4300 0028 2046     		mov	r0, r4
 4301 002a FFF7FEFF 		bl	dir_next
 4302 002e 0428     		cmp	r0, #4
 4303 0030 08BF     		it	eq
 4304 0032 0020     		moveq	r0, #0
 4305              	.L1129:
 4306 0034 02B0     		add	sp, sp, #8
 4307              		@ sp needed
 4308 0036 70BD     		pop	{r4, r5, r6, pc}
 4309              	.L1132:
 4310 0038 0146     		mov	r1, r0
 4311 003a 2046     		mov	r0, r4
 4312 003c FFF7FEFF 		bl	dir_sdi
 4313 0040 02B0     		add	sp, sp, #8
 4314              		@ sp needed
 4315 0042 70BD     		pop	{r4, r5, r6, pc}
 4317              		.section	.text.f_stat,"ax",%progbits
 4318              		.align	1
 4319              		.p2align 2,,3
 4320              		.global	f_stat
 4321              		.syntax unified
 4322              		.thumb
 4323              		.thumb_func
 4324              		.fpu fpv4-sp-d16
 4326              	f_stat:
 4327              		@ args = 0, pretend = 0, frame = 56
 4328              		@ frame_needed = 0, uses_anonymous_args = 0
 4329 0000 30B5     		push	{r4, r5, lr}
 4330 0002 8FB0     		sub	sp, sp, #60
 4331 0004 0D46     		mov	r5, r1
 4332 0006 0190     		str	r0, [sp, #4]
 4333 0008 0022     		movs	r2, #0
 4334 000a 02A9     		add	r1, sp, #8
 4335 000c 01A8     		add	r0, sp, #4
 4336 000e FFF7FEFF 		bl	mount_volume
 4337 0012 0446     		mov	r4, r0
 4338 0014 10B1     		cbz	r0, .L1140
 4339              	.L1134:
 4340 0016 2046     		mov	r0, r4
 4341 0018 0FB0     		add	sp, sp, #60
 4342              		@ sp needed
 4343 001a 30BD     		pop	{r4, r5, pc}
 4344              	.L1140:
ARM GAS  C:\Users\Jay\AppData\Local\Temp\cci0ZEVx.s 			page 76


 4345 001c 0199     		ldr	r1, [sp, #4]
 4346 001e 02A8     		add	r0, sp, #8
 4347 0020 FFF7FEFF 		bl	follow_path
 4348 0024 0446     		mov	r4, r0
 4349 0026 0028     		cmp	r0, #0
 4350 0028 F5D1     		bne	.L1134
 4351 002a 9DF93330 		ldrsb	r3, [sp, #51]
 4352 002e 002B     		cmp	r3, #0
 4353 0030 06DB     		blt	.L1135
 4354 0032 002D     		cmp	r5, #0
 4355 0034 EFD0     		beq	.L1134
 4356 0036 2946     		mov	r1, r5
 4357 0038 02A8     		add	r0, sp, #8
 4358 003a FFF7FEFF 		bl	get_fileinfo
 4359 003e EAE7     		b	.L1134
 4360              	.L1135:
 4361 0040 0624     		movs	r4, #6
 4362 0042 E8E7     		b	.L1134
 4364              		.section	.text.f_getfree,"ax",%progbits
 4365              		.align	1
 4366              		.p2align 2,,3
 4367              		.global	f_getfree
 4368              		.syntax unified
 4369              		.thumb
 4370              		.thumb_func
 4371              		.fpu fpv4-sp-d16
 4373              	f_getfree:
 4374              		@ args = 0, pretend = 0, frame = 16
 4375              		@ frame_needed = 0, uses_anonymous_args = 0
 4376 0000 2DE9F047 		push	{r4, r5, r6, r7, r8, r9, r10, lr}
 4377 0004 84B0     		sub	sp, sp, #16
 4378 0006 0F46     		mov	r7, r1
 4379 0008 0190     		str	r0, [sp, #4]
 4380 000a 1446     		mov	r4, r2
 4381 000c 03A9     		add	r1, sp, #12
 4382 000e 0022     		movs	r2, #0
 4383 0010 01A8     		add	r0, sp, #4
 4384 0012 FFF7FEFF 		bl	mount_volume
 4385 0016 8046     		mov	r8, r0
 4386 0018 0028     		cmp	r0, #0
 4387 001a 3AD1     		bne	.L1142
 4388 001c 039D     		ldr	r5, [sp, #12]
 4389 001e 2560     		str	r5, [r4]
 4390 0020 EE69     		ldr	r6, [r5, #28]
 4391 0022 6B69     		ldr	r3, [r5, #20]
 4392 0024 B21E     		subs	r2, r6, #2
 4393 0026 9342     		cmp	r3, r2
 4394 0028 37D9     		bls	.L1161
 4395 002a 2B78     		ldrb	r3, [r5]	@ zero_extendqisi2
 4396 002c 012B     		cmp	r3, #1
 4397 002e 39D0     		beq	.L1162
 4398 0030 A96A     		ldr	r1, [r5, #40]
 4399 0032 0446     		mov	r4, r0
 4400 0034 8146     		mov	r9, r0
 4401              	.L1156:
 4402 0036 5CB9     		cbnz	r4, .L1150
 4403 0038 6B6B     		ldr	r3, [r5, #52]
ARM GAS  C:\Users\Jay\AppData\Local\Temp\cci0ZEVx.s 			page 77


 4404 003a 9942     		cmp	r1, r3
 4405 003c 01F1010A 		add	r10, r1, #1
 4406 0040 4FD0     		beq	.L1157
 4407 0042 2846     		mov	r0, r5
 4408 0044 FFF7FEFF 		bl	move_window.part.6
 4409 0048 0028     		cmp	r0, #0
 4410 004a 4CD1     		bne	.L1163
 4411 004c 039D     		ldr	r5, [sp, #12]
 4412 004e 5146     		mov	r1, r10
 4413              	.L1150:
 4414 0050 05F13803 		add	r3, r5, #56
 4415 0054 95F800C0 		ldrb	ip, [r5]	@ zero_extendqisi2
 4416 0058 1819     		adds	r0, r3, r4
 4417 005a BCF1020F 		cmp	ip, #2
 4418 005e 1B5D     		ldrb	r3, [r3, r4]	@ zero_extendqisi2
 4419 0060 4278     		ldrb	r2, [r0, #1]	@ zero_extendqisi2
 4420 0062 37D0     		beq	.L1164
 4421 0064 4088     		ldrh	r0, [r0, #2]	@ unaligned
 4422 0066 42EA0022 		orr	r2, r2, r0, lsl #8
 4423 006a 43EA0223 		orr	r3, r3, r2, lsl #8
 4424 006e 33F07043 		bics	r3, r3, #-268435456
 4425 0072 08BF     		it	eq
 4426 0074 09F10109 		addeq	r9, r9, #1
 4427 0078 0434     		adds	r4, r4, #4
 4428              	.L1154:
 4429 007a 013E     		subs	r6, r6, #1
 4430 007c C4F30804 		ubfx	r4, r4, #0, #9
 4431 0080 D9D1     		bne	.L1156
 4432              	.L1147:
 4433 0082 C7F80090 		str	r9, [r7]
 4434 0086 2B79     		ldrb	r3, [r5, #4]	@ zero_extendqisi2
 4435 0088 C5F81490 		str	r9, [r5, #20]
 4436 008c 43F00103 		orr	r3, r3, #1
 4437 0090 2B71     		strb	r3, [r5, #4]
 4438              	.L1142:
 4439 0092 4046     		mov	r0, r8
 4440 0094 04B0     		add	sp, sp, #16
 4441              		@ sp needed
 4442 0096 BDE8F087 		pop	{r4, r5, r6, r7, r8, r9, r10, pc}
 4443              	.L1161:
 4444 009a 4046     		mov	r0, r8
 4445 009c 3B60     		str	r3, [r7]
 4446 009e 04B0     		add	sp, sp, #16
 4447              		@ sp needed
 4448 00a0 BDE8F087 		pop	{r4, r5, r6, r7, r8, r9, r10, pc}
 4449              	.L1162:
 4450 00a4 0224     		movs	r4, #2
 4451 00a6 8146     		mov	r9, r0
 4452 00a8 08E0     		b	.L1149
 4453              	.L1167:
 4454 00aa 0128     		cmp	r0, #1
 4455 00ac 1ED0     		beq	.L1165
 4456 00ae 08B9     		cbnz	r0, .L1148
 4457 00b0 09F10109 		add	r9, r9, #1
 4458              	.L1148:
 4459 00b4 039B     		ldr	r3, [sp, #12]
 4460 00b6 DA69     		ldr	r2, [r3, #28]
ARM GAS  C:\Users\Jay\AppData\Local\Temp\cci0ZEVx.s 			page 78


 4461 00b8 A242     		cmp	r2, r4
 4462 00ba 1BD9     		bls	.L1166
 4463              	.L1149:
 4464 00bc 2146     		mov	r1, r4
 4465 00be 2846     		mov	r0, r5
 4466 00c0 FFF7FEFF 		bl	get_fat.isra.9
 4467 00c4 431C     		adds	r3, r0, #1
 4468 00c6 04F10104 		add	r4, r4, #1
 4469 00ca EED1     		bne	.L1167
 4470 00cc 039D     		ldr	r5, [sp, #12]
 4471 00ce 4FF00108 		mov	r8, #1
 4472 00d2 D6E7     		b	.L1147
 4473              	.L1164:
 4474 00d4 53EA0223 		orrs	r3, r3, r2, lsl #8
 4475 00d8 08BF     		it	eq
 4476 00da 09F10109 		addeq	r9, r9, #1
 4477 00de 0234     		adds	r4, r4, #2
 4478 00e0 CBE7     		b	.L1154
 4479              	.L1157:
 4480 00e2 5146     		mov	r1, r10
 4481 00e4 B4E7     		b	.L1150
 4482              	.L1163:
 4483 00e6 8046     		mov	r8, r0
 4484 00e8 039D     		ldr	r5, [sp, #12]
 4485 00ea CAE7     		b	.L1147
 4486              	.L1165:
 4487 00ec 039D     		ldr	r5, [sp, #12]
 4488 00ee 4FF00208 		mov	r8, #2
 4489 00f2 C6E7     		b	.L1147
 4490              	.L1166:
 4491 00f4 1D46     		mov	r5, r3
 4492 00f6 C4E7     		b	.L1147
 4494              		.section	.text.f_truncate,"ax",%progbits
 4495              		.align	1
 4496              		.p2align 2,,3
 4497              		.global	f_truncate
 4498              		.syntax unified
 4499              		.thumb
 4500              		.thumb_func
 4501              		.fpu fpv4-sp-d16
 4503              	f_truncate:
 4504              		@ args = 0, pretend = 0, frame = 8
 4505              		@ frame_needed = 0, uses_anonymous_args = 0
 4506 0000 30B5     		push	{r4, r5, lr}
 4507 0002 83B0     		sub	sp, sp, #12
 4508 0004 01A9     		add	r1, sp, #4
 4509 0006 0546     		mov	r5, r0
 4510 0008 FFF7FEFF 		bl	validate
 4511 000c 0446     		mov	r4, r0
 4512 000e C0B9     		cbnz	r0, .L1183
 4513 0010 6C7C     		ldrb	r4, [r5, #17]	@ zero_extendqisi2
 4514 0012 B4B9     		cbnz	r4, .L1183
 4515 0014 2B7C     		ldrb	r3, [r5, #16]	@ zero_extendqisi2
 4516 0016 9907     		lsls	r1, r3, #30
 4517 0018 16D5     		bpl	.L1178
 4518 001a 6B69     		ldr	r3, [r5, #20]
 4519 001c EA68     		ldr	r2, [r5, #12]
ARM GAS  C:\Users\Jay\AppData\Local\Temp\cci0ZEVx.s 			page 79


 4520 001e 9342     		cmp	r3, r2
 4521 0020 0FD2     		bcs	.L1183
 4522 0022 9BB9     		cbnz	r3, .L1171
 4523 0024 2246     		mov	r2, r4
 4524 0026 A968     		ldr	r1, [r5, #8]
 4525 0028 2846     		mov	r0, r5
 4526 002a FFF7FEFF 		bl	remove_chain
 4527 002e AC60     		str	r4, [r5, #8]
 4528              	.L1172:
 4529 0030 2B7C     		ldrb	r3, [r5, #16]	@ zero_extendqisi2
 4530 0032 6A69     		ldr	r2, [r5, #20]
 4531 0034 EA60     		str	r2, [r5, #12]
 4532 0036 43F04003 		orr	r3, r3, #64
 4533 003a 2B74     		strb	r3, [r5, #16]
 4534 003c C8B9     		cbnz	r0, .L1181
 4535              	.L1175:
 4536 003e 1B06     		lsls	r3, r3, #24
 4537 0040 23D4     		bmi	.L1185
 4538              	.L1183:
 4539 0042 2046     		mov	r0, r4
 4540 0044 03B0     		add	sp, sp, #12
 4541              		@ sp needed
 4542 0046 30BD     		pop	{r4, r5, pc}
 4543              	.L1178:
 4544 0048 0724     		movs	r4, #7
 4545 004a FAE7     		b	.L1183
 4546              	.L1171:
 4547 004c A969     		ldr	r1, [r5, #24]
 4548 004e 2868     		ldr	r0, [r5]
 4549 0050 FFF7FEFF 		bl	get_fat.isra.9
 4550 0054 421C     		adds	r2, r0, #1
 4551 0056 0FD0     		beq	.L1179
 4552 0058 0128     		cmp	r0, #1
 4553 005a 24D0     		beq	.L1180
 4554 005c 019B     		ldr	r3, [sp, #4]
 4555 005e DB69     		ldr	r3, [r3, #28]
 4556 0060 8342     		cmp	r3, r0
 4557 0062 22D8     		bhi	.L1174
 4558 0064 2B7C     		ldrb	r3, [r5, #16]	@ zero_extendqisi2
 4559 0066 6A69     		ldr	r2, [r5, #20]
 4560 0068 EA60     		str	r2, [r5, #12]
 4561 006a 43F04003 		orr	r3, r3, #64
 4562 006e 2B74     		strb	r3, [r5, #16]
 4563 0070 E5E7     		b	.L1175
 4564              	.L1181:
 4565 0072 0446     		mov	r4, r0
 4566 0074 6C74     		strb	r4, [r5, #17]
 4567 0076 E4E7     		b	.L1183
 4568              	.L1179:
 4569 0078 0124     		movs	r4, #1
 4570              	.L1173:
 4571 007a 2B7C     		ldrb	r3, [r5, #16]	@ zero_extendqisi2
 4572 007c 6A69     		ldr	r2, [r5, #20]
 4573 007e EA60     		str	r2, [r5, #12]
 4574 0080 43F04003 		orr	r3, r3, #64
 4575 0084 2B74     		strb	r3, [r5, #16]
 4576 0086 6C74     		strb	r4, [r5, #17]
ARM GAS  C:\Users\Jay\AppData\Local\Temp\cci0ZEVx.s 			page 80


 4577 0088 DBE7     		b	.L1183
 4578              	.L1185:
 4579 008a 019B     		ldr	r3, [sp, #4]
 4580 008c EA69     		ldr	r2, [r5, #28]
 4581 008e 5878     		ldrb	r0, [r3, #1]	@ zero_extendqisi2
 4582 0090 05F12801 		add	r1, r5, #40
 4583 0094 0123     		movs	r3, #1
 4584 0096 FFF7FEFF 		bl	disk_write
 4585 009a 60B9     		cbnz	r0, .L1182
 4586 009c 2B7C     		ldrb	r3, [r5, #16]	@ zero_extendqisi2
 4587 009e 03F07F03 		and	r3, r3, #127
 4588 00a2 2B74     		strb	r3, [r5, #16]
 4589 00a4 CDE7     		b	.L1183
 4590              	.L1180:
 4591 00a6 0224     		movs	r4, #2
 4592 00a8 E7E7     		b	.L1173
 4593              	.L1174:
 4594 00aa 0146     		mov	r1, r0
 4595 00ac AA69     		ldr	r2, [r5, #24]
 4596 00ae 2846     		mov	r0, r5
 4597 00b0 FFF7FEFF 		bl	remove_chain
 4598 00b4 BCE7     		b	.L1172
 4599              	.L1182:
 4600 00b6 0124     		movs	r4, #1
 4601 00b8 6C74     		strb	r4, [r5, #17]
 4602 00ba C2E7     		b	.L1183
 4604              		.section	.text.f_unlink,"ax",%progbits
 4605              		.align	1
 4606              		.p2align 2,,3
 4607              		.global	f_unlink
 4608              		.syntax unified
 4609              		.thumb
 4610              		.thumb_func
 4611              		.fpu fpv4-sp-d16
 4613              	f_unlink:
 4614              		@ args = 0, pretend = 0, frame = 112
 4615              		@ frame_needed = 0, uses_anonymous_args = 0
 4616 0000 30B5     		push	{r4, r5, lr}
 4617 0002 9DB0     		sub	sp, sp, #116
 4618 0004 0222     		movs	r2, #2
 4619 0006 0190     		str	r0, [sp, #4]
 4620 0008 03A9     		add	r1, sp, #12
 4621 000a 01A8     		add	r0, sp, #4
 4622 000c FFF7FEFF 		bl	mount_volume
 4623 0010 08B1     		cbz	r0, .L1208
 4624              	.L1187:
 4625 0012 1DB0     		add	sp, sp, #116
 4626              		@ sp needed
 4627 0014 30BD     		pop	{r4, r5, pc}
 4628              	.L1208:
 4629 0016 039B     		ldr	r3, [sp, #12]
 4630 0018 0199     		ldr	r1, [sp, #4]
 4631 001a 0493     		str	r3, [sp, #16]
 4632 001c 04A8     		add	r0, sp, #16
 4633 001e FFF7FEFF 		bl	follow_path
 4634 0022 0028     		cmp	r0, #0
 4635 0024 F5D1     		bne	.L1187
ARM GAS  C:\Users\Jay\AppData\Local\Temp\cci0ZEVx.s 			page 81


 4636 0026 9DF83B30 		ldrb	r3, [sp, #59]	@ zero_extendqisi2
 4637 002a 9806     		lsls	r0, r3, #26
 4638 002c 2BD4     		bmi	.L1197
 4639 002e 1906     		lsls	r1, r3, #24
 4640 0030 29D4     		bmi	.L1197
 4641 0032 9DF81630 		ldrb	r3, [sp, #22]	@ zero_extendqisi2
 4642 0036 DA07     		lsls	r2, r3, #31
 4643 0038 28D4     		bmi	.L1192
 4644 003a 039D     		ldr	r5, [sp, #12]
 4645 003c 0B9A     		ldr	r2, [sp, #44]
 4646 003e 2978     		ldrb	r1, [r5]	@ zero_extendqisi2
 4647 0040 D07E     		ldrb	r0, [r2, #27]	@ zero_extendqisi2
 4648 0042 947E     		ldrb	r4, [r2, #26]	@ zero_extendqisi2
 4649 0044 0329     		cmp	r1, #3
 4650 0046 44EA0024 		orr	r4, r4, r0, lsl #8
 4651 004a 21D0     		beq	.L1209
 4652              	.L1189:
 4653 004c DB06     		lsls	r3, r3, #27
 4654 004e 10D5     		bpl	.L1193
 4655 0050 AB69     		ldr	r3, [r5, #24]
 4656 0052 A342     		cmp	r3, r4
 4657 0054 1AD0     		beq	.L1192
 4658 0056 10A8     		add	r0, sp, #64
 4659 0058 0021     		movs	r1, #0
 4660 005a 1095     		str	r5, [sp, #64]
 4661 005c 1294     		str	r4, [sp, #72]
 4662 005e FFF7FEFF 		bl	dir_sdi
 4663 0062 0028     		cmp	r0, #0
 4664 0064 D5D1     		bne	.L1187
 4665 0066 10A8     		add	r0, sp, #64
 4666 0068 FFF7FEFF 		bl	dir_read.constprop.12
 4667 006c 70B1     		cbz	r0, .L1192
 4668 006e 0428     		cmp	r0, #4
 4669 0070 CFD1     		bne	.L1187
 4670              	.L1193:
 4671 0072 04A8     		add	r0, sp, #16
 4672 0074 FFF7FEFF 		bl	dir_remove
 4673 0078 0028     		cmp	r0, #0
 4674 007a CAD1     		bne	.L1187
 4675 007c 7CB9     		cbnz	r4, .L1194
 4676              	.L1195:
 4677 007e 0398     		ldr	r0, [sp, #12]
 4678 0080 FFF7FEFF 		bl	sync_fs
 4679 0084 C5E7     		b	.L1187
 4680              	.L1197:
 4681 0086 0620     		movs	r0, #6
 4682 0088 1DB0     		add	sp, sp, #116
 4683              		@ sp needed
 4684 008a 30BD     		pop	{r4, r5, pc}
 4685              	.L1192:
 4686 008c 0720     		movs	r0, #7
 4687 008e C0E7     		b	.L1187
 4688              	.L1209:
 4689 0090 517D     		ldrb	r1, [r2, #21]	@ zero_extendqisi2
 4690 0092 127D     		ldrb	r2, [r2, #20]	@ zero_extendqisi2
 4691 0094 42EA0122 		orr	r2, r2, r1, lsl #8
 4692 0098 44EA0244 		orr	r4, r4, r2, lsl #16
ARM GAS  C:\Users\Jay\AppData\Local\Temp\cci0ZEVx.s 			page 82


 4693 009c D6E7     		b	.L1189
 4694              	.L1194:
 4695 009e 0246     		mov	r2, r0
 4696 00a0 2146     		mov	r1, r4
 4697 00a2 04A8     		add	r0, sp, #16
 4698 00a4 FFF7FEFF 		bl	remove_chain
 4699 00a8 0028     		cmp	r0, #0
 4700 00aa E8D0     		beq	.L1195
 4701 00ac B1E7     		b	.L1187
 4703 00ae 00BF     		.section	.text.f_mkdir,"ax",%progbits
 4704              		.align	1
 4705              		.p2align 2,,3
 4706              		.global	f_mkdir
 4707              		.syntax unified
 4708              		.thumb
 4709              		.thumb_func
 4710              		.fpu fpv4-sp-d16
 4712              	f_mkdir:
 4713              		@ args = 0, pretend = 0, frame = 80
 4714              		@ frame_needed = 0, uses_anonymous_args = 0
 4715 0000 2DE9F041 		push	{r4, r5, r6, r7, r8, lr}
 4716 0004 94B0     		sub	sp, sp, #80
 4717 0006 0222     		movs	r2, #2
 4718 0008 0190     		str	r0, [sp, #4]
 4719 000a 03A9     		add	r1, sp, #12
 4720 000c 01A8     		add	r0, sp, #4
 4721 000e FFF7FEFF 		bl	mount_volume
 4722 0012 0446     		mov	r4, r0
 4723 0014 18B1     		cbz	r0, .L1224
 4724              	.L1211:
 4725 0016 2046     		mov	r0, r4
 4726 0018 14B0     		add	sp, sp, #80
 4727              		@ sp needed
 4728 001a BDE8F081 		pop	{r4, r5, r6, r7, r8, pc}
 4729              	.L1224:
 4730 001e 039B     		ldr	r3, [sp, #12]
 4731 0020 0199     		ldr	r1, [sp, #4]
 4732 0022 0893     		str	r3, [sp, #32]
 4733 0024 08A8     		add	r0, sp, #32
 4734 0026 FFF7FEFF 		bl	follow_path
 4735 002a 0446     		mov	r4, r0
 4736 002c 0028     		cmp	r0, #0
 4737 002e 00F08A80 		beq	.L1217
 4738 0032 0428     		cmp	r0, #4
 4739 0034 EFD1     		bne	.L1211
 4740 0036 9DF84B10 		ldrb	r1, [sp, #75]	@ zero_extendqisi2
 4741 003a 11F02001 		ands	r1, r1, #32
 4742 003e 40F08E80 		bne	.L1218
 4743 0042 14AE     		add	r6, sp, #80
 4744 0044 039B     		ldr	r3, [sp, #12]
 4745 0046 46F8403D 		str	r3, [r6, #-64]!
 4746 004a 3046     		mov	r0, r6
 4747 004c FFF7FEFF 		bl	create_chain
 4748 0050 0546     		mov	r5, r0
 4749 0052 0028     		cmp	r0, #0
 4750 0054 7CD0     		beq	.L1219
 4751 0056 0128     		cmp	r0, #1
ARM GAS  C:\Users\Jay\AppData\Local\Temp\cci0ZEVx.s 			page 83


 4752 0058 00F08380 		beq	.L1220
 4753 005c 431C     		adds	r3, r0, #1
 4754 005e 00F08280 		beq	.L1221
 4755 0062 0146     		mov	r1, r0
 4756 0064 0398     		ldr	r0, [sp, #12]
 4757 0066 FFF7FEFF 		bl	dir_clear
 4758 006a 0446     		mov	r4, r0
 4759 006c 0028     		cmp	r0, #0
 4760 006e 70D1     		bne	.L1212
 4761 0070 039A     		ldr	r2, [sp, #12]
 4762 0072 2021     		movs	r1, #32
 4763 0074 02F13803 		add	r3, r2, #56
 4764 0078 4332     		adds	r2, r2, #67
 4765              	.L1213:
 4766 007a 03F8011B 		strb	r1, [r3], #1
 4767 007e 9342     		cmp	r3, r2
 4768 0080 FBD1     		bne	.L1213
 4769 0082 0398     		ldr	r0, [sp, #12]
 4770 0084 0278     		ldrb	r2, [r0]	@ zero_extendqisi2
 4771 0086 2E23     		movs	r3, #46
 4772 0088 1027     		movs	r7, #16
 4773 008a 4E21     		movs	r1, #78
 4774 008c 2124     		movs	r4, #33
 4775 008e 80F83830 		strb	r3, [r0, #56]
 4776 0092 80F84370 		strb	r7, [r0, #67]
 4777 0096 0023     		movs	r3, #0
 4778 0098 5FFA85F8 		uxtb	r8, r5
 4779 009c C5F30727 		ubfx	r7, r5, #8, #8
 4780 00a0 032A     		cmp	r2, #3
 4781 00a2 80F85110 		strb	r1, [r0, #81]
 4782 00a6 80F85040 		strb	r4, [r0, #80]
 4783 00aa 80F84E30 		strb	r3, [r0, #78]
 4784 00ae 80F84F30 		strb	r3, [r0, #79]
 4785 00b2 00F13801 		add	r1, r0, #56
 4786 00b6 80F85280 		strb	r8, [r0, #82]
 4787 00ba 80F85370 		strb	r7, [r0, #83]
 4788 00be 05D1     		bne	.L1214
 4789 00c0 2B0C     		lsrs	r3, r5, #16
 4790 00c2 1A0A     		lsrs	r2, r3, #8
 4791 00c4 80F84C30 		strb	r3, [r0, #76]
 4792 00c8 80F84D20 		strb	r2, [r0, #77]
 4793              	.L1214:
 4794 00cc 5830     		adds	r0, r0, #88
 4795 00ce 2022     		movs	r2, #32
 4796 00d0 FFF7FEFF 		bl	mem_cpy.part.0
 4797 00d4 039B     		ldr	r3, [sp, #12]
 4798 00d6 0A9A     		ldr	r2, [sp, #40]
 4799 00d8 1978     		ldrb	r1, [r3]	@ zero_extendqisi2
 4800 00da 83F87220 		strb	r2, [r3, #114]
 4801 00de C2F30720 		ubfx	r0, r2, #8, #8
 4802 00e2 83F87300 		strb	r0, [r3, #115]
 4803 00e6 0329     		cmp	r1, #3
 4804 00e8 4FF02E00 		mov	r0, #46
 4805 00ec 83F85900 		strb	r0, [r3, #89]
 4806 00f0 05D1     		bne	.L1215
 4807 00f2 120C     		lsrs	r2, r2, #16
 4808 00f4 110A     		lsrs	r1, r2, #8
ARM GAS  C:\Users\Jay\AppData\Local\Temp\cci0ZEVx.s 			page 84


 4809 00f6 83F86C20 		strb	r2, [r3, #108]
 4810 00fa 83F86D10 		strb	r1, [r3, #109]
 4811              	.L1215:
 4812 00fe 0122     		movs	r2, #1
 4813 0100 08A8     		add	r0, sp, #32
 4814 0102 DA70     		strb	r2, [r3, #3]
 4815 0104 FFF7FEFF 		bl	dir_register
 4816 0108 0446     		mov	r4, r0
 4817 010a 10BB     		cbnz	r0, .L1212
 4818 010c 0F9B     		ldr	r3, [sp, #60]
 4819 010e 039A     		ldr	r2, [sp, #12]
 4820 0110 9875     		strb	r0, [r3, #22]
 4821 0112 2121     		movs	r1, #33
 4822 0114 1976     		strb	r1, [r3, #24]
 4823 0116 4E21     		movs	r1, #78
 4824 0118 D875     		strb	r0, [r3, #23]
 4825 011a 5976     		strb	r1, [r3, #25]
 4826 011c 0F9B     		ldr	r3, [sp, #60]
 4827 011e 83F81A80 		strb	r8, [r3, #26]
 4828 0122 DF76     		strb	r7, [r3, #27]
 4829 0124 1178     		ldrb	r1, [r2]	@ zero_extendqisi2
 4830 0126 0329     		cmp	r1, #3
 4831 0128 03D1     		bne	.L1216
 4832 012a 2D0C     		lsrs	r5, r5, #16
 4833 012c 290A     		lsrs	r1, r5, #8
 4834 012e 1D75     		strb	r5, [r3, #20]
 4835 0130 5975     		strb	r1, [r3, #21]
 4836              	.L1216:
 4837 0132 0F99     		ldr	r1, [sp, #60]
 4838 0134 1020     		movs	r0, #16
 4839 0136 0123     		movs	r3, #1
 4840 0138 C872     		strb	r0, [r1, #11]
 4841 013a 1046     		mov	r0, r2
 4842 013c D370     		strb	r3, [r2, #3]
 4843 013e FFF7FEFF 		bl	sync_fs
 4844 0142 0446     		mov	r4, r0
 4845 0144 67E7     		b	.L1211
 4846              	.L1217:
 4847 0146 0824     		movs	r4, #8
 4848 0148 2046     		mov	r0, r4
 4849 014a 14B0     		add	sp, sp, #80
 4850              		@ sp needed
 4851 014c BDE8F081 		pop	{r4, r5, r6, r7, r8, pc}
 4852              	.L1219:
 4853 0150 0724     		movs	r4, #7
 4854              	.L1212:
 4855 0152 2946     		mov	r1, r5
 4856 0154 3046     		mov	r0, r6
 4857 0156 0022     		movs	r2, #0
 4858 0158 FFF7FEFF 		bl	remove_chain
 4859 015c 5BE7     		b	.L1211
 4860              	.L1218:
 4861 015e 0624     		movs	r4, #6
 4862 0160 59E7     		b	.L1211
 4863              	.L1220:
 4864 0162 0224     		movs	r4, #2
 4865 0164 F5E7     		b	.L1212
ARM GAS  C:\Users\Jay\AppData\Local\Temp\cci0ZEVx.s 			page 85


 4866              	.L1221:
 4867 0166 0124     		movs	r4, #1
 4868 0168 F3E7     		b	.L1212
 4870 016a 00BF     		.section	.text.f_rename,"ax",%progbits
 4871              		.align	1
 4872              		.p2align 2,,3
 4873              		.global	f_rename
 4874              		.syntax unified
 4875              		.thumb
 4876              		.thumb_func
 4877              		.fpu fpv4-sp-d16
 4879              	f_rename:
 4880              		@ args = 0, pretend = 0, frame = 144
 4881              		@ frame_needed = 0, uses_anonymous_args = 0
 4882 0000 10B5     		push	{r4, lr}
 4883 0002 A4B0     		sub	sp, sp, #144
 4884 0004 24AB     		add	r3, sp, #144
 4885 0006 0190     		str	r0, [sp, #4]
 4886 0008 43F8901D 		str	r1, [r3, #-144]!
 4887 000c 1846     		mov	r0, r3
 4888 000e FFF7FEFF 		bl	get_ldnumber
 4889 0012 0222     		movs	r2, #2
 4890 0014 03A9     		add	r1, sp, #12
 4891 0016 01A8     		add	r0, sp, #4
 4892 0018 FFF7FEFF 		bl	mount_volume
 4893 001c 08B1     		cbz	r0, .L1243
 4894              	.L1226:
 4895 001e 24B0     		add	sp, sp, #144
 4896              		@ sp needed
 4897 0020 10BD     		pop	{r4, pc}
 4898              	.L1243:
 4899 0022 039B     		ldr	r3, [sp, #12]
 4900 0024 0199     		ldr	r1, [sp, #4]
 4901 0026 0C93     		str	r3, [sp, #48]
 4902 0028 0CA8     		add	r0, sp, #48
 4903 002a FFF7FEFF 		bl	follow_path
 4904 002e 0028     		cmp	r0, #0
 4905 0030 F5D1     		bne	.L1226
 4906 0032 9DF85B30 		ldrb	r3, [sp, #91]	@ zero_extendqisi2
 4907 0036 13F0A00F 		tst	r3, #160
 4908 003a 15D1     		bne	.L1237
 4909 003c 2022     		movs	r2, #32
 4910 003e 1399     		ldr	r1, [sp, #76]
 4911 0040 04A8     		add	r0, sp, #16
 4912 0042 FFF7FEFF 		bl	mem_cpy.part.0
 4913 0046 3022     		movs	r2, #48
 4914 0048 18A8     		add	r0, sp, #96
 4915 004a 0DEB0201 		add	r1, sp, r2
 4916 004e FFF7FEFF 		bl	mem_cpy.part.0
 4917 0052 18A8     		add	r0, sp, #96
 4918 0054 0099     		ldr	r1, [sp]
 4919 0056 FFF7FEFF 		bl	follow_path
 4920 005a 38B9     		cbnz	r0, .L1227
 4921 005c 1A9A     		ldr	r2, [sp, #104]
 4922 005e 0E9B     		ldr	r3, [sp, #56]
 4923 0060 9A42     		cmp	r2, r3
 4924 0062 4FD0     		beq	.L1244
ARM GAS  C:\Users\Jay\AppData\Local\Temp\cci0ZEVx.s 			page 86


 4925              	.L1238:
 4926 0064 0820     		movs	r0, #8
 4927 0066 DAE7     		b	.L1226
 4928              	.L1237:
 4929 0068 0620     		movs	r0, #6
 4930 006a D8E7     		b	.L1226
 4931              	.L1227:
 4932 006c 0428     		cmp	r0, #4
 4933 006e D6D1     		bne	.L1226
 4934              	.L1228:
 4935 0070 18A8     		add	r0, sp, #96
 4936 0072 FFF7FEFF 		bl	dir_register
 4937 0076 0028     		cmp	r0, #0
 4938 0078 D1D1     		bne	.L1226
 4939 007a 1F9C     		ldr	r4, [sp, #124]
 4940 007c 1322     		movs	r2, #19
 4941 007e 04F10D00 		add	r0, r4, #13
 4942 0082 0DF11D01 		add	r1, sp, #29
 4943 0086 FFF7FEFF 		bl	mem_cpy.part.0
 4944 008a 9DF81B30 		ldrb	r3, [sp, #27]	@ zero_extendqisi2
 4945 008e 0398     		ldr	r0, [sp, #12]
 4946 0090 DA06     		lsls	r2, r3, #27
 4947 0092 58BF     		it	pl
 4948 0094 43F02003 		orrpl	r3, r3, #32
 4949 0098 E372     		strb	r3, [r4, #11]
 4950 009a 0123     		movs	r3, #1
 4951 009c C370     		strb	r3, [r0, #3]
 4952 009e E37A     		ldrb	r3, [r4, #11]	@ zero_extendqisi2
 4953 00a0 DB06     		lsls	r3, r3, #27
 4954 00a2 26D5     		bpl	.L1232
 4955 00a4 0E9A     		ldr	r2, [sp, #56]
 4956 00a6 1A9B     		ldr	r3, [sp, #104]
 4957 00a8 9A42     		cmp	r2, r3
 4958 00aa 22D0     		beq	.L1232
 4959 00ac 0278     		ldrb	r2, [r0]	@ zero_extendqisi2
 4960 00ae E17E     		ldrb	r1, [r4, #27]	@ zero_extendqisi2
 4961 00b0 A37E     		ldrb	r3, [r4, #26]	@ zero_extendqisi2
 4962 00b2 032A     		cmp	r2, #3
 4963 00b4 43EA0123 		orr	r3, r3, r1, lsl #8
 4964 00b8 05D1     		bne	.L1234
 4965 00ba 617D     		ldrb	r1, [r4, #21]	@ zero_extendqisi2
 4966 00bc 227D     		ldrb	r2, [r4, #20]	@ zero_extendqisi2
 4967 00be 42EA0122 		orr	r2, r2, r1, lsl #8
 4968 00c2 43EA0243 		orr	r3, r3, r2, lsl #16
 4969              	.L1234:
 4970 00c6 C269     		ldr	r2, [r0, #28]
 4971 00c8 023B     		subs	r3, r3, #2
 4972 00ca 023A     		subs	r2, r2, #2
 4973 00cc 9342     		cmp	r3, r2
 4974 00ce 1ED2     		bcs	.L1240
 4975 00d0 4289     		ldrh	r2, [r0, #10]
 4976 00d2 016B     		ldr	r1, [r0, #48]
 4977 00d4 03FB0211 		mla	r1, r3, r2, r1
 4978 00d8 C9B1     		cbz	r1, .L1240
 4979 00da 426B     		ldr	r2, [r0, #52]
 4980 00dc 9142     		cmp	r1, r2
 4981 00de 04D0     		beq	.L1235
ARM GAS  C:\Users\Jay\AppData\Local\Temp\cci0ZEVx.s 			page 87


 4982 00e0 FFF7FEFF 		bl	move_window.part.6
 4983 00e4 0028     		cmp	r0, #0
 4984 00e6 9AD1     		bne	.L1226
 4985 00e8 0398     		ldr	r0, [sp, #12]
 4986              	.L1235:
 4987 00ea 90F85930 		ldrb	r3, [r0, #89]	@ zero_extendqisi2
 4988 00ee 2E2B     		cmp	r3, #46
 4989 00f0 0FD0     		beq	.L1245
 4990              	.L1232:
 4991 00f2 0CA8     		add	r0, sp, #48
 4992 00f4 FFF7FEFF 		bl	dir_remove
 4993 00f8 0028     		cmp	r0, #0
 4994 00fa 90D1     		bne	.L1226
 4995 00fc 0398     		ldr	r0, [sp, #12]
 4996 00fe FFF7FEFF 		bl	sync_fs
 4997 0102 8CE7     		b	.L1226
 4998              	.L1244:
 4999 0104 1C9A     		ldr	r2, [sp, #112]
 5000 0106 109B     		ldr	r3, [sp, #64]
 5001 0108 9A42     		cmp	r2, r3
 5002 010a ABD1     		bne	.L1238
 5003 010c B0E7     		b	.L1228
 5004              	.L1240:
 5005 010e 0220     		movs	r0, #2
 5006 0110 85E7     		b	.L1226
 5007              	.L1245:
 5008 0112 1A9B     		ldr	r3, [sp, #104]
 5009 0114 039A     		ldr	r2, [sp, #12]
 5010 0116 80F87230 		strb	r3, [r0, #114]
 5011 011a C3F30721 		ubfx	r1, r3, #8, #8
 5012 011e 80F87310 		strb	r1, [r0, #115]
 5013 0122 1178     		ldrb	r1, [r2]	@ zero_extendqisi2
 5014 0124 0329     		cmp	r1, #3
 5015 0126 05D1     		bne	.L1236
 5016 0128 1B0C     		lsrs	r3, r3, #16
 5017 012a 190A     		lsrs	r1, r3, #8
 5018 012c 80F86C30 		strb	r3, [r0, #108]
 5019 0130 80F86D10 		strb	r1, [r0, #109]
 5020              	.L1236:
 5021 0134 0123     		movs	r3, #1
 5022 0136 D370     		strb	r3, [r2, #3]
 5023 0138 DBE7     		b	.L1232
 5025 013a 00BF     		.section	.bss.CurrVol,"aw",%nobits
 5026              		.set	.LANCHOR0,. + 0
 5029              	CurrVol:
 5030 0000 00       		.space	1
 5031              		.section	.bss.FatFs,"aw",%nobits
 5032              		.align	2
 5033              		.set	.LANCHOR3,. + 0
 5036              	FatFs:
 5037 0000 00000000 		.space	4
 5038              		.section	.bss.Fsid,"aw",%nobits
 5039              		.align	1
 5040              		.set	.LANCHOR4,. + 0
 5043              	Fsid:
 5044 0000 0000     		.space	2
 5045              		.section	.bss.LfnBuf,"aw",%nobits
ARM GAS  C:\Users\Jay\AppData\Local\Temp\cci0ZEVx.s 			page 88


 5046              		.align	2
 5047              		.set	.LANCHOR5,. + 0
 5050              	LfnBuf:
 5051 0000 00000000 		.space	512
 5051      00000000 
 5051      00000000 
 5051      00000000 
 5051      00000000 
 5052              		.section	.rodata.ExCvt,"a",%progbits
 5053              		.align	2
 5054              		.set	.LANCHOR2,. + 0
 5057              	ExCvt:
 5058 0000 80       		.byte	-128
 5059 0001 9A       		.byte	-102
 5060 0002 45       		.byte	69
 5061 0003 41       		.byte	65
 5062 0004 8E       		.byte	-114
 5063 0005 41       		.byte	65
 5064 0006 8F       		.byte	-113
 5065 0007 80       		.byte	-128
 5066 0008 45       		.byte	69
 5067 0009 45       		.byte	69
 5068 000a 45       		.byte	69
 5069 000b 49       		.byte	73
 5070 000c 49       		.byte	73
 5071 000d 49       		.byte	73
 5072 000e 8E       		.byte	-114
 5073 000f 8F       		.byte	-113
 5074 0010 90       		.byte	-112
 5075 0011 92       		.byte	-110
 5076 0012 92       		.byte	-110
 5077 0013 4F       		.byte	79
 5078 0014 99       		.byte	-103
 5079 0015 4F       		.byte	79
 5080 0016 55       		.byte	85
 5081 0017 55       		.byte	85
 5082 0018 59       		.byte	89
 5083 0019 99       		.byte	-103
 5084 001a 9A       		.byte	-102
 5085 001b 9B       		.byte	-101
 5086 001c 9C       		.byte	-100
 5087 001d 9D       		.byte	-99
 5088 001e 9E       		.byte	-98
 5089 001f 9F       		.byte	-97
 5090 0020 41       		.byte	65
 5091 0021 49       		.byte	73
 5092 0022 4F       		.byte	79
 5093 0023 55       		.byte	85
 5094 0024 A5       		.byte	-91
 5095 0025 A5       		.byte	-91
 5096 0026 A6       		.byte	-90
 5097 0027 A7       		.byte	-89
 5098 0028 A8       		.byte	-88
 5099 0029 A9       		.byte	-87
 5100 002a AA       		.byte	-86
 5101 002b AB       		.byte	-85
 5102 002c AC       		.byte	-84
ARM GAS  C:\Users\Jay\AppData\Local\Temp\cci0ZEVx.s 			page 89


 5103 002d AD       		.byte	-83
 5104 002e AE       		.byte	-82
 5105 002f AF       		.byte	-81
 5106 0030 B0       		.byte	-80
 5107 0031 B1       		.byte	-79
 5108 0032 B2       		.byte	-78
 5109 0033 B3       		.byte	-77
 5110 0034 B4       		.byte	-76
 5111 0035 B5       		.byte	-75
 5112 0036 B6       		.byte	-74
 5113 0037 B7       		.byte	-73
 5114 0038 B8       		.byte	-72
 5115 0039 B9       		.byte	-71
 5116 003a BA       		.byte	-70
 5117 003b BB       		.byte	-69
 5118 003c BC       		.byte	-68
 5119 003d BD       		.byte	-67
 5120 003e BE       		.byte	-66
 5121 003f BF       		.byte	-65
 5122 0040 C0       		.byte	-64
 5123 0041 C1       		.byte	-63
 5124 0042 C2       		.byte	-62
 5125 0043 C3       		.byte	-61
 5126 0044 C4       		.byte	-60
 5127 0045 C5       		.byte	-59
 5128 0046 C6       		.byte	-58
 5129 0047 C7       		.byte	-57
 5130 0048 C8       		.byte	-56
 5131 0049 C9       		.byte	-55
 5132 004a CA       		.byte	-54
 5133 004b CB       		.byte	-53
 5134 004c CC       		.byte	-52
 5135 004d CD       		.byte	-51
 5136 004e CE       		.byte	-50
 5137 004f CF       		.byte	-49
 5138 0050 D0       		.byte	-48
 5139 0051 D1       		.byte	-47
 5140 0052 D2       		.byte	-46
 5141 0053 D3       		.byte	-45
 5142 0054 D4       		.byte	-44
 5143 0055 D5       		.byte	-43
 5144 0056 D6       		.byte	-42
 5145 0057 D7       		.byte	-41
 5146 0058 D8       		.byte	-40
 5147 0059 D9       		.byte	-39
 5148 005a DA       		.byte	-38
 5149 005b DB       		.byte	-37
 5150 005c DC       		.byte	-36
 5151 005d DD       		.byte	-35
 5152 005e DE       		.byte	-34
 5153 005f DF       		.byte	-33
 5154 0060 E0       		.byte	-32
 5155 0061 E1       		.byte	-31
 5156 0062 E2       		.byte	-30
 5157 0063 E3       		.byte	-29
 5158 0064 E4       		.byte	-28
 5159 0065 E5       		.byte	-27
ARM GAS  C:\Users\Jay\AppData\Local\Temp\cci0ZEVx.s 			page 90


 5160 0066 E6       		.byte	-26
 5161 0067 E7       		.byte	-25
 5162 0068 E8       		.byte	-24
 5163 0069 E9       		.byte	-23
 5164 006a EA       		.byte	-22
 5165 006b EB       		.byte	-21
 5166 006c EC       		.byte	-20
 5167 006d ED       		.byte	-19
 5168 006e EE       		.byte	-18
 5169 006f EF       		.byte	-17
 5170 0070 F0       		.byte	-16
 5171 0071 F1       		.byte	-15
 5172 0072 F2       		.byte	-14
 5173 0073 F3       		.byte	-13
 5174 0074 F4       		.byte	-12
 5175 0075 F5       		.byte	-11
 5176 0076 F6       		.byte	-10
 5177 0077 F7       		.byte	-9
 5178 0078 F8       		.byte	-8
 5179 0079 F9       		.byte	-7
 5180 007a FA       		.byte	-6
 5181 007b FB       		.byte	-5
 5182 007c FC       		.byte	-4
 5183 007d FD       		.byte	-3
 5184 007e FE       		.byte	-2
 5185 007f FF       		.byte	-1
 5186              		.section	.rodata.LfnOfs,"a",%progbits
 5187              		.align	2
 5188              		.set	.LANCHOR1,. + 0
 5191              	LfnOfs:
 5192 0000 01       		.byte	1
 5193 0001 03       		.byte	3
 5194 0002 05       		.byte	5
 5195 0003 07       		.byte	7
 5196 0004 09       		.byte	9
 5197 0005 0E       		.byte	14
 5198 0006 10       		.byte	16
 5199 0007 12       		.byte	18
 5200 0008 14       		.byte	20
 5201 0009 16       		.byte	22
 5202 000a 18       		.byte	24
 5203 000b 1C       		.byte	28
 5204 000c 1E       		.byte	30
 5205              		.section	.rodata.check_fs.str1.4,"aMS",%progbits,1
 5206              		.align	2
 5207              	.LC0:
 5208 0000 46415433 		.ascii	"FAT32\000"
 5208      3200
 5209              		.section	.rodata.follow_path.str1.4,"aMS",%progbits,1
 5210              		.align	2
 5211              	.LC1:
 5212 0000 222A3A3C 		.ascii	"\"*:<>?|\177\000"
 5212      3E3F7C7F 
 5212      00
 5213 0009 000000   		.space	3
 5214              	.LC2:
 5215 000c 2B2C3B3D 		.ascii	"+,;=[]\000"
ARM GAS  C:\Users\Jay\AppData\Local\Temp\cci0ZEVx.s 			page 91


 5215      5B5D00
 5216              		.ident	"GCC: (GNU Tools for STM32 7-2018-q2-update.20190328-1800) 7.3.1 20180622 (release) [ARM/em
ARM GAS  C:\Users\Jay\AppData\Local\Temp\cci0ZEVx.s 			page 92

