ARM GAS  C:\Users\Jay\AppData\Local\Temp\ccrCOBv6.s 			page 1


   1              		.cpu cortex-m4
   2              		.eabi_attribute 27, 1
   3              		.eabi_attribute 28, 1
   4              		.eabi_attribute 20, 1
   5              		.eabi_attribute 21, 1
   6              		.eabi_attribute 23, 3
   7              		.eabi_attribute 24, 1
   8              		.eabi_attribute 25, 1
   9              		.eabi_attribute 26, 1
  10              		.eabi_attribute 30, 2
  11              		.eabi_attribute 34, 1
  12              		.eabi_attribute 18, 4
  13              		.file	"main.c"
  14              		.text
  15              		.section	.text.sdio_cmd_send,"ax",%progbits
  16              		.align	1
  17              		.p2align 2,,3
  18              		.syntax unified
  19              		.thumb
  20              		.thumb_func
  21              		.fpu fpv4-sp-d16
  23              	sdio_cmd_send:
  24              		@ args = 0, pretend = 0, frame = 0
  25              		@ frame_needed = 0, uses_anonymous_args = 0
  26 0000 F8B5     		push	{r3, r4, r5, r6, r7, lr}
  27 0002 1546     		mov	r5, r2
  28 0004 0206     		lsls	r2, r0, #24
  29 0006 0446     		mov	r4, r0
  30 0008 0F46     		mov	r7, r1
  31 000a 1E46     		mov	r6, r3
  32 000c 3AD4     		bmi	.L2
  33              	.L8:
  34 000e 012D     		cmp	r5, #1
  35 0010 04F03F04 		and	r4, r4, #63
  36 0014 2BD0     		beq	.L35
  37 0016 022D     		cmp	r5, #2
  38 0018 14BF     		ite	ne
  39 001a 44F48061 		orrne	r1, r4, #1024
  40 001e 44F49861 		orreq	r1, r4, #1216
  41              	.L9:
  42 0022 1F4B     		ldr	r3, .L37
  43 0024 1F4A     		ldr	r2, .L37+4
  44 0026 9A63     		str	r2, [r3, #56]
  45 0028 9F60     		str	r7, [r3, #8]
  46 002a 1A46     		mov	r2, r3
  47 002c D960     		str	r1, [r3, #12]
  48              	.L11:
  49 002e 536B     		ldr	r3, [r2, #52]
  50 0030 1905     		lsls	r1, r3, #20
  51 0032 FCD4     		bmi	.L11
  52 0034 85B1     		cbz	r5, .L32
  53 0036 1A4A     		ldr	r2, .L37
  54              	.L12:
  55 0038 536B     		ldr	r3, [r2, #52]
  56 003a 13F0450F 		tst	r3, #69
  57 003e FBD0     		beq	.L12
  58 0040 5A07     		lsls	r2, r3, #29
ARM GAS  C:\Users\Jay\AppData\Local\Temp\ccrCOBv6.s 			page 2


  59 0042 07D4     		bmi	.L7
  60 0044 DB07     		lsls	r3, r3, #31
  61 0046 0BD5     		bpl	.L13
  62 0048 012C     		cmp	r4, #1
  63 004a 09D0     		beq	.L13
  64 004c 0C2C     		cmp	r4, #12
  65 004e 07D0     		beq	.L13
  66 0050 292C     		cmp	r4, #41
  67 0052 05D0     		beq	.L13
  68              	.L7:
  69 0054 0020     		movs	r0, #0
  70 0056 F8BD     		pop	{r3, r4, r5, r6, r7, pc}
  71              	.L32:
  72 0058 506B     		ldr	r0, [r2, #52]
  73 005a C0F3C010 		ubfx	r0, r0, #7, #1
  74 005e F8BD     		pop	{r3, r4, r5, r6, r7, pc}
  75              	.L13:
  76 0060 0F4B     		ldr	r3, .L37
  77 0062 022D     		cmp	r5, #2
  78 0064 5A69     		ldr	r2, [r3, #20]
  79 0066 3260     		str	r2, [r6]
  80 0068 04D0     		beq	.L36
  81 006a 0120     		movs	r0, #1
  82 006c F8BD     		pop	{r3, r4, r5, r6, r7, pc}
  83              	.L35:
  84 006e 44F48861 		orr	r1, r4, #1088
  85 0072 D6E7     		b	.L9
  86              	.L36:
  87 0074 9A69     		ldr	r2, [r3, #24]
  88 0076 7260     		str	r2, [r6, #4]
  89 0078 DA69     		ldr	r2, [r3, #28]
  90 007a B260     		str	r2, [r6, #8]
  91 007c 1B6A     		ldr	r3, [r3, #32]
  92 007e F360     		str	r3, [r6, #12]
  93 0080 0120     		movs	r0, #1
  94 0082 F8BD     		pop	{r3, r4, r5, r6, r7, pc}
  95              	.L2:
  96 0084 084A     		ldr	r2, .L37+8
  97 0086 1188     		ldrh	r1, [r2]
  98 0088 3720     		movs	r0, #55
  99 008a 0122     		movs	r2, #1
 100 008c 0904     		lsls	r1, r1, #16
 101 008e FFF7B7FF 		bl	sdio_cmd_send
 102 0092 0028     		cmp	r0, #0
 103 0094 DED0     		beq	.L7
 104 0096 3368     		ldr	r3, [r6]
 105 0098 9806     		lsls	r0, r3, #26
 106 009a B8D4     		bmi	.L8
 107 009c DAE7     		b	.L7
 108              	.L38:
 109 009e 00BF     		.align	2
 110              	.L37:
 111 00a0 002C0140 		.word	1073818624
 112 00a4 C500C000 		.word	12583109
 113 00a8 00000000 		.word	.LANCHOR0
 115              		.section	.text.usbd_set_address,"ax",%progbits
 116              		.align	1
ARM GAS  C:\Users\Jay\AppData\Local\Temp\ccrCOBv6.s 			page 3


 117              		.p2align 2,,3
 118              		.syntax unified
 119              		.thumb
 120              		.thumb_func
 121              		.fpu fpv4-sp-d16
 123              	usbd_set_address:
 124              		@ args = 0, pretend = 0, frame = 0
 125              		@ frame_needed = 0, uses_anonymous_args = 0
 126 0000 38B5     		push	{r3, r4, r5, lr}
 127 0002 0368     		ldr	r3, [r0]
 128 0004 0D46     		mov	r5, r1
 129 0006 0446     		mov	r4, r0
 130 0008 DB68     		ldr	r3, [r3, #12]
 131 000a 8878     		ldrb	r0, [r1, #2]	@ zero_extendqisi2
 132 000c 9847     		blx	r3
 133 000e 6B88     		ldrh	r3, [r5, #2]
 134 0010 002B     		cmp	r3, #0
 135 0012 14BF     		ite	ne
 136 0014 0323     		movne	r3, #3
 137 0016 0223     		moveq	r3, #2
 138 0018 84F86230 		strb	r3, [r4, #98]
 139 001c 38BD     		pop	{r3, r4, r5, pc}
 141 001e 00BF     		.section	.text.usbd_process_evt,"ax",%progbits
 142              		.align	1
 143              		.p2align 2,,3
 144              		.syntax unified
 145              		.thumb
 146              		.thumb_func
 147              		.fpu fpv4-sp-d16
 149              	usbd_process_evt:
 150              		@ args = 0, pretend = 0, frame = 0
 151              		@ frame_needed = 0, uses_anonymous_args = 0
 152 0000 70B5     		push	{r4, r5, r6, lr}
 153 0002 0446     		mov	r4, r0
 154 0004 1646     		mov	r6, r2
 155 0006 0D46     		mov	r5, r1
 156 0008 A9B1     		cbz	r1, .L45
 157 000a 0B1F     		subs	r3, r1, #4
 158 000c 022B     		cmp	r3, #2
 159 000e 09D9     		bls	.L53
 160              	.L44:
 161 0010 04EB8503 		add	r3, r4, r5, lsl #2
 162 0014 5B69     		ldr	r3, [r3, #20]
 163 0016 13B3     		cbz	r3, .L43
 164 0018 3246     		mov	r2, r6
 165 001a 2946     		mov	r1, r5
 166 001c 2046     		mov	r0, r4
 167 001e BDE87040 		pop	{r4, r5, r6, lr}
 168 0022 1847     		bx	r3	@ indirect register sibling call
 169              	.L53:
 170 0024 02F00703 		and	r3, r2, #7
 171 0028 00EB8303 		add	r3, r0, r3, lsl #2
 172 002c 5B6B     		ldr	r3, [r3, #52]
 173 002e 002B     		cmp	r3, #0
 174 0030 EED0     		beq	.L44
 175 0032 9847     		blx	r3
 176 0034 ECE7     		b	.L44
ARM GAS  C:\Users\Jay\AppData\Local\Temp\ccrCOBv6.s 			page 4


 177              	.L45:
 178 0036 0368     		ldr	r3, [r0]
 179 0038 84F86310 		strb	r1, [r4, #99]
 180 003c 0222     		movs	r2, #2
 181 003e 84F86110 		strb	r1, [r4, #97]
 182 0042 80F86220 		strb	r2, [r0, #98]
 183 0046 1B69     		ldr	r3, [r3, #16]
 184 0048 90F86020 		ldrb	r2, [r0, #96]	@ zero_extendqisi2
 185 004c 0846     		mov	r0, r1
 186 004e 9847     		blx	r3
 187 0050 2368     		ldr	r3, [r4]
 188 0052 034A     		ldr	r2, .L54
 189 0054 DB68     		ldr	r3, [r3, #12]
 190 0056 6263     		str	r2, [r4, #52]
 191 0058 2846     		mov	r0, r5
 192 005a 9847     		blx	r3
 193 005c D8E7     		b	.L44
 194              	.L43:
 195 005e 70BD     		pop	{r4, r5, r6, pc}
 196              	.L55:
 197              		.align	2
 198              	.L54:
 199 0060 00000000 		.word	usbd_process_ep0
 201              		.section	.text.setaddr,"ax",%progbits
 202              		.align	1
 203              		.p2align 2,,3
 204              		.global	setaddr
 205              		.syntax unified
 206              		.thumb
 207              		.thumb_func
 208              		.fpu fpv4-sp-d16
 210              	setaddr:
 211              		@ args = 0, pretend = 0, frame = 0
 212              		@ frame_needed = 0, uses_anonymous_args = 0
 213              		@ link register save eliminated.
 214 0000 034A     		ldr	r2, .L57
 215 0002 1368     		ldr	r3, [r2]
 216 0004 23F4FE63 		bic	r3, r3, #2032
 217 0008 43EA0010 		orr	r0, r3, r0, lsl #4
 218 000c 1060     		str	r0, [r2]
 219 000e 7047     		bx	lr
 220              	.L58:
 221              		.align	2
 222              	.L57:
 223 0010 00080050 		.word	1342179328
 225              		.section	.text.set_tx_fifo,"ax",%progbits
 226              		.align	1
 227              		.p2align 2,,3
 228              		.syntax unified
 229              		.thumb
 230              		.thumb_func
 231              		.fpu fpv4-sp-d16
 233              	set_tx_fifo:
 234              		@ args = 0, pretend = 0, frame = 0
 235              		@ frame_needed = 0, uses_anonymous_args = 0
 236              		@ link register save eliminated.
 237 0000 4FF0A043 		mov	r3, #1342177280
ARM GAS  C:\Users\Jay\AppData\Local\Temp\ccrCOBv6.s 			page 5


 238 0004 30B4     		push	{r4, r5}
 239 0006 9C6A     		ldr	r4, [r3, #40]
 240 0008 04EB1444 		add	r4, r4, r4, lsr #16
 241 000c A4B2     		uxth	r4, r4
 242 000e 0022     		movs	r2, #0
 243              	.L61:
 244 0010 9300     		lsls	r3, r2, #2
 245 0012 03F1A043 		add	r3, r3, #1342177280
 246 0016 03F58073 		add	r3, r3, #256
 247 001a 0132     		adds	r2, r2, #1
 248 001c 5B68     		ldr	r3, [r3, #4]
 249 001e 9DB2     		uxth	r5, r3
 250 0020 B5F5007F 		cmp	r5, #512
 251 0024 05D2     		bcs	.L60
 252 0026 03EB1343 		add	r3, r3, r3, lsr #16
 253 002a 9BB2     		uxth	r3, r3
 254 002c 9C42     		cmp	r4, r3
 255 002e 38BF     		it	cc
 256 0030 1C46     		movcc	r4, r3
 257              	.L60:
 258 0032 032A     		cmp	r2, #3
 259 0034 ECD1     		bne	.L61
 260 0036 0331     		adds	r1, r1, #3
 261 0038 8910     		asrs	r1, r1, #2
 262 003a 1029     		cmp	r1, #16
 263 003c B8BF     		it	lt
 264 003e 1021     		movlt	r1, #16
 265 0040 0B19     		adds	r3, r1, r4
 266 0042 B3F5A07F 		cmp	r3, #320
 267 0046 09D8     		bhi	.L63
 268 0048 8000     		lsls	r0, r0, #2
 269 004a 00F1A040 		add	r0, r0, #1342177280
 270 004e 44EA0144 		orr	r4, r4, r1, lsl #16
 271 0052 C0F80041 		str	r4, [r0, #256]
 272 0056 0120     		movs	r0, #1
 273 0058 30BC     		pop	{r4, r5}
 274 005a 7047     		bx	lr
 275              	.L63:
 276 005c 0020     		movs	r0, #0
 277 005e 30BC     		pop	{r4, r5}
 278 0060 7047     		bx	lr
 280 0062 00BF     		.section	.text.ep_deconfig,"ax",%progbits
 281              		.align	1
 282              		.p2align 2,,3
 283              		.global	ep_deconfig
 284              		.syntax unified
 285              		.thumb
 286              		.thumb_func
 287              		.fpu fpv4-sp-d16
 289              	ep_deconfig:
 290              		@ args = 0, pretend = 0, frame = 0
 291              		@ frame_needed = 0, uses_anonymous_args = 0
 292              		@ link register save eliminated.
 293 0000 30B4     		push	{r4, r5}
 294 0002 2E4C     		ldr	r4, .L80
 295 0004 00F07F00 		and	r0, r0, #127
 296 0008 E369     		ldr	r3, [r4, #28]
ARM GAS  C:\Users\Jay\AppData\Local\Temp\ccrCOBv6.s 			page 6


 297 000a 4FF00112 		mov	r2, #65537
 298 000e 8240     		lsls	r2, r2, r0
 299 0010 4101     		lsls	r1, r0, #5
 300 0012 01F1A041 		add	r1, r1, #1342177280
 301 0016 23EA0203 		bic	r3, r3, r2
 302 001a E361     		str	r3, [r4, #28]
 303 001c D1F80039 		ldr	r3, [r1, #2304]
 304 0020 4FF0A042 		mov	r2, #1342177280
 305 0024 23F40043 		bic	r3, r3, #32768
 306 0028 C1F80039 		str	r3, [r1, #2304]
 307 002c 1469     		ldr	r4, [r2, #16]
 308 002e 8301     		lsls	r3, r0, #6
 309 0030 24F4F864 		bic	r4, r4, #1984
 310 0034 44F02004 		orr	r4, r4, #32
 311 0038 03F4F863 		and	r3, r3, #1984
 312 003c 2343     		orrs	r3, r3, r4
 313 003e 1361     		str	r3, [r2, #16]
 314 0040 01F51065 		add	r5, r1, #2304
 315 0044 01F53064 		add	r4, r1, #2816
 316              	.L67:
 317 0048 1369     		ldr	r3, [r2, #16]
 318 004a 9B06     		lsls	r3, r3, #26
 319 004c FCD4     		bmi	.L67
 320 004e D1F80039 		ldr	r3, [r1, #2304]
 321 0052 002B     		cmp	r3, #0
 322 0054 0EDB     		blt	.L79
 323 0056 FF23     		movs	r3, #255
 324 0058 AB60     		str	r3, [r5, #8]
 325 005a 90B9     		cbnz	r0, .L70
 326              	.L71:
 327 005c D1F8003B 		ldr	r3, [r1, #2816]
 328 0060 23F40043 		bic	r3, r3, #32768
 329 0064 C1F8003B 		str	r3, [r1, #2816]
 330 0068 D1F8003B 		ldr	r3, [r1, #2816]
 331 006c FF23     		movs	r3, #255
 332 006e A360     		str	r3, [r4, #8]
 333 0070 30BC     		pop	{r4, r5}
 334 0072 7047     		bx	lr
 335              	.L79:
 336 0074 F8B1     		cbz	r0, .L69
 337 0076 4FF08042 		mov	r2, #1073741824
 338 007a FF23     		movs	r3, #255
 339 007c C1F80029 		str	r2, [r1, #2304]
 340 0080 AB60     		str	r3, [r5, #8]
 341              	.L70:
 342 0082 8300     		lsls	r3, r0, #2
 343 0084 03F1A043 		add	r3, r3, #1342177280
 344 0088 00F10110 		add	r0, r0, #65537
 345 008c 4002     		lsls	r0, r0, #9
 346 008e C3F80001 		str	r0, [r3, #256]
 347 0092 D1F8003B 		ldr	r3, [r1, #2816]
 348 0096 23F40043 		bic	r3, r3, #32768
 349 009a C1F8003B 		str	r3, [r1, #2816]
 350 009e D1F8003B 		ldr	r3, [r1, #2816]
 351 00a2 002B     		cmp	r3, #0
 352 00a4 BCBF     		itt	lt
 353 00a6 4FF08043 		movlt	r3, #1073741824
ARM GAS  C:\Users\Jay\AppData\Local\Temp\ccrCOBv6.s 			page 7


 354 00aa C1F8003B 		strlt	r3, [r1, #2816]
 355 00ae FF23     		movs	r3, #255
 356 00b0 A360     		str	r3, [r4, #8]
 357 00b2 30BC     		pop	{r4, r5}
 358 00b4 7047     		bx	lr
 359              	.L69:
 360 00b6 FF23     		movs	r3, #255
 361 00b8 AB60     		str	r3, [r5, #8]
 362 00ba CFE7     		b	.L71
 363              	.L81:
 364              		.align	2
 365              	.L80:
 366 00bc 00080050 		.word	1342179328
 368              		.section	.text.ep_read,"ax",%progbits
 369              		.align	1
 370              		.p2align 2,,3
 371              		.global	ep_read
 372              		.syntax unified
 373              		.thumb
 374              		.thumb_func
 375              		.fpu fpv4-sp-d16
 377              	ep_read:
 378              		@ args = 0, pretend = 0, frame = 0
 379              		@ frame_needed = 0, uses_anonymous_args = 0
 380              		@ link register save eliminated.
 381 0000 4FF0A043 		mov	r3, #1342177280
 382 0004 F0B4     		push	{r4, r5, r6, r7}
 383 0006 5C69     		ldr	r4, [r3, #20]
 384 0008 E406     		lsls	r4, r4, #27
 385 000a 2CD5     		bpl	.L90
 386 000c DC69     		ldr	r4, [r3, #28]
 387 000e 00F07F00 		and	r0, r0, #127
 388 0012 04F00F04 		and	r4, r4, #15
 389 0016 8442     		cmp	r4, r0
 390 0018 25D1     		bne	.L90
 391 001a 186A     		ldr	r0, [r3, #32]
 392 001c C0F30A10 		ubfx	r0, r0, #4, #11
 393 0020 F8B1     		cbz	r0, .L82
 394 0022 124F     		ldr	r7, .L97
 395 0024 0025     		movs	r5, #0
 396 0026 06E0     		b	.L88
 397              	.L84:
 398 0028 043A     		subs	r2, r2, #4
 399 002a 41F8043B 		str	r3, [r1], #4
 400 002e 92B2     		uxth	r2, r2
 401              	.L86:
 402 0030 0435     		adds	r5, r5, #4
 403 0032 8542     		cmp	r5, r0
 404 0034 15D2     		bcs	.L82
 405              	.L88:
 406 0036 032A     		cmp	r2, #3
 407 0038 3B68     		ldr	r3, [r7]
 408 003a F5D8     		bhi	.L84
 409 003c 002A     		cmp	r2, #0
 410 003e F7D0     		beq	.L86
 411 0040 013A     		subs	r2, r2, #1
 412 0042 92B2     		uxth	r2, r2
ARM GAS  C:\Users\Jay\AppData\Local\Temp\ccrCOBv6.s 			page 8


 413 0044 8E18     		adds	r6, r1, r2
 414 0046 4C1E     		subs	r4, r1, #1
 415              	.L87:
 416 0048 04F8013F 		strb	r3, [r4, #1]!
 417 004c A642     		cmp	r6, r4
 418 004e 4FEA1323 		lsr	r3, r3, #8
 419 0052 F9D1     		bne	.L87
 420 0054 0435     		adds	r5, r5, #4
 421 0056 0132     		adds	r2, r2, #1
 422 0058 8542     		cmp	r5, r0
 423 005a 1144     		add	r1, r1, r2
 424 005c 4FF00002 		mov	r2, #0
 425 0060 E9D3     		bcc	.L88
 426              	.L82:
 427 0062 F0BC     		pop	{r4, r5, r6, r7}
 428 0064 7047     		bx	lr
 429              	.L90:
 430 0066 4FF0FF30 		mov	r0, #-1
 431 006a FAE7     		b	.L82
 432              	.L98:
 433              		.align	2
 434              	.L97:
 435 006c 00100050 		.word	1342181376
 437              		.section	.text.ep_write,"ax",%progbits
 438              		.align	1
 439              		.p2align 2,,3
 440              		.global	ep_write
 441              		.syntax unified
 442              		.thumb
 443              		.thumb_func
 444              		.fpu fpv4-sp-d16
 446              	ep_write:
 447              		@ args = 0, pretend = 0, frame = 0
 448              		@ frame_needed = 0, uses_anonymous_args = 0
 449              		@ link register save eliminated.
 450 0000 F0B4     		push	{r4, r5, r6, r7}
 451 0002 00F07F06 		and	r6, r0, #127
 452 0006 7501     		lsls	r5, r6, #5
 453 0008 05F1A045 		add	r5, r5, #1342177280
 454 000c 05F51067 		add	r7, r5, #2304
 455 0010 D31C     		adds	r3, r2, #3
 456 0012 D7F818C0 		ldr	ip, [r7, #24]
 457 0016 9B10     		asrs	r3, r3, #2
 458 0018 9C45     		cmp	ip, r3
 459 001a 23D3     		bcc	.L104
 460 001c 3403     		lsls	r4, r6, #12
 461 001e 04F1A044 		add	r4, r4, #1342177280
 462 0022 1046     		mov	r0, r2
 463 0024 04F58054 		add	r4, r4, #4096
 464 0028 C6B9     		cbnz	r6, .L113
 465              	.L101:
 466 002a 02F50022 		add	r2, r2, #524288
 467 002e 0026     		movs	r6, #0
 468 0030 3E61     		str	r6, [r7, #16]
 469 0032 3A61     		str	r2, [r7, #16]
 470 0034 D5F80029 		ldr	r2, [r5, #2304]
 471 0038 22F00442 		bic	r2, r2, #-2080374784
ARM GAS  C:\Users\Jay\AppData\Local\Temp\ccrCOBv6.s 			page 9


 472 003c 22F40012 		bic	r2, r2, #2097152
 473 0040 42F00442 		orr	r2, r2, #-2080374784
 474 0044 C5F80029 		str	r2, [r5, #2304]
 475 0048 33B1     		cbz	r3, .L99
 476 004a 01EB8302 		add	r2, r1, r3, lsl #2
 477              	.L102:
 478 004e 51F8043B 		ldr	r3, [r1], #4
 479 0052 2360     		str	r3, [r4]
 480 0054 8A42     		cmp	r2, r1
 481 0056 FAD1     		bne	.L102
 482              	.L99:
 483 0058 F0BC     		pop	{r4, r5, r6, r7}
 484 005a 7047     		bx	lr
 485              	.L113:
 486 005c D5F80069 		ldr	r6, [r5, #2304]
 487 0060 002E     		cmp	r6, #0
 488 0062 E2DA     		bge	.L101
 489              	.L104:
 490 0064 4FF0FF30 		mov	r0, #-1
 491 0068 F6E7     		b	.L99
 493 006a 00BF     		.section	.text.get_frame,"ax",%progbits
 494              		.align	1
 495              		.p2align 2,,3
 496              		.global	get_frame
 497              		.syntax unified
 498              		.thumb
 499              		.thumb_func
 500              		.fpu fpv4-sp-d16
 502              	get_frame:
 503              		@ args = 0, pretend = 0, frame = 0
 504              		@ frame_needed = 0, uses_anonymous_args = 0
 505              		@ link register save eliminated.
 506 0000 024B     		ldr	r3, .L115
 507 0002 9868     		ldr	r0, [r3, #8]
 508 0004 C0F30D20 		ubfx	r0, r0, #8, #14
 509 0008 7047     		bx	lr
 510              	.L116:
 511 000a 00BF     		.align	2
 512              	.L115:
 513 000c 00080050 		.word	1342179328
 515              		.section	.text.evt_poll,"ax",%progbits
 516              		.align	1
 517              		.p2align 2,,3
 518              		.global	evt_poll
 519              		.syntax unified
 520              		.thumb
 521              		.thumb_func
 522              		.fpu fpv4-sp-d16
 524              	evt_poll:
 525              		@ args = 0, pretend = 0, frame = 0
 526              		@ frame_needed = 0, uses_anonymous_args = 0
 527 0000 2DE9F041 		push	{r4, r5, r6, r7, r8, lr}
 528 0004 0746     		mov	r7, r0
 529 0006 0E46     		mov	r6, r1
 530 0008 0024     		movs	r4, #0
 531 000a 4FF0A045 		mov	r5, #1342177280
 532 000e 4FF48058 		mov	r8, #4096
ARM GAS  C:\Users\Jay\AppData\Local\Temp\ccrCOBv6.s 			page 10


 533              	.L118:
 534 0012 6B69     		ldr	r3, [r5, #20]
 535 0014 13F48051 		ands	r1, r3, #4096
 536 0018 20D1     		bne	.L150
 537              	.L119:
 538 001a 9804     		lsls	r0, r3, #18
 539 001c 59D4     		bmi	.L151
 540 001e 5A03     		lsls	r2, r3, #13
 541 0020 5BD4     		bmi	.L152
 542 0022 D806     		lsls	r0, r3, #27
 543 0024 72D5     		bpl	.L130
 544 0026 EC69     		ldr	r4, [r5, #28]
 545 0028 C4F34343 		ubfx	r3, r4, #17, #4
 546 002c 023B     		subs	r3, r3, #2
 547 002e 04F00F04 		and	r4, r4, #15
 548 0032 042B     		cmp	r3, #4
 549 0034 0DD8     		bhi	.L131
 550 0036 DFE803F0 		tbb	[pc, r3]
 551              	.L132:
 552 003a 27       		.byte	(.L137-.L132)/2
 553 003b 03       		.byte	(.L133-.L132)/2
 554 003c 03       		.byte	(.L133-.L132)/2
 555 003d 0C       		.byte	(.L131-.L132)/2
 556 003e 2E       		.byte	(.L134-.L132)/2
 557 003f 00       		.p2align 1
 558              	.L133:
 559 0040 6301     		lsls	r3, r4, #5
 560 0042 03F1A043 		add	r3, r3, #1342177280
 561 0046 D3F8002B 		ldr	r2, [r3, #2816]
 562 004a 42F00442 		orr	r2, r2, #-2080374784
 563 004e C3F8002B 		str	r2, [r3, #2816]
 564              	.L131:
 565 0052 2B6A     		ldr	r3, [r5, #32]
 566 0054 6B69     		ldr	r3, [r5, #20]
 567 0056 13F48051 		ands	r1, r3, #4096
 568 005a DED0     		beq	.L119
 569              	.L150:
 570 005c 0020     		movs	r0, #0
 571 005e C5F81480 		str	r8, [r5, #20]
 572 0062 FFF7FEFF 		bl	ep_deconfig
 573 0066 0120     		movs	r0, #1
 574 0068 FFF7FEFF 		bl	ep_deconfig
 575 006c 0220     		movs	r0, #2
 576 006e FFF7FEFF 		bl	ep_deconfig
 577 0072 0320     		movs	r0, #3
 578 0074 FFF7FEFF 		bl	ep_deconfig
 579 0078 2B69     		ldr	r3, [r5, #16]
 580 007a 43F01003 		orr	r3, r3, #16
 581 007e 2B61     		str	r3, [r5, #16]
 582              	.L120:
 583 0080 2B69     		ldr	r3, [r5, #16]
 584 0082 DB06     		lsls	r3, r3, #27
 585 0084 FCD4     		bmi	.L120
 586 0086 C4E7     		b	.L118
 587              	.L137:
 588 0088 0521     		movs	r1, #5
 589              	.L123:
ARM GAS  C:\Users\Jay\AppData\Local\Temp\ccrCOBv6.s 			page 11


 590 008a E2B2     		uxtb	r2, r4
 591 008c 3846     		mov	r0, r7
 592 008e 3346     		mov	r3, r6
 593 0090 BDE8F041 		pop	{r4, r5, r6, r7, r8, lr}
 594 0094 1847     		bx	r3	@ indirect register sibling call
 595              	.L134:
 596 0096 6301     		lsls	r3, r4, #5
 597 0098 03F1A043 		add	r3, r3, #1342177280
 598 009c 03F51063 		add	r3, r3, #2304
 599 00a0 254A     		ldr	r2, .L155
 600 00a2 1B69     		ldr	r3, [r3, #16]
 601 00a4 1A40     		ands	r2, r2, r3
 602 00a6 6AB1     		cbz	r2, .L138
 603 00a8 4FF0A041 		mov	r1, #1342177280
 604 00ac 0A46     		mov	r2, r1
 605 00ae 0B69     		ldr	r3, [r1, #16]
 606 00b0 23F4F863 		bic	r3, r3, #1984
 607 00b4 43F02003 		orr	r3, r3, #32
 608 00b8 43EA8413 		orr	r3, r3, r4, lsl #6
 609 00bc 0B61     		str	r3, [r1, #16]
 610              	.L135:
 611 00be 1369     		ldr	r3, [r2, #16]
 612 00c0 9906     		lsls	r1, r3, #26
 613 00c2 FCD4     		bmi	.L135
 614              	.L138:
 615 00c4 E2B2     		uxtb	r2, r4
 616 00c6 3846     		mov	r0, r7
 617 00c8 3346     		mov	r3, r6
 618 00ca 0621     		movs	r1, #6
 619 00cc BDE8F041 		pop	{r4, r5, r6, r7, r8, lr}
 620 00d0 1847     		bx	r3	@ indirect register sibling call
 621              	.L151:
 622 00d2 4FF40053 		mov	r3, #8192
 623 00d6 6B61     		str	r3, [r5, #20]
 624 00d8 D7E7     		b	.L123
 625              	.L152:
 626 00da 6201     		lsls	r2, r4, #5
 627 00dc 02F1A042 		add	r2, r2, #1342177280
 628 00e0 032C     		cmp	r4, #3
 629 00e2 02F51062 		add	r2, r2, #2304
 630 00e6 15D8     		bhi	.L117
 631 00e8 9368     		ldr	r3, [r2, #8]
 632 00ea DB07     		lsls	r3, r3, #31
 633 00ec 19D4     		bmi	.L126
 634 00ee 04F12073 		add	r3, r4, #41943040
 635 00f2 4933     		adds	r3, r3, #73
 636 00f4 5B01     		lsls	r3, r3, #5
 637 00f6 04E0     		b	.L128
 638              	.L148:
 639 00f8 9968     		ldr	r1, [r3, #8]
 640 00fa CD07     		lsls	r5, r1, #31
 641 00fc 03F12003 		add	r3, r3, #32
 642 0100 0FD4     		bmi	.L126
 643              	.L128:
 644 0102 0134     		adds	r4, r4, #1
 645 0104 042C     		cmp	r4, #4
 646 0106 1A46     		mov	r2, r3
ARM GAS  C:\Users\Jay\AppData\Local\Temp\ccrCOBv6.s 			page 12


 647 0108 F6D1     		bne	.L148
 648 010a 03E0     		b	.L117
 649              	.L130:
 650 010c 1A05     		lsls	r2, r3, #20
 651 010e 03D4     		bmi	.L153
 652 0110 002B     		cmp	r3, #0
 653 0112 0CDB     		blt	.L154
 654              	.L117:
 655 0114 BDE8F081 		pop	{r4, r5, r6, r7, r8, pc}
 656              	.L153:
 657 0118 4FF40063 		mov	r3, #2048
 658 011c 6B61     		str	r3, [r5, #20]
 659 011e 0221     		movs	r1, #2
 660 0120 B3E7     		b	.L123
 661              	.L126:
 662 0122 0123     		movs	r3, #1
 663 0124 44F08004 		orr	r4, r4, #128
 664 0128 9360     		str	r3, [r2, #8]
 665 012a 0421     		movs	r1, #4
 666 012c ADE7     		b	.L123
 667              	.L154:
 668 012e 4FF00043 		mov	r3, #-2147483648
 669 0132 6B61     		str	r3, [r5, #20]
 670 0134 0321     		movs	r1, #3
 671 0136 A8E7     		b	.L123
 672              	.L156:
 673              		.align	2
 674              	.L155:
 675 0138 0000F81F 		.word	536346624
 677              		.section	.text.get_serialno_desc,"ax",%progbits
 678              		.align	1
 679              		.p2align 2,,3
 680              		.global	get_serialno_desc
 681              		.syntax unified
 682              		.thumb
 683              		.thumb_func
 684              		.fpu fpv4-sp-d16
 686              	get_serialno_desc:
 687              		@ args = 0, pretend = 0, frame = 0
 688              		@ frame_needed = 0, uses_anonymous_args = 0
 689              		@ link register save eliminated.
 690 0000 1D4B     		ldr	r3, .L169
 691 0002 1E49     		ldr	r1, .L169+4
 692 0004 30B4     		push	{r4, r5}
 693 0006 1C68     		ldr	r4, [r3]
 694 0008 1D4D     		ldr	r5, .L169+8
 695 000a 0422     		movs	r2, #4
 696              	.L158:
 697 000c E3B2     		uxtb	r3, r4
 698 000e 5940     		eors	r1, r1, r3
 699 0010 013A     		subs	r2, r2, #1
 700 0012 05FB01F1 		mul	r1, r5, r1
 701 0016 4FEA1424 		lsr	r4, r4, #8
 702 001a F7D1     		bne	.L158
 703 001c 194B     		ldr	r3, .L169+12
 704 001e 184D     		ldr	r5, .L169+8
 705 0020 1C68     		ldr	r4, [r3]
ARM GAS  C:\Users\Jay\AppData\Local\Temp\ccrCOBv6.s 			page 13


 706 0022 0422     		movs	r2, #4
 707              	.L159:
 708 0024 E3B2     		uxtb	r3, r4
 709 0026 5940     		eors	r1, r1, r3
 710 0028 013A     		subs	r2, r2, #1
 711 002a 05FB01F1 		mul	r1, r5, r1
 712 002e 4FEA1424 		lsr	r4, r4, #8
 713 0032 F7D1     		bne	.L159
 714 0034 144B     		ldr	r3, .L169+16
 715 0036 124D     		ldr	r5, .L169+8
 716 0038 1C68     		ldr	r4, [r3]
 717 003a 0422     		movs	r2, #4
 718              	.L160:
 719 003c E3B2     		uxtb	r3, r4
 720 003e 5940     		eors	r1, r1, r3
 721 0040 013A     		subs	r2, r2, #1
 722 0042 05FB01F1 		mul	r1, r5, r1
 723 0046 4FEA1424 		lsr	r4, r4, #8
 724 004a F7D1     		bne	.L160
 725 004c 0546     		mov	r5, r0
 726 004e 1C22     		movs	r2, #28
 727              	.L162:
 728 0050 21FA02F3 		lsr	r3, r1, r2
 729 0054 03F00F03 		and	r3, r3, #15
 730 0058 0A2B     		cmp	r3, #10
 731 005a 34BF     		ite	cc
 732 005c 3024     		movcc	r4, #48
 733 005e 3724     		movcs	r4, #55
 734 0060 2344     		add	r3, r3, r4
 735 0062 043A     		subs	r2, r2, #4
 736 0064 25F8023F 		strh	r3, [r5, #2]!	@ movhi
 737 0068 131D     		adds	r3, r2, #4
 738 006a F1D1     		bne	.L162
 739 006c 40F21233 		movw	r3, #786
 740 0070 0380     		strh	r3, [r0]	@ movhi
 741 0072 30BC     		pop	{r4, r5}
 742 0074 1220     		movs	r0, #18
 743 0076 7047     		bx	lr
 744              	.L170:
 745              		.align	2
 746              	.L169:
 747 0078 107AFF1F 		.word	536836624
 748 007c C59D1C81 		.word	-2128831035
 749 0080 93010001 		.word	16777619
 750 0084 147AFF1F 		.word	536836628
 751 0088 187AFF1F 		.word	536836632
 753              		.section	.text.cdc_getdesc,"ax",%progbits
 754              		.align	1
 755              		.p2align 2,,3
 756              		.syntax unified
 757              		.thumb
 758              		.thumb_func
 759              		.fpu fpv4-sp-d16
 761              	cdc_getdesc:
 762              		@ args = 0, pretend = 0, frame = 0
 763              		@ frame_needed = 0, uses_anonymous_args = 0
 764              		@ link register save eliminated.
ARM GAS  C:\Users\Jay\AppData\Local\Temp\ccrCOBv6.s 			page 14


 765 0000 4088     		ldrh	r0, [r0, #2]
 766 0002 030A     		lsrs	r3, r0, #8
 767 0004 022B     		cmp	r3, #2
 768 0006 10B4     		push	{r4}
 769 0008 17D0     		beq	.L178
 770 000a 032B     		cmp	r3, #3
 771 000c 0DD0     		beq	.L174
 772 000e 012B     		cmp	r3, #1
 773 0010 03D0     		beq	.L182
 774              	.L179:
 775 0012 0020     		movs	r0, #0
 776 0014 5DF8044B 		ldr	r4, [sp], #4
 777 0018 7047     		bx	lr
 778              	.L182:
 779 001a 094B     		ldr	r3, .L183
 780 001c 1224     		movs	r4, #18
 781              	.L173:
 782 001e 0B60     		str	r3, [r1]
 783 0020 0120     		movs	r0, #1
 784 0022 1480     		strh	r4, [r2]	@ movhi
 785 0024 5DF8044B 		ldr	r4, [sp], #4
 786 0028 7047     		bx	lr
 787              	.L174:
 788 002a C0B2     		uxtb	r0, r0
 789 002c 0228     		cmp	r0, #2
 790 002e F0D8     		bhi	.L179
 791 0030 044B     		ldr	r3, .L183+4
 792 0032 53F82030 		ldr	r3, [r3, r0, lsl #2]
 793 0036 1C78     		ldrb	r4, [r3]	@ zero_extendqisi2
 794 0038 F1E7     		b	.L173
 795              	.L178:
 796 003a 034B     		ldr	r3, .L183+8
 797 003c 4B24     		movs	r4, #75
 798 003e EEE7     		b	.L173
 799              	.L184:
 800              		.align	2
 801              	.L183:
 802 0040 00000000 		.word	.LANCHOR1
 803 0044 00000000 		.word	.LANCHOR3
 804 0048 00000000 		.word	.LANCHOR2
 806              		.section	.text.flash_sector_program,"ax",%progbits
 807              		.align	1
 808              		.p2align 2,,3
 809              		.syntax unified
 810              		.thumb
 811              		.thumb_func
 812              		.fpu fpv4-sp-d16
 814              	flash_sector_program:
 815              		@ args = 0, pretend = 0, frame = 0
 816              		@ frame_needed = 0, uses_anonymous_args = 0
 817              		@ link register save eliminated.
 818 0000 70B4     		push	{r4, r5, r6}
 819              		.syntax unified
 820              	@ 142 "stm32f4xx/cmsis/cmsis_gcc.h" 1
 821 0002 72B6     		cpsid i
 822              	@ 0 "" 2
 823              		.thumb
ARM GAS  C:\Users\Jay\AppData\Local\Temp\ccrCOBv6.s 			page 15


 824              		.syntax unified
 825 0004 214C     		ldr	r4, .L202
 826 0006 224E     		ldr	r6, .L202+4
 827 0008 224D     		ldr	r5, .L202+8
 828 000a 6660     		str	r6, [r4, #4]
 829 000c C0B2     		uxtb	r0, r0
 830 000e 0B28     		cmp	r0, #11
 831 0010 6560     		str	r5, [r4, #4]
 832 0012 22D9     		bls	.L187
 833              	.L186:
 834 0014 1D4C     		ldr	r4, .L202
 835              	.L189:
 836 0016 E068     		ldr	r0, [r4, #12]
 837 0018 C503     		lsls	r5, r0, #15
 838 001a FCD4     		bmi	.L189
 839 001c 2069     		ldr	r0, [r4, #16]
 840 001e 20F00300 		bic	r0, r0, #3
 841 0022 40F00100 		orr	r0, r0, #1
 842 0026 2061     		str	r0, [r4, #16]
 843 0028 5BB1     		cbz	r3, .L190
 844 002a 184C     		ldr	r4, .L202
 845 002c 1546     		mov	r5, r2
 846              	.L192:
 847 002e 55F8040B 		ldr	r0, [r5], #4
 848 0032 0860     		str	r0, [r1]
 849 0034 0431     		adds	r1, r1, #4
 850              	.L191:
 851 0036 E068     		ldr	r0, [r4, #12]
 852 0038 C003     		lsls	r0, r0, #15
 853 003a FCD4     		bmi	.L191
 854 003c A81A     		subs	r0, r5, r2
 855 003e 8342     		cmp	r3, r0
 856 0040 F5D8     		bhi	.L192
 857              	.L190:
 858 0042 124B     		ldr	r3, .L202
 859 0044 1A69     		ldr	r2, [r3, #16]
 860 0046 22F00102 		bic	r2, r2, #1
 861 004a 1A61     		str	r2, [r3, #16]
 862 004c 1A69     		ldr	r2, [r3, #16]
 863 004e 42F00042 		orr	r2, r2, #-2147483648
 864 0052 1A61     		str	r2, [r3, #16]
 865              		.syntax unified
 866              	@ 131 "stm32f4xx/cmsis/cmsis_gcc.h" 1
 867 0054 62B6     		cpsie i
 868              	@ 0 "" 2
 869              		.thumb
 870              		.syntax unified
 871 0056 70BC     		pop	{r4, r5, r6}
 872 0058 7047     		bx	lr
 873              	.L187:
 874 005a E568     		ldr	r5, [r4, #12]
 875 005c ED03     		lsls	r5, r5, #15
 876 005e FCD4     		bmi	.L187
 877 0060 2569     		ldr	r5, [r4, #16]
 878 0062 0A4E     		ldr	r6, .L202
 879 0064 25F47F75 		bic	r5, r5, #1020
 880 0068 25F00105 		bic	r5, r5, #1
ARM GAS  C:\Users\Jay\AppData\Local\Temp\ccrCOBv6.s 			page 16


 881 006c 45F40075 		orr	r5, r5, #512
 882 0070 45F00205 		orr	r5, r5, #2
 883 0074 45EAC000 		orr	r0, r5, r0, lsl #3
 884 0078 2061     		str	r0, [r4, #16]
 885 007a 2069     		ldr	r0, [r4, #16]
 886 007c 40F48030 		orr	r0, r0, #65536
 887 0080 2061     		str	r0, [r4, #16]
 888              	.L188:
 889 0082 F068     		ldr	r0, [r6, #12]
 890 0084 C003     		lsls	r0, r0, #15
 891 0086 FCD4     		bmi	.L188
 892 0088 C4E7     		b	.L186
 893              	.L203:
 894 008a 00BF     		.align	2
 895              	.L202:
 896 008c 003C0240 		.word	1073888256
 897 0090 23016745 		.word	1164378403
 898 0094 AB89EFCD 		.word	-839939669
 900              		.section	.text.buf_putchar,"ax",%progbits
 901              		.align	1
 902              		.p2align 2,,3
 903              		.syntax unified
 904              		.thumb
 905              		.thumb_func
 906              		.fpu fpv4-sp-d16
 908              	buf_putchar:
 909              		@ args = 0, pretend = 0, frame = 0
 910              		@ frame_needed = 0, uses_anonymous_args = 0
 911              		@ link register save eliminated.
 912 0000 054B     		ldr	r3, .L206
 913 0002 0649     		ldr	r1, .L206+4
 914 0004 1A68     		ldr	r2, [r3]
 915 0006 10B4     		push	{r4}
 916 0008 0C68     		ldr	r4, [r1]
 917 000a 511C     		adds	r1, r2, #1
 918 000c A054     		strb	r0, [r4, r2]
 919 000e 1960     		str	r1, [r3]
 920 0010 5DF8044B 		ldr	r4, [sp], #4
 921 0014 7047     		bx	lr
 922              	.L207:
 923 0016 00BF     		.align	2
 924              	.L206:
 925 0018 00000000 		.word	.LANCHOR5
 926 001c 00000000 		.word	.LANCHOR4
 928              		.section	.text.d64_image_type,"ax",%progbits
 929              		.align	1
 930              		.p2align 2,,3
 931              		.syntax unified
 932              		.thumb
 933              		.thumb_func
 934              		.fpu fpv4-sp-d16
 936              	d64_image_type:
 937              		@ args = 0, pretend = 0, frame = 0
 938              		@ frame_needed = 0, uses_anonymous_args = 0
 939              		@ link register save eliminated.
 940 0000 154B     		ldr	r3, .L226
 941 0002 9842     		cmp	r0, r3
ARM GAS  C:\Users\Jay\AppData\Local\Temp\ccrCOBv6.s 			page 17


 942 0004 1ED0     		beq	.L216
 943 0006 13D9     		bls	.L223
 944 0008 144B     		ldr	r3, .L226+4
 945 000a 9842     		cmp	r0, r3
 946 000c 1CD0     		beq	.L213
 947 000e 07D9     		bls	.L224
 948 0010 B0F5482F 		cmp	r0, #819200
 949 0014 02D0     		beq	.L215
 950 0016 124B     		ldr	r3, .L226+8
 951 0018 9842     		cmp	r0, r3
 952 001a 07D1     		bne	.L209
 953              	.L215:
 954 001c 0320     		movs	r0, #3
 955 001e 7047     		bx	lr
 956              	.L224:
 957 0020 104B     		ldr	r3, .L226+12
 958 0022 9842     		cmp	r0, r3
 959 0024 0ED0     		beq	.L216
 960 0026 104B     		ldr	r3, .L226+16
 961 0028 9842     		cmp	r0, r3
 962 002a 0DD0     		beq	.L213
 963              	.L209:
 964 002c 0020     		movs	r0, #0
 965 002e 7047     		bx	lr
 966              	.L223:
 967 0030 0E4B     		ldr	r3, .L226+20
 968 0032 9842     		cmp	r0, r3
 969 0034 06D0     		beq	.L216
 970 0036 09D9     		bls	.L225
 971 0038 B0F5403F 		cmp	r0, #196608
 972 003c 02D0     		beq	.L216
 973 003e 0C4B     		ldr	r3, .L226+24
 974 0040 9842     		cmp	r0, r3
 975 0042 F3D1     		bne	.L209
 976              	.L216:
 977 0044 0120     		movs	r0, #1
 978 0046 7047     		bx	lr
 979              	.L213:
 980 0048 0220     		movs	r0, #2
 981 004a 7047     		bx	lr
 982              	.L225:
 983 004c A3F2AB23 		subw	r3, r3, #683
 984 0050 9842     		cmp	r0, r3
 985 0052 EBD1     		bne	.L209
 986 0054 F6E7     		b	.L216
 987              	.L227:
 988 0056 00BF     		.align	2
 989              	.L226:
 990 0058 00220300 		.word	205312
 991 005c 565B0500 		.word	351062
 992 0060 808C0C00 		.word	822400
 993 0064 22250300 		.word	206114
 994 0068 00560500 		.word	349696
 995 006c ABAD0200 		.word	175531
 996 0070 00030300 		.word	197376
 998              		.section	.text.get_file_type,"ax",%progbits
 999              		.align	1
ARM GAS  C:\Users\Jay\AppData\Local\Temp\ccrCOBv6.s 			page 18


 1000              		.p2align 2,,3
 1001              		.syntax unified
 1002              		.thumb
 1003              		.thumb_func
 1004              		.fpu fpv4-sp-d16
 1006              	get_file_type:
 1007              		@ args = 0, pretend = 0, frame = 0
 1008              		@ frame_needed = 0, uses_anonymous_args = 0
 1009 0000 F8B5     		push	{r3, r4, r5, r6, r7, lr}
 1010 0002 037A     		ldrb	r3, [r0, #8]	@ zero_extendqisi2
 1011 0004 DB06     		lsls	r3, r3, #27
 1012 0006 00F1E580 		bmi	.L280
 1013 000a 00F11605 		add	r5, r0, #22
 1014 000e 2A46     		mov	r2, r5
 1015 0010 00F21516 		addw	r6, r0, #277
 1016 0014 FE24     		movs	r4, #254
 1017 0016 05E0     		b	.L232
 1018              	.L311:
 1019 0018 2E29     		cmp	r1, #46
 1020 001a 08BF     		it	eq
 1021 001c 1C46     		moveq	r4, r3
 1022 001e B242     		cmp	r2, r6
 1023 0020 00F0DA80 		beq	.L310
 1024              	.L232:
 1025 0024 531B     		subs	r3, r2, r5
 1026 0026 12F8011B 		ldrb	r1, [r2], #1	@ zero_extendqisi2
 1027 002a DBB2     		uxtb	r3, r3
 1028 002c 0029     		cmp	r1, #0
 1029 002e F3D1     		bne	.L311
 1030              	.L233:
 1031 0030 1B1B     		subs	r3, r3, r4
 1032 0032 032B     		cmp	r3, #3
 1033 0034 40F3CC80 		ble	.L286
 1034 0038 05EB040C 		add	ip, r5, r4
 1035 003c 6446     		mov	r4, ip
 1036 003e 7C49     		ldr	r1, .L325
 1037 0040 0334     		adds	r4, r4, #3
 1038 0042 6246     		mov	r2, ip
 1039              	.L237:
 1040 0044 12F8013F 		ldrb	r3, [r2, #1]!	@ zero_extendqisi2
 1041 0048 11F8016B 		ldrb	r6, [r1], #1	@ zero_extendqisi2
 1042 004c A3F16105 		sub	r5, r3, #97
 1043 0050 192D     		cmp	r5, #25
 1044 0052 A3F12007 		sub	r7, r3, #32
 1045 0056 0CD8     		bhi	.L234
 1046 0058 BE42     		cmp	r6, r7
 1047 005a 0CD1     		bne	.L235
 1048              	.L236:
 1049 005c A242     		cmp	r2, r4
 1050 005e F1D1     		bne	.L237
 1051 0060 0068     		ldr	r0, [r0]
 1052 0062 4FF6FC73 		movw	r3, #65532
 1053 0066 0338     		subs	r0, r0, #3
 1054 0068 9842     		cmp	r0, r3
 1055 006a 8CBF     		ite	hi
 1056 006c FF20     		movhi	r0, #255
 1057 006e 0220     		movls	r0, #2
ARM GAS  C:\Users\Jay\AppData\Local\Temp\ccrCOBv6.s 			page 19


 1058 0070 F8BD     		pop	{r3, r4, r5, r6, r7, pc}
 1059              	.L234:
 1060 0072 B342     		cmp	r3, r6
 1061 0074 F2D0     		beq	.L236
 1062              	.L235:
 1063 0076 6F49     		ldr	r1, .L325+4
 1064 0078 6246     		mov	r2, ip
 1065 007a 04E0     		b	.L242
 1066              	.L313:
 1067 007c B742     		cmp	r7, r6
 1068 007e 0ED1     		bne	.L240
 1069              	.L241:
 1070 0080 A242     		cmp	r2, r4
 1071 0082 00F0AB80 		beq	.L312
 1072              	.L242:
 1073 0086 12F8013F 		ldrb	r3, [r2, #1]!	@ zero_extendqisi2
 1074 008a 11F8016B 		ldrb	r6, [r1], #1	@ zero_extendqisi2
 1075 008e A3F16105 		sub	r5, r3, #97
 1076 0092 192D     		cmp	r5, #25
 1077 0094 A3F12007 		sub	r7, r3, #32
 1078 0098 F0D9     		bls	.L313
 1079 009a B342     		cmp	r3, r6
 1080 009c F0D0     		beq	.L241
 1081              	.L240:
 1082 009e 6649     		ldr	r1, .L325+8
 1083 00a0 6246     		mov	r2, ip
 1084 00a2 04E0     		b	.L247
 1085              	.L315:
 1086 00a4 AF42     		cmp	r7, r5
 1087 00a6 0ED1     		bne	.L245
 1088              	.L246:
 1089 00a8 A242     		cmp	r2, r4
 1090 00aa 00F09D80 		beq	.L314
 1091              	.L247:
 1092 00ae 12F8013F 		ldrb	r3, [r2, #1]!	@ zero_extendqisi2
 1093 00b2 11F8015B 		ldrb	r5, [r1], #1	@ zero_extendqisi2
 1094 00b6 A3F16106 		sub	r6, r3, #97
 1095 00ba 192E     		cmp	r6, #25
 1096 00bc A3F12007 		sub	r7, r3, #32
 1097 00c0 F0D9     		bls	.L315
 1098 00c2 AB42     		cmp	r3, r5
 1099 00c4 F0D0     		beq	.L246
 1100              	.L245:
 1101 00c6 5D49     		ldr	r1, .L325+12
 1102 00c8 6246     		mov	r2, ip
 1103 00ca 04E0     		b	.L252
 1104              	.L316:
 1105 00cc B742     		cmp	r7, r6
 1106 00ce 0ED1     		bne	.L250
 1107              	.L251:
 1108 00d0 A242     		cmp	r2, r4
 1109 00d2 00F08F80 		beq	.L253
 1110              	.L252:
 1111 00d6 12F8013F 		ldrb	r3, [r2, #1]!	@ zero_extendqisi2
 1112 00da 11F8016B 		ldrb	r6, [r1], #1	@ zero_extendqisi2
 1113 00de A3F16105 		sub	r5, r3, #97
 1114 00e2 192D     		cmp	r5, #25
ARM GAS  C:\Users\Jay\AppData\Local\Temp\ccrCOBv6.s 			page 20


 1115 00e4 A3F12007 		sub	r7, r3, #32
 1116 00e8 F0D9     		bls	.L316
 1117 00ea B342     		cmp	r3, r6
 1118 00ec F0D0     		beq	.L251
 1119              	.L250:
 1120 00ee 5449     		ldr	r1, .L325+16
 1121 00f0 6246     		mov	r2, ip
 1122 00f2 03E0     		b	.L257
 1123              	.L317:
 1124 00f4 B742     		cmp	r7, r6
 1125 00f6 0DD1     		bne	.L255
 1126              	.L256:
 1127 00f8 A242     		cmp	r2, r4
 1128 00fa 7BD0     		beq	.L253
 1129              	.L257:
 1130 00fc 12F8013F 		ldrb	r3, [r2, #1]!	@ zero_extendqisi2
 1131 0100 11F8016B 		ldrb	r6, [r1], #1	@ zero_extendqisi2
 1132 0104 A3F16105 		sub	r5, r3, #97
 1133 0108 192D     		cmp	r5, #25
 1134 010a A3F12007 		sub	r7, r3, #32
 1135 010e F1D9     		bls	.L317
 1136 0110 B342     		cmp	r3, r6
 1137 0112 F1D0     		beq	.L256
 1138              	.L255:
 1139 0114 4B49     		ldr	r1, .L325+20
 1140 0116 6346     		mov	r3, ip
 1141 0118 03E0     		b	.L261
 1142              	.L318:
 1143 011a AF42     		cmp	r7, r5
 1144 011c 0DD1     		bne	.L259
 1145              	.L260:
 1146 011e A342     		cmp	r3, r4
 1147 0120 68D0     		beq	.L253
 1148              	.L261:
 1149 0122 13F8012F 		ldrb	r2, [r3, #1]!	@ zero_extendqisi2
 1150 0126 11F8015B 		ldrb	r5, [r1], #1	@ zero_extendqisi2
 1151 012a A2F16106 		sub	r6, r2, #97
 1152 012e 192E     		cmp	r6, #25
 1153 0130 A2F12007 		sub	r7, r2, #32
 1154 0134 F1D9     		bls	.L318
 1155 0136 AA42     		cmp	r2, r5
 1156 0138 F1D0     		beq	.L260
 1157              	.L259:
 1158 013a 4349     		ldr	r1, .L325+24
 1159 013c 6346     		mov	r3, ip
 1160 013e 03E0     		b	.L265
 1161              	.L319:
 1162 0140 AF42     		cmp	r7, r5
 1163 0142 0DD1     		bne	.L263
 1164              	.L264:
 1165 0144 A342     		cmp	r3, r4
 1166 0146 5DD0     		beq	.L266
 1167              	.L265:
 1168 0148 13F8012F 		ldrb	r2, [r3, #1]!	@ zero_extendqisi2
 1169 014c 11F8015B 		ldrb	r5, [r1], #1	@ zero_extendqisi2
 1170 0150 A2F16106 		sub	r6, r2, #97
 1171 0154 192E     		cmp	r6, #25
ARM GAS  C:\Users\Jay\AppData\Local\Temp\ccrCOBv6.s 			page 21


 1172 0156 A2F12007 		sub	r7, r2, #32
 1173 015a F1D9     		bls	.L319
 1174 015c AA42     		cmp	r2, r5
 1175 015e F1D0     		beq	.L264
 1176              	.L263:
 1177 0160 3A49     		ldr	r1, .L325+28
 1178 0162 6346     		mov	r3, ip
 1179 0164 03E0     		b	.L270
 1180              	.L320:
 1181 0166 AE42     		cmp	r6, r5
 1182 0168 0DD1     		bne	.L268
 1183              	.L269:
 1184 016a A342     		cmp	r3, r4
 1185 016c 4AD0     		beq	.L266
 1186              	.L270:
 1187 016e 13F8012F 		ldrb	r2, [r3, #1]!	@ zero_extendqisi2
 1188 0172 11F8015B 		ldrb	r5, [r1], #1	@ zero_extendqisi2
 1189 0176 A2F16107 		sub	r7, r2, #97
 1190 017a 192F     		cmp	r7, #25
 1191 017c A2F12006 		sub	r6, r2, #32
 1192 0180 F1D9     		bls	.L320
 1193 0182 AA42     		cmp	r2, r5
 1194 0184 F1D0     		beq	.L269
 1195              	.L268:
 1196 0186 3249     		ldr	r1, .L325+32
 1197 0188 6346     		mov	r3, ip
 1198 018a 03E0     		b	.L274
 1199              	.L322:
 1200 018c AE42     		cmp	r6, r5
 1201 018e 0DD1     		bne	.L272
 1202              	.L273:
 1203 0190 A342     		cmp	r3, r4
 1204 0192 3ED0     		beq	.L321
 1205              	.L274:
 1206 0194 13F8012F 		ldrb	r2, [r3, #1]!	@ zero_extendqisi2
 1207 0198 11F8015B 		ldrb	r5, [r1], #1	@ zero_extendqisi2
 1208 019c A2F16107 		sub	r7, r2, #97
 1209 01a0 192F     		cmp	r7, #25
 1210 01a2 A2F12006 		sub	r6, r2, #32
 1211 01a6 F1D9     		bls	.L322
 1212 01a8 AA42     		cmp	r2, r5
 1213 01aa F1D0     		beq	.L273
 1214              	.L272:
 1215 01ac 294A     		ldr	r2, .L325+36
 1216 01ae 03E0     		b	.L278
 1217              	.L324:
 1218 01b0 8D42     		cmp	r5, r1
 1219 01b2 0DD1     		bne	.L286
 1220              	.L277:
 1221 01b4 A445     		cmp	ip, r4
 1222 01b6 33D0     		beq	.L323
 1223              	.L278:
 1224 01b8 1CF8013F 		ldrb	r3, [ip, #1]!	@ zero_extendqisi2
 1225 01bc 12F8011B 		ldrb	r1, [r2], #1	@ zero_extendqisi2
 1226 01c0 A3F16106 		sub	r6, r3, #97
 1227 01c4 192E     		cmp	r6, #25
 1228 01c6 A3F12005 		sub	r5, r3, #32
ARM GAS  C:\Users\Jay\AppData\Local\Temp\ccrCOBv6.s 			page 22


 1229 01ca F1D9     		bls	.L324
 1230 01cc 8B42     		cmp	r3, r1
 1231 01ce F1D0     		beq	.L277
 1232              	.L286:
 1233 01d0 FF20     		movs	r0, #255
 1234 01d2 F8BD     		pop	{r3, r4, r5, r6, r7, pc}
 1235              	.L280:
 1236 01d4 0020     		movs	r0, #0
 1237 01d6 F8BD     		pop	{r3, r4, r5, r6, r7, pc}
 1238              	.L310:
 1239 01d8 FF23     		movs	r3, #255
 1240 01da 29E7     		b	.L233
 1241              	.L312:
 1242 01dc 0368     		ldr	r3, [r0]
 1243 01de 1B2B     		cmp	r3, #27
 1244 01e0 34BF     		ite	cc
 1245 01e2 FF20     		movcc	r0, #255
 1246 01e4 0320     		movcs	r0, #3
 1247 01e6 F8BD     		pop	{r3, r4, r5, r6, r7, pc}
 1248              	.L314:
 1249 01e8 0368     		ldr	r3, [r0]
 1250 01ea 412B     		cmp	r3, #65
 1251 01ec 34BF     		ite	cc
 1252 01ee FF20     		movcc	r0, #255
 1253 01f0 0120     		movcs	r0, #1
 1254 01f2 F8BD     		pop	{r3, r4, r5, r6, r7, pc}
 1255              	.L253:
 1256 01f4 0068     		ldr	r0, [r0]
 1257 01f6 FFF7FEFF 		bl	d64_image_type
 1258 01fa 0028     		cmp	r0, #0
 1259 01fc 0CBF     		ite	eq
 1260 01fe FF20     		moveq	r0, #255
 1261 0200 0420     		movne	r0, #4
 1262 0202 F8BD     		pop	{r3, r4, r5, r6, r7, pc}
 1263              	.L266:
 1264 0204 0368     		ldr	r3, [r0]
 1265 0206 B3F5005F 		cmp	r3, #8192
 1266 020a 14BF     		ite	ne
 1267 020c FF20     		movne	r0, #255
 1268 020e 0620     		moveq	r0, #6
 1269 0210 F8BD     		pop	{r3, r4, r5, r6, r7, pc}
 1270              	.L321:
 1271 0212 0368     		ldr	r3, [r0]
 1272 0214 B3F5803F 		cmp	r3, #65536
 1273 0218 14BF     		ite	ne
 1274 021a FF20     		movne	r0, #255
 1275 021c FD20     		moveq	r0, #253
 1276 021e F8BD     		pop	{r3, r4, r5, r6, r7, pc}
 1277              	.L323:
 1278 0220 0368     		ldr	r3, [r0]
 1279 0222 B3F5823F 		cmp	r3, #66560
 1280 0226 14BF     		ite	ne
 1281 0228 FF20     		movne	r0, #255
 1282 022a FE20     		moveq	r0, #254
 1283 022c F8BD     		pop	{r3, r4, r5, r6, r7, pc}
 1284              	.L326:
 1285 022e 00BF     		.align	2
ARM GAS  C:\Users\Jay\AppData\Local\Temp\ccrCOBv6.s 			page 23


 1286              	.L325:
 1287 0230 24000000 		.word	.LC9
 1288 0234 20000000 		.word	.LC8
 1289 0238 1C000000 		.word	.LC7
 1290 023c 18000000 		.word	.LC6
 1291 0240 14000000 		.word	.LC5
 1292 0244 10000000 		.word	.LC4
 1293 0248 0C000000 		.word	.LC3
 1294 024c 08000000 		.word	.LC2
 1295 0250 04000000 		.word	.LC1
 1296 0254 00000000 		.word	.LC0
 1298              		.section	.text.ar4x_init,"ax",%progbits
 1299              		.align	1
 1300              		.p2align 2,,3
 1301              		.syntax unified
 1302              		.thumb
 1303              		.thumb_func
 1304              		.fpu fpv4-sp-d16
 1306              	ar4x_init:
 1307              		@ args = 0, pretend = 0, frame = 0
 1308              		@ frame_needed = 0, uses_anonymous_args = 0
 1309              		@ link register save eliminated.
 1310 0000 034B     		ldr	r3, .L328
 1311 0002 0449     		ldr	r1, .L328+4
 1312 0004 044A     		ldr	r2, .L328+8
 1313 0006 9961     		str	r1, [r3, #24]
 1314 0008 044B     		ldr	r3, .L328+12
 1315 000a 1268     		ldr	r2, [r2]
 1316 000c 1A60     		str	r2, [r3]
 1317 000e 7047     		bx	lr
 1318              	.L329:
 1319              		.align	2
 1320              	.L328:
 1321 0010 00080240 		.word	1073874944
 1322 0014 004000A0 		.word	-1610596352
 1323 0018 00000000 		.word	.LANCHOR7
 1324 001c 00000000 		.word	.LANCHOR6
 1326              		.section	.text.kcs_init,"ax",%progbits
 1327              		.align	1
 1328              		.p2align 2,,3
 1329              		.syntax unified
 1330              		.thumb
 1331              		.thumb_func
 1332              		.fpu fpv4-sp-d16
 1334              	kcs_init:
 1335              		@ args = 0, pretend = 0, frame = 0
 1336              		@ frame_needed = 0, uses_anonymous_args = 0
 1337              		@ link register save eliminated.
 1338 0000 30B4     		push	{r4, r5}
 1339 0002 0649     		ldr	r1, .L332
 1340 0004 064C     		ldr	r4, .L332+4
 1341 0006 074B     		ldr	r3, .L332+8
 1342 0008 074A     		ldr	r2, .L332+12
 1343 000a 0025     		movs	r5, #0
 1344 000c 4FF06040 		mov	r0, #-536870912
 1345 0010 2570     		strb	r5, [r4]
 1346 0012 8861     		str	r0, [r1, #24]
ARM GAS  C:\Users\Jay\AppData\Local\Temp\ccrCOBv6.s 			page 24


 1347 0014 30BC     		pop	{r4, r5}
 1348 0016 1A60     		str	r2, [r3]
 1349 0018 7047     		bx	lr
 1350              	.L333:
 1351 001a 00BF     		.align	2
 1352              	.L332:
 1353 001c 00080240 		.word	1073874944
 1354 0020 00000000 		.word	.LANCHOR8
 1355 0024 00000000 		.word	.LANCHOR7
 1356 0028 00000000 		.word	dat_buffer
 1358              		.section	.text.fc3_init,"ax",%progbits
 1359              		.align	1
 1360              		.p2align 2,,3
 1361              		.syntax unified
 1362              		.thumb
 1363              		.thumb_func
 1364              		.fpu fpv4-sp-d16
 1366              	fc3_init:
 1367              		@ args = 0, pretend = 0, frame = 0
 1368              		@ frame_needed = 0, uses_anonymous_args = 0
 1369              		@ link register save eliminated.
 1370 0000 30B4     		push	{r4, r5}
 1371 0002 0749     		ldr	r1, .L336
 1372 0004 074C     		ldr	r4, .L336+4
 1373 0006 084B     		ldr	r3, .L336+8
 1374 0008 4FF06045 		mov	r5, #-536870912
 1375 000c 4FF08060 		mov	r0, #67108864
 1376 0010 4DF6FF72 		movw	r2, #57343
 1377 0014 A561     		str	r5, [r4, #24]
 1378 0016 8861     		str	r0, [r1, #24]
 1379 0018 30BC     		pop	{r4, r5}
 1380 001a 1A80     		strh	r2, [r3]	@ movhi
 1381 001c 7047     		bx	lr
 1382              	.L337:
 1383 001e 00BF     		.align	2
 1384              	.L336:
 1385 0020 00000240 		.word	1073872896
 1386 0024 00080240 		.word	1073874944
 1387 0028 00000000 		.word	.LANCHOR9
 1389              		.section	.text.epyx_init,"ax",%progbits
 1390              		.align	1
 1391              		.p2align 2,,3
 1392              		.syntax unified
 1393              		.thumb
 1394              		.thumb_func
 1395              		.fpu fpv4-sp-d16
 1397              	epyx_init:
 1398              		@ args = 0, pretend = 0, frame = 0
 1399              		@ frame_needed = 0, uses_anonymous_args = 0
 1400              		@ link register save eliminated.
 1401 0000 014B     		ldr	r3, .L339
 1402 0002 024A     		ldr	r2, .L339+4
 1403 0004 9A61     		str	r2, [r3, #24]
 1404 0006 7047     		bx	lr
 1405              	.L340:
 1406              		.align	2
 1407              	.L339:
ARM GAS  C:\Users\Jay\AppData\Local\Temp\ccrCOBv6.s 			page 25


 1408 0008 00080240 		.word	1073874944
 1409 000c 004000A0 		.word	-1610596352
 1411              		.section	.text.zaxxon_init,"ax",%progbits
 1412              		.align	1
 1413              		.p2align 2,,3
 1414              		.syntax unified
 1415              		.thumb
 1416              		.thumb_func
 1417              		.fpu fpv4-sp-d16
 1419              	zaxxon_init:
 1420              		@ args = 0, pretend = 0, frame = 0
 1421              		@ frame_needed = 0, uses_anonymous_args = 0
 1422              		@ link register save eliminated.
 1423 0000 0349     		ldr	r1, .L342
 1424 0002 044B     		ldr	r3, .L342+4
 1425 0004 044A     		ldr	r2, .L342+8
 1426 0006 4FF06040 		mov	r0, #-536870912
 1427 000a 8861     		str	r0, [r1, #24]
 1428 000c 1A60     		str	r2, [r3]
 1429 000e 7047     		bx	lr
 1430              	.L343:
 1431              		.align	2
 1432              	.L342:
 1433 0010 00080240 		.word	1073874944
 1434 0014 00000000 		.word	.LANCHOR6
 1435 0018 00000000 		.word	dat_buffer
 1437              		.section	.text.ss5_init,"ax",%progbits
 1438              		.align	1
 1439              		.p2align 2,,3
 1440              		.syntax unified
 1441              		.thumb
 1442              		.thumb_func
 1443              		.fpu fpv4-sp-d16
 1445              	ss5_init:
 1446              		@ args = 0, pretend = 0, frame = 0
 1447              		@ frame_needed = 0, uses_anonymous_args = 0
 1448              		@ link register save eliminated.
 1449 0000 30B4     		push	{r4, r5}
 1450 0002 0549     		ldr	r1, .L346
 1451 0004 054C     		ldr	r4, .L346+4
 1452 0006 064B     		ldr	r3, .L346+8
 1453 0008 064D     		ldr	r5, .L346+12
 1454 000a 0748     		ldr	r0, .L346+16
 1455 000c 074A     		ldr	r2, .L346+20
 1456 000e A561     		str	r5, [r4, #24]
 1457 0010 0860     		str	r0, [r1]
 1458 0012 1A60     		str	r2, [r3]
 1459 0014 30BC     		pop	{r4, r5}
 1460 0016 7047     		bx	lr
 1461              	.L347:
 1462              		.align	2
 1463              	.L346:
 1464 0018 00000000 		.word	.LANCHOR6
 1465 001c 00080240 		.word	1073874944
 1466 0020 00000000 		.word	.LANCHOR7
 1467 0024 00800060 		.word	1610645504
 1468 0028 00000000 		.word	dat_buffer
ARM GAS  C:\Users\Jay\AppData\Local\Temp\ccrCOBv6.s 			page 26


 1469 002c 00000000 		.word	crt_ram_buf
 1471              		.section	.text.ef_init,"ax",%progbits
 1472              		.align	1
 1473              		.p2align 2,,3
 1474              		.syntax unified
 1475              		.thumb
 1476              		.thumb_func
 1477              		.fpu fpv4-sp-d16
 1479              	ef_init:
 1480              		@ args = 0, pretend = 0, frame = 0
 1481              		@ frame_needed = 0, uses_anonymous_args = 0
 1482              		@ link register save eliminated.
 1483 0000 014B     		ldr	r3, .L349
 1484 0002 024A     		ldr	r2, .L349+4
 1485 0004 9A61     		str	r2, [r3, #24]
 1486 0006 7047     		bx	lr
 1487              	.L350:
 1488              		.align	2
 1489              	.L349:
 1490 0008 00080240 		.word	1073874944
 1491 000c 00800060 		.word	1610645504
 1493              		.section	.text.comal80_init,"ax",%progbits
 1494              		.align	1
 1495              		.p2align 2,,3
 1496              		.syntax unified
 1497              		.thumb
 1498              		.thumb_func
 1499              		.fpu fpv4-sp-d16
 1501              	comal80_init:
 1502              		@ args = 0, pretend = 0, frame = 0
 1503              		@ frame_needed = 0, uses_anonymous_args = 0
 1504              		@ link register save eliminated.
 1505 0000 024B     		ldr	r3, .L352
 1506 0002 4FF06042 		mov	r2, #-536870912
 1507 0006 9A61     		str	r2, [r3, #24]
 1508 0008 7047     		bx	lr
 1509              	.L353:
 1510 000a 00BF     		.align	2
 1511              	.L352:
 1512 000c 00080240 		.word	1073874944
 1514              		.section	.text.c64_send_exit_menu,"ax",%progbits
 1515              		.align	1
 1516              		.p2align 2,,3
 1517              		.syntax unified
 1518              		.thumb
 1519              		.thumb_func
 1520              		.fpu fpv4-sp-d16
 1522              	c64_send_exit_menu:
 1523              		@ args = 0, pretend = 0, frame = 0
 1524              		@ frame_needed = 0, uses_anonymous_args = 0
 1525              		@ link register save eliminated.
 1526 0000 10B4     		push	{r4}
 1527 0002 0D4A     		ldr	r2, .L362
 1528              	.L355:
 1529 0004 1378     		ldrb	r3, [r2]	@ zero_extendqisi2
 1530 0006 002B     		cmp	r3, #0
 1531 0008 FCD1     		bne	.L355
ARM GAS  C:\Users\Jay\AppData\Local\Temp\ccrCOBv6.s 			page 27


 1532 000a 0C48     		ldr	r0, .L362+4
 1533 000c 0C4B     		ldr	r3, .L362+8
 1534 000e 0324     		movs	r4, #3
 1535 0010 8021     		movs	r1, #128
 1536 0012 0470     		strb	r4, [r0]
 1537 0014 1170     		strb	r1, [r2]
 1538              	.L356:
 1539 0016 1A78     		ldrb	r2, [r3]	@ zero_extendqisi2
 1540 0018 002A     		cmp	r2, #0
 1541 001a FCD1     		bne	.L356
 1542 001c 0949     		ldr	r1, .L362+12
 1543 001e 0A78     		ldrb	r2, [r1]	@ zero_extendqisi2
 1544 0020 4022     		movs	r2, #64
 1545 0022 1A70     		strb	r2, [r3]
 1546              	.L357:
 1547 0024 1A78     		ldrb	r2, [r3]	@ zero_extendqisi2
 1548 0026 002A     		cmp	r2, #0
 1549 0028 FCD1     		bne	.L357
 1550 002a 0A78     		ldrb	r2, [r1]	@ zero_extendqisi2
 1551 002c 4022     		movs	r2, #64
 1552 002e 1A70     		strb	r2, [r3]
 1553 0030 5DF8044B 		ldr	r4, [sp], #4
 1554 0034 7047     		bx	lr
 1555              	.L363:
 1556 0036 00BF     		.align	2
 1557              	.L362:
 1558 0038 00000000 		.word	.LANCHOR10
 1559 003c 00000000 		.word	.LANCHOR11
 1560 0040 00000000 		.word	.LANCHOR12
 1561 0044 00000000 		.word	.LANCHOR13
 1563              		.section	.text.options_dir_up,"ax",%progbits
 1564              		.align	1
 1565              		.p2align 2,,3
 1566              		.syntax unified
 1567              		.thumb
 1568              		.thumb_func
 1569              		.fpu fpv4-sp-d16
 1571              	options_dir_up:
 1572              		@ args = 0, pretend = 0, frame = 0
 1573              		@ frame_needed = 0, uses_anonymous_args = 0
 1574              		@ link register save eliminated.
 1575 0000 044B     		ldr	r3, .L367
 1576 0002 4069     		ldr	r0, [r0, #20]
 1577 0004 1860     		str	r0, [r3]
 1578 0006 09B9     		cbnz	r1, .L366
 1579 0008 0368     		ldr	r3, [r0]
 1580 000a 1847     		bx	r3	@ indirect register sibling call
 1581              	.L366:
 1582 000c 4368     		ldr	r3, [r0, #4]
 1583 000e 0121     		movs	r1, #1
 1584 0010 1847     		bx	r3	@ indirect register sibling call
 1585              	.L368:
 1586 0012 00BF     		.align	2
 1587              	.L367:
 1588 0014 00000000 		.word	.LANCHOR14
 1590              		.section	.text.options_prev_select,"ax",%progbits
 1591              		.align	1
ARM GAS  C:\Users\Jay\AppData\Local\Temp\ccrCOBv6.s 			page 28


 1592              		.p2align 2,,3
 1593              		.syntax unified
 1594              		.thumb
 1595              		.thumb_func
 1596              		.fpu fpv4-sp-d16
 1598              	options_prev_select:
 1599              		@ args = 0, pretend = 0, frame = 0
 1600              		@ frame_needed = 0, uses_anonymous_args = 0
 1601              		@ link register save eliminated.
 1602 0000 30B4     		push	{r4, r5}
 1603 0002 4069     		ldr	r0, [r0, #20]
 1604 0004 054D     		ldr	r5, .L371
 1605 0006 0469     		ldr	r4, [r0, #16]
 1606 0008 2860     		str	r0, [r5]
 1607 000a 0B46     		mov	r3, r1
 1608 000c 91F82C10 		ldrb	r1, [r1, #44]	@ zero_extendqisi2
 1609 0010 1143     		orrs	r1, r1, r2
 1610 0012 93F82D20 		ldrb	r2, [r3, #45]	@ zero_extendqisi2
 1611 0016 2346     		mov	r3, r4
 1612 0018 30BC     		pop	{r4, r5}
 1613 001a 1847     		bx	r3
 1614              	.L372:
 1615              		.align	2
 1616              	.L371:
 1617 001c 00000000 		.word	.LANCHOR14
 1619              		.section	.text.options_prev_dir,"ax",%progbits
 1620              		.align	1
 1621              		.p2align 2,,3
 1622              		.syntax unified
 1623              		.thumb
 1624              		.thumb_func
 1625              		.fpu fpv4-sp-d16
 1627              	options_prev_dir:
 1628              		@ args = 0, pretend = 0, frame = 0
 1629              		@ frame_needed = 0, uses_anonymous_args = 0
 1630 0000 08B5     		push	{r3, lr}
 1631 0002 4069     		ldr	r0, [r0, #20]
 1632 0004 024A     		ldr	r2, .L375
 1633 0006 0368     		ldr	r3, [r0]
 1634 0008 1060     		str	r0, [r2]
 1635 000a 9847     		blx	r3
 1636 000c 0020     		movs	r0, #0
 1637 000e 08BD     		pop	{r3, pc}
 1638              	.L376:
 1639              		.align	2
 1640              	.L375:
 1641 0010 00000000 		.word	.LANCHOR14
 1643              		.section	.text.reply_page_end,"ax",%progbits
 1644              		.align	1
 1645              		.p2align 2,,3
 1646              		.syntax unified
 1647              		.thumb
 1648              		.thumb_func
 1649              		.fpu fpv4-sp-d16
 1651              	reply_page_end:
 1652              		@ args = 0, pretend = 0, frame = 0
 1653              		@ frame_needed = 0, uses_anonymous_args = 0
ARM GAS  C:\Users\Jay\AppData\Local\Temp\ccrCOBv6.s 			page 29


 1654              		@ link register save eliminated.
 1655 0000 70B4     		push	{r4, r5, r6}
 1656 0002 0D4A     		ldr	r2, .L385
 1657              	.L378:
 1658 0004 1378     		ldrb	r3, [r2]	@ zero_extendqisi2
 1659 0006 03F0FF00 		and	r0, r3, #255
 1660 000a 002B     		cmp	r3, #0
 1661 000c FAD1     		bne	.L378
 1662 000e 0B49     		ldr	r1, .L385+4
 1663 0010 0B4D     		ldr	r5, .L385+8
 1664 0012 0870     		strb	r0, [r1]
 1665 0014 0223     		movs	r3, #2
 1666 0016 8024     		movs	r4, #128
 1667 0018 2B70     		strb	r3, [r5]
 1668 001a 01F12506 		add	r6, r1, #37
 1669 001e 1470     		strb	r4, [r2]
 1670              	.L379:
 1671 0020 1378     		ldrb	r3, [r2]	@ zero_extendqisi2
 1672 0022 002B     		cmp	r3, #0
 1673 0024 FCD1     		bne	.L379
 1674 0026 B142     		cmp	r1, r6
 1675 0028 2870     		strb	r0, [r5]
 1676 002a 1470     		strb	r4, [r2]
 1677 002c 02D0     		beq	.L377
 1678 002e 11F8010F 		ldrb	r0, [r1, #1]!	@ zero_extendqisi2
 1679 0032 F5E7     		b	.L379
 1680              	.L377:
 1681 0034 70BC     		pop	{r4, r5, r6}
 1682 0036 7047     		bx	lr
 1683              	.L386:
 1684              		.align	2
 1685              	.L385:
 1686 0038 00000000 		.word	.LANCHOR10
 1687 003c 00000100 		.word	scratch_buf
 1688 0040 00000000 		.word	.LANCHOR11
 1690              		.section	.text.options_prev_next_page,"ax",%progbits
 1691              		.align	1
 1692              		.p2align 2,,3
 1693              		.syntax unified
 1694              		.thumb
 1695              		.thumb_func
 1696              		.fpu fpv4-sp-d16
 1698              	options_prev_next_page:
 1699              		@ args = 0, pretend = 0, frame = 0
 1700              		@ frame_needed = 0, uses_anonymous_args = 0
 1701              		@ link register save eliminated.
 1702 0000 FFF7FEBF 		b	reply_page_end
 1704              		.section	.text.disk_filename_match,"ax",%progbits
 1705              		.align	1
 1706              		.p2align 2,,3
 1707              		.syntax unified
 1708              		.thumb
 1709              		.thumb_func
 1710              		.fpu fpv4-sp-d16
 1712              	disk_filename_match:
 1713              		@ args = 0, pretend = 0, frame = 0
 1714              		@ frame_needed = 0, uses_anonymous_args = 0
ARM GAS  C:\Users\Jay\AppData\Local\Temp\ccrCOBv6.s 			page 30


 1715              		@ link register save eliminated.
 1716 0000 10B4     		push	{r4}
 1717 0002 4A1E     		subs	r2, r1, #1
 1718 0004 041D     		adds	r4, r0, #4
 1719 0006 0F31     		adds	r1, r1, #15
 1720              	.L393:
 1721 0008 12F8013F 		ldrb	r3, [r2, #1]!	@ zero_extendqisi2
 1722 000c 14F8010F 		ldrb	r0, [r4, #1]!	@ zero_extendqisi2
 1723 0010 2A2B     		cmp	r3, #42
 1724 0012 0ED0     		beq	.L395
 1725 0014 3F2B     		cmp	r3, #63
 1726 0016 08D0     		beq	.L399
 1727 0018 7BB9     		cbnz	r3, .L392
 1728 001a A028     		cmp	r0, #160
 1729 001c 09D0     		beq	.L395
 1730 001e B0FA80F0 		clz	r0, r0
 1731 0022 4009     		lsrs	r0, r0, #5
 1732              	.L397:
 1733 0024 5DF8044B 		ldr	r4, [sp], #4
 1734 0028 7047     		bx	lr
 1735              	.L399:
 1736 002a 0028     		cmp	r0, #0
 1737 002c FAD0     		beq	.L397
 1738              	.L391:
 1739 002e 8A42     		cmp	r2, r1
 1740 0030 EAD1     		bne	.L393
 1741              	.L395:
 1742 0032 0120     		movs	r0, #1
 1743 0034 5DF8044B 		ldr	r4, [sp], #4
 1744 0038 7047     		bx	lr
 1745              	.L392:
 1746 003a 8342     		cmp	r3, r0
 1747 003c F7D0     		beq	.L391
 1748 003e 0020     		movs	r0, #0
 1749 0040 F0E7     		b	.L397
 1751 0042 00BF     		.section	.text.disk_parse_filename,"ax",%progbits
 1752              		.align	1
 1753              		.p2align 2,,3
 1754              		.syntax unified
 1755              		.thumb
 1756              		.thumb_func
 1757              		.fpu fpv4-sp-d16
 1759              	disk_parse_filename:
 1760              		@ args = 0, pretend = 0, frame = 0
 1761              		@ frame_needed = 0, uses_anonymous_args = 0
 1762              		@ link register save eliminated.
 1763 0000 F0B4     		push	{r4, r5, r6, r7}
 1764 0002 0024     		movs	r4, #0
 1765 0004 0C71     		strb	r4, [r1, #4]
 1766 0006 0246     		mov	r2, r0
 1767 0008 02E0     		b	.L401
 1768              	.L403:
 1769 000a 3A2B     		cmp	r3, #58
 1770 000c 30D0     		beq	.L417
 1771 000e 1C46     		mov	r4, r3
 1772              	.L401:
 1773 0010 12F8013B 		ldrb	r3, [r2], #1	@ zero_extendqisi2
ARM GAS  C:\Users\Jay\AppData\Local\Temp\ccrCOBv6.s 			page 31


 1774 0014 002B     		cmp	r3, #0
 1775 0016 F8D1     		bne	.L403
 1776              	.L402:
 1777 0018 0024     		movs	r4, #0
 1778 001a 0860     		str	r0, [r1]
 1779 001c 4C71     		strb	r4, [r1, #5]
 1780 001e 8C71     		strb	r4, [r1, #6]
 1781 0020 0378     		ldrb	r3, [r0]	@ zero_extendqisi2
 1782 0022 4FF0010C 		mov	ip, #1
 1783 0026 0327     		movs	r7, #3
 1784 0028 0226     		movs	r6, #2
 1785 002a 0425     		movs	r5, #4
 1786 002c 421C     		adds	r2, r0, #1
 1787 002e 33B1     		cbz	r3, .L400
 1788              	.L413:
 1789 0030 2C2B     		cmp	r3, #44
 1790 0032 06D0     		beq	.L418
 1791              	.L411:
 1792 0034 1046     		mov	r0, r2
 1793              	.L419:
 1794 0036 0378     		ldrb	r3, [r0]	@ zero_extendqisi2
 1795 0038 421C     		adds	r2, r0, #1
 1796 003a 002B     		cmp	r3, #0
 1797 003c F8D1     		bne	.L413
 1798              	.L400:
 1799 003e F0BC     		pop	{r4, r5, r6, r7}
 1800 0040 7047     		bx	lr
 1801              	.L418:
 1802 0042 02F8014C 		strb	r4, [r2, #-1]
 1803 0046 4B79     		ldrb	r3, [r1, #5]	@ zero_extendqisi2
 1804 0048 5BB9     		cbnz	r3, .L406
 1805 004a 1378     		ldrb	r3, [r2]	@ zero_extendqisi2
 1806 004c 532B     		cmp	r3, #83
 1807 004e 19D0     		beq	.L408
 1808 0050 552B     		cmp	r3, #85
 1809 0052 14D0     		beq	.L409
 1810 0054 4C2B     		cmp	r3, #76
 1811 0056 0CBF     		ite	eq
 1812 0058 2B46     		moveq	r3, r5
 1813 005a 3346     		movne	r3, r6
 1814 005c 4B71     		strb	r3, [r1, #5]
 1815 005e 1046     		mov	r0, r2
 1816 0060 E9E7     		b	.L419
 1817              	.L406:
 1818 0062 8B79     		ldrb	r3, [r1, #6]	@ zero_extendqisi2
 1819 0064 002B     		cmp	r3, #0
 1820 0066 E5D1     		bne	.L411
 1821 0068 4378     		ldrb	r3, [r0, #1]	@ zero_extendqisi2
 1822 006a 8B71     		strb	r3, [r1, #6]
 1823 006c F0BC     		pop	{r4, r5, r6, r7}
 1824 006e 7047     		bx	lr
 1825              	.L417:
 1826 0070 303C     		subs	r4, r4, #48
 1827 0072 E4B2     		uxtb	r4, r4
 1828 0074 092C     		cmp	r4, #9
 1829 0076 09D8     		bhi	.L415
 1830 0078 0C71     		strb	r4, [r1, #4]
ARM GAS  C:\Users\Jay\AppData\Local\Temp\ccrCOBv6.s 			page 32


 1831 007a 1046     		mov	r0, r2
 1832 007c CCE7     		b	.L402
 1833              	.L409:
 1834 007e 4F71     		strb	r7, [r1, #5]
 1835 0080 1046     		mov	r0, r2
 1836 0082 D8E7     		b	.L419
 1837              	.L408:
 1838 0084 81F805C0 		strb	ip, [r1, #5]
 1839 0088 1046     		mov	r0, r2
 1840 008a D4E7     		b	.L419
 1841              	.L415:
 1842 008c 1046     		mov	r0, r2
 1843 008e C3E7     		b	.L402
 1845              		.section	.text.disk_send_prg,"ax",%progbits
 1846              		.align	1
 1847              		.p2align 2,,3
 1848              		.syntax unified
 1849              		.thumb
 1850              		.thumb_func
 1851              		.fpu fpv4-sp-d16
 1853              	disk_send_prg:
 1854              		@ args = 0, pretend = 0, frame = 0
 1855              		@ frame_needed = 0, uses_anonymous_args = 0
 1856              		@ link register save eliminated.
 1857 0000 10B4     		push	{r4}
 1858 0002 0D4B     		ldr	r3, .L428
 1859              	.L421:
 1860 0004 1A78     		ldrb	r2, [r3]	@ zero_extendqisi2
 1861 0006 002A     		cmp	r2, #0
 1862 0008 FCD1     		bne	.L421
 1863 000a 0C49     		ldr	r1, .L428+4
 1864 000c 8022     		movs	r2, #128
 1865 000e 0A70     		strb	r2, [r1]
 1866 0010 C4B2     		uxtb	r4, r0
 1867 0012 1A70     		strb	r2, [r3]
 1868              	.L422:
 1869 0014 1A78     		ldrb	r2, [r3]	@ zero_extendqisi2
 1870 0016 002A     		cmp	r2, #0
 1871 0018 FCD1     		bne	.L422
 1872 001a 8022     		movs	r2, #128
 1873 001c 0C70     		strb	r4, [r1]
 1874 001e C0F30720 		ubfx	r0, r0, #8, #8
 1875 0022 1A70     		strb	r2, [r3]
 1876              	.L423:
 1877 0024 1A78     		ldrb	r2, [r3]	@ zero_extendqisi2
 1878 0026 002A     		cmp	r2, #0
 1879 0028 FCD1     		bne	.L423
 1880 002a 8022     		movs	r2, #128
 1881 002c 0870     		strb	r0, [r1]
 1882 002e 1A70     		strb	r2, [r3]
 1883 0030 5DF8044B 		ldr	r4, [sp], #4
 1884 0034 7047     		bx	lr
 1885              	.L429:
 1886 0036 00BF     		.align	2
 1887              	.L428:
 1888 0038 00000000 		.word	.LANCHOR10
 1889 003c 00000000 		.word	.LANCHOR11
ARM GAS  C:\Users\Jay\AppData\Local\Temp\ccrCOBv6.s 			page 33


 1891              		.section	.text.disk_send_prg_bank,"ax",%progbits
 1892              		.align	1
 1893              		.p2align 2,,3
 1894              		.syntax unified
 1895              		.thumb
 1896              		.thumb_func
 1897              		.fpu fpv4-sp-d16
 1899              	disk_send_prg_bank:
 1900              		@ args = 0, pretend = 0, frame = 0
 1901              		@ frame_needed = 0, uses_anonymous_args = 0
 1902              		@ link register save eliminated.
 1903 0000 10B4     		push	{r4}
 1904 0002 0D4B     		ldr	r3, .L438
 1905              	.L431:
 1906 0004 1A78     		ldrb	r2, [r3]	@ zero_extendqisi2
 1907 0006 002A     		cmp	r2, #0
 1908 0008 FCD1     		bne	.L431
 1909 000a 0C49     		ldr	r1, .L438+4
 1910 000c 8124     		movs	r4, #129
 1911 000e 8022     		movs	r2, #128
 1912 0010 0C70     		strb	r4, [r1]
 1913 0012 C4B2     		uxtb	r4, r0
 1914 0014 1A70     		strb	r2, [r3]
 1915              	.L432:
 1916 0016 1A78     		ldrb	r2, [r3]	@ zero_extendqisi2
 1917 0018 002A     		cmp	r2, #0
 1918 001a FCD1     		bne	.L432
 1919 001c 8022     		movs	r2, #128
 1920 001e 0C70     		strb	r4, [r1]
 1921 0020 C0F30720 		ubfx	r0, r0, #8, #8
 1922 0024 1A70     		strb	r2, [r3]
 1923              	.L433:
 1924 0026 1A78     		ldrb	r2, [r3]	@ zero_extendqisi2
 1925 0028 002A     		cmp	r2, #0
 1926 002a FCD1     		bne	.L433
 1927 002c 8022     		movs	r2, #128
 1928 002e 0870     		strb	r0, [r1]
 1929 0030 1A70     		strb	r2, [r3]
 1930 0032 5DF8044B 		ldr	r4, [sp], #4
 1931 0036 7047     		bx	lr
 1932              	.L439:
 1933              		.align	2
 1934              	.L438:
 1935 0038 00000000 		.word	.LANCHOR10
 1936 003c 00000000 		.word	.LANCHOR11
 1938              		.section	.text.c64_send_command,"ax",%progbits
 1939              		.align	1
 1940              		.p2align 2,,3
 1941              		.syntax unified
 1942              		.thumb
 1943              		.thumb_func
 1944              		.fpu fpv4-sp-d16
 1946              	c64_send_command:
 1947              		@ args = 0, pretend = 0, frame = 8
 1948              		@ frame_needed = 0, uses_anonymous_args = 0
 1949 0000 F0B5     		push	{r4, r5, r6, r7, lr}
 1950 0002 1B4C     		ldr	r4, .L454
ARM GAS  C:\Users\Jay\AppData\Local\Temp\ccrCOBv6.s 			page 34


 1951 0004 1B4A     		ldr	r2, .L454+4
 1952 0006 1C4E     		ldr	r6, .L454+8
 1953 0008 83B0     		sub	sp, sp, #12
 1954 000a 04F1080C 		add	ip, r4, #8
 1955 000e 8027     		movs	r7, #128
 1956              	.L442:
 1957 0010 14F8015B 		ldrb	r5, [r4], #1	@ zero_extendqisi2
 1958              	.L441:
 1959 0014 1378     		ldrb	r3, [r2]	@ zero_extendqisi2
 1960 0016 002B     		cmp	r3, #0
 1961 0018 FCD1     		bne	.L441
 1962 001a 6445     		cmp	r4, ip
 1963 001c 3570     		strb	r5, [r6]
 1964 001e 1770     		strb	r7, [r2]
 1965 0020 F6D1     		bne	.L442
 1966 0022 071D     		adds	r7, r0, #4
 1967 0024 8025     		movs	r5, #128
 1968              	.L444:
 1969 0026 10F8014B 		ldrb	r4, [r0], #1	@ zero_extendqisi2
 1970              	.L443:
 1971 002a 1378     		ldrb	r3, [r2]	@ zero_extendqisi2
 1972 002c 002B     		cmp	r3, #0
 1973 002e FCD1     		bne	.L443
 1974 0030 B842     		cmp	r0, r7
 1975 0032 3470     		strb	r4, [r6]
 1976 0034 1570     		strb	r5, [r2]
 1977 0036 F6D1     		bne	.L444
 1978 0038 104A     		ldr	r2, .L454+12
 1979 003a 114F     		ldr	r7, .L454+16
 1980 003c 6846     		mov	r0, sp
 1981 003e 0DF10506 		add	r6, sp, #5
 1982 0042 4025     		movs	r5, #64
 1983              	.L445:
 1984 0044 1378     		ldrb	r3, [r2]	@ zero_extendqisi2
 1985 0046 03F0FF04 		and	r4, r3, #255
 1986 004a 002B     		cmp	r3, #0
 1987 004c FAD1     		bne	.L445
 1988 004e 3B78     		ldrb	r3, [r7]	@ zero_extendqisi2
 1989 0050 DBB2     		uxtb	r3, r3
 1990 0052 00F8013B 		strb	r3, [r0], #1
 1991 0056 B042     		cmp	r0, r6
 1992 0058 1570     		strb	r5, [r2]
 1993 005a F3D1     		bne	.L445
 1994 005c 6846     		mov	r0, sp
 1995 005e 8DF80540 		strb	r4, [sp, #5]
 1996 0062 FFF7FEFF 		bl	strcmp
 1997 0066 B0FA80F0 		clz	r0, r0
 1998 006a 4009     		lsrs	r0, r0, #5
 1999 006c 03B0     		add	sp, sp, #12
 2000              		@ sp needed
 2001 006e F0BD     		pop	{r4, r5, r6, r7, pc}
 2002              	.L455:
 2003              		.align	2
 2004              	.L454:
 2005 0070 00000000 		.word	.LC10
 2006 0074 00000000 		.word	.LANCHOR10
 2007 0078 00000000 		.word	.LANCHOR11
ARM GAS  C:\Users\Jay\AppData\Local\Temp\ccrCOBv6.s 			page 35


 2008 007c 00000000 		.word	.LANCHOR12
 2009 0080 00000000 		.word	.LANCHOR13
 2011              		.section	.text.c64_receive_command,"ax",%progbits
 2012              		.align	1
 2013              		.p2align 2,,3
 2014              		.syntax unified
 2015              		.thumb
 2016              		.thumb_func
 2017              		.fpu fpv4-sp-d16
 2019              	c64_receive_command:
 2020              		@ args = 0, pretend = 0, frame = 8
 2021              		@ frame_needed = 0, uses_anonymous_args = 0
 2022              		@ link register save eliminated.
 2023 0000 70B4     		push	{r4, r5, r6}
 2024 0002 0E4A     		ldr	r2, .L464
 2025 0004 0E4E     		ldr	r6, .L464+4
 2026 0006 83B0     		sub	sp, sp, #12
 2027 0008 6946     		mov	r1, sp
 2028 000a 0DF10505 		add	r5, sp, #5
 2029 000e 4024     		movs	r4, #64
 2030              	.L457:
 2031 0010 1378     		ldrb	r3, [r2]	@ zero_extendqisi2
 2032 0012 03F0FF00 		and	r0, r3, #255
 2033 0016 002B     		cmp	r3, #0
 2034 0018 FAD1     		bne	.L457
 2035 001a 3378     		ldrb	r3, [r6]	@ zero_extendqisi2
 2036 001c DBB2     		uxtb	r3, r3
 2037 001e 01F8013B 		strb	r3, [r1], #1
 2038 0022 A942     		cmp	r1, r5
 2039 0024 1470     		strb	r4, [r2]
 2040 0026 F3D1     		bne	.L457
 2041 0028 064B     		ldr	r3, .L464+8
 2042 002a 009A     		ldr	r2, [sp]
 2043 002c 9A42     		cmp	r2, r3
 2044 002e 08BF     		it	eq
 2045 0030 9DF80400 		ldrbeq	r0, [sp, #4]	@ zero_extendqisi2
 2046 0034 03B0     		add	sp, sp, #12
 2047              		@ sp needed
 2048 0036 70BC     		pop	{r4, r5, r6}
 2049 0038 7047     		bx	lr
 2050              	.L465:
 2051 003a 00BF     		.align	2
 2052              	.L464:
 2053 003c 00000000 		.word	.LANCHOR12
 2054 0040 00000000 		.word	.LANCHOR13
 2055 0044 4B46463A 		.word	977684043
 2057              		.section	.text.prg_load_file,"ax",%progbits
 2058              		.align	1
 2059              		.p2align 2,,3
 2060              		.syntax unified
 2061              		.thumb
 2062              		.thumb_func
 2063              		.fpu fpv4-sp-d16
 2065              	prg_load_file:
 2066              		@ args = 0, pretend = 0, frame = 8
 2067              		@ frame_needed = 0, uses_anonymous_args = 0
 2068 0000 00B5     		push	{lr}
ARM GAS  C:\Users\Jay\AppData\Local\Temp\ccrCOBv6.s 			page 36


 2069 0002 83B0     		sub	sp, sp, #12
 2070 0004 01AB     		add	r3, sp, #4
 2071 0006 4FF48032 		mov	r2, #65536
 2072 000a 0F49     		ldr	r1, .L471
 2073 000c FFF7FEFF 		bl	f_read
 2074 0010 50B1     		cbz	r0, .L467
 2075 0012 0E4B     		ldr	r3, .L471+4
 2076 0014 4FF00052 		mov	r2, #536870912
 2077 0018 9A61     		str	r2, [r3, #24]
 2078              	.L468:
 2079 001a 0D4B     		ldr	r3, .L471+8
 2080 001c 0020     		movs	r0, #0
 2081 001e D872     		strb	r0, [r3, #11]
 2082 0020 1873     		strb	r0, [r3, #12]
 2083 0022 03B0     		add	sp, sp, #12
 2084              		@ sp needed
 2085 0024 5DF804FB 		ldr	pc, [sp], #4
 2086              	.L467:
 2087 0028 BDF80430 		ldrh	r3, [sp, #4]
 2088 002c 074A     		ldr	r2, .L471+4
 2089 002e 4FF00051 		mov	r1, #536870912
 2090 0032 022B     		cmp	r3, #2
 2091 0034 9161     		str	r1, [r2, #24]
 2092 0036 F0D9     		bls	.L468
 2093 0038 054A     		ldr	r2, .L471+8
 2094 003a 0120     		movs	r0, #1
 2095 003c A2F80B30 		strh	r3, [r2, #11]	@ unaligned
 2096 0040 03B0     		add	sp, sp, #12
 2097              		@ sp needed
 2098 0042 5DF804FB 		ldr	pc, [sp], #4
 2099              	.L472:
 2100 0046 00BF     		.align	2
 2101              	.L471:
 2102 0048 00000000 		.word	dat_buffer
 2103 004c 00080240 		.word	1073874944
 2104 0050 00000000 		.word	dat_file
 2106              		.section	.text.auto_boot,"ax",%progbits
 2107              		.align	1
 2108              		.p2align 2,,3
 2109              		.syntax unified
 2110              		.thumb
 2111              		.thumb_func
 2112              		.fpu fpv4-sp-d16
 2114              	auto_boot:
 2115              		@ args = 0, pretend = 0, frame = 560
 2116              		@ frame_needed = 0, uses_anonymous_args = 0
 2117 0000 10B5     		push	{r4, lr}
 2118 0002 ADF50C7D 		sub	sp, sp, #560
 2119 0006 02A8     		add	r0, sp, #8
 2120 0008 0122     		movs	r2, #1
 2121 000a 3349     		ldr	r1, .L496
 2122 000c FFF7FEFF 		bl	f_open
 2123 0010 38B3     		cbz	r0, .L474
 2124 0012 324B     		ldr	r3, .L496+4
 2125 0014 4FF00052 		mov	r2, #536870912
 2126 0018 9A61     		str	r2, [r3, #24]
 2127              	.L475:
ARM GAS  C:\Users\Jay\AppData\Local\Temp\ccrCOBv6.s 			page 37


 2128 001a 314C     		ldr	r4, .L496+8
 2129 001c 0021     		movs	r1, #0
 2130 001e 4FF48062 		mov	r2, #1024
 2131 0022 2046     		mov	r0, r4
 2132 0024 FFF7FEFF 		bl	memset
 2133 0028 2E4B     		ldr	r3, .L496+12
 2134 002a 03CB     		ldmia	r3!, {r0, r1}
 2135 002c 2060     		str	r0, [r4]	@ unaligned
 2136 002e 6160     		str	r1, [r4, #4]	@ unaligned
 2137              	.L479:
 2138 0030 02A8     		add	r0, sp, #8
 2139 0032 FFF7FEFF 		bl	f_close
 2140 0036 2949     		ldr	r1, .L496+4
 2141 0038 2B4A     		ldr	r2, .L496+16
 2142 003a 2C4B     		ldr	r3, .L496+20
 2143 003c 4FF00050 		mov	r0, #536870912
 2144 0040 8861     		str	r0, [r1, #24]
 2145 0042 1168     		ldr	r1, [r2]
 2146 0044 9942     		cmp	r1, r3
 2147 0046 38D0     		beq	.L495
 2148              	.L480:
 2149 0048 294B     		ldr	r3, .L496+24
 2150 004a 1B69     		ldr	r3, [r3, #16]
 2151 004c DB06     		lsls	r3, r3, #27
 2152 004e 41D5     		bpl	.L486
 2153              	.L482:
 2154 0050 274B     		ldr	r3, .L496+24
 2155              	.L490:
 2156 0052 1869     		ldr	r0, [r3, #16]
 2157 0054 10F01000 		ands	r0, r0, #16
 2158 0058 FBD1     		bne	.L490
 2159 005a 1070     		strb	r0, [r2]
 2160              	.L493:
 2161 005c 0DF50C7D 		add	sp, sp, #560
 2162              		@ sp needed
 2163 0060 10BD     		pop	{r4, pc}
 2164              	.L474:
 2165 0062 0446     		mov	r4, r0
 2166 0064 01AB     		add	r3, sp, #4
 2167 0066 4FF48062 		mov	r2, #1024
 2168 006a 1D49     		ldr	r1, .L496+8
 2169 006c 02A8     		add	r0, sp, #8
 2170 006e FFF7FEFF 		bl	f_read
 2171 0072 00B1     		cbz	r0, .L485
 2172 0074 0194     		str	r4, [sp, #4]
 2173              	.L485:
 2174 0076 019B     		ldr	r3, [sp, #4]
 2175 0078 184A     		ldr	r2, .L496+4
 2176 007a 4FF00051 		mov	r1, #536870912
 2177 007e B3F5806F 		cmp	r3, #1024
 2178 0082 9161     		str	r1, [r2, #24]
 2179 0084 C9D1     		bne	.L475
 2180 0086 01AB     		add	r3, sp, #4
 2181 0088 4FF48032 		mov	r2, #65536
 2182 008c 1949     		ldr	r1, .L496+28
 2183 008e 02A8     		add	r0, sp, #8
 2184 0090 FFF7FEFF 		bl	f_read
ARM GAS  C:\Users\Jay\AppData\Local\Temp\ccrCOBv6.s 			page 38


 2185 0094 08B1     		cbz	r0, .L477
 2186 0096 0023     		movs	r3, #0
 2187 0098 0193     		str	r3, [sp, #4]
 2188              	.L477:
 2189 009a 019B     		ldr	r3, [sp, #4]
 2190 009c 0F4A     		ldr	r2, .L496+4
 2191 009e 4FF00051 		mov	r1, #536870912
 2192 00a2 B3F5803F 		cmp	r3, #65536
 2193 00a6 9161     		str	r1, [r2, #24]
 2194 00a8 B7D1     		bne	.L475
 2195 00aa 0822     		movs	r2, #8
 2196 00ac 0C49     		ldr	r1, .L496+8
 2197 00ae 0D48     		ldr	r0, .L496+12
 2198 00b0 FFF7FEFF 		bl	memcmp
 2199 00b4 0028     		cmp	r0, #0
 2200 00b6 BBD0     		beq	.L479
 2201 00b8 AFE7     		b	.L475
 2202              	.L495:
 2203 00ba A3F1D153 		sub	r3, r3, #438304768
 2204 00be A3F5A013 		sub	r3, r3, #1310720
 2205 00c2 5168     		ldr	r1, [r2, #4]
 2206 00c4 053B     		subs	r3, r3, #5
 2207 00c6 9942     		cmp	r1, r3
 2208 00c8 BED1     		bne	.L480
 2209 00ca 0B4B     		ldr	r3, .L496+32
 2210 00cc 9168     		ldr	r1, [r2, #8]
 2211 00ce 9942     		cmp	r1, r3
 2212 00d0 BAD1     		bne	.L480
 2213 00d2 BDE7     		b	.L482
 2214              	.L486:
 2215 00d4 0120     		movs	r0, #1
 2216 00d6 C1E7     		b	.L493
 2217              	.L497:
 2218              		.align	2
 2219              	.L496:
 2220 00d8 00000000 		.word	.LC11
 2221 00dc 00080240 		.word	1073874944
 2222 00e0 00000000 		.word	dat_file
 2223 00e4 14000000 		.word	.LC12
 2224 00e8 00000100 		.word	scratch_buf
 2225 00ec 4B756E67 		.word	1735292235
 2226 00f0 00000240 		.word	1073872896
 2227 00f4 00000000 		.word	dat_buffer
 2228 00f8 656E7500 		.word	7695973
 2230              		.section	.text.d64_read_next_sector,"ax",%progbits
 2231              		.align	1
 2232              		.p2align 2,,3
 2233              		.syntax unified
 2234              		.thumb
 2235              		.thumb_func
 2236              		.fpu fpv4-sp-d16
 2238              	d64_read_next_sector:
 2239              		@ args = 0, pretend = 0, frame = 8
 2240              		@ frame_needed = 0, uses_anonymous_args = 0
 2241 0000 F0B5     		push	{r4, r5, r6, r7, lr}
 2242 0002 90F82822 		ldrb	r2, [r0, #552]	@ zero_extendqisi2
 2243 0006 0B78     		ldrb	r3, [r1]	@ zero_extendqisi2
ARM GAS  C:\Users\Jay\AppData\Local\Temp\ccrCOBv6.s 			page 39


 2244 0008 032A     		cmp	r2, #3
 2245 000a 0546     		mov	r5, r0
 2246 000c 83B0     		sub	sp, sp, #12
 2247 000e 0C46     		mov	r4, r1
 2248 0010 4878     		ldrb	r0, [r1, #1]	@ zero_extendqisi2
 2249 0012 20D0     		beq	.L511
 2250 0014 232B     		cmp	r3, #35
 2251 0016 18D8     		bhi	.L512
 2252              	.L508:
 2253 0018 0021     		movs	r1, #0
 2254              	.L501:
 2255 001a 013B     		subs	r3, r3, #1
 2256 001c DAB2     		uxtb	r2, r3
 2257 001e 292A     		cmp	r2, #41
 2258 0020 0CD9     		bls	.L513
 2259              	.L509:
 2260 0022 0021     		movs	r1, #0
 2261              	.L500:
 2262 0024 2846     		mov	r0, r5
 2263 0026 FFF7FEFF 		bl	f_lseek
 2264 002a 194E     		ldr	r6, .L515
 2265 002c 4FF00057 		mov	r7, #536870912
 2266 0030 B761     		str	r7, [r6, #24]
 2267 0032 D0B1     		cbz	r0, .L502
 2268              	.L505:
 2269 0034 0020     		movs	r0, #0
 2270 0036 2070     		strb	r0, [r4]
 2271 0038 03B0     		add	sp, sp, #12
 2272              		@ sp needed
 2273 003a F0BD     		pop	{r4, r5, r6, r7, pc}
 2274              	.L513:
 2275 003c 154A     		ldr	r2, .L515+4
 2276 003e 32F81330 		ldrh	r3, [r2, r3, lsl #1]
 2277 0042 1844     		add	r0, r0, r3
 2278 0044 01EB0021 		add	r1, r1, r0, lsl #8
 2279 0048 ECE7     		b	.L500
 2280              	.L512:
 2281 004a 022A     		cmp	r2, #2
 2282 004c E4D1     		bne	.L508
 2283 004e 233B     		subs	r3, r3, #35
 2284 0050 DBB2     		uxtb	r3, r3
 2285 0052 1149     		ldr	r1, .L515+8
 2286 0054 E1E7     		b	.L501
 2287              	.L511:
 2288 0056 013B     		subs	r3, r3, #1
 2289 0058 DAB2     		uxtb	r2, r3
 2290 005a 4F2A     		cmp	r2, #79
 2291 005c E1D8     		bhi	.L509
 2292 005e 03EB8303 		add	r3, r3, r3, lsl #2
 2293 0062 00EBC303 		add	r3, r0, r3, lsl #3
 2294 0066 1902     		lsls	r1, r3, #8
 2295 0068 DCE7     		b	.L500
 2296              	.L502:
 2297 006a 2846     		mov	r0, r5
 2298 006c 01AB     		add	r3, sp, #4
 2299 006e 4FF48072 		mov	r2, #256
 2300 0072 2146     		mov	r1, r4
ARM GAS  C:\Users\Jay\AppData\Local\Temp\ccrCOBv6.s 			page 40


 2301 0074 FFF7FEFF 		bl	f_read
 2302 0078 38B9     		cbnz	r0, .L514
 2303 007a 019B     		ldr	r3, [sp, #4]
 2304 007c B761     		str	r7, [r6, #24]
 2305 007e B3F5807F 		cmp	r3, #256
 2306 0082 D7D1     		bne	.L505
 2307 0084 0120     		movs	r0, #1
 2308 0086 03B0     		add	sp, sp, #12
 2309              		@ sp needed
 2310 0088 F0BD     		pop	{r4, r5, r6, r7, pc}
 2311              	.L514:
 2312 008a B761     		str	r7, [r6, #24]
 2313 008c D2E7     		b	.L505
 2314              	.L516:
 2315 008e 00BF     		.align	2
 2316              	.L515:
 2317 0090 00080240 		.word	1073874944
 2318 0094 00000000 		.word	.LANCHOR15
 2319 0098 00AB0200 		.word	174848
 2321              		.section	.text.d64_read_dir,"ax",%progbits
 2322              		.align	1
 2323              		.p2align 2,,3
 2324              		.syntax unified
 2325              		.thumb
 2326              		.thumb_func
 2327              		.fpu fpv4-sp-d16
 2329              	d64_read_dir:
 2330              		@ args = 0, pretend = 0, frame = 0
 2331              		@ frame_needed = 0, uses_anonymous_args = 0
 2332 0000 2DE9F041 		push	{r4, r5, r6, r7, r8, lr}
 2333 0004 0546     		mov	r5, r0
 2334 0006 00F20A37 		addw	r7, r0, #778
 2335 000a 00F22A26 		addw	r6, r0, #554
 2336 000e 4FF00008 		mov	r8, #0
 2337              	.L518:
 2338 0012 D5F83043 		ldr	r4, [r5, #816]
 2339 0016 2034     		adds	r4, r4, #32
 2340 0018 BC42     		cmp	r4, r7
 2341 001a 3146     		mov	r1, r6
 2342 001c 2846     		mov	r0, r5
 2343 001e 0DD8     		bhi	.L519
 2344 0020 C5F83043 		str	r4, [r5, #816]
 2345              	.L520:
 2346 0024 6379     		ldrb	r3, [r4, #5]	@ zero_extendqisi2
 2347 0026 A02B     		cmp	r3, #160
 2348 0028 1DD0     		beq	.L534
 2349 002a FBB1     		cbz	r3, .L524
 2350 002c A378     		ldrb	r3, [r4, #2]	@ zero_extendqisi2
 2351 002e 84F81580 		strb	r8, [r4, #21]
 2352 0032 002B     		cmp	r3, #0
 2353 0034 EDD0     		beq	.L518
 2354 0036 0120     		movs	r0, #1
 2355 0038 BDE8F081 		pop	{r4, r5, r6, r7, r8, pc}
 2356              	.L519:
 2357 003c 95F82A32 		ldrb	r3, [r5, #554]	@ zero_extendqisi2
 2358 0040 C5F83063 		str	r6, [r5, #816]
 2359 0044 3446     		mov	r4, r6
ARM GAS  C:\Users\Jay\AppData\Local\Temp\ccrCOBv6.s 			page 41


 2360 0046 5BB1     		cbz	r3, .L521
 2361 0048 95F82932 		ldrb	r3, [r5, #553]	@ zero_extendqisi2
 2362 004c 272B     		cmp	r3, #39
 2363 004e 03F10102 		add	r2, r3, #1
 2364 0052 05D8     		bhi	.L521
 2365 0054 85F82922 		strb	r2, [r5, #553]
 2366 0058 FFF7FEFF 		bl	d64_read_next_sector
 2367 005c 0028     		cmp	r0, #0
 2368 005e E1D1     		bne	.L520
 2369              	.L521:
 2370 0060 0020     		movs	r0, #0
 2371 0062 BDE8F081 		pop	{r4, r5, r6, r7, r8, pc}
 2372              	.L534:
 2373 0066 84F81580 		strb	r8, [r4, #21]
 2374 006a D2E7     		b	.L518
 2375              	.L524:
 2376 006c 6375     		strb	r3, [r4, #21]
 2377 006e D0E7     		b	.L518
 2379              		.section	.text.save_dat,"ax",%progbits
 2380              		.align	1
 2381              		.p2align 2,,3
 2382              		.syntax unified
 2383              		.thumb
 2384              		.thumb_func
 2385              		.fpu fpv4-sp-d16
 2387              	save_dat:
 2388              		@ args = 0, pretend = 0, frame = 560
 2389              		@ frame_needed = 0, uses_anonymous_args = 0
 2390 0000 10B5     		push	{r4, lr}
 2391 0002 ADF50C7D 		sub	sp, sp, #560
 2392 0006 02A8     		add	r0, sp, #8
 2393 0008 0A22     		movs	r2, #10
 2394 000a 1E49     		ldr	r1, .L549
 2395 000c FFF7FEFF 		bl	f_open
 2396 0010 40B1     		cbz	r0, .L536
 2397 0012 1D4B     		ldr	r3, .L549+4
 2398 0014 4FF00052 		mov	r2, #536870912
 2399 0018 9A61     		str	r2, [r3, #24]
 2400 001a 0024     		movs	r4, #0
 2401              	.L546:
 2402 001c 2046     		mov	r0, r4
 2403 001e 0DF50C7D 		add	sp, sp, #560
 2404              		@ sp needed
 2405 0022 10BD     		pop	{r4, pc}
 2406              	.L536:
 2407 0024 0446     		mov	r4, r0
 2408 0026 01AB     		add	r3, sp, #4
 2409 0028 4FF48062 		mov	r2, #1024
 2410 002c 1749     		ldr	r1, .L549+8
 2411 002e 02A8     		add	r0, sp, #8
 2412 0030 FFF7FEFF 		bl	f_write
 2413 0034 80B9     		cbnz	r0, .L540
 2414              	.L541:
 2415 0036 019B     		ldr	r3, [sp, #4]
 2416 0038 134A     		ldr	r2, .L549+4
 2417 003a 4FF00051 		mov	r1, #536870912
 2418 003e B3F5806F 		cmp	r3, #1024
ARM GAS  C:\Users\Jay\AppData\Local\Temp\ccrCOBv6.s 			page 42


 2419 0042 9161     		str	r1, [r2, #24]
 2420 0044 0AD0     		beq	.L548
 2421 0046 0024     		movs	r4, #0
 2422              	.L538:
 2423 0048 02A8     		add	r0, sp, #8
 2424 004a FFF7FEFF 		bl	f_close
 2425 004e 0E4B     		ldr	r3, .L549+4
 2426 0050 4FF00052 		mov	r2, #536870912
 2427 0054 9A61     		str	r2, [r3, #24]
 2428 0056 E1E7     		b	.L546
 2429              	.L540:
 2430 0058 0194     		str	r4, [sp, #4]
 2431 005a ECE7     		b	.L541
 2432              	.L548:
 2433 005c 01AB     		add	r3, sp, #4
 2434 005e 4FF48032 		mov	r2, #65536
 2435 0062 0B49     		ldr	r1, .L549+12
 2436 0064 02A8     		add	r0, sp, #8
 2437 0066 FFF7FEFF 		bl	f_write
 2438 006a 08B1     		cbz	r0, .L539
 2439 006c 0023     		movs	r3, #0
 2440 006e 0193     		str	r3, [sp, #4]
 2441              	.L539:
 2442 0070 019C     		ldr	r4, [sp, #4]
 2443 0072 054B     		ldr	r3, .L549+4
 2444 0074 A4F58031 		sub	r1, r4, #65536
 2445 0078 4FF00052 		mov	r2, #536870912
 2446 007c 4C42     		rsbs	r4, r1, #0
 2447 007e 4C41     		adcs	r4, r4, r1
 2448 0080 9A61     		str	r2, [r3, #24]
 2449 0082 E1E7     		b	.L538
 2450              	.L550:
 2451              		.align	2
 2452              	.L549:
 2453 0084 00000000 		.word	.LC11
 2454 0088 00080240 		.word	1073874944
 2455 008c 00000000 		.word	dat_file
 2456 0090 00000000 		.word	dat_buffer
 2458              		.section	.text.usbd_process_eptx,"ax",%progbits
 2459              		.align	1
 2460              		.p2align 2,,3
 2461              		.syntax unified
 2462              		.thumb
 2463              		.thumb_func
 2464              		.fpu fpv4-sp-d16
 2466              	usbd_process_eptx:
 2467              		@ args = 0, pretend = 0, frame = 0
 2468              		@ frame_needed = 0, uses_anonymous_args = 0
 2469 0000 38B5     		push	{r3, r4, r5, lr}
 2470 0002 90F86330 		ldrb	r3, [r0, #99]	@ zero_extendqisi2
 2471 0006 023B     		subs	r3, r3, #2
 2472 0008 0446     		mov	r4, r0
 2473 000a 032B     		cmp	r3, #3
 2474 000c 25D8     		bhi	.L551
 2475 000e DFE803F0 		tbb	[pc, r3]
 2476              	.L554:
 2477 0012 02       		.byte	(.L553-.L554)/2
ARM GAS  C:\Users\Jay\AppData\Local\Temp\ccrCOBv6.s 			page 43


 2478 0013 02       		.byte	(.L553-.L554)/2
 2479 0014 2F       		.byte	(.L555-.L554)/2
 2480 0015 25       		.byte	(.L556-.L554)/2
 2481              		.p2align 1
 2482              	.L553:
 2483 0016 94F86050 		ldrb	r5, [r4, #96]	@ zero_extendqisi2
 2484 001a B4F85C20 		ldrh	r2, [r4, #92]
 2485 001e 2368     		ldr	r3, [r4]
 2486 0020 9542     		cmp	r5, r2
 2487 0022 28BF     		it	cs
 2488 0024 1546     		movcs	r5, r2
 2489 0026 0846     		mov	r0, r1
 2490 0028 DB69     		ldr	r3, [r3, #28]
 2491 002a A16D     		ldr	r1, [r4, #88]
 2492 002c 2A46     		mov	r2, r5
 2493 002e 9847     		blx	r3
 2494 0030 B4F85C30 		ldrh	r3, [r4, #92]
 2495 0034 A26D     		ldr	r2, [r4, #88]
 2496 0036 5B1B     		subs	r3, r3, r5
 2497 0038 9BB2     		uxth	r3, r3
 2498 003a 2A44     		add	r2, r2, r5
 2499 003c A4F85C30 		strh	r3, [r4, #92]	@ movhi
 2500 0040 A265     		str	r2, [r4, #88]
 2501 0042 53B9     		cbnz	r3, .L551
 2502 0044 94F86330 		ldrb	r3, [r4, #99]	@ zero_extendqisi2
 2503 0048 022B     		cmp	r3, #2
 2504 004a 03D0     		beq	.L558
 2505 004c 94F86030 		ldrb	r3, [r4, #96]	@ zero_extendqisi2
 2506 0050 AB42     		cmp	r3, r5
 2507 0052 02D0     		beq	.L551
 2508              	.L558:
 2509 0054 0423     		movs	r3, #4
 2510 0056 84F86330 		strb	r3, [r4, #99]
 2511              	.L551:
 2512 005a 38BD     		pop	{r3, r4, r5, pc}
 2513              	.L556:
 2514 005c 8368     		ldr	r3, [r0, #8]
 2515 005e 0025     		movs	r5, #0
 2516 0060 80F86350 		strb	r5, [r0, #99]
 2517 0064 002B     		cmp	r3, #0
 2518 0066 F8D0     		beq	.L551
 2519 0068 416D     		ldr	r1, [r0, #84]
 2520 006a 9847     		blx	r3
 2521 006c A560     		str	r5, [r4, #8]
 2522 006e 38BD     		pop	{r3, r4, r5, pc}
 2523              	.L555:
 2524 0070 0623     		movs	r3, #6
 2525 0072 80F86330 		strb	r3, [r0, #99]
 2526 0076 38BD     		pop	{r3, r4, r5, pc}
 2528              		.section	.text.usbd_process_ep0,"ax",%progbits
 2529              		.align	1
 2530              		.p2align 2,,3
 2531              		.syntax unified
 2532              		.thumb
 2533              		.thumb_func
 2534              		.fpu fpv4-sp-d16
 2536              	usbd_process_ep0:
ARM GAS  C:\Users\Jay\AppData\Local\Temp\ccrCOBv6.s 			page 44


 2537              		@ args = 0, pretend = 0, frame = 0
 2538              		@ frame_needed = 0, uses_anonymous_args = 0
 2539 0000 0529     		cmp	r1, #5
 2540 0002 F8B5     		push	{r3, r4, r5, r6, r7, lr}
 2541 0004 1546     		mov	r5, r2
 2542 0006 0446     		mov	r4, r0
 2543 0008 27D0     		beq	.L569
 2544 000a 0629     		cmp	r1, #6
 2545 000c 07D0     		beq	.L570
 2546 000e 0429     		cmp	r1, #4
 2547 0010 00D0     		beq	.L631
 2548              	.L567:
 2549 0012 F8BD     		pop	{r3, r4, r5, r6, r7, pc}
 2550              	.L631:
 2551 0014 1146     		mov	r1, r2
 2552 0016 BDE8F840 		pop	{r3, r4, r5, r6, r7, lr}
 2553 001a FFF7FEBF 		b	usbd_process_eptx
 2554              	.L570:
 2555 001e 0023     		movs	r3, #0
 2556 0020 80F86330 		strb	r3, [r0, #99]
 2557 0024 8360     		str	r3, [r0, #8]
 2558 0026 476D     		ldr	r7, [r0, #84]
 2559 0028 0368     		ldr	r3, [r0]
 2560              	.L572:
 2561 002a 9B69     		ldr	r3, [r3, #24]
 2562 002c B4F85E20 		ldrh	r2, [r4, #94]
 2563 0030 3946     		mov	r1, r7
 2564 0032 2846     		mov	r0, r5
 2565 0034 9847     		blx	r3
 2566 0036 0828     		cmp	r0, #8
 2567 0038 47D0     		beq	.L576
 2568              	.L629:
 2569 003a 2368     		ldr	r3, [r4]
 2570 003c 1B6A     		ldr	r3, [r3, #32]
 2571 003e 0121     		movs	r1, #1
 2572              	.L630:
 2573 0040 05F07F00 		and	r0, r5, #127
 2574 0044 9847     		blx	r3
 2575 0046 2368     		ldr	r3, [r4]
 2576 0048 45F08000 		orr	r0, r5, #128
 2577 004c 1B6A     		ldr	r3, [r3, #32]
 2578 004e 0121     		movs	r1, #1
 2579 0050 9847     		blx	r3
 2580 0052 0023     		movs	r3, #0
 2581 0054 84F86330 		strb	r3, [r4, #99]
 2582 0058 F8BD     		pop	{r3, r4, r5, r6, r7, pc}
 2583              	.L569:
 2584 005a 90F86360 		ldrb	r6, [r0, #99]	@ zero_extendqisi2
 2585 005e 476D     		ldr	r7, [r0, #84]
 2586 0060 0368     		ldr	r3, [r0]
 2587 0062 012E     		cmp	r6, #1
 2588 0064 12D0     		beq	.L574
 2589 0066 E0D3     		bcc	.L572
 2590 0068 062E     		cmp	r6, #6
 2591 006a 2BD1     		bne	.L597
 2592 006c 0022     		movs	r2, #0
 2593 006e 9B69     		ldr	r3, [r3, #24]
ARM GAS  C:\Users\Jay\AppData\Local\Temp\ccrCOBv6.s 			page 45


 2594 0070 2846     		mov	r0, r5
 2595 0072 1146     		mov	r1, r2
 2596 0074 9847     		blx	r3
 2597 0076 A368     		ldr	r3, [r4, #8]
 2598 0078 0025     		movs	r5, #0
 2599 007a 84F86350 		strb	r5, [r4, #99]
 2600 007e 002B     		cmp	r3, #0
 2601 0080 C7D0     		beq	.L567
 2602 0082 616D     		ldr	r1, [r4, #84]
 2603 0084 2046     		mov	r0, r4
 2604 0086 9847     		blx	r3
 2605 0088 A560     		str	r5, [r4, #8]
 2606 008a F8BD     		pop	{r3, r4, r5, r6, r7, pc}
 2607              	.L574:
 2608 008c B0F85C20 		ldrh	r2, [r0, #92]
 2609 0090 9B69     		ldr	r3, [r3, #24]
 2610 0092 816D     		ldr	r1, [r0, #88]
 2611 0094 2846     		mov	r0, r5
 2612 0096 9847     		blx	r3
 2613 0098 B4F85C30 		ldrh	r3, [r4, #92]
 2614 009c 82B2     		uxth	r2, r0
 2615 009e 9A42     		cmp	r2, r3
 2616 00a0 26D9     		bls	.L579
 2617 00a2 2368     		ldr	r3, [r4]
 2618 00a4 3146     		mov	r1, r6
 2619 00a6 1B6A     		ldr	r3, [r3, #32]
 2620 00a8 05F07F00 		and	r0, r5, #127
 2621 00ac 9847     		blx	r3
 2622 00ae 2368     		ldr	r3, [r4]
 2623 00b0 3146     		mov	r1, r6
 2624 00b2 1B6A     		ldr	r3, [r3, #32]
 2625 00b4 45F08000 		orr	r0, r5, #128
 2626 00b8 9847     		blx	r3
 2627 00ba 0023     		movs	r3, #0
 2628 00bc 84F86330 		strb	r3, [r4, #99]
 2629 00c0 F8BD     		pop	{r3, r4, r5, r6, r7, pc}
 2630              	.L628:
 2631 00c2 2368     		ldr	r3, [r4]
 2632              	.L597:
 2633 00c4 1B6A     		ldr	r3, [r3, #32]
 2634 00c6 0121     		movs	r1, #1
 2635 00c8 BAE7     		b	.L630
 2636              	.L576:
 2637 00ca FB88     		ldrh	r3, [r7, #6]
 2638 00cc A4F85C30 		strh	r3, [r4, #92]	@ movhi
 2639 00d0 07F10806 		add	r6, r7, #8
 2640 00d4 A665     		str	r6, [r4, #88]
 2641 00d6 97F90010 		ldrsb	r1, [r7]
 2642 00da B4F85E20 		ldrh	r2, [r4, #94]
 2643 00de 0029     		cmp	r1, #0
 2644 00e0 13DB     		blt	.L577
 2645 00e2 93B1     		cbz	r3, .L577
 2646 00e4 9342     		cmp	r3, r2
 2647 00e6 A8D8     		bhi	.L629
 2648 00e8 0123     		movs	r3, #1
 2649 00ea 84F86330 		strb	r3, [r4, #99]
 2650 00ee F8BD     		pop	{r3, r4, r5, r6, r7, pc}
ARM GAS  C:\Users\Jay\AppData\Local\Temp\ccrCOBv6.s 			page 46


 2651              	.L579:
 2652 00f0 07D0     		beq	.L632
 2653 00f2 A16D     		ldr	r1, [r4, #88]
 2654 00f4 9B1A     		subs	r3, r3, r2
 2655 00f6 11FA80F0 		uxtah	r0, r1, r0
 2656 00fa A4F85C30 		strh	r3, [r4, #92]	@ movhi
 2657 00fe A065     		str	r0, [r4, #88]
 2658 0100 F8BD     		pop	{r3, r4, r5, r6, r7, pc}
 2659              	.L632:
 2660 0102 B4F85E20 		ldrh	r2, [r4, #94]
 2661 0106 07F10806 		add	r6, r7, #8
 2662              	.L577:
 2663 010a 6368     		ldr	r3, [r4, #4]
 2664 010c A665     		str	r6, [r4, #88]
 2665 010e A4F85C20 		strh	r2, [r4, #92]	@ movhi
 2666 0112 2BB1     		cbz	r3, .L587
 2667 0114 04F10802 		add	r2, r4, #8
 2668 0118 3946     		mov	r1, r7
 2669 011a 2046     		mov	r0, r4
 2670 011c 9847     		blx	r3
 2671 011e 60BB     		cbnz	r0, .L586
 2672              	.L587:
 2673 0120 3B78     		ldrb	r3, [r7]	@ zero_extendqisi2
 2674 0122 03F06302 		and	r2, r3, #99
 2675 0126 012A     		cmp	r2, #1
 2676 0128 00F08580 		beq	.L583
 2677 012c 2DD3     		bcc	.L584
 2678 012e 022A     		cmp	r2, #2
 2679 0130 C7D1     		bne	.L628
 2680 0132 7A78     		ldrb	r2, [r7, #1]	@ zero_extendqisi2
 2681 0134 2368     		ldr	r3, [r4]
 2682 0136 012A     		cmp	r2, #1
 2683 0138 00F08580 		beq	.L603
 2684 013c C0F09980 		bcc	.L604
 2685 0140 032A     		cmp	r2, #3
 2686 0142 BFD1     		bne	.L597
 2687 0144 1B6A     		ldr	r3, [r3, #32]
 2688 0146 3879     		ldrb	r0, [r7, #4]	@ zero_extendqisi2
 2689 0148 0121     		movs	r1, #1
 2690 014a 9847     		blx	r3
 2691 014c 3B78     		ldrb	r3, [r7]	@ zero_extendqisi2
 2692              	.L594:
 2693 014e 1B06     		lsls	r3, r3, #24
 2694 0150 45F08000 		orr	r0, r5, #128
 2695 0154 7DD4     		bmi	.L633
 2696 0156 2368     		ldr	r3, [r4]
 2697 0158 0022     		movs	r2, #0
 2698 015a DB69     		ldr	r3, [r3, #28]
 2699 015c 1146     		mov	r1, r2
 2700 015e 9847     		blx	r3
 2701 0160 0523     		movs	r3, #5
 2702 0162 84F86330 		strb	r3, [r4, #99]
 2703 0166 F8BD     		pop	{r3, r4, r5, r6, r7, pc}
 2704              	.L595:
 2705 0168 2369     		ldr	r3, [r4, #16]
 2706 016a 002B     		cmp	r3, #0
 2707 016c A9D0     		beq	.L628
ARM GAS  C:\Users\Jay\AppData\Local\Temp\ccrCOBv6.s 			page 47


 2708 016e 04F15C02 		add	r2, r4, #92
 2709 0172 04F15801 		add	r1, r4, #88
 2710 0176 3846     		mov	r0, r7
 2711 0178 9847     		blx	r3
 2712              	.L586:
 2713 017a 0128     		cmp	r0, #1
 2714 017c 61D0     		beq	.L606
 2715 017e 0228     		cmp	r0, #2
 2716 0180 9FD1     		bne	.L628
 2717 0182 0523     		movs	r3, #5
 2718 0184 84F86330 		strb	r3, [r4, #99]
 2719 0188 F8BD     		pop	{r3, r4, r5, r6, r7, pc}
 2720              	.L584:
 2721 018a 7A78     		ldrb	r2, [r7, #1]	@ zero_extendqisi2
 2722 018c 092A     		cmp	r2, #9
 2723 018e 98D8     		bhi	.L628
 2724 0190 01A1     		adr	r1, .L589
 2725 0192 51F822F0 		ldr	pc, [r1, r2, lsl #2]
 2726 0196 00BF     		.p2align 2
 2727              	.L589:
 2728 0198 07020000 		.word	.L588+1
 2729 019c C3000000 		.word	.L628+1
 2730 01a0 C3000000 		.word	.L628+1
 2731 01a4 C3000000 		.word	.L628+1
 2732 01a8 C3000000 		.word	.L628+1
 2733 01ac DB010000 		.word	.L590+1
 2734 01b0 C1010000 		.word	.L591+1
 2735 01b4 C3000000 		.word	.L628+1
 2736 01b8 FF010000 		.word	.L592+1
 2737 01bc 0D020000 		.word	.L593+1
 2738              		.p2align 1
 2739              	.L591:
 2740 01c0 7A88     		ldrh	r2, [r7, #2]
 2741 01c2 40F2FE33 		movw	r3, #1022
 2742 01c6 9A42     		cmp	r2, r3
 2743 01c8 CED1     		bne	.L595
 2744 01ca 2368     		ldr	r3, [r4]
 2745 01cc 3046     		mov	r0, r6
 2746 01ce 1B6B     		ldr	r3, [r3, #48]
 2747 01d0 9847     		blx	r3
 2748 01d2 A4F85C00 		strh	r0, [r4, #92]	@ movhi
 2749 01d6 3B78     		ldrb	r3, [r7]	@ zero_extendqisi2
 2750 01d8 B9E7     		b	.L594
 2751              	.L590:
 2752 01da 2368     		ldr	r3, [r4]
 2753 01dc 1B68     		ldr	r3, [r3]
 2754 01de 9847     		blx	r3
 2755 01e0 C207     		lsls	r2, r0, #31
 2756 01e2 52D5     		bpl	.L598
 2757 01e4 2368     		ldr	r3, [r4]
 2758 01e6 B878     		ldrb	r0, [r7, #2]	@ zero_extendqisi2
 2759 01e8 DB68     		ldr	r3, [r3, #12]
 2760 01ea 9847     		blx	r3
 2761 01ec 7B88     		ldrh	r3, [r7, #2]
 2762 01ee 002B     		cmp	r3, #0
 2763 01f0 0CBF     		ite	eq
 2764 01f2 0223     		moveq	r3, #2
ARM GAS  C:\Users\Jay\AppData\Local\Temp\ccrCOBv6.s 			page 48


 2765 01f4 0323     		movne	r3, #3
 2766 01f6 84F86230 		strb	r3, [r4, #98]
 2767 01fa 3B78     		ldrb	r3, [r7]	@ zero_extendqisi2
 2768 01fc A7E7     		b	.L594
 2769              	.L592:
 2770 01fe 94F86120 		ldrb	r2, [r4, #97]	@ zero_extendqisi2
 2771 0202 3A72     		strb	r2, [r7, #8]
 2772 0204 A3E7     		b	.L594
 2773              	.L588:
 2774 0206 0022     		movs	r2, #0
 2775 0208 3A81     		strh	r2, [r7, #8]	@ movhi
 2776 020a A0E7     		b	.L594
 2777              	.L593:
 2778 020c E368     		ldr	r3, [r4, #12]
 2779 020e BE78     		ldrb	r6, [r7, #2]	@ zero_extendqisi2
 2780 0210 002B     		cmp	r3, #0
 2781 0212 3FF456AF 		beq	.L628
 2782 0216 3146     		mov	r1, r6
 2783 0218 2046     		mov	r0, r4
 2784 021a 9847     		blx	r3
 2785 021c 0128     		cmp	r0, #1
 2786 021e 7FF450AF 		bne	.L628
 2787 0222 002E     		cmp	r6, #0
 2788 0224 0CBF     		ite	eq
 2789 0226 0323     		moveq	r3, #3
 2790 0228 0423     		movne	r3, #4
 2791 022a 84F86160 		strb	r6, [r4, #97]
 2792 022e 84F86230 		strb	r3, [r4, #98]
 2793 0232 3B78     		ldrb	r3, [r7]	@ zero_extendqisi2
 2794 0234 8BE7     		b	.L594
 2795              	.L583:
 2796 0236 7A78     		ldrb	r2, [r7, #1]	@ zero_extendqisi2
 2797 0238 002A     		cmp	r2, #0
 2798 023a 7FF442AF 		bne	.L628
 2799 023e 3A81     		strh	r2, [r7, #8]	@ movhi
 2800 0240 85E7     		b	.L594
 2801              	.L606:
 2802 0242 3B78     		ldrb	r3, [r7]	@ zero_extendqisi2
 2803 0244 83E7     		b	.L594
 2804              	.L603:
 2805 0246 1B6A     		ldr	r3, [r3, #32]
 2806 0248 3879     		ldrb	r0, [r7, #4]	@ zero_extendqisi2
 2807 024a 0021     		movs	r1, #0
 2808 024c 9847     		blx	r3
 2809 024e 3B78     		ldrb	r3, [r7]	@ zero_extendqisi2
 2810 0250 7DE7     		b	.L594
 2811              	.L633:
 2812 0252 FB88     		ldrh	r3, [r7, #6]
 2813 0254 B4F85C20 		ldrh	r2, [r4, #92]
 2814 0258 9A42     		cmp	r2, r3
 2815 025a 12D3     		bcc	.L609
 2816 025c 0222     		movs	r2, #2
 2817 025e A4F85C30 		strh	r3, [r4, #92]	@ movhi
 2818 0262 84F86320 		strb	r2, [r4, #99]
 2819              	.L610:
 2820 0266 0146     		mov	r1, r0
 2821 0268 2046     		mov	r0, r4
ARM GAS  C:\Users\Jay\AppData\Local\Temp\ccrCOBv6.s 			page 49


 2822 026a BDE8F840 		pop	{r3, r4, r5, r6, r7, lr}
 2823 026e FFF7FEBF 		b	usbd_process_eptx
 2824              	.L604:
 2825 0272 5B6A     		ldr	r3, [r3, #36]
 2826 0274 3879     		ldrb	r0, [r7, #4]	@ zero_extendqisi2
 2827 0276 9847     		blx	r3
 2828 0278 0023     		movs	r3, #0
 2829 027a 7B72     		strb	r3, [r7, #9]
 2830 027c 3872     		strb	r0, [r7, #8]
 2831 027e 3B78     		ldrb	r3, [r7]	@ zero_extendqisi2
 2832 0280 65E7     		b	.L594
 2833              	.L609:
 2834 0282 0323     		movs	r3, #3
 2835 0284 84F86330 		strb	r3, [r4, #99]
 2836 0288 EDE7     		b	.L610
 2837              	.L598:
 2838 028a 024B     		ldr	r3, .L634
 2839 028c A360     		str	r3, [r4, #8]
 2840 028e 3B78     		ldrb	r3, [r7]	@ zero_extendqisi2
 2841 0290 5DE7     		b	.L594
 2842              	.L635:
 2843 0292 00BF     		.align	2
 2844              	.L634:
 2845 0294 00000000 		.word	usbd_set_address
 2847              		.section	.text.getinfo,"ax",%progbits
 2848              		.align	1
 2849              		.p2align 2,,3
 2850              		.global	getinfo
 2851              		.syntax unified
 2852              		.thumb
 2853              		.thumb_func
 2854              		.fpu fpv4-sp-d16
 2856              	getinfo:
 2857              		@ args = 0, pretend = 0, frame = 0
 2858              		@ frame_needed = 0, uses_anonymous_args = 0
 2859              		@ link register save eliminated.
 2860 0000 064B     		ldr	r3, .L640
 2861 0002 5B6B     		ldr	r3, [r3, #52]
 2862 0004 1B06     		lsls	r3, r3, #24
 2863 0006 07D5     		bpl	.L638
 2864 0008 054B     		ldr	r3, .L640+4
 2865 000a 5B68     		ldr	r3, [r3, #4]
 2866 000c 13F0020F 		tst	r3, #2
 2867 0010 0CBF     		ite	eq
 2868 0012 2920     		moveq	r0, #41
 2869 0014 0920     		movne	r0, #9
 2870 0016 7047     		bx	lr
 2871              	.L638:
 2872 0018 0120     		movs	r0, #1
 2873 001a 7047     		bx	lr
 2874              	.L641:
 2875              		.align	2
 2876              	.L640:
 2877 001c 00380240 		.word	1073887232
 2878 0020 00080050 		.word	1342179328
 2880              		.section	.text.ep_setstall,"ax",%progbits
 2881              		.align	1
ARM GAS  C:\Users\Jay\AppData\Local\Temp\ccrCOBv6.s 			page 50


 2882              		.p2align 2,,3
 2883              		.global	ep_setstall
 2884              		.syntax unified
 2885              		.thumb
 2886              		.thumb_func
 2887              		.fpu fpv4-sp-d16
 2889              	ep_setstall:
 2890              		@ args = 0, pretend = 0, frame = 0
 2891              		@ frame_needed = 0, uses_anonymous_args = 0
 2892              		@ link register save eliminated.
 2893 0000 0306     		lsls	r3, r0, #24
 2894 0002 0ED4     		bmi	.L655
 2895 0004 4001     		lsls	r0, r0, #5
 2896 0006 00F1A040 		add	r0, r0, #1342177280
 2897 000a D0F8003B 		ldr	r3, [r0, #2816]
 2898 000e 1A04     		lsls	r2, r3, #16
 2899 0010 06D5     		bpl	.L642
 2900 0012 A9B9     		cbnz	r1, .L656
 2901 0014 23F0A153 		bic	r3, r3, #337641472
 2902 0018 43F0A053 		orr	r3, r3, #335544320
 2903              	.L648:
 2904 001c C0F8003B 		str	r3, [r0, #2816]
 2905              	.L642:
 2906 0020 7047     		bx	lr
 2907              	.L655:
 2908 0022 00F07F00 		and	r0, r0, #127
 2909 0026 4001     		lsls	r0, r0, #5
 2910 0028 00F1A040 		add	r0, r0, #1342177280
 2911 002c D0F80039 		ldr	r3, [r0, #2304]
 2912 0030 1A04     		lsls	r2, r3, #16
 2913 0032 F5D5     		bpl	.L642
 2914 0034 39B1     		cbz	r1, .L645
 2915 0036 43F40013 		orr	r3, r3, #2097152
 2916              	.L646:
 2917 003a C0F80039 		str	r3, [r0, #2304]
 2918 003e 7047     		bx	lr
 2919              	.L656:
 2920 0040 43F40013 		orr	r3, r3, #2097152
 2921 0044 EAE7     		b	.L648
 2922              	.L645:
 2923 0046 23F0C153 		bic	r3, r3, #404750336
 2924 004a 43F0C053 		orr	r3, r3, #402653184
 2925 004e F4E7     		b	.L646
 2927              		.section	.text.ep_isstalled,"ax",%progbits
 2928              		.align	1
 2929              		.p2align 2,,3
 2930              		.global	ep_isstalled
 2931              		.syntax unified
 2932              		.thumb
 2933              		.thumb_func
 2934              		.fpu fpv4-sp-d16
 2936              	ep_isstalled:
 2937              		@ args = 0, pretend = 0, frame = 0
 2938              		@ frame_needed = 0, uses_anonymous_args = 0
 2939              		@ link register save eliminated.
 2940 0000 0306     		lsls	r3, r0, #24
 2941 0002 07D4     		bmi	.L660
ARM GAS  C:\Users\Jay\AppData\Local\Temp\ccrCOBv6.s 			page 51


 2942 0004 4001     		lsls	r0, r0, #5
 2943 0006 00F1A040 		add	r0, r0, #1342177280
 2944 000a D0F8000B 		ldr	r0, [r0, #2816]
 2945 000e C0F34050 		ubfx	r0, r0, #21, #1
 2946 0012 7047     		bx	lr
 2947              	.L660:
 2948 0014 00F07F00 		and	r0, r0, #127
 2949 0018 4001     		lsls	r0, r0, #5
 2950 001a 00F1A040 		add	r0, r0, #1342177280
 2951 001e D0F80009 		ldr	r0, [r0, #2304]
 2952 0022 C0F34050 		ubfx	r0, r0, #21, #1
 2953 0026 7047     		bx	lr
 2955              		.section	.text.enable,"ax",%progbits
 2956              		.align	1
 2957              		.p2align 2,,3
 2958              		.global	enable
 2959              		.syntax unified
 2960              		.thumb
 2961              		.thumb_func
 2962              		.fpu fpv4-sp-d16
 2964              	enable:
 2965              		@ args = 0, pretend = 0, frame = 0
 2966              		@ frame_needed = 0, uses_anonymous_args = 0
 2967              		@ link register save eliminated.
 2968 0000 0028     		cmp	r0, #0
 2969 0002 39D0     		beq	.L662
 2970 0004 284A     		ldr	r2, .L673
 2971 0006 536B     		ldr	r3, [r2, #52]
 2972 0008 43F08003 		orr	r3, r3, #128
 2973 000c 70B4     		push	{r4, r5, r6}
 2974 000e 5363     		str	r3, [r2, #52]
 2975              		.syntax unified
 2976              	@ 879 "stm32f4xx/cmsis/cmsis_gcc.h" 1
 2977 0010 BFF34F8F 		dsb 0xF
 2978              	@ 0 "" 2
 2979              		.thumb
 2980              		.syntax unified
 2981 0014 4FF0A043 		mov	r3, #1342177280
 2982              	.L663:
 2983 0018 1A69     		ldr	r2, [r3, #16]
 2984 001a 002A     		cmp	r2, #0
 2985 001c FCDA     		bge	.L663
 2986 001e DA68     		ldr	r2, [r3, #12]
 2987 0020 224C     		ldr	r4, .L673+4
 2988 0022 2349     		ldr	r1, .L673+8
 2989 0024 234D     		ldr	r5, .L673+12
 2990 0026 2448     		ldr	r0, .L673+16
 2991 0028 22F08042 		bic	r2, r2, #1073741824
 2992 002c 22F47452 		bic	r2, r2, #15616
 2993 0030 42F08042 		orr	r2, r2, #1073741824
 2994 0034 42F4C052 		orr	r2, r2, #6144
 2995 0038 DA60     		str	r2, [r3, #12]
 2996 003a 4FF40012 		mov	r2, #2097152
 2997 003e 9A63     		str	r2, [r3, #56]
 2998 0040 0022     		movs	r2, #0
 2999 0042 2260     		str	r2, [r4]
 3000 0044 4A68     		ldr	r2, [r1, #4]
ARM GAS  C:\Users\Jay\AppData\Local\Temp\ccrCOBv6.s 			page 52


 3001 0046 42F00202 		orr	r2, r2, #2
 3002 004a 4A60     		str	r2, [r1, #4]
 3003 004c 0A68     		ldr	r2, [r1]
 3004 004e 22F04072 		bic	r2, r2, #50331648
 3005 0052 22F00302 		bic	r2, r2, #3
 3006 0056 42F00302 		orr	r2, r2, #3
 3007 005a 0A60     		str	r2, [r1]
 3008 005c 0124     		movs	r4, #1
 3009 005e 3426     		movs	r6, #52
 3010 0060 4FF0FF32 		mov	r2, #-1
 3011 0064 5E62     		str	r6, [r3, #36]
 3012 0066 9D62     		str	r5, [r3, #40]
 3013 0068 0C61     		str	r4, [r1, #16]
 3014 006a 9861     		str	r0, [r3, #24]
 3015 006c 5A61     		str	r2, [r3, #20]
 3016 006e 9A68     		ldr	r2, [r3, #8]
 3017 0070 2243     		orrs	r2, r2, r4
 3018 0072 9A60     		str	r2, [r3, #8]
 3019 0074 70BC     		pop	{r4, r5, r6}
 3020 0076 7047     		bx	lr
 3021              	.L662:
 3022 0078 0B4B     		ldr	r3, .L673
 3023 007a 5A6B     		ldr	r2, [r3, #52]
 3024 007c 1206     		lsls	r2, r2, #24
 3025 007e 12D5     		bpl	.L670
 3026 0080 5A69     		ldr	r2, [r3, #20]
 3027 0082 42F08002 		orr	r2, r2, #128
 3028 0086 5A61     		str	r2, [r3, #20]
 3029              		.syntax unified
 3030              	@ 879 "stm32f4xx/cmsis/cmsis_gcc.h" 1
 3031 0088 BFF34F8F 		dsb 0xF
 3032              	@ 0 "" 2
 3033              		.thumb
 3034              		.syntax unified
 3035 008c 5A69     		ldr	r2, [r3, #20]
 3036 008e 22F08002 		bic	r2, r2, #128
 3037 0092 5A61     		str	r2, [r3, #20]
 3038              		.syntax unified
 3039              	@ 879 "stm32f4xx/cmsis/cmsis_gcc.h" 1
 3040 0094 BFF34F8F 		dsb 0xF
 3041              	@ 0 "" 2
 3042              		.thumb
 3043              		.syntax unified
 3044 0098 5A6B     		ldr	r2, [r3, #52]
 3045 009a 22F08002 		bic	r2, r2, #128
 3046 009e 5A63     		str	r2, [r3, #52]
 3047              		.syntax unified
 3048              	@ 879 "stm32f4xx/cmsis/cmsis_gcc.h" 1
 3049 00a0 BFF34F8F 		dsb 0xF
 3050              	@ 0 "" 2
 3051              		.thumb
 3052              		.syntax unified
 3053 00a4 7047     		bx	lr
 3054              	.L670:
 3055 00a6 7047     		bx	lr
 3056              	.L674:
 3057              		.align	2
ARM GAS  C:\Users\Jay\AppData\Local\Temp\ccrCOBv6.s 			page 53


 3058              	.L673:
 3059 00a8 00380240 		.word	1073887232
 3060 00ac 000E0050 		.word	1342180864
 3061 00b0 00080050 		.word	1342179328
 3062 00b4 34001000 		.word	1048628
 3063 00b8 10380480 		.word	-2147207152
 3065              		.section	.text.connect,"ax",%progbits
 3066              		.align	1
 3067              		.p2align 2,,3
 3068              		.global	connect
 3069              		.syntax unified
 3070              		.thumb
 3071              		.thumb_func
 3072              		.fpu fpv4-sp-d16
 3074              	connect:
 3075              		@ args = 0, pretend = 0, frame = 0
 3076              		@ frame_needed = 0, uses_anonymous_args = 0
 3077              		@ link register save eliminated.
 3078 0000 60B9     		cbnz	r0, .L678
 3079 0002 0D49     		ldr	r1, .L679
 3080 0004 4B68     		ldr	r3, [r1, #4]
 3081 0006 4FF0A042 		mov	r2, #1342177280
 3082 000a 43F00203 		orr	r3, r3, #2
 3083 000e 4B60     		str	r3, [r1, #4]
 3084 0010 936B     		ldr	r3, [r2, #56]
 3085 0012 23F48033 		bic	r3, r3, #65536
 3086 0016 9363     		str	r3, [r2, #56]
 3087 0018 0020     		movs	r0, #0
 3088 001a 7047     		bx	lr
 3089              	.L678:
 3090 001c 4FF0A041 		mov	r1, #1342177280
 3091 0020 054A     		ldr	r2, .L679
 3092 0022 8B6B     		ldr	r3, [r1, #56]
 3093 0024 43F48033 		orr	r3, r3, #65536
 3094 0028 8B63     		str	r3, [r1, #56]
 3095 002a 5368     		ldr	r3, [r2, #4]
 3096 002c 23F00203 		bic	r3, r3, #2
 3097 0030 5360     		str	r3, [r2, #4]
 3098 0032 0020     		movs	r0, #0
 3099 0034 7047     		bx	lr
 3100              	.L680:
 3101 0036 00BF     		.align	2
 3102              	.L679:
 3103 0038 00080050 		.word	1342179328
 3105              		.section	.text.ep_config,"ax",%progbits
 3106              		.align	1
 3107              		.p2align 2,,3
 3108              		.global	ep_config
 3109              		.syntax unified
 3110              		.thumb
 3111              		.thumb_func
 3112              		.fpu fpv4-sp-d16
 3114              	ep_config:
 3115              		@ args = 0, pretend = 0, frame = 0
 3116              		@ frame_needed = 0, uses_anonymous_args = 0
 3117 0000 F8B5     		push	{r3, r4, r5, r6, r7, lr}
 3118 0002 78B9     		cbnz	r0, .L682
ARM GAS  C:\Users\Jay\AppData\Local\Temp\ccrCOBv6.s 			page 54


 3119 0004 082A     		cmp	r2, #8
 3120 0006 20D9     		bls	.L698
 3121 0008 102A     		cmp	r2, #16
 3122 000a 51D9     		bls	.L699
 3123 000c 484B     		ldr	r3, .L720
 3124 000e 494D     		ldr	r5, .L720+4
 3125 0010 494C     		ldr	r4, .L720+8
 3126 0012 4A48     		ldr	r0, .L720+12
 3127 0014 202A     		cmp	r2, #32
 3128 0016 92BF     		itee	ls
 3129 0018 1D46     		movls	r5, r3
 3130 001a 4FF00444 		movhi	r4, #-2080374784
 3131 001e 4FF00060 		movhi	r0, #134217728
 3132 0022 15E0     		b	.L683
 3133              	.L682:
 3134 0024 0306     		lsls	r3, r0, #24
 3135 0026 1FD4     		bmi	.L717
 3136 0028 4001     		lsls	r0, r0, #5
 3137 002a 0229     		cmp	r1, #2
 3138 002c 00F1A040 		add	r0, r0, #1342177280
 3139 0030 42F01442 		orr	r2, r2, #-1811939328
 3140 0034 4ED0     		beq	.L693
 3141 0036 0629     		cmp	r1, #6
 3142 0038 4CD0     		beq	.L693
 3143 003a 0129     		cmp	r1, #1
 3144 003c 3CD0     		beq	.L718
 3145 003e 42F44822 		orr	r2, r2, #819200
 3146 0042 C0F8002B 		str	r2, [r0, #2816]
 3147 0046 0120     		movs	r0, #1
 3148 0048 F8BD     		pop	{r3, r4, r5, r6, r7, pc}
 3149              	.L698:
 3150 004a 3D4C     		ldr	r4, .L720+16
 3151 004c 3D4D     		ldr	r5, .L720+20
 3152 004e 3E48     		ldr	r0, .L720+24
 3153              	.L683:
 3154 0050 3E49     		ldr	r1, .L720+28
 3155 0052 3F4A     		ldr	r2, .L720+32
 3156 0054 CB69     		ldr	r3, [r1, #28]
 3157 0056 3F4E     		ldr	r6, .L720+36
 3158 0058 43F00113 		orr	r3, r3, #65537
 3159 005c CB61     		str	r3, [r1, #28]
 3160 005e 3060     		str	r0, [r6]
 3161 0060 1561     		str	r5, [r2, #16]
 3162 0062 0120     		movs	r0, #1
 3163 0064 1460     		str	r4, [r2]
 3164 0066 F8BD     		pop	{r3, r4, r5, r6, r7, pc}
 3165              	.L717:
 3166 0068 00F07F04 		and	r4, r0, #127
 3167 006c 6301     		lsls	r3, r4, #5
 3168 006e 0129     		cmp	r1, #1
 3169 0070 1546     		mov	r5, r2
 3170 0072 0F46     		mov	r7, r1
 3171 0074 03F1A046 		add	r6, r3, #1342177280
 3172 0078 42D0     		beq	.L686
 3173 007a 0629     		cmp	r1, #6
 3174 007c 22D0     		beq	.L687
 3175 007e 1146     		mov	r1, r2
ARM GAS  C:\Users\Jay\AppData\Local\Temp\ccrCOBv6.s 			page 55


 3176 0080 2046     		mov	r0, r4
 3177 0082 FFF7FEFF 		bl	set_tx_fifo
 3178 0086 18B3     		cbz	r0, .L696
 3179 0088 304A     		ldr	r2, .L720+28
 3180 008a 0123     		movs	r3, #1
 3181 008c D169     		ldr	r1, [r2, #28]
 3182 008e A340     		lsls	r3, r3, r4
 3183 0090 0B43     		orrs	r3, r3, r1
 3184 0092 A405     		lsls	r4, r4, #22
 3185 0094 012F     		cmp	r7, #1
 3186 0096 D361     		str	r3, [r2, #28]
 3187 0098 2246     		mov	r2, r4
 3188 009a 3FD0     		beq	.L690
 3189 009c 022F     		cmp	r7, #2
 3190 009e 26D0     		beq	.L691
 3191 00a0 45F0C052 		orr	r2, r5, #402653184
 3192 00a4 42F44822 		orr	r2, r2, #819200
 3193 00a8 1443     		orrs	r4, r4, r2
 3194 00aa C6F80049 		str	r4, [r6, #2304]
 3195 00ae F8BD     		pop	{r3, r4, r5, r6, r7, pc}
 3196              	.L699:
 3197 00b0 294C     		ldr	r4, .L720+40
 3198 00b2 2A4D     		ldr	r5, .L720+44
 3199 00b4 2A48     		ldr	r0, .L720+48
 3200 00b6 CBE7     		b	.L683
 3201              	.L718:
 3202 00b8 42F49022 		orr	r2, r2, #294912
 3203 00bc C0F8002B 		str	r2, [r0, #2816]
 3204 00c0 0846     		mov	r0, r1
 3205 00c2 F8BD     		pop	{r3, r4, r5, r6, r7, pc}
 3206              	.L687:
 3207 00c4 5100     		lsls	r1, r2, #1
 3208 00c6 89B2     		uxth	r1, r1
 3209 00c8 2046     		mov	r0, r4
 3210 00ca FFF7FEFF 		bl	set_tx_fifo
 3211 00ce 38B9     		cbnz	r0, .L719
 3212              	.L696:
 3213 00d0 0020     		movs	r0, #0
 3214 00d2 F8BD     		pop	{r3, r4, r5, r6, r7, pc}
 3215              	.L693:
 3216 00d4 42F40822 		orr	r2, r2, #557056
 3217 00d8 C0F8002B 		str	r2, [r0, #2816]
 3218 00dc 0120     		movs	r0, #1
 3219 00de F8BD     		pop	{r3, r4, r5, r6, r7, pc}
 3220              	.L719:
 3221 00e0 1A4A     		ldr	r2, .L720+28
 3222 00e2 0123     		movs	r3, #1
 3223 00e4 D169     		ldr	r1, [r2, #28]
 3224 00e6 A340     		lsls	r3, r3, r4
 3225 00e8 0B43     		orrs	r3, r3, r1
 3226 00ea D361     		str	r3, [r2, #28]
 3227 00ec A405     		lsls	r4, r4, #22
 3228              	.L691:
 3229 00ee 45F0C052 		orr	r2, r5, #402653184
 3230 00f2 42F40822 		orr	r2, r2, #557056
 3231 00f6 1443     		orrs	r4, r4, r2
 3232 00f8 C6F80049 		str	r4, [r6, #2304]
ARM GAS  C:\Users\Jay\AppData\Local\Temp\ccrCOBv6.s 			page 56


 3233 00fc 0120     		movs	r0, #1
 3234 00fe F8BD     		pop	{r3, r4, r5, r6, r7, pc}
 3235              	.L686:
 3236 0100 5100     		lsls	r1, r2, #1
 3237 0102 89B2     		uxth	r1, r1
 3238 0104 2046     		mov	r0, r4
 3239 0106 FFF7FEFF 		bl	set_tx_fifo
 3240 010a 0028     		cmp	r0, #0
 3241 010c E0D0     		beq	.L696
 3242 010e 0F4B     		ldr	r3, .L720+28
 3243 0110 DA69     		ldr	r2, [r3, #28]
 3244 0112 07FA04F1 		lsl	r1, r7, r4
 3245 0116 1143     		orrs	r1, r1, r2
 3246 0118 D961     		str	r1, [r3, #28]
 3247 011a A205     		lsls	r2, r4, #22
 3248              	.L690:
 3249 011c 2A43     		orrs	r2, r2, r5
 3250 011e 42F01442 		orr	r2, r2, #-1811939328
 3251 0122 42F49022 		orr	r2, r2, #294912
 3252 0126 C6F80029 		str	r2, [r6, #2304]
 3253 012a 0120     		movs	r0, #1
 3254 012c F8BD     		pop	{r3, r4, r5, r6, r7, pc}
 3255              	.L721:
 3256 012e 00BF     		.align	2
 3257              	.L720:
 3258 0130 20000820 		.word	537395232
 3259 0134 40000820 		.word	537395264
 3260 0138 01000084 		.word	-2080374783
 3261 013c 01000008 		.word	134217729
 3262 0140 03000084 		.word	-2080374781
 3263 0144 08000820 		.word	537395208
 3264 0148 03000008 		.word	134217731
 3265 014c 00080050 		.word	1342179328
 3266 0150 000B0050 		.word	1342180096
 3267 0154 00090050 		.word	1342179584
 3268 0158 02000084 		.word	-2080374782
 3269 015c 10000820 		.word	537395216
 3270 0160 02000008 		.word	134217730
 3272              		.section	.text.cdc_control,"ax",%progbits
 3273              		.align	1
 3274              		.p2align 2,,3
 3275              		.syntax unified
 3276              		.thumb
 3277              		.thumb_func
 3278              		.fpu fpv4-sp-d16
 3280              	cdc_control:
 3281              		@ args = 0, pretend = 0, frame = 0
 3282              		@ frame_needed = 0, uses_anonymous_args = 0
 3283              		@ link register save eliminated.
 3284 0000 0B78     		ldrb	r3, [r1]	@ zero_extendqisi2
 3285 0002 03F06303 		and	r3, r3, #99
 3286 0006 212B     		cmp	r3, #33
 3287 0008 01D0     		beq	.L730
 3288              	.L728:
 3289 000a 0020     		movs	r0, #0
 3290 000c 7047     		bx	lr
 3291              	.L730:
ARM GAS  C:\Users\Jay\AppData\Local\Temp\ccrCOBv6.s 			page 57


 3292 000e 8B88     		ldrh	r3, [r1, #4]
 3293 0010 002B     		cmp	r3, #0
 3294 0012 FAD1     		bne	.L728
 3295 0014 4A78     		ldrb	r2, [r1, #1]	@ zero_extendqisi2
 3296 0016 212A     		cmp	r2, #33
 3297 0018 0CD0     		beq	.L725
 3298 001a 222A     		cmp	r2, #34
 3299 001c 11D0     		beq	.L729
 3300 001e 202A     		cmp	r2, #32
 3301 0020 F3D1     		bne	.L728
 3302 0022 094B     		ldr	r3, .L731
 3303 0024 1868     		ldr	r0, [r3]
 3304 0026 8860     		str	r0, [r1, #8]	@ unaligned
 3305 0028 9A88     		ldrh	r2, [r3, #4]	@ unaligned
 3306 002a 9B79     		ldrb	r3, [r3, #6]	@ zero_extendqisi2
 3307 002c 8B73     		strb	r3, [r1, #14]
 3308 002e 8A81     		strh	r2, [r1, #12]	@ unaligned
 3309 0030 0120     		movs	r0, #1
 3310 0032 7047     		bx	lr
 3311              	.L725:
 3312 0034 044B     		ldr	r3, .L731
 3313 0036 8365     		str	r3, [r0, #88]
 3314 0038 0723     		movs	r3, #7
 3315 003a A0F85C30 		strh	r3, [r0, #92]	@ movhi
 3316 003e 0120     		movs	r0, #1
 3317 0040 7047     		bx	lr
 3318              	.L729:
 3319 0042 0120     		movs	r0, #1
 3320 0044 7047     		bx	lr
 3321              	.L732:
 3322 0046 00BF     		.align	2
 3323              	.L731:
 3324 0048 00000000 		.word	.LANCHOR16
 3326              		.section	.text.cdc_setconf,"ax",%progbits
 3327              		.align	1
 3328              		.p2align 2,,3
 3329              		.syntax unified
 3330              		.thumb
 3331              		.thumb_func
 3332              		.fpu fpv4-sp-d16
 3334              	cdc_setconf:
 3335              		@ args = 0, pretend = 0, frame = 0
 3336              		@ frame_needed = 0, uses_anonymous_args = 0
 3337 0000 38B5     		push	{r3, r4, r5, lr}
 3338 0002 0546     		mov	r5, r0
 3339 0004 0C46     		mov	r4, r1
 3340 0006 F9B1     		cbz	r1, .L735
 3341 0008 0129     		cmp	r1, #1
 3342 000a 1BD1     		bne	.L740
 3343 000c 0368     		ldr	r3, [r0]
 3344 000e 4022     		movs	r2, #64
 3345 0010 1B69     		ldr	r3, [r3, #16]
 3346 0012 0221     		movs	r1, #2
 3347 0014 2046     		mov	r0, r4
 3348 0016 9847     		blx	r3
 3349 0018 2B68     		ldr	r3, [r5]
 3350 001a 4022     		movs	r2, #64
ARM GAS  C:\Users\Jay\AppData\Local\Temp\ccrCOBv6.s 			page 58


 3351 001c 1B69     		ldr	r3, [r3, #16]
 3352 001e 0221     		movs	r1, #2
 3353 0020 8120     		movs	r0, #129
 3354 0022 9847     		blx	r3
 3355 0024 2B68     		ldr	r3, [r5]
 3356 0026 0822     		movs	r2, #8
 3357 0028 1B69     		ldr	r3, [r3, #16]
 3358 002a 0321     		movs	r1, #3
 3359 002c 8220     		movs	r0, #130
 3360 002e 9847     		blx	r3
 3361 0030 2B68     		ldr	r3, [r5]
 3362 0032 0D4A     		ldr	r2, .L741
 3363 0034 DB69     		ldr	r3, [r3, #28]
 3364 0036 AA63     		str	r2, [r5, #56]
 3365 0038 0022     		movs	r2, #0
 3366 003a 1146     		mov	r1, r2
 3367 003c 8120     		movs	r0, #129
 3368 003e 9847     		blx	r3
 3369 0040 2046     		mov	r0, r4
 3370 0042 38BD     		pop	{r3, r4, r5, pc}
 3371              	.L740:
 3372 0044 0020     		movs	r0, #0
 3373 0046 38BD     		pop	{r3, r4, r5, pc}
 3374              	.L735:
 3375 0048 0368     		ldr	r3, [r0]
 3376 004a 8220     		movs	r0, #130
 3377 004c 5B69     		ldr	r3, [r3, #20]
 3378 004e 9847     		blx	r3
 3379 0050 2B68     		ldr	r3, [r5]
 3380 0052 8120     		movs	r0, #129
 3381 0054 5B69     		ldr	r3, [r3, #20]
 3382 0056 9847     		blx	r3
 3383 0058 2B68     		ldr	r3, [r5]
 3384 005a 0120     		movs	r0, #1
 3385 005c 5B69     		ldr	r3, [r3, #20]
 3386 005e 9847     		blx	r3
 3387 0060 AC63     		str	r4, [r5, #56]
 3388 0062 0120     		movs	r0, #1
 3389 0064 38BD     		pop	{r3, r4, r5, pc}
 3390              	.L742:
 3391 0066 00BF     		.align	2
 3392              	.L741:
 3393 0068 00000000 		.word	cdc_rx_tx
 3395              		.section	.text.c64_interface.part.23,"ax",%progbits
 3396              		.align	1
 3397              		.p2align 2,,3
 3398              		.syntax unified
 3399              		.thumb
 3400              		.thumb_func
 3401              		.fpu fpv4-sp-d16
 3403              	c64_interface.part.23:
 3404              		@ args = 0, pretend = 0, frame = 0
 3405              		@ frame_needed = 0, uses_anonymous_args = 0
 3406 0000 F0B5     		push	{r4, r5, r6, r7, lr}
 3407 0002 0021     		movs	r1, #0
 3408 0004 174C     		ldr	r4, .L754
 3409 0006 184F     		ldr	r7, .L754+4
ARM GAS  C:\Users\Jay\AppData\Local\Temp\ccrCOBv6.s 			page 59


 3410 0008 184A     		ldr	r2, .L754+8
 3411 000a 0846     		mov	r0, r1
 3412 000c 0E46     		mov	r6, r1
 3413 000e 47F2305C 		movw	ip, #30000
 3414 0012 4FF0005E 		mov	lr, #536870912
 3415 0016 1525     		movs	r5, #21
 3416              	.L749:
 3417 0018 636B     		ldr	r3, [r4, #52]
 3418 001a A72B     		cmp	r3, #167
 3419 001c 16D9     		bls	.L744
 3420 001e 636B     		ldr	r3, [r4, #52]
 3421 0020 A92B     		cmp	r3, #169
 3422 0022 13D8     		bhi	.L744
 3423 0024 0131     		adds	r1, r1, #1
 3424 0026 C9B2     		uxtb	r1, r1
 3425 0028 C7F818E0 		str	lr, [r7, #24]
 3426              	.L747:
 3427 002c 5560     		str	r5, [r2, #4]
 3428 002e 9660     		str	r6, [r2, #8]
 3429              	.L748:
 3430 0030 1368     		ldr	r3, [r2]
 3431 0032 DB03     		lsls	r3, r3, #15
 3432 0034 FCD5     		bpl	.L748
 3433 0036 0329     		cmp	r1, #3
 3434 0038 EED1     		bne	.L749
 3435 003a 0A4B     		ldr	r3, .L754
 3436 003c 6FF00802 		mvn	r2, #8
 3437 0040 1A61     		str	r2, [r3, #16]
 3438 0042 DA68     		ldr	r2, [r3, #12]
 3439 0044 42F00802 		orr	r2, r2, #8
 3440 0048 DA60     		str	r2, [r3, #12]
 3441 004a F0BD     		pop	{r4, r5, r6, r7, pc}
 3442              	.L744:
 3443 004c 6045     		cmp	r0, ip
 3444 004e 02D8     		bhi	.L746
 3445 0050 0130     		adds	r0, r0, #1
 3446 0052 0021     		movs	r1, #0
 3447 0054 EAE7     		b	.L747
 3448              	.L746:
 3449 0056 7B69     		ldr	r3, [r7, #20]
 3450 0058 0020     		movs	r0, #0
 3451 005a 83F40053 		eor	r3, r3, #8192
 3452 005e 7B61     		str	r3, [r7, #20]
 3453 0060 0146     		mov	r1, r0
 3454 0062 E3E7     		b	.L747
 3455              	.L755:
 3456              		.align	2
 3457              	.L754:
 3458 0064 00000140 		.word	1073807360
 3459 0068 00080240 		.word	1073874944
 3460 006c 10E000E0 		.word	-536813552
 3462              		.section	.text.c64_reset.part.24,"ax",%progbits
 3463              		.align	1
 3464              		.p2align 2,,3
 3465              		.syntax unified
 3466              		.thumb
 3467              		.thumb_func
ARM GAS  C:\Users\Jay\AppData\Local\Temp\ccrCOBv6.s 			page 60


 3468              		.fpu fpv4-sp-d16
 3470              	c64_reset.part.24:
 3471              		@ args = 0, pretend = 0, frame = 0
 3472              		@ frame_needed = 0, uses_anonymous_args = 0
 3473              		@ link register save eliminated.
 3474 0000 084B     		ldr	r3, .L761
 3475 0002 094A     		ldr	r2, .L761+4
 3476 0004 10B4     		push	{r4}
 3477 0006 41F26800 		movw	r0, #4200
 3478 000a 4FF40044 		mov	r4, #32768
 3479 000e 0021     		movs	r1, #0
 3480 0010 9461     		str	r4, [r2, #24]
 3481 0012 5860     		str	r0, [r3, #4]
 3482 0014 1A46     		mov	r2, r3
 3483 0016 9960     		str	r1, [r3, #8]
 3484              	.L757:
 3485 0018 1368     		ldr	r3, [r2]
 3486 001a DB03     		lsls	r3, r3, #15
 3487 001c FCD5     		bpl	.L757
 3488 001e 5DF8044B 		ldr	r4, [sp], #4
 3489 0022 7047     		bx	lr
 3490              	.L762:
 3491              		.align	2
 3492              	.L761:
 3493 0024 10E000E0 		.word	-536813552
 3494 0028 00000240 		.word	1073872896
 3496              		.section	.text.system_restart,"ax",%progbits
 3497              		.align	1
 3498              		.p2align 2,,3
 3499              		.syntax unified
 3500              		.thumb
 3501              		.thumb_func
 3502              		.fpu fpv4-sp-d16
 3504              	system_restart:
 3505              		@ Volatile: function does not return.
 3506              		@ args = 0, pretend = 0, frame = 0
 3507              		@ frame_needed = 0, uses_anonymous_args = 0
 3508 0000 0022     		movs	r2, #0
 3509 0002 08B5     		push	{r3, lr}
 3510 0004 1046     		mov	r0, r2
 3511 0006 0E49     		ldr	r1, .L766
 3512 0008 FFF7FEFF 		bl	f_mount
 3513 000c 0D4A     		ldr	r2, .L766+4
 3514 000e 0E4B     		ldr	r3, .L766+8
 3515 0010 4FF40051 		mov	r1, #8192
 3516 0014 9161     		str	r1, [r2, #24]
 3517 0016 DA68     		ldr	r2, [r3, #12]
 3518 0018 6FF00801 		mvn	r1, #8
 3519 001c 0A40     		ands	r2, r2, r1
 3520 001e DA60     		str	r2, [r3, #12]
 3521 0020 1961     		str	r1, [r3, #16]
 3522 0022 FFF7FEFF 		bl	c64_reset.part.24
 3523              		.syntax unified
 3524              	@ 879 "stm32f4xx/cmsis/cmsis_gcc.h" 1
 3525 0026 BFF34F8F 		dsb 0xF
 3526              	@ 0 "" 2
 3527              		.thumb
ARM GAS  C:\Users\Jay\AppData\Local\Temp\ccrCOBv6.s 			page 61


 3528              		.syntax unified
 3529 002a 0849     		ldr	r1, .L766+12
 3530 002c 084B     		ldr	r3, .L766+16
 3531 002e CA68     		ldr	r2, [r1, #12]
 3532 0030 02F4E062 		and	r2, r2, #1792
 3533 0034 1343     		orrs	r3, r3, r2
 3534 0036 CB60     		str	r3, [r1, #12]
 3535              		.syntax unified
 3536              	@ 879 "stm32f4xx/cmsis/cmsis_gcc.h" 1
 3537 0038 BFF34F8F 		dsb 0xF
 3538              	@ 0 "" 2
 3539              		.thumb
 3540              		.syntax unified
 3541              	.L764:
 3542              		.syntax unified
 3543              	@ 1950 "stm32f4xx/cmsis/core_cm4.h" 1
 3544 003c 00BF     		nop
 3545              	@ 0 "" 2
 3546              		.thumb
 3547              		.syntax unified
 3548 003e FDE7     		b	.L764
 3549              	.L767:
 3550              		.align	2
 3551              	.L766:
 3552 0040 00000000 		.word	.LC14
 3553 0044 00080240 		.word	1073874944
 3554 0048 00000140 		.word	1073807360
 3555 004c 00ED00E0 		.word	-536810240
 3556 0050 0400FA05 		.word	100270084
 3558              		.section	.text.restart_to_menu,"ax",%progbits
 3559              		.align	1
 3560              		.p2align 2,,3
 3561              		.syntax unified
 3562              		.thumb
 3563              		.thumb_func
 3564              		.fpu fpv4-sp-d16
 3566              	restart_to_menu:
 3567              		@ Volatile: function does not return.
 3568              		@ args = 0, pretend = 0, frame = 0
 3569              		@ frame_needed = 0, uses_anonymous_args = 0
 3570 0000 034A     		ldr	r2, .L770
 3571 0002 07CA     		ldm	r2, {r0, r1, r2}
 3572 0004 08B5     		push	{r3, lr}
 3573 0006 034B     		ldr	r3, .L770+4
 3574 0008 83E80700 		stm	r3, {r0, r1, r2}
 3575 000c FFF7FEFF 		bl	system_restart
 3576              	.L771:
 3577              		.align	2
 3578              	.L770:
 3579 0010 20000000 		.word	.LC13
 3580 0014 00000100 		.word	scratch_buf
 3582              		.section	.text.simons_basic_handler,"ax",%progbits
 3583              		.align	1
 3584              		.p2align 2,,3
 3585              		.global	simons_basic_handler
 3586              		.syntax unified
 3587              		.thumb
ARM GAS  C:\Users\Jay\AppData\Local\Temp\ccrCOBv6.s 			page 62


 3588              		.thumb_func
 3589              		.fpu fpv4-sp-d16
 3591              	simons_basic_handler:
 3592              		@ args = 0, pretend = 0, frame = 0
 3593              		@ frame_needed = 0, uses_anonymous_args = 0
 3594              		@ link register save eliminated.
 3595 0000 1B4B     		ldr	r3, .L786
 3596 0002 1A69     		ldr	r2, [r3, #16]
 3597 0004 1007     		lsls	r0, r2, #28
 3598 0006 2ED5     		bpl	.L782
 3599 0008 6FF01801 		mvn	r1, #24
 3600 000c 194A     		ldr	r2, .L786+4
 3601 000e 1961     		str	r1, [r3, #16]
 3602 0010 1069     		ldr	r0, [r2, #16]
 3603 0012 A2F58062 		sub	r2, r2, #1024
 3604 0016 1169     		ldr	r1, [r2, #16]
 3605 0018 C907     		lsls	r1, r1, #31
 3606 001a 19D5     		bpl	.L775
 3607 001c 1269     		ldr	r2, [r2, #16]
 3608 001e D2B2     		uxtb	r2, r2
 3609 0020 02F0C001 		and	r1, r2, #192
 3610 0024 C029     		cmp	r1, #192
 3611 0026 1CD0     		beq	.L776
 3612 0028 30B4     		push	{r4, r5}
 3613 002a 134A     		ldr	r2, .L786+8
 3614 002c 134C     		ldr	r4, .L786+12
 3615 002e 1568     		ldr	r5, [r2]
 3616 0030 134A     		ldr	r2, .L786+16
 3617 0032 C0F30D00 		ubfx	r0, r0, #0, #14
 3618 0036 45F25551 		movw	r1, #21845
 3619 003a 285C     		ldrb	r0, [r5, r0]	@ zero_extendqisi2
 3620 003c 2070     		strb	r0, [r4]
 3621 003e 1180     		strh	r1, [r2]	@ movhi
 3622              	.L777:
 3623 0040 1A69     		ldr	r2, [r3, #16]
 3624 0042 D106     		lsls	r1, r2, #27
 3625 0044 FCD5     		bpl	.L777
 3626 0046 0E4B     		ldr	r3, .L786+16
 3627 0048 0022     		movs	r2, #0
 3628 004a 1A80     		strh	r2, [r3]	@ movhi
 3629 004c 30BC     		pop	{r4, r5}
 3630 004e 7047     		bx	lr
 3631              	.L775:
 3632 0050 1269     		ldr	r2, [r2, #16]
 3633 0052 0B4B     		ldr	r3, .L786+16
 3634 0054 9207     		lsls	r2, r2, #30
 3635 0056 1969     		ldr	r1, [r3, #16]
 3636 0058 05D4     		bmi	.L782
 3637 005a 4FF06042 		mov	r2, #-536870912
 3638 005e 9A61     		str	r2, [r3, #24]
 3639 0060 7047     		bx	lr
 3640              	.L776:
 3641 0062 9007     		lsls	r0, r2, #30
 3642 0064 00D5     		bpl	.L785
 3643              	.L782:
 3644 0066 7047     		bx	lr
 3645              	.L785:
ARM GAS  C:\Users\Jay\AppData\Local\Temp\ccrCOBv6.s 			page 63


 3646 0068 054B     		ldr	r3, .L786+16
 3647 006a 064A     		ldr	r2, .L786+20
 3648 006c 9A61     		str	r2, [r3, #24]
 3649 006e 7047     		bx	lr
 3650              	.L787:
 3651              		.align	2
 3652              	.L786:
 3653 0070 00000140 		.word	1073807360
 3654 0074 00040240 		.word	1073873920
 3655 0078 00000000 		.word	.LANCHOR7
 3656 007c 14080240 		.word	1073874964
 3657 0080 00080240 		.word	1073874944
 3658 0084 004000A0 		.word	-1610596352
 3660              		.section	.text.epyx_handler.part.38,"ax",%progbits
 3661              		.align	1
 3662              		.p2align 2,,3
 3663              		.syntax unified
 3664              		.thumb
 3665              		.thumb_func
 3666              		.fpu fpv4-sp-d16
 3668              	epyx_handler.part.38:
 3669              		@ args = 0, pretend = 0, frame = 0
 3670              		@ frame_needed = 0, uses_anonymous_args = 0
 3671              		@ link register save eliminated.
 3672 0000 034A     		ldr	r2, .L792
 3673              	.L789:
 3674 0002 1369     		ldr	r3, [r2, #16]
 3675 0004 DB06     		lsls	r3, r3, #27
 3676 0006 FCD5     		bpl	.L789
 3677 0008 024B     		ldr	r3, .L792+4
 3678 000a 0022     		movs	r2, #0
 3679 000c 1A80     		strh	r2, [r3]	@ movhi
 3680 000e 7047     		bx	lr
 3681              	.L793:
 3682              		.align	2
 3683              	.L792:
 3684 0010 00000140 		.word	1073807360
 3685 0014 00080240 		.word	1073874944
 3687              		.thumb_set comal80_handler.part.54,epyx_handler.part.38
 3688              		.thumb_set ef_launcher_handler.part.51,epyx_handler.part.38
 3689              		.thumb_set zaxxon_handler.part.44,epyx_handler.part.38
 3690              		.section	.text.epyx_handler,"ax",%progbits
 3691              		.align	1
 3692              		.p2align 2,,3
 3693              		.global	epyx_handler
 3694              		.syntax unified
 3695              		.thumb
 3696              		.thumb_func
 3697              		.fpu fpv4-sp-d16
 3699              	epyx_handler:
 3700              		@ args = 0, pretend = 0, frame = 0
 3701              		@ frame_needed = 0, uses_anonymous_args = 0
 3702              		@ link register save eliminated.
 3703 0000 294B     		ldr	r3, .L814
 3704 0002 1A69     		ldr	r2, [r3, #16]
 3705 0004 1007     		lsls	r0, r2, #28
 3706 0006 0DD5     		bpl	.L807
ARM GAS  C:\Users\Jay\AppData\Local\Temp\ccrCOBv6.s 			page 64


 3707 0008 6FF01801 		mvn	r1, #24
 3708 000c 274A     		ldr	r2, .L814+4
 3709 000e 1961     		str	r1, [r3, #16]
 3710 0010 1269     		ldr	r2, [r2, #16]
 3711 0012 03F58033 		add	r3, r3, #65536
 3712 0016 1969     		ldr	r1, [r3, #16]
 3713 0018 C907     		lsls	r1, r1, #31
 3714 001a 04D4     		bmi	.L810
 3715 001c 1B69     		ldr	r3, [r3, #16]
 3716 001e 244B     		ldr	r3, .L814+8
 3717 0020 1B69     		ldr	r3, [r3, #16]
 3718 0022 7047     		bx	lr
 3719              	.L807:
 3720 0024 7047     		bx	lr
 3721              	.L810:
 3722 0026 30B4     		push	{r4, r5}
 3723 0028 92B2     		uxth	r2, r2
 3724 002a 1B69     		ldr	r3, [r3, #16]
 3725 002c DBB2     		uxtb	r3, r3
 3726 002e 5806     		lsls	r0, r3, #25
 3727 0030 13D5     		bpl	.L811
 3728 0032 5907     		lsls	r1, r3, #29
 3729 0034 2BD5     		bpl	.L812
 3730 0036 9B07     		lsls	r3, r3, #30
 3731 0038 21D5     		bpl	.L813
 3732 003a 1E4A     		ldr	r2, .L814+12
 3733 003c 1388     		ldrh	r3, [r2]
 3734 003e 53B1     		cbz	r3, .L794
 3735 0040 013B     		subs	r3, r3, #1
 3736 0042 9BB2     		uxth	r3, r3
 3737 0044 1380     		strh	r3, [r2]	@ movhi
 3738 0046 33B9     		cbnz	r3, .L794
 3739 0048 03F18043 		add	r3, r3, #1073741824
 3740 004c 03F50233 		add	r3, r3, #133120
 3741 0050 4FF46042 		mov	r2, #57344
 3742 0054 9A61     		str	r2, [r3, #24]
 3743              	.L794:
 3744 0056 30BC     		pop	{r4, r5}
 3745 0058 7047     		bx	lr
 3746              	.L811:
 3747 005a 174B     		ldr	r3, .L814+16
 3748 005c 154C     		ldr	r4, .L814+12
 3749 005e 1868     		ldr	r0, [r3]
 3750 0060 1649     		ldr	r1, .L814+20
 3751 0062 134B     		ldr	r3, .L814+8
 3752 0064 C2F30C02 		ubfx	r2, r2, #0, #13
 3753 0068 4FF40075 		mov	r5, #512
 3754 006c 805C     		ldrb	r0, [r0, r2]	@ zero_extendqisi2
 3755 006e 2580     		strh	r5, [r4]	@ movhi
 3756 0070 45F25552 		movw	r2, #21845
 3757 0074 0870     		strb	r0, [r1]
 3758 0076 1A80     		strh	r2, [r3]	@ movhi
 3759              	.L799:
 3760 0078 30BC     		pop	{r4, r5}
 3761 007a FFF7FEBF 		b	epyx_handler.part.38
 3762              	.L813:
 3763 007e 0D49     		ldr	r1, .L814+12
ARM GAS  C:\Users\Jay\AppData\Local\Temp\ccrCOBv6.s 			page 65


 3764 0080 0B4B     		ldr	r3, .L814+8
 3765 0082 0F4A     		ldr	r2, .L814+24
 3766 0084 4FF40070 		mov	r0, #512
 3767 0088 0880     		strh	r0, [r1]	@ movhi
 3768 008a 9A61     		str	r2, [r3, #24]
 3769 008c E3E7     		b	.L794
 3770              	.L812:
 3771 008e 0A4B     		ldr	r3, .L814+16
 3772 0090 0A48     		ldr	r0, .L814+20
 3773 0092 1C68     		ldr	r4, [r3]
 3774 0094 064B     		ldr	r3, .L814+8
 3775 0096 C2F30C02 		ubfx	r2, r2, #0, #13
 3776 009a 45F25551 		movw	r1, #21845
 3777 009e A25C     		ldrb	r2, [r4, r2]	@ zero_extendqisi2
 3778 00a0 0270     		strb	r2, [r0]
 3779 00a2 1980     		strh	r1, [r3]	@ movhi
 3780 00a4 E8E7     		b	.L799
 3781              	.L815:
 3782 00a6 00BF     		.align	2
 3783              	.L814:
 3784 00a8 00000140 		.word	1073807360
 3785 00ac 00040240 		.word	1073873920
 3786 00b0 00080240 		.word	1073874944
 3787 00b4 00000000 		.word	.LANCHOR17
 3788 00b8 00000000 		.word	.LANCHOR7
 3789 00bc 14080240 		.word	1073874964
 3790 00c0 004000A0 		.word	-1610596352
 3792              		.section	.text.c64gs_handler,"ax",%progbits
 3793              		.align	1
 3794              		.p2align 2,,3
 3795              		.global	c64gs_handler
 3796              		.syntax unified
 3797              		.thumb
 3798              		.thumb_func
 3799              		.fpu fpv4-sp-d16
 3801              	c64gs_handler:
 3802              		@ args = 0, pretend = 0, frame = 0
 3803              		@ frame_needed = 0, uses_anonymous_args = 0
 3804              		@ link register save eliminated.
 3805 0000 1C4B     		ldr	r3, .L830
 3806 0002 1A69     		ldr	r2, [r3, #16]
 3807 0004 1207     		lsls	r2, r2, #28
 3808 0006 26D5     		bpl	.L826
 3809 0008 6FF01801 		mvn	r1, #24
 3810 000c 1A4A     		ldr	r2, .L830+4
 3811 000e 1961     		str	r1, [r3, #16]
 3812 0010 1269     		ldr	r2, [r2, #16]
 3813 0012 92B2     		uxth	r2, r2
 3814 0014 1949     		ldr	r1, .L830+8
 3815 0016 0869     		ldr	r0, [r1, #16]
 3816 0018 C007     		lsls	r0, r0, #31
 3817 001a 17D5     		bpl	.L819
 3818 001c 0969     		ldr	r1, [r1, #16]
 3819 001e C9B2     		uxtb	r1, r1
 3820 0020 4806     		lsls	r0, r1, #25
 3821 0022 21D4     		bmi	.L820
 3822 0024 30B4     		push	{r4, r5}
ARM GAS  C:\Users\Jay\AppData\Local\Temp\ccrCOBv6.s 			page 66


 3823 0026 1649     		ldr	r1, .L830+12
 3824 0028 164C     		ldr	r4, .L830+16
 3825 002a 0D68     		ldr	r5, [r1]
 3826 002c 1649     		ldr	r1, .L830+20
 3827 002e C2F30C02 		ubfx	r2, r2, #0, #13
 3828 0032 45F25550 		movw	r0, #21845
 3829 0036 AA5C     		ldrb	r2, [r5, r2]	@ zero_extendqisi2
 3830 0038 2270     		strb	r2, [r4]
 3831 003a 0880     		strh	r0, [r1]	@ movhi
 3832              	.L821:
 3833 003c 1A69     		ldr	r2, [r3, #16]
 3834 003e D206     		lsls	r2, r2, #27
 3835 0040 FCD5     		bpl	.L821
 3836 0042 114B     		ldr	r3, .L830+20
 3837 0044 0022     		movs	r2, #0
 3838 0046 1A80     		strh	r2, [r3]	@ movhi
 3839 0048 30BC     		pop	{r4, r5}
 3840 004a 7047     		bx	lr
 3841              	.L819:
 3842 004c 0B69     		ldr	r3, [r1, #16]
 3843 004e 0E49     		ldr	r1, .L830+20
 3844 0050 9B07     		lsls	r3, r3, #30
 3845 0052 0969     		ldr	r1, [r1, #16]
 3846 0054 00D5     		bpl	.L829
 3847              	.L826:
 3848 0056 7047     		bx	lr
 3849              	.L829:
 3850 0058 02F03F02 		and	r2, r2, #63
 3851 005c 0B49     		ldr	r1, .L830+24
 3852 005e 084B     		ldr	r3, .L830+12
 3853 0060 51F82220 		ldr	r2, [r1, r2, lsl #2]
 3854 0064 1A60     		str	r2, [r3]
 3855 0066 7047     		bx	lr
 3856              	.L820:
 3857 0068 8907     		lsls	r1, r1, #30
 3858 006a F4D4     		bmi	.L826
 3859 006c 044B     		ldr	r3, .L830+12
 3860 006e 084A     		ldr	r2, .L830+28
 3861 0070 1A60     		str	r2, [r3]
 3862 0072 7047     		bx	lr
 3863              	.L831:
 3864              		.align	2
 3865              	.L830:
 3866 0074 00000140 		.word	1073807360
 3867 0078 00040240 		.word	1073873920
 3868 007c 00000240 		.word	1073872896
 3869 0080 00000000 		.word	.LANCHOR7
 3870 0084 14080240 		.word	1073874964
 3871 0088 00080240 		.word	1073874944
 3872 008c 00000000 		.word	.LANCHOR18
 3873 0090 00000000 		.word	dat_buffer
 3875              		.section	.text.dinamic_handler,"ax",%progbits
 3876              		.align	1
 3877              		.p2align 2,,3
 3878              		.global	dinamic_handler
 3879              		.syntax unified
 3880              		.thumb
ARM GAS  C:\Users\Jay\AppData\Local\Temp\ccrCOBv6.s 			page 67


 3881              		.thumb_func
 3882              		.fpu fpv4-sp-d16
 3884              	dinamic_handler:
 3885              		@ args = 0, pretend = 0, frame = 0
 3886              		@ frame_needed = 0, uses_anonymous_args = 0
 3887              		@ link register save eliminated.
 3888 0000 1A4B     		ldr	r3, .L845
 3889 0002 1A69     		ldr	r2, [r3, #16]
 3890 0004 1207     		lsls	r2, r2, #28
 3891 0006 21D5     		bpl	.L842
 3892 0008 6FF01801 		mvn	r1, #24
 3893 000c 184A     		ldr	r2, .L845+4
 3894 000e 1961     		str	r1, [r3, #16]
 3895 0010 1269     		ldr	r2, [r2, #16]
 3896 0012 1849     		ldr	r1, .L845+8
 3897 0014 0869     		ldr	r0, [r1, #16]
 3898 0016 C007     		lsls	r0, r0, #31
 3899 0018 19D5     		bpl	.L835
 3900 001a 92B2     		uxth	r2, r2
 3901 001c 0969     		ldr	r1, [r1, #16]
 3902 001e C9B2     		uxtb	r1, r1
 3903 0020 4806     		lsls	r0, r1, #25
 3904 0022 18D4     		bmi	.L836
 3905 0024 30B4     		push	{r4, r5}
 3906 0026 1449     		ldr	r1, .L845+12
 3907 0028 144C     		ldr	r4, .L845+16
 3908 002a 0D68     		ldr	r5, [r1]
 3909 002c 1449     		ldr	r1, .L845+20
 3910 002e C2F30C02 		ubfx	r2, r2, #0, #13
 3911 0032 45F25550 		movw	r0, #21845
 3912 0036 AA5C     		ldrb	r2, [r5, r2]	@ zero_extendqisi2
 3913 0038 2270     		strb	r2, [r4]
 3914 003a 0880     		strh	r0, [r1]	@ movhi
 3915              	.L837:
 3916 003c 1A69     		ldr	r2, [r3, #16]
 3917 003e D206     		lsls	r2, r2, #27
 3918 0040 FCD5     		bpl	.L837
 3919 0042 0F4B     		ldr	r3, .L845+20
 3920 0044 0022     		movs	r2, #0
 3921 0046 1A80     		strh	r2, [r3]	@ movhi
 3922 0048 30BC     		pop	{r4, r5}
 3923 004a 7047     		bx	lr
 3924              	.L842:
 3925 004c 7047     		bx	lr
 3926              	.L835:
 3927 004e 0B69     		ldr	r3, [r1, #16]
 3928 0050 0B4B     		ldr	r3, .L845+20
 3929 0052 1B69     		ldr	r3, [r3, #16]
 3930 0054 7047     		bx	lr
 3931              	.L836:
 3932 0056 8907     		lsls	r1, r1, #30
 3933 0058 F8D4     		bmi	.L842
 3934 005a 02F03F02 		and	r2, r2, #63
 3935 005e 0949     		ldr	r1, .L845+24
 3936 0060 054B     		ldr	r3, .L845+12
 3937 0062 51F82220 		ldr	r2, [r1, r2, lsl #2]
 3938 0066 1A60     		str	r2, [r3]
ARM GAS  C:\Users\Jay\AppData\Local\Temp\ccrCOBv6.s 			page 68


 3939 0068 7047     		bx	lr
 3940              	.L846:
 3941 006a 00BF     		.align	2
 3942              	.L845:
 3943 006c 00000140 		.word	1073807360
 3944 0070 00040240 		.word	1073873920
 3945 0074 00000240 		.word	1073872896
 3946 0078 00000000 		.word	.LANCHOR7
 3947 007c 14080240 		.word	1073874964
 3948 0080 00080240 		.word	1073874944
 3949 0084 00000000 		.word	.LANCHOR18
 3951              		.section	.text.zaxxon_handler,"ax",%progbits
 3952              		.align	1
 3953              		.p2align 2,,3
 3954              		.global	zaxxon_handler
 3955              		.syntax unified
 3956              		.thumb
 3957              		.thumb_func
 3958              		.fpu fpv4-sp-d16
 3960              	zaxxon_handler:
 3961              		@ args = 0, pretend = 0, frame = 0
 3962              		@ frame_needed = 0, uses_anonymous_args = 0
 3963              		@ link register save eliminated.
 3964 0000 1E4B     		ldr	r3, .L860
 3965 0002 1A69     		ldr	r2, [r3, #16]
 3966 0004 1107     		lsls	r1, r2, #28
 3967 0006 0DD5     		bpl	.L855
 3968 0008 6FF01801 		mvn	r1, #24
 3969 000c 1C4A     		ldr	r2, .L860+4
 3970 000e 1961     		str	r1, [r3, #16]
 3971 0010 1169     		ldr	r1, [r2, #16]
 3972 0012 03F58033 		add	r3, r3, #65536
 3973 0016 1A69     		ldr	r2, [r3, #16]
 3974 0018 D207     		lsls	r2, r2, #31
 3975 001a 04D4     		bmi	.L858
 3976 001c 1B69     		ldr	r3, [r3, #16]
 3977 001e 194B     		ldr	r3, .L860+8
 3978 0020 1B69     		ldr	r3, [r3, #16]
 3979 0022 7047     		bx	lr
 3980              	.L855:
 3981 0024 7047     		bx	lr
 3982              	.L858:
 3983 0026 70B4     		push	{r4, r5, r6}
 3984 0028 8AB2     		uxth	r2, r1
 3985 002a 1B69     		ldr	r3, [r3, #16]
 3986 002c 5806     		lsls	r0, r3, #25
 3987 002e 11D5     		bpl	.L859
 3988 0030 1B06     		lsls	r3, r3, #24
 3989 0032 0DD4     		bmi	.L847
 3990 0034 144B     		ldr	r3, .L860+12
 3991 0036 1548     		ldr	r0, .L860+16
 3992 0038 1C68     		ldr	r4, [r3]
 3993 003a 124B     		ldr	r3, .L860+8
 3994 003c C2F30D02 		ubfx	r2, r2, #0, #14
 3995 0040 45F25551 		movw	r1, #21845
 3996 0044 A25C     		ldrb	r2, [r4, r2]	@ zero_extendqisi2
 3997 0046 0270     		strb	r2, [r0]
ARM GAS  C:\Users\Jay\AppData\Local\Temp\ccrCOBv6.s 			page 69


 3998 0048 1980     		strh	r1, [r3]	@ movhi
 3999              	.L852:
 4000 004a 70BC     		pop	{r4, r5, r6}
 4001 004c FFF7FEBF 		b	zaxxon_handler.part.44
 4002              	.L847:
 4003 0050 70BC     		pop	{r4, r5, r6}
 4004 0052 7047     		bx	lr
 4005              	.L859:
 4006 0054 0E4B     		ldr	r3, .L860+20
 4007 0056 0F4E     		ldr	r6, .L860+24
 4008 0058 1B68     		ldr	r3, [r3]
 4009 005a 0C4C     		ldr	r4, .L860+16
 4010 005c 0948     		ldr	r0, .L860+8
 4011 005e C2F30B02 		ubfx	r2, r2, #0, #12
 4012 0062 C1F30031 		ubfx	r1, r1, #12, #1
 4013 0066 9D5C     		ldrb	r5, [r3, r2]	@ zero_extendqisi2
 4014 0068 074B     		ldr	r3, .L860+12
 4015 006a 56F82120 		ldr	r2, [r6, r1, lsl #2]
 4016 006e 2570     		strb	r5, [r4]
 4017 0070 45F25551 		movw	r1, #21845
 4018 0074 0180     		strh	r1, [r0]	@ movhi
 4019 0076 1A60     		str	r2, [r3]
 4020 0078 E7E7     		b	.L852
 4021              	.L861:
 4022 007a 00BF     		.align	2
 4023              	.L860:
 4024 007c 00000140 		.word	1073807360
 4025 0080 00040240 		.word	1073873920
 4026 0084 00080240 		.word	1073874944
 4027 0088 00000000 		.word	.LANCHOR7
 4028 008c 14080240 		.word	1073874964
 4029 0090 00000000 		.word	.LANCHOR6
 4030 0094 00000000 		.word	.LANCHOR18
 4032              		.section	.text.magic_desk_handler,"ax",%progbits
 4033              		.align	1
 4034              		.p2align 2,,3
 4035              		.global	magic_desk_handler
 4036              		.syntax unified
 4037              		.thumb
 4038              		.thumb_func
 4039              		.fpu fpv4-sp-d16
 4041              	magic_desk_handler:
 4042              		@ args = 0, pretend = 0, frame = 0
 4043              		@ frame_needed = 0, uses_anonymous_args = 0
 4044              		@ link register save eliminated.
 4045 0000 1D4B     		ldr	r3, .L875
 4046 0002 1A69     		ldr	r2, [r3, #16]
 4047 0004 1207     		lsls	r2, r2, #28
 4048 0006 32D5     		bpl	.L872
 4049 0008 6FF01801 		mvn	r1, #24
 4050 000c 1B4A     		ldr	r2, .L875+4
 4051 000e 1961     		str	r1, [r3, #16]
 4052 0010 1269     		ldr	r2, [r2, #16]
 4053 0012 92B2     		uxth	r2, r2
 4054 0014 1A49     		ldr	r1, .L875+8
 4055 0016 0869     		ldr	r0, [r1, #16]
 4056 0018 C007     		lsls	r0, r0, #31
ARM GAS  C:\Users\Jay\AppData\Local\Temp\ccrCOBv6.s 			page 70


 4057 001a 16D5     		bpl	.L865
 4058 001c 0969     		ldr	r1, [r1, #16]
 4059 001e 4906     		lsls	r1, r1, #25
 4060 0020 25D4     		bmi	.L872
 4061 0022 30B4     		push	{r4, r5}
 4062 0024 1749     		ldr	r1, .L875+12
 4063 0026 184C     		ldr	r4, .L875+16
 4064 0028 0D68     		ldr	r5, [r1]
 4065 002a 1849     		ldr	r1, .L875+20
 4066 002c C2F30C02 		ubfx	r2, r2, #0, #13
 4067 0030 45F25550 		movw	r0, #21845
 4068 0034 AA5C     		ldrb	r2, [r5, r2]	@ zero_extendqisi2
 4069 0036 2270     		strb	r2, [r4]
 4070 0038 0880     		strh	r0, [r1]	@ movhi
 4071              	.L867:
 4072 003a 1A69     		ldr	r2, [r3, #16]
 4073 003c D006     		lsls	r0, r2, #27
 4074 003e FCD5     		bpl	.L867
 4075 0040 124B     		ldr	r3, .L875+20
 4076 0042 0022     		movs	r2, #0
 4077 0044 1A80     		strh	r2, [r3]	@ movhi
 4078 0046 30BC     		pop	{r4, r5}
 4079 0048 7047     		bx	lr
 4080              	.L865:
 4081 004a 0969     		ldr	r1, [r1, #16]
 4082 004c 0F4B     		ldr	r3, .L875+20
 4083 004e 8907     		lsls	r1, r1, #30
 4084 0050 1869     		ldr	r0, [r3, #16]
 4085 0052 0CD4     		bmi	.L872
 4086 0054 B2F55E4F 		cmp	r2, #56832
 4087 0058 09D1     		bne	.L872
 4088 005a 0206     		lsls	r2, r0, #24
 4089 005c 08D4     		bmi	.L868
 4090 005e 00F03F00 		and	r0, r0, #63
 4091 0062 0B4A     		ldr	r2, .L875+24
 4092 0064 074B     		ldr	r3, .L875+12
 4093 0066 52F82020 		ldr	r2, [r2, r0, lsl #2]
 4094 006a 1A60     		str	r2, [r3]
 4095 006c 7047     		bx	lr
 4096              	.L872:
 4097 006e 7047     		bx	lr
 4098              	.L868:
 4099 0070 4FF46042 		mov	r2, #57344
 4100 0074 9A61     		str	r2, [r3, #24]
 4101 0076 7047     		bx	lr
 4102              	.L876:
 4103              		.align	2
 4104              	.L875:
 4105 0078 00000140 		.word	1073807360
 4106 007c 00040240 		.word	1073873920
 4107 0080 00000240 		.word	1073872896
 4108 0084 00000000 		.word	.LANCHOR7
 4109 0088 14080240 		.word	1073874964
 4110 008c 00080240 		.word	1073874944
 4111 0090 00000000 		.word	.LANCHOR18
 4113              		.section	.text.ef_launcher_handler,"ax",%progbits
 4114              		.align	1
ARM GAS  C:\Users\Jay\AppData\Local\Temp\ccrCOBv6.s 			page 71


 4115              		.p2align 2,,3
 4116              		.global	ef_launcher_handler
 4117              		.syntax unified
 4118              		.thumb
 4119              		.thumb_func
 4120              		.fpu fpv4-sp-d16
 4122              	ef_launcher_handler:
 4123              		@ args = 0, pretend = 0, frame = 0
 4124              		@ frame_needed = 0, uses_anonymous_args = 0
 4125              		@ link register save eliminated.
 4126 0000 424B     		ldr	r3, .L896
 4127 0002 1A69     		ldr	r2, [r3, #16]
 4128 0004 1207     		lsls	r2, r2, #28
 4129 0006 35D5     		bpl	.L893
 4130 0008 6FF01801 		mvn	r1, #24
 4131 000c 404A     		ldr	r2, .L896+4
 4132 000e 30B4     		push	{r4, r5}
 4133 0010 1961     		str	r1, [r3, #16]
 4134 0012 1169     		ldr	r1, [r2, #16]
 4135 0014 89B2     		uxth	r1, r1
 4136 0016 03F58033 		add	r3, r3, #65536
 4137 001a 1A69     		ldr	r2, [r3, #16]
 4138 001c D007     		lsls	r0, r2, #31
 4139 001e 13D5     		bpl	.L880
 4140 0020 1B69     		ldr	r3, [r3, #16]
 4141 0022 DBB2     		uxtb	r3, r3
 4142 0024 03F0C002 		and	r2, r3, #192
 4143 0028 C02A     		cmp	r2, #192
 4144 002a 2BD0     		beq	.L881
 4145 002c 394B     		ldr	r3, .L896+8
 4146 002e 3A4C     		ldr	r4, .L896+12
 4147 0030 1D68     		ldr	r5, [r3]
 4148 0032 3A4A     		ldr	r2, .L896+16
 4149 0034 C1F30D03 		ubfx	r3, r1, #0, #14
 4150 0038 45F25550 		movw	r0, #21845
 4151 003c EB5C     		ldrb	r3, [r5, r3]	@ zero_extendqisi2
 4152 003e 2370     		strb	r3, [r4]
 4153 0040 1080     		strh	r0, [r2]	@ movhi
 4154              	.L882:
 4155 0042 30BC     		pop	{r4, r5}
 4156 0044 FFF7FEBF 		b	ef_launcher_handler.part.51
 4157              	.L880:
 4158 0048 1B69     		ldr	r3, [r3, #16]
 4159 004a DBB2     		uxtb	r3, r3
 4160 004c 3348     		ldr	r0, .L896+16
 4161 004e 0269     		ldr	r2, [r0, #16]
 4162 0050 13F00204 		ands	r4, r3, #2
 4163 0054 D2B2     		uxtb	r2, r2
 4164 0056 0ED1     		bne	.L888
 4165 0058 C9B2     		uxtb	r1, r1
 4166 005a 0229     		cmp	r1, #2
 4167 005c 46D0     		beq	.L889
 4168 005e 0A29     		cmp	r1, #10
 4169 0060 3FD0     		beq	.L890
 4170 0062 69B9     		cbnz	r1, .L877
 4171 0064 02F03F02 		and	r2, r2, #63
 4172 0068 2D49     		ldr	r1, .L896+20
ARM GAS  C:\Users\Jay\AppData\Local\Temp\ccrCOBv6.s 			page 72


 4173 006a 2A4B     		ldr	r3, .L896+8
 4174 006c 51F82220 		ldr	r2, [r1, r2, lsl #2]
 4175 0070 1A60     		str	r2, [r3]
 4176 0072 05E0     		b	.L877
 4177              	.L893:
 4178 0074 7047     		bx	lr
 4179              	.L888:
 4180 0076 5B07     		lsls	r3, r3, #29
 4181 0078 02D4     		bmi	.L877
 4182 007a CBB2     		uxtb	r3, r1
 4183 007c 2949     		ldr	r1, .L896+24
 4184 007e CA54     		strb	r2, [r1, r3]
 4185              	.L877:
 4186 0080 30BC     		pop	{r4, r5}
 4187 0082 7047     		bx	lr
 4188              	.L881:
 4189 0084 13F00202 		ands	r2, r3, #2
 4190 0088 13D1     		bne	.L883
 4191 008a 4DF60963 		movw	r3, #56841
 4192 008e 9942     		cmp	r1, r3
 4193 0090 1BD0     		beq	.L885
 4194 0092 4DF60A63 		movw	r3, #56842
 4195 0096 9942     		cmp	r1, r3
 4196 0098 F2D1     		bne	.L877
 4197 009a 234B     		ldr	r3, .L896+28
 4198 009c 1E4D     		ldr	r5, .L896+12
 4199 009e 1B78     		ldrb	r3, [r3]	@ zero_extendqisi2
 4200 00a0 1E48     		ldr	r0, .L896+16
 4201 00a2 2249     		ldr	r1, .L896+32
 4202 00a4 DBB2     		uxtb	r3, r3
 4203 00a6 45F25554 		movw	r4, #21845
 4204 00aa 2B70     		strb	r3, [r5]
 4205 00ac 0480     		strh	r4, [r0]	@ movhi
 4206 00ae 0A70     		strb	r2, [r1]
 4207 00b0 C7E7     		b	.L882
 4208              	.L883:
 4209 00b2 5A07     		lsls	r2, r3, #29
 4210 00b4 E4D4     		bmi	.L877
 4211 00b6 CBB2     		uxtb	r3, r1
 4212 00b8 1A49     		ldr	r1, .L896+24
 4213 00ba 1748     		ldr	r0, .L896+12
 4214 00bc CB5C     		ldrb	r3, [r1, r3]	@ zero_extendqisi2
 4215 00be 174A     		ldr	r2, .L896+16
 4216 00c0 0370     		strb	r3, [r0]
 4217 00c2 45F25553 		movw	r3, #21845
 4218 00c6 1380     		strh	r3, [r2]	@ movhi
 4219 00c8 BBE7     		b	.L882
 4220              	.L885:
 4221 00ca 194A     		ldr	r2, .L896+36
 4222 00cc 174B     		ldr	r3, .L896+32
 4223 00ce 1248     		ldr	r0, .L896+12
 4224 00d0 1B78     		ldrb	r3, [r3]	@ zero_extendqisi2
 4225 00d2 1178     		ldrb	r1, [r2]	@ zero_extendqisi2
 4226 00d4 114A     		ldr	r2, .L896+16
 4227 00d6 0B43     		orrs	r3, r3, r1
 4228 00d8 45F25551 		movw	r1, #21845
 4229 00dc 0370     		strb	r3, [r0]
ARM GAS  C:\Users\Jay\AppData\Local\Temp\ccrCOBv6.s 			page 73


 4230 00de 1180     		strh	r1, [r2]	@ movhi
 4231 00e0 AFE7     		b	.L882
 4232              	.L890:
 4233 00e2 1449     		ldr	r1, .L896+40
 4234 00e4 124B     		ldr	r3, .L896+36
 4235 00e6 0A70     		strb	r2, [r1]
 4236 00e8 1C70     		strb	r4, [r3]
 4237 00ea C9E7     		b	.L877
 4238              	.L889:
 4239 00ec 5109     		lsrs	r1, r2, #5
 4240 00ee 02F00204 		and	r4, r2, #2
 4241 00f2 C2F38003 		ubfx	r3, r2, #2, #1
 4242 00f6 01F00401 		and	r1, r1, #4
 4243 00fa 23EA0202 		bic	r2, r3, r2
 4244 00fe 2143     		orrs	r1, r1, r4
 4245 0100 0A43     		orrs	r2, r2, r1
 4246 0102 0D4B     		ldr	r3, .L896+44
 4247 0104 53F82230 		ldr	r3, [r3, r2, lsl #2]
 4248 0108 8361     		str	r3, [r0, #24]
 4249 010a B9E7     		b	.L877
 4250              	.L897:
 4251              		.align	2
 4252              	.L896:
 4253 010c 00000140 		.word	1073807360
 4254 0110 00040240 		.word	1073873920
 4255 0114 00000000 		.word	.LANCHOR7
 4256 0118 14080240 		.word	1073874964
 4257 011c 00080240 		.word	1073874944
 4258 0120 00000000 		.word	.LANCHOR18
 4259 0124 00000000 		.word	crt_ram_buf
 4260 0128 00000000 		.word	.LANCHOR11
 4261 012c 00000000 		.word	.LANCHOR10
 4262 0130 00000000 		.word	.LANCHOR12
 4263 0134 00000000 		.word	.LANCHOR13
 4264 0138 00000000 		.word	.LANCHOR19
 4266              		.section	.text.comal80_handler,"ax",%progbits
 4267              		.align	1
 4268              		.p2align 2,,3
 4269              		.global	comal80_handler
 4270              		.syntax unified
 4271              		.thumb
 4272              		.thumb_func
 4273              		.fpu fpv4-sp-d16
 4275              	comal80_handler:
 4276              		@ args = 0, pretend = 0, frame = 0
 4277              		@ frame_needed = 0, uses_anonymous_args = 0
 4278              		@ link register save eliminated.
 4279 0000 1D4B     		ldr	r3, .L911
 4280 0002 1A69     		ldr	r2, [r3, #16]
 4281 0004 1207     		lsls	r2, r2, #28
 4282 0006 35D5     		bpl	.L908
 4283 0008 6FF01801 		mvn	r1, #24
 4284 000c 1B4A     		ldr	r2, .L911+4
 4285 000e 10B4     		push	{r4}
 4286 0010 1961     		str	r1, [r3, #16]
 4287 0012 1169     		ldr	r1, [r2, #16]
 4288 0014 03F58033 		add	r3, r3, #65536
ARM GAS  C:\Users\Jay\AppData\Local\Temp\ccrCOBv6.s 			page 74


 4289 0018 1A69     		ldr	r2, [r3, #16]
 4290 001a D007     		lsls	r0, r2, #31
 4291 001c 13D5     		bpl	.L901
 4292 001e 1B69     		ldr	r3, [r3, #16]
 4293 0020 03F0C003 		and	r3, r3, #192
 4294 0024 C02B     		cmp	r3, #192
 4295 0026 22D0     		beq	.L898
 4296 0028 154B     		ldr	r3, .L911+8
 4297 002a 1648     		ldr	r0, .L911+12
 4298 002c 1C68     		ldr	r4, [r3]
 4299 002e 164B     		ldr	r3, .L911+16
 4300 0030 C1F30D01 		ubfx	r1, r1, #0, #14
 4301 0034 45F25552 		movw	r2, #21845
 4302 0038 615C     		ldrb	r1, [r4, r1]	@ zero_extendqisi2
 4303 003a 0170     		strb	r1, [r0]
 4304 003c 5DF8044B 		ldr	r4, [sp], #4
 4305 0040 1A80     		strh	r2, [r3]	@ movhi
 4306 0042 FFF7FEBF 		b	comal80_handler.part.54
 4307              	.L901:
 4308 0046 1969     		ldr	r1, [r3, #16]
 4309 0048 0F4A     		ldr	r2, .L911+16
 4310 004a 8907     		lsls	r1, r1, #30
 4311 004c 1369     		ldr	r3, [r2, #16]
 4312 004e 0ED4     		bmi	.L898
 4313 0050 DBB2     		uxtb	r3, r3
 4314 0052 03F00704 		and	r4, r3, #7
 4315 0056 0D48     		ldr	r0, .L911+20
 4316 0058 0949     		ldr	r1, .L911+8
 4317 005a 50F82400 		ldr	r0, [r0, r4, lsl #2]
 4318 005e 0860     		str	r0, [r1]
 4319 0060 5B06     		lsls	r3, r3, #25
 4320 0062 4CBF     		ite	mi
 4321 0064 4FF46043 		movmi	r3, #57344
 4322 0068 4FF06043 		movpl	r3, #-536870912
 4323 006c 9361     		str	r3, [r2, #24]
 4324              	.L898:
 4325 006e 5DF8044B 		ldr	r4, [sp], #4
 4326 0072 7047     		bx	lr
 4327              	.L908:
 4328 0074 7047     		bx	lr
 4329              	.L912:
 4330 0076 00BF     		.align	2
 4331              	.L911:
 4332 0078 00000140 		.word	1073807360
 4333 007c 00040240 		.word	1073873920
 4334 0080 00000000 		.word	.LANCHOR7
 4335 0084 14080240 		.word	1073874964
 4336 0088 00080240 		.word	1073874944
 4337 008c 00000000 		.word	.LANCHOR18
 4339              		.section	.text.to_petscii_pad,"ax",%progbits
 4340              		.align	1
 4341              		.p2align 2,,3
 4342              		.syntax unified
 4343              		.thumb
 4344              		.thumb_func
 4345              		.fpu fpv4-sp-d16
 4347              	to_petscii_pad:
ARM GAS  C:\Users\Jay\AppData\Local\Temp\ccrCOBv6.s 			page 75


 4348              		@ args = 0, pretend = 0, frame = 0
 4349              		@ frame_needed = 0, uses_anonymous_args = 0
 4350              		@ link register save eliminated.
 4351 0000 531E     		subs	r3, r2, #1
 4352 0002 DBB2     		uxtb	r3, r3
 4353 0004 0133     		adds	r3, r3, #1
 4354 0006 70B4     		push	{r4, r5, r6}
 4355 0008 0246     		mov	r2, r0
 4356 000a 2026     		movs	r6, #32
 4357 000c 1844     		add	r0, r0, r3
 4358 000e 0DE0     		b	.L919
 4359              	.L924:
 4360 0010 A3F16104 		sub	r4, r3, #97
 4361 0014 192D     		cmp	r5, #25
 4362 0016 E4B2     		uxtb	r4, r4
 4363 0018 01F10101 		add	r1, r1, #1
 4364 001c 03F12005 		add	r5, r3, #32
 4365 0020 11D8     		bhi	.L915
 4366 0022 EBB2     		uxtb	r3, r5
 4367              	.L916:
 4368 0024 9042     		cmp	r0, r2
 4369 0026 02F8013C 		strb	r3, [r2, #-1]
 4370 002a 09D0     		beq	.L923
 4371              	.L919:
 4372 002c 0B78     		ldrb	r3, [r1]	@ zero_extendqisi2
 4373 002e 0132     		adds	r2, r2, #1
 4374 0030 A3F14105 		sub	r5, r3, #65
 4375 0034 002B     		cmp	r3, #0
 4376 0036 EBD1     		bne	.L924
 4377 0038 9042     		cmp	r0, r2
 4378 003a 02F8016C 		strb	r6, [r2, #-1]
 4379 003e F5D1     		bne	.L919
 4380              	.L923:
 4381 0040 0846     		mov	r0, r1
 4382 0042 70BC     		pop	{r4, r5, r6}
 4383 0044 7047     		bx	lr
 4384              	.L915:
 4385 0046 192C     		cmp	r4, #25
 4386 0048 A3F12004 		sub	r4, r3, #32
 4387 004c 03D9     		bls	.L925
 4388 004e 5F2B     		cmp	r3, #95
 4389 0050 08BF     		it	eq
 4390 0052 A423     		moveq	r3, #164
 4391 0054 E6E7     		b	.L916
 4392              	.L925:
 4393 0056 E3B2     		uxtb	r3, r4
 4394 0058 E4E7     		b	.L916
 4396 005a 00BF     		.section	.text.options_add_text_element,"ax",%progbits
 4397              		.align	1
 4398              		.p2align 2,,3
 4399              		.syntax unified
 4400              		.thumb
 4401              		.thumb_func
 4402              		.fpu fpv4-sp-d16
 4404              	options_add_text_element:
 4405              		@ args = 0, pretend = 0, frame = 0
 4406              		@ frame_needed = 0, uses_anonymous_args = 0
ARM GAS  C:\Users\Jay\AppData\Local\Temp\ccrCOBv6.s 			page 76


 4407 0000 F8B5     		push	{r3, r4, r5, r6, r7, lr}
 4408 0002 457F     		ldrb	r5, [r0, #29]	@ zero_extendqisi2
 4409 0004 162D     		cmp	r5, #22
 4410 0006 1CD0     		beq	.L927
 4411 0008 05EB4503 		add	r3, r5, r5, lsl #1
 4412 000c 134F     		ldr	r7, .L934
 4413 000e 6E1C     		adds	r6, r5, #1
 4414 0010 1B01     		lsls	r3, r3, #4
 4415 0012 F6B2     		uxtb	r6, r6
 4416 0014 DC19     		adds	r4, r3, r7
 4417 0016 F1B1     		cbz	r1, .L929
 4418              	.L933:
 4419 0018 4FF0200C 		mov	ip, #32
 4420 001c 03F807C0 		strb	ip, [r3, r7]
 4421 0020 037F     		ldrb	r3, [r0, #28]	@ zero_extendqisi2
 4422 0022 162B     		cmp	r3, #22
 4423 0024 0BD0     		beq	.L932
 4424              	.L930:
 4425 0026 A162     		str	r1, [r4, #40]
 4426 0028 1146     		mov	r1, r2
 4427 002a 4677     		strb	r6, [r0, #29]
 4428 002c 2422     		movs	r2, #36
 4429 002e 601C     		adds	r0, r4, #1
 4430 0030 FFF7FEFF 		bl	to_petscii_pad
 4431 0034 2023     		movs	r3, #32
 4432 0036 84F82530 		strb	r3, [r4, #37]
 4433 003a 2046     		mov	r0, r4
 4434 003c F8BD     		pop	{r3, r4, r5, r6, r7, pc}
 4435              	.L932:
 4436 003e 0577     		strb	r5, [r0, #28]
 4437 0040 F1E7     		b	.L930
 4438              	.L927:
 4439 0042 1523     		movs	r3, #21
 4440 0044 054F     		ldr	r7, .L934
 4441 0046 4377     		strb	r3, [r0, #29]
 4442 0048 2E46     		mov	r6, r5
 4443 004a 1D46     		mov	r5, r3
 4444 004c 4FF47C73 		mov	r3, #1008
 4445 0050 DC19     		adds	r4, r3, r7
 4446 0052 0029     		cmp	r1, #0
 4447 0054 E0D1     		bne	.L933
 4448              	.L929:
 4449 0056 E025     		movs	r5, #224
 4450 0058 DD55     		strb	r5, [r3, r7]
 4451 005a E4E7     		b	.L930
 4452              	.L935:
 4453              		.align	2
 4454              	.L934:
 4455 005c 00200100 		.word	scratch_buf+8192
 4457              		.section	.text.options_add_text_block,"ax",%progbits
 4458              		.align	1
 4459              		.p2align 2,,3
 4460              		.syntax unified
 4461              		.thumb
 4462              		.thumb_func
 4463              		.fpu fpv4-sp-d16
 4465              	options_add_text_block:
ARM GAS  C:\Users\Jay\AppData\Local\Temp\ccrCOBv6.s 			page 77


 4466              		@ args = 0, pretend = 0, frame = 0
 4467              		@ frame_needed = 0, uses_anonymous_args = 0
 4468 0000 2DE9F843 		push	{r3, r4, r5, r6, r7, r8, r9, lr}
 4469 0004 DFF85490 		ldr	r9, .L942+4
 4470 0008 0646     		mov	r6, r0
 4471 000a 4FF0E008 		mov	r8, #224
 4472 000e 0027     		movs	r7, #0
 4473              	.L938:
 4474 0010 737F     		ldrb	r3, [r6, #29]	@ zero_extendqisi2
 4475 0012 03EB4304 		add	r4, r3, r3, lsl #1
 4476 0016 162B     		cmp	r3, #22
 4477 0018 14BF     		ite	ne
 4478 001a 2401     		lslne	r4, r4, #4
 4479 001c 4FF47C74 		moveq	r4, #1008
 4480 0020 03F10102 		add	r2, r3, #1
 4481 0024 09EB0405 		add	r5, r9, r4
 4482 0028 18BF     		it	ne
 4483 002a D3B2     		uxtbne	r3, r2
 4484 002c 09F80480 		strb	r8, [r9, r4]
 4485 0030 2422     		movs	r2, #36
 4486 0032 AF62     		str	r7, [r5, #40]
 4487 0034 681C     		adds	r0, r5, #1
 4488 0036 7377     		strb	r3, [r6, #29]
 4489 0038 FFF7FEFF 		bl	to_petscii_pad
 4490 003c 2023     		movs	r3, #32
 4491 003e 85F82530 		strb	r3, [r5, #37]
 4492 0042 0378     		ldrb	r3, [r0]	@ zero_extendqisi2
 4493 0044 0146     		mov	r1, r0
 4494 0046 002B     		cmp	r3, #0
 4495 0048 E2D1     		bne	.L938
 4496 004a 1946     		mov	r1, r3
 4497 004c 3046     		mov	r0, r6
 4498 004e 024A     		ldr	r2, .L942
 4499 0050 BDE8F843 		pop	{r3, r4, r5, r6, r7, r8, r9, lr}
 4500 0054 FFF7FEBF 		b	options_add_text_element
 4501              	.L943:
 4502              		.align	2
 4503              	.L942:
 4504 0058 00000000 		.word	.LC14
 4505 005c 00200100 		.word	scratch_buf+8192
 4507              		.section	.text.build_options,"ax",%progbits
 4508              		.align	1
 4509              		.p2align 2,,3
 4510              		.syntax unified
 4511              		.thumb
 4512              		.thumb_func
 4513              		.fpu fpv4-sp-d16
 4515              	build_options:
 4516              		@ args = 0, pretend = 0, frame = 0
 4517              		@ frame_needed = 0, uses_anonymous_args = 0
 4518 0000 114B     		ldr	r3, .L949
 4519 0002 1A68     		ldr	r2, [r3]
 4520 0004 70B5     		push	{r4, r5, r6, lr}
 4521 0006 0646     		mov	r6, r0
 4522 0008 0C46     		mov	r4, r1
 4523 000a 9AB1     		cbz	r2, .L948
 4524              	.L945:
ARM GAS  C:\Users\Jay\AppData\Local\Temp\ccrCOBv6.s 			page 78


 4525 000c 0F4A     		ldr	r2, .L949+4
 4526 000e 0E48     		ldr	r0, .L949
 4527 0010 1268     		ldr	r2, [r2]
 4528 0012 9E61     		str	r6, [r3, #24]
 4529 0014 9A42     		cmp	r2, r3
 4530 0016 4FF01605 		mov	r5, #22
 4531 001a 18BF     		it	ne
 4532 001c 5A61     		strne	r2, [r3, #20]
 4533 001e 9D83     		strh	r5, [r3, #28]	@ movhi
 4534 0020 0B4A     		ldr	r2, .L949+8
 4535 0022 0021     		movs	r1, #0
 4536 0024 FFF7FEFF 		bl	options_add_text_element
 4537 0028 2146     		mov	r1, r4
 4538 002a 0748     		ldr	r0, .L949
 4539 002c FFF7FEFF 		bl	options_add_text_block
 4540 0030 0548     		ldr	r0, .L949
 4541 0032 70BD     		pop	{r4, r5, r6, pc}
 4542              	.L948:
 4543 0034 0749     		ldr	r1, .L949+12
 4544 0036 084A     		ldr	r2, .L949+16
 4545 0038 0848     		ldr	r0, .L949+20
 4546 003a 1960     		str	r1, [r3]
 4547 003c 0849     		ldr	r1, .L949+24
 4548 003e C3E90102 		strd	r0, r2, [r3, #4]
 4549 0042 C3E90321 		strd	r2, r1, [r3, #12]
 4550 0046 E1E7     		b	.L945
 4551              	.L950:
 4552              		.align	2
 4553              	.L949:
 4554 0048 00000000 		.word	.LANCHOR20
 4555 004c 00000000 		.word	.LANCHOR14
 4556 0050 00000000 		.word	.LC14
 4557 0054 00000000 		.word	options_dir
 4558 0058 00000000 		.word	options_prev_next_page
 4559 005c 00000000 		.word	options_dir_up
 4560 0060 00000000 		.word	options_select
 4562              		.section	.text.handle_file_options,"ax",%progbits
 4563              		.align	1
 4564              		.p2align 2,,3
 4565              		.syntax unified
 4566              		.thumb
 4567              		.thumb_func
 4568              		.fpu fpv4-sp-d16
 4570              	handle_file_options:
 4571              		@ args = 0, pretend = 0, frame = 0
 4572              		@ frame_needed = 0, uses_anonymous_args = 0
 4573 0000 0B46     		mov	r3, r1
 4574 0002 052B     		cmp	r3, #5
 4575 0004 2DE9F041 		push	{r4, r5, r6, r7, r8, lr}
 4576 0008 0146     		mov	r1, r0
 4577 000a 1546     		mov	r5, r2
 4578 000c 2BD8     		bhi	.L952
 4579 000e 1D48     		ldr	r0, .L958
 4580 0010 1D4A     		ldr	r2, .L958+4
 4581 0012 1E4C     		ldr	r4, .L958+8
 4582 0014 50F82300 		ldr	r0, [r0, r3, lsl #2]
 4583 0018 54F82370 		ldr	r7, [r4, r3, lsl #2]
ARM GAS  C:\Users\Jay\AppData\Local\Temp\ccrCOBv6.s 			page 79


 4584 001c 52F82360 		ldr	r6, [r2, r3, lsl #2]
 4585 0020 FFF7FEFF 		bl	build_options
 4586 0024 3A46     		mov	r2, r7
 4587 0026 1A49     		ldr	r1, .L958+12
 4588 0028 0446     		mov	r4, r0
 4589 002a FFF7FEFF 		bl	options_add_text_element
 4590 002e 0023     		movs	r3, #0
 4591 0030 80F82D50 		strb	r5, [r0, #45]
 4592 0034 80F82C30 		strb	r3, [r0, #44]
 4593 0038 4EB1     		cbz	r6, .L953
 4594 003a 3246     		mov	r2, r6
 4595 003c 1449     		ldr	r1, .L958+12
 4596 003e 2046     		mov	r0, r4
 4597 0040 FFF7FEFF 		bl	options_add_text_element
 4598 0044 0223     		movs	r3, #2
 4599 0046 80F82D50 		strb	r5, [r0, #45]
 4600 004a 80F82C30 		strb	r3, [r0, #44]
 4601              	.L953:
 4602 004e 114A     		ldr	r2, .L958+16
 4603 0050 1149     		ldr	r1, .L958+20
 4604 0052 2046     		mov	r0, r4
 4605 0054 FFF7FEFF 		bl	options_add_text_element
 4606 0058 104A     		ldr	r2, .L958+24
 4607 005a 2368     		ldr	r3, [r4]
 4608 005c 1460     		str	r4, [r2]
 4609 005e 2046     		mov	r0, r4
 4610 0060 BDE8F041 		pop	{r4, r5, r6, r7, r8, lr}
 4611 0064 1847     		bx	r3	@ indirect register sibling call
 4612              	.L952:
 4613 0066 0E48     		ldr	r0, .L958+28
 4614 0068 FFF7FEFF 		bl	build_options
 4615 006c 0D4A     		ldr	r2, .L958+32
 4616 006e 0849     		ldr	r1, .L958+12
 4617 0070 0446     		mov	r4, r0
 4618 0072 FFF7FEFF 		bl	options_add_text_element
 4619 0076 0023     		movs	r3, #0
 4620 0078 80F82D50 		strb	r5, [r0, #45]
 4621 007c 80F82C30 		strb	r3, [r0, #44]
 4622 0080 E5E7     		b	.L953
 4623              	.L959:
 4624 0082 00BF     		.align	2
 4625              	.L958:
 4626 0084 00000000 		.word	.LANCHOR23
 4627 0088 00000000 		.word	.LANCHOR22
 4628 008c 00000000 		.word	.LANCHOR21
 4629 0090 00000000 		.word	options_prev_select
 4630 0094 00000000 		.word	.LC15
 4631 0098 00000000 		.word	options_prev_dir
 4632 009c 00000000 		.word	.LANCHOR14
 4633 00a0 08000000 		.word	.LC16
 4634 00a4 18000000 		.word	.LC17
 4636              		.section	.text.handle_unsupported_ex,"ax",%progbits
 4637              		.align	1
 4638              		.p2align 2,,3
 4639              		.syntax unified
 4640              		.thumb
 4641              		.thumb_func
ARM GAS  C:\Users\Jay\AppData\Local\Temp\ccrCOBv6.s 			page 80


 4642              		.fpu fpv4-sp-d16
 4644              	handle_unsupported_ex:
 4645              		@ args = 0, pretend = 0, frame = 0
 4646              		@ frame_needed = 0, uses_anonymous_args = 0
 4647 0000 70B5     		push	{r4, r5, r6, lr}
 4648 0002 1546     		mov	r5, r2
 4649 0004 FFF7FEFF 		bl	build_options
 4650 0008 2946     		mov	r1, r5
 4651 000a 0446     		mov	r4, r0
 4652 000c FFF7FEFF 		bl	options_add_text_block
 4653 0010 2046     		mov	r0, r4
 4654 0012 054A     		ldr	r2, .L962
 4655 0014 0549     		ldr	r1, .L962+4
 4656 0016 FFF7FEFF 		bl	options_add_text_element
 4657 001a 054A     		ldr	r2, .L962+8
 4658 001c 2368     		ldr	r3, [r4]
 4659 001e 1460     		str	r4, [r2]
 4660 0020 2046     		mov	r0, r4
 4661 0022 BDE87040 		pop	{r4, r5, r6, lr}
 4662 0026 1847     		bx	r3	@ indirect register sibling call
 4663              	.L963:
 4664              		.align	2
 4665              	.L962:
 4666 0028 00000000 		.word	.LC18
 4667 002c 00000000 		.word	options_prev_dir
 4668 0030 00000000 		.word	.LANCHOR14
 4670              		.section	.text.options_dir,"ax",%progbits
 4671              		.align	1
 4672              		.p2align 2,,3
 4673              		.syntax unified
 4674              		.thumb
 4675              		.thumb_func
 4676              		.fpu fpv4-sp-d16
 4678              	options_dir:
 4679              		@ args = 0, pretend = 0, frame = 0
 4680              		@ frame_needed = 0, uses_anonymous_args = 0
 4681 0000 2DE9F843 		push	{r3, r4, r5, r6, r7, r8, r9, lr}
 4682 0004 2B4C     		ldr	r4, .L988
 4683 0006 0646     		mov	r6, r0
 4684              	.L965:
 4685 0008 2378     		ldrb	r3, [r4]	@ zero_extendqisi2
 4686 000a 002B     		cmp	r3, #0
 4687 000c FCD1     		bne	.L965
 4688 000e 2A4D     		ldr	r5, .L988+4
 4689 0010 B169     		ldr	r1, [r6, #24]
 4690 0012 2A48     		ldr	r0, .L988+8
 4691 0014 0123     		movs	r3, #1
 4692 0016 8027     		movs	r7, #128
 4693 0018 2222     		movs	r2, #34
 4694 001a 2B70     		strb	r3, [r5]
 4695 001c 2770     		strb	r7, [r4]
 4696 001e FFF7FEFF 		bl	to_petscii_pad
 4697 0022 DFF898C0 		ldr	ip, .L988+8
 4698 0026 6146     		mov	r1, ip
 4699 0028 0CF1220E 		add	lr, ip, #34
 4700              	.L967:
 4701 002c 11F8010B 		ldrb	r0, [r1], #1	@ zero_extendqisi2
ARM GAS  C:\Users\Jay\AppData\Local\Temp\ccrCOBv6.s 			page 81


 4702              	.L966:
 4703 0030 2378     		ldrb	r3, [r4]	@ zero_extendqisi2
 4704 0032 03F0FF02 		and	r2, r3, #255
 4705 0036 002B     		cmp	r3, #0
 4706 0038 FAD1     		bne	.L966
 4707 003a 7145     		cmp	r1, lr
 4708 003c 2870     		strb	r0, [r5]
 4709 003e 2770     		strb	r7, [r4]
 4710 0040 F4D1     		bne	.L967
 4711 0042 96F81DE0 		ldrb	lr, [r6, #29]	@ zero_extendqisi2
 4712 0046 BEF1000F 		cmp	lr, #0
 4713 004a 20D0     		beq	.L968
 4714 004c 96F81C80 		ldrb	r8, [r6, #28]	@ zero_extendqisi2
 4715 0050 1B4E     		ldr	r6, .L988+12
 4716 0052 1046     		mov	r0, r2
 4717 0054 1346     		mov	r3, r2
 4718 0056 4FF0A009 		mov	r9, #160
 4719 005a 8027     		movs	r7, #128
 4720              	.L974:
 4721 005c 9845     		cmp	r8, r3
 4722 005e 12BF     		itee	ne
 4723 0060 16F8251C 		ldrbne	r1, [r6, #-37]	@ zero_extendqisi2
 4724 0064 06F8259C 		strbeq	r9, [r6, #-37]
 4725 0068 A021     		moveq	r1, #160
 4726 006a A6F12502 		sub	r2, r6, #37
 4727              	.L971:
 4728 006e 2378     		ldrb	r3, [r4]	@ zero_extendqisi2
 4729 0070 002B     		cmp	r3, #0
 4730 0072 FCD1     		bne	.L971
 4731 0074 9642     		cmp	r6, r2
 4732 0076 2970     		strb	r1, [r5]
 4733 0078 2770     		strb	r7, [r4]
 4734 007a 02D0     		beq	.L972
 4735 007c 12F8011F 		ldrb	r1, [r2, #1]!	@ zero_extendqisi2
 4736 0080 F5E7     		b	.L971
 4737              	.L972:
 4738 0082 0130     		adds	r0, r0, #1
 4739 0084 C3B2     		uxtb	r3, r0
 4740 0086 9E45     		cmp	lr, r3
 4741 0088 06F13006 		add	r6, r6, #48
 4742 008c E6D8     		bhi	.L974
 4743              	.L968:
 4744 008e 0B4A     		ldr	r2, .L988+8
 4745 0090 0021     		movs	r1, #0
 4746 0092 02F12506 		add	r6, r2, #37
 4747 0096 8CF80010 		strb	r1, [ip]
 4748 009a 8020     		movs	r0, #128
 4749              	.L975:
 4750 009c 2378     		ldrb	r3, [r4]	@ zero_extendqisi2
 4751 009e 002B     		cmp	r3, #0
 4752 00a0 FCD1     		bne	.L975
 4753 00a2 9642     		cmp	r6, r2
 4754 00a4 2970     		strb	r1, [r5]
 4755 00a6 2070     		strb	r0, [r4]
 4756 00a8 02D0     		beq	.L964
 4757 00aa 12F8011F 		ldrb	r1, [r2, #1]!	@ zero_extendqisi2
 4758 00ae F5E7     		b	.L975
ARM GAS  C:\Users\Jay\AppData\Local\Temp\ccrCOBv6.s 			page 82


 4759              	.L964:
 4760 00b0 BDE8F883 		pop	{r3, r4, r5, r6, r7, r8, r9, pc}
 4761              	.L989:
 4762              		.align	2
 4763              	.L988:
 4764 00b4 00000000 		.word	.LANCHOR10
 4765 00b8 00000000 		.word	.LANCHOR11
 4766 00bc 00000100 		.word	scratch_buf
 4767 00c0 25200100 		.word	scratch_buf+8229
 4769              		.section	.text.options_select,"ax",%progbits
 4770              		.align	1
 4771              		.p2align 2,,3
 4772              		.syntax unified
 4773              		.thumb
 4774              		.thumb_func
 4775              		.fpu fpv4-sp-d16
 4777              	options_select:
 4778              		@ args = 0, pretend = 0, frame = 0
 4779              		@ frame_needed = 0, uses_anonymous_args = 0
 4780 0000 70B5     		push	{r4, r5, r6, lr}
 4781 0002 447F     		ldrb	r4, [r0, #29]	@ zero_extendqisi2
 4782 0004 9442     		cmp	r4, r2
 4783 0006 0346     		mov	r3, r0
 4784 0008 0ED9     		bls	.L991
 4785 000a 0A4C     		ldr	r4, .L996
 4786 000c 02EB4205 		add	r5, r2, r2, lsl #1
 4787 0010 04EB0514 		add	r4, r4, r5, lsl #4
 4788 0014 A56A     		ldr	r5, [r4, #40]
 4789 0016 3DB1     		cbz	r5, .L991
 4790 0018 0277     		strb	r2, [r0, #28]
 4791 001a 2B46     		mov	r3, r5
 4792 001c 01F0BF02 		and	r2, r1, #191
 4793 0020 2146     		mov	r1, r4
 4794 0022 BDE87040 		pop	{r4, r5, r6, lr}
 4795 0026 1847     		bx	r3
 4796              	.L991:
 4797 0028 1846     		mov	r0, r3
 4798 002a FFF7FEFF 		bl	options_dir
 4799 002e 0020     		movs	r0, #0
 4800 0030 70BD     		pop	{r4, r5, r6, pc}
 4801              	.L997:
 4802 0032 00BF     		.align	2
 4803              	.L996:
 4804 0034 00200100 		.word	scratch_buf+8192
 4806              		.section	.text.cdc_rx_tx,"ax",%progbits
 4807              		.align	1
 4808              		.p2align 2,,3
 4809              		.syntax unified
 4810              		.thumb
 4811              		.thumb_func
 4812              		.fpu fpv4-sp-d16
 4814              	cdc_rx_tx:
 4815              		@ args = 0, pretend = 0, frame = 0
 4816              		@ frame_needed = 0, uses_anonymous_args = 0
 4817 0000 0429     		cmp	r1, #4
 4818 0002 38B5     		push	{r3, r4, r5, lr}
 4819 0004 14D0     		beq	.L1000
ARM GAS  C:\Users\Jay\AppData\Local\Temp\ccrCOBv6.s 			page 83


 4820 0006 0529     		cmp	r1, #5
 4821 0008 11D1     		bne	.L998
 4822 000a 1A4C     		ldr	r4, .L1008
 4823 000c 2368     		ldr	r3, [r4]
 4824 000e B3F5E07F 		cmp	r3, #448
 4825 0012 27D2     		bcs	.L1004
 4826 0014 0368     		ldr	r3, [r0]
 4827 0016 2268     		ldr	r2, [r4]
 4828 0018 1749     		ldr	r1, .L1008+4
 4829 001a 9B69     		ldr	r3, [r3, #24]
 4830 001c 1144     		add	r1, r1, r2
 4831 001e 0120     		movs	r0, #1
 4832 0020 4022     		movs	r2, #64
 4833 0022 9847     		blx	r3
 4834 0024 0028     		cmp	r0, #0
 4835 0026 02DD     		ble	.L998
 4836 0028 2368     		ldr	r3, [r4]
 4837 002a 1844     		add	r0, r0, r3
 4838 002c 2060     		str	r0, [r4]
 4839              	.L998:
 4840 002e 38BD     		pop	{r3, r4, r5, pc}
 4841              	.L1000:
 4842 0030 124C     		ldr	r4, .L1008+8
 4843 0032 134D     		ldr	r5, .L1008+12
 4844 0034 2368     		ldr	r3, [r4]
 4845 0036 3F2B     		cmp	r3, #63
 4846 0038 98BF     		it	ls
 4847 003a 2268     		ldrls	r2, [r4]
 4848 003c 0368     		ldr	r3, [r0]
 4849 003e 94BF     		ite	ls
 4850 0040 92B2     		uxthls	r2, r2
 4851 0042 4022     		movhi	r2, #64
 4852 0044 DB69     		ldr	r3, [r3, #28]
 4853 0046 2946     		mov	r1, r5
 4854 0048 8120     		movs	r0, #129
 4855 004a 9847     		blx	r3
 4856 004c 0028     		cmp	r0, #0
 4857 004e EEDD     		ble	.L998
 4858 0050 2368     		ldr	r3, [r4]
 4859 0052 1B1A     		subs	r3, r3, r0
 4860 0054 2360     		str	r3, [r4]
 4861 0056 2918     		adds	r1, r5, r0
 4862 0058 2268     		ldr	r2, [r4]
 4863 005a 2846     		mov	r0, r5
 4864 005c BDE83840 		pop	{r3, r4, r5, lr}
 4865 0060 FFF7FEBF 		b	memmove
 4866              	.L1004:
 4867 0064 4FF0A042 		mov	r2, #1342177280
 4868 0068 9368     		ldr	r3, [r2, #8]
 4869 006a 23F00103 		bic	r3, r3, #1
 4870 006e 9360     		str	r3, [r2, #8]
 4871 0070 38BD     		pop	{r3, r4, r5, pc}
 4872              	.L1009:
 4873 0072 00BF     		.align	2
 4874              	.L1008:
 4875 0074 00000000 		.word	.LANCHOR26
 4876 0078 00000000 		.word	.LANCHOR27
ARM GAS  C:\Users\Jay\AppData\Local\Temp\ccrCOBv6.s 			page 84


 4877 007c 00000000 		.word	.LANCHOR24
 4878 0080 00000000 		.word	.LANCHOR25
 4880              		.section	.text.chdir_last.part.66,"ax",%progbits
 4881              		.align	1
 4882              		.p2align 2,,3
 4883              		.syntax unified
 4884              		.thumb
 4885              		.thumb_func
 4886              		.fpu fpv4-sp-d16
 4888              	chdir_last.part.66:
 4889              		@ args = 0, pretend = 0, frame = 0
 4890              		@ frame_needed = 0, uses_anonymous_args = 0
 4891 0000 08B5     		push	{r3, lr}
 4892 0002 0948     		ldr	r0, .L1016
 4893 0004 FFF7FEFF 		bl	f_chdir
 4894 0008 084B     		ldr	r3, .L1016+4
 4895 000a 0028     		cmp	r0, #0
 4896 000c 4FF00052 		mov	r2, #536870912
 4897 0010 0CBF     		ite	eq
 4898 0012 0120     		moveq	r0, #1
 4899 0014 0020     		movne	r0, #0
 4900 0016 9A61     		str	r2, [r3, #24]
 4901 0018 05D0     		beq	.L1011
 4902 001a 054B     		ldr	r3, .L1016+8
 4903 001c 0022     		movs	r2, #0
 4904 001e 83F82020 		strb	r2, [r3, #32]
 4905 0022 83F80023 		strb	r2, [r3, #768]
 4906              	.L1011:
 4907 0026 08BD     		pop	{r3, pc}
 4908              	.L1017:
 4909              		.align	2
 4910              	.L1016:
 4911 0028 20000000 		.word	dat_file+32
 4912 002c 00080240 		.word	1073874944
 4913 0030 00000000 		.word	dat_file
 4915              		.section	.text.d64_dir_up,"ax",%progbits
 4916              		.align	1
 4917              		.p2align 2,,3
 4918              		.syntax unified
 4919              		.thumb
 4920              		.thumb_func
 4921              		.fpu fpv4-sp-d16
 4923              	d64_dir_up:
 4924              		@ args = 0, pretend = 0, frame = 0
 4925              		@ frame_needed = 0, uses_anonymous_args = 0
 4926 0000 0D4B     		ldr	r3, .L1022
 4927 0002 0E48     		ldr	r0, .L1022+4
 4928 0004 10B5     		push	{r4, lr}
 4929 0006 4FF0FF32 		mov	r2, #-1
 4930 000a 5A73     		strb	r2, [r3, #13]
 4931 000c 9A73     		strb	r2, [r3, #14]
 4932 000e 0C46     		mov	r4, r1
 4933 0010 FFF7FEFF 		bl	f_close
 4934 0014 0A4A     		ldr	r2, .L1022+8
 4935 0016 0B4B     		ldr	r3, .L1022+12
 4936 0018 0B48     		ldr	r0, .L1022+16
 4937 001a 4FF00051 		mov	r1, #536870912
ARM GAS  C:\Users\Jay\AppData\Local\Temp\ccrCOBv6.s 			page 85


 4938 001e 9161     		str	r1, [r2, #24]
 4939 0020 1860     		str	r0, [r3]
 4940 0022 1CB9     		cbnz	r4, .L1021
 4941 0024 0368     		ldr	r3, [r0]
 4942 0026 BDE81040 		pop	{r4, lr}
 4943 002a 1847     		bx	r3	@ indirect register sibling call
 4944              	.L1021:
 4945 002c 4368     		ldr	r3, [r0, #4]
 4946 002e 0121     		movs	r1, #1
 4947 0030 BDE81040 		pop	{r4, lr}
 4948 0034 1847     		bx	r3	@ indirect register sibling call
 4949              	.L1023:
 4950 0036 00BF     		.align	2
 4951              	.L1022:
 4952 0038 00000000 		.word	dat_file
 4953 003c 14000000 		.word	.LANCHOR28+20
 4954 0040 00080240 		.word	1073874944
 4955 0044 00000000 		.word	.LANCHOR14
 4956 0048 00000000 		.word	.LANCHOR29
 4958              		.section	.text.d64_read_file_sector,"ax",%progbits
 4959              		.align	1
 4960              		.p2align 2,,3
 4961              		.syntax unified
 4962              		.thumb
 4963              		.thumb_func
 4964              		.fpu fpv4-sp-d16
 4966              	d64_read_file_sector:
 4967              		@ args = 0, pretend = 0, frame = 0
 4968              		@ frame_needed = 0, uses_anonymous_args = 0
 4969 0000 0A78     		ldrb	r2, [r1]	@ zero_extendqisi2
 4970 0002 0AB9     		cbnz	r2, .L1025
 4971 0004 0020     		movs	r0, #0
 4972 0006 7047     		bx	lr
 4973              	.L1025:
 4974 0008 10B5     		push	{r4, lr}
 4975 000a 0C46     		mov	r4, r1
 4976 000c FFF7FEFF 		bl	d64_read_next_sector
 4977 0010 30B1     		cbz	r0, .L1027
 4978 0012 2378     		ldrb	r3, [r4]	@ zero_extendqisi2
 4979 0014 33B9     		cbnz	r3, .L1028
 4980 0016 6078     		ldrb	r0, [r4, #1]	@ zero_extendqisi2
 4981 0018 10B1     		cbz	r0, .L1027
 4982 001a 0138     		subs	r0, r0, #1
 4983 001c C0B2     		uxtb	r0, r0
 4984 001e 10BD     		pop	{r4, pc}
 4985              	.L1027:
 4986 0020 0020     		movs	r0, #0
 4987 0022 10BD     		pop	{r4, pc}
 4988              	.L1028:
 4989 0024 FE20     		movs	r0, #254
 4990 0026 10BD     		pop	{r4, pc}
 4992              		.section	.text.d64_read_disk_header,"ax",%progbits
 4993              		.align	1
 4994              		.p2align 2,,3
 4995              		.syntax unified
 4996              		.thumb
 4997              		.thumb_func
ARM GAS  C:\Users\Jay\AppData\Local\Temp\ccrCOBv6.s 			page 86


 4998              		.fpu fpv4-sp-d16
 5000              	d64_read_disk_header:
 5001              		@ args = 0, pretend = 0, frame = 0
 5002              		@ frame_needed = 0, uses_anonymous_args = 0
 5003 0000 10B5     		push	{r4, lr}
 5004 0002 90F82832 		ldrb	r3, [r0, #552]	@ zero_extendqisi2
 5005 0006 032B     		cmp	r3, #3
 5006 0008 0CBF     		ite	eq
 5007 000a 2822     		moveq	r2, #40
 5008 000c 1222     		movne	r2, #18
 5009 000e 0023     		movs	r3, #0
 5010 0010 80F82A22 		strb	r2, [r0, #554]
 5011 0014 80F82B32 		strb	r3, [r0, #555]
 5012 0018 00F22A21 		addw	r1, r0, #554
 5013 001c 0446     		mov	r4, r0
 5014 001e FFF7FEFF 		bl	d64_read_next_sector
 5015 0022 E0B1     		cbz	r0, .L1041
 5016 0024 94F82832 		ldrb	r3, [r4, #552]	@ zero_extendqisi2
 5017 0028 032B     		cmp	r3, #3
 5018 002a 0CBF     		ite	eq
 5019 002c 04F22E23 		addweq	r3, r4, #558
 5020 0030 04F2BA23 		addwne	r3, r4, #698
 5021 0034 0022     		movs	r2, #0
 5022 0036 C4F82C33 		str	r3, [r4, #812]
 5023 003a DA75     		strb	r2, [r3, #23]
 5024 003c 94F82832 		ldrb	r3, [r4, #552]	@ zero_extendqisi2
 5025 0040 032B     		cmp	r3, #3
 5026 0042 0DD0     		beq	.L1050
 5027 0044 1222     		movs	r2, #18
 5028 0046 0123     		movs	r3, #1
 5029 0048 84F82A22 		strb	r2, [r4, #554]
 5030 004c 84F82B32 		strb	r3, [r4, #555]
 5031              	.L1045:
 5032 0050 0022     		movs	r2, #0
 5033 0052 04F22A33 		addw	r3, r4, #810
 5034 0056 84F82922 		strb	r2, [r4, #553]
 5035 005a C4F83033 		str	r3, [r4, #816]
 5036              	.L1041:
 5037 005e 10BD     		pop	{r4, pc}
 5038              	.L1050:
 5039 0060 2822     		movs	r2, #40
 5040 0062 84F82B32 		strb	r3, [r4, #555]
 5041 0066 84F82A22 		strb	r2, [r4, #554]
 5042 006a F1E7     		b	.L1045
 5044              		.section	.text.disk_find_file.constprop.81,"ax",%progbits
 5045              		.align	1
 5046              		.p2align 2,,3
 5047              		.syntax unified
 5048              		.thumb
 5049              		.thumb_func
 5050              		.fpu fpv4-sp-d16
 5052              	disk_find_file.constprop.81:
 5053              		@ args = 0, pretend = 0, frame = 0
 5054              		@ frame_needed = 0, uses_anonymous_args = 0
 5055 0000 F8B5     		push	{r3, r4, r5, r6, r7, lr}
 5056 0002 144C     		ldr	r4, .L1063
 5057 0004 144E     		ldr	r6, .L1063+4
ARM GAS  C:\Users\Jay\AppData\Local\Temp\ccrCOBv6.s 			page 87


 5058 0006 94F83C32 		ldrb	r3, [r4, #572]	@ zero_extendqisi2
 5059 000a C4F84463 		str	r6, [r4, #836]
 5060 000e 032B     		cmp	r3, #3
 5061 0010 0CBF     		ite	eq
 5062 0012 4FF44A73 		moveq	r3, #808
 5063 0016 4FF48973 		movne	r3, #274
 5064 001a A4F83E32 		strh	r3, [r4, #574]	@ movhi
 5065 001e 0023     		movs	r3, #0
 5066 0020 0746     		mov	r7, r0
 5067 0022 0D46     		mov	r5, r1
 5068 0024 A6F22A36 		subw	r6, r6, #810
 5069 0028 84F83D32 		strb	r3, [r4, #573]
 5070              	.L1060:
 5071 002c 3046     		mov	r0, r6
 5072 002e FFF7FEFF 		bl	d64_read_dir
 5073 0032 3946     		mov	r1, r7
 5074 0034 60B1     		cbz	r0, .L1056
 5075 0036 D4F84433 		ldr	r3, [r4, #836]
 5076 003a 1846     		mov	r0, r3
 5077 003c 25B1     		cbz	r5, .L1055
 5078 003e 9B78     		ldrb	r3, [r3, #2]	@ zero_extendqisi2
 5079 0040 03F00703 		and	r3, r3, #7
 5080 0044 9D42     		cmp	r5, r3
 5081 0046 F1D1     		bne	.L1060
 5082              	.L1055:
 5083 0048 FFF7FEFF 		bl	disk_filename_match
 5084 004c 0028     		cmp	r0, #0
 5085 004e EDD0     		beq	.L1060
 5086              	.L1056:
 5087 0050 F8BD     		pop	{r3, r4, r5, r6, r7, pc}
 5088              	.L1064:
 5089 0052 00BF     		.align	2
 5090              	.L1063:
 5091 0054 00000000 		.word	.LANCHOR28
 5092 0058 3E030000 		.word	.LANCHOR28+830
 5094              		.section	.text.format_path.constprop.88,"ax",%progbits
 5095              		.align	1
 5096              		.p2align 2,,3
 5097              		.syntax unified
 5098              		.thumb
 5099              		.thumb_func
 5100              		.fpu fpv4-sp-d16
 5102              	format_path.constprop.88:
 5103              		@ args = 0, pretend = 0, frame = 0
 5104              		@ frame_needed = 0, uses_anonymous_args = 0
 5105 0000 F8B5     		push	{r3, r4, r5, r6, r7, lr}
 5106 0002 374F     		ldr	r7, .L1090
 5107 0004 374D     		ldr	r5, .L1090+4
 5108 0006 3A46     		mov	r2, r7
 5109 0008 0023     		movs	r3, #0
 5110 000a 04E0     		b	.L1066
 5111              	.L1068:
 5112 000c B3F5387F 		cmp	r3, #736
 5113 0010 02F8011B 		strb	r1, [r2], #1
 5114 0014 56D0     		beq	.L1067
 5115              	.L1066:
 5116 0016 15F8011F 		ldrb	r1, [r5, #1]!	@ zero_extendqisi2
ARM GAS  C:\Users\Jay\AppData\Local\Temp\ccrCOBv6.s 			page 88


 5117 001a 9CB2     		uxth	r4, r3
 5118 001c 1646     		mov	r6, r2
 5119 001e 0133     		adds	r3, r3, #1
 5120 0020 0029     		cmp	r1, #0
 5121 0022 F3D1     		bne	.L1068
 5122 0024 98B1     		cbz	r0, .L1069
 5123 0026 012C     		cmp	r4, #1
 5124 0028 46D9     		bls	.L1070
 5125 002a 0134     		adds	r4, r4, #1
 5126 002c A4B2     		uxth	r4, r4
 5127 002e 2146     		mov	r1, r4
 5128              	.L1077:
 5129 0030 2D4B     		ldr	r3, .L1090+8
 5130 0032 93F80033 		ldrb	r3, [r3, #768]	@ zero_extendqisi2
 5131 0036 2F22     		movs	r2, #47
 5132 0038 3270     		strb	r2, [r6]
 5133 003a A3B1     		cbz	r3, .L1071
 5134              	.L1073:
 5135 003c 2B4A     		ldr	r2, .L1090+12
 5136              	.L1072:
 5137 003e 3B55     		strb	r3, [r7, r4]
 5138 0040 12F8013F 		ldrb	r3, [r2, #1]!	@ zero_extendqisi2
 5139 0044 0134     		adds	r4, r4, #1
 5140 0046 A4B2     		uxth	r4, r4
 5141 0048 002B     		cmp	r3, #0
 5142 004a F8D1     		bne	.L1072
 5143 004c 3E19     		adds	r6, r7, r4
 5144              	.L1069:
 5145 004e 0023     		movs	r3, #0
 5146 0050 3370     		strb	r3, [r6]
 5147 0052 4CB9     		cbnz	r4, .L1074
 5148 0054 2E23     		movs	r3, #46
 5149 0056 3B80     		strh	r3, [r7]	@ movhi
 5150 0058 2149     		ldr	r1, .L1090
 5151 005a 2148     		ldr	r0, .L1090
 5152 005c 2222     		movs	r2, #34
 5153 005e FFF7FEFF 		bl	to_petscii_pad
 5154 0062 2046     		mov	r0, r4
 5155 0064 F8BD     		pop	{r3, r4, r5, r6, r7, pc}
 5156              	.L1071:
 5157 0066 7B54     		strb	r3, [r7, r1]
 5158              	.L1074:
 5159 0068 222C     		cmp	r4, #34
 5160 006a 16D8     		bhi	.L1088
 5161 006c 012C     		cmp	r4, #1
 5162 006e 07D0     		beq	.L1089
 5163 0070 1B49     		ldr	r1, .L1090
 5164 0072 1B48     		ldr	r0, .L1090
 5165 0074 0024     		movs	r4, #0
 5166 0076 2222     		movs	r2, #34
 5167 0078 FFF7FEFF 		bl	to_petscii_pad
 5168 007c 2046     		mov	r0, r4
 5169 007e F8BD     		pop	{r3, r4, r5, r6, r7, pc}
 5170              	.L1089:
 5171 0080 3C78     		ldrb	r4, [r7]	@ zero_extendqisi2
 5172 0082 1749     		ldr	r1, .L1090
 5173 0084 1648     		ldr	r0, .L1090
ARM GAS  C:\Users\Jay\AppData\Local\Temp\ccrCOBv6.s 			page 89


 5174 0086 A4F12F04 		sub	r4, #47
 5175 008a B4FA84F4 		clz	r4, r4
 5176 008e 6409     		lsrs	r4, r4, #5
 5177 0090 2222     		movs	r2, #34
 5178 0092 FFF7FEFF 		bl	to_petscii_pad
 5179 0096 2046     		mov	r0, r4
 5180 0098 F8BD     		pop	{r3, r4, r5, r6, r7, pc}
 5181              	.L1088:
 5182 009a A4F12201 		sub	r1, r4, #34
 5183 009e 89B2     		uxth	r1, r1
 5184 00a0 4A1C     		adds	r2, r1, #1
 5185              	.L1078:
 5186 00a2 2E23     		movs	r3, #46
 5187 00a4 7B54     		strb	r3, [r7, r1]
 5188 00a6 0024     		movs	r4, #0
 5189 00a8 BB54     		strb	r3, [r7, r2]
 5190 00aa 3944     		add	r1, r1, r7
 5191 00ac 2222     		movs	r2, #34
 5192 00ae 0C48     		ldr	r0, .L1090
 5193 00b0 FFF7FEFF 		bl	to_petscii_pad
 5194 00b4 2046     		mov	r0, r4
 5195 00b6 F8BD     		pop	{r3, r4, r5, r6, r7, pc}
 5196              	.L1070:
 5197 00b8 0B4B     		ldr	r3, .L1090+8
 5198 00ba 93F80033 		ldrb	r3, [r3, #768]	@ zero_extendqisi2
 5199 00be 002B     		cmp	r3, #0
 5200 00c0 BCD1     		bne	.L1073
 5201 00c2 C4E7     		b	.L1069
 5202              	.L1067:
 5203 00c4 30B9     		cbnz	r0, .L1080
 5204 00c6 87F8E002 		strb	r0, [r7, #736]
 5205 00ca 40F2BF22 		movw	r2, #703
 5206 00ce 40F2BE21 		movw	r1, #702
 5207 00d2 E6E7     		b	.L1078
 5208              	.L1080:
 5209 00d4 40F2E121 		movw	r1, #737
 5210 00d8 054E     		ldr	r6, .L1090+16
 5211 00da 0C46     		mov	r4, r1
 5212 00dc A8E7     		b	.L1077
 5213              	.L1091:
 5214 00de 00BF     		.align	2
 5215              	.L1090:
 5216 00e0 00000100 		.word	scratch_buf
 5217 00e4 1F000000 		.word	dat_file+31
 5218 00e8 00000000 		.word	dat_file
 5219 00ec 00030000 		.word	dat_file+768
 5220 00f0 E0020100 		.word	scratch_buf+736
 5222              		.section	.text.d64_open.constprop.89,"ax",%progbits
 5223              		.align	1
 5224              		.p2align 2,,3
 5225              		.syntax unified
 5226              		.thumb
 5227              		.thumb_func
 5228              		.fpu fpv4-sp-d16
 5230              	d64_open.constprop.89:
 5231              		@ args = 0, pretend = 0, frame = 0
 5232              		@ frame_needed = 0, uses_anonymous_args = 0
ARM GAS  C:\Users\Jay\AppData\Local\Temp\ccrCOBv6.s 			page 90


 5233 0000 38B5     		push	{r3, r4, r5, lr}
 5234 0002 174C     		ldr	r4, .L1103
 5235 0004 0146     		mov	r1, r0
 5236 0006 0122     		movs	r2, #1
 5237 0008 04F11400 		add	r0, r4, #20
 5238 000c FFF7FEFF 		bl	f_open
 5239 0010 28B1     		cbz	r0, .L1093
 5240 0012 144B     		ldr	r3, .L1103+4
 5241 0014 4FF00052 		mov	r2, #536870912
 5242 0018 9A61     		str	r2, [r3, #24]
 5243 001a 0020     		movs	r0, #0
 5244 001c 38BD     		pop	{r3, r4, r5, pc}
 5245              	.L1093:
 5246 001e 206A     		ldr	r0, [r4, #32]
 5247 0020 FFF7FEFF 		bl	d64_image_type
 5248 0024 0546     		mov	r5, r0
 5249 0026 84F83C02 		strb	r0, [r4, #572]
 5250 002a 78B1     		cbz	r0, .L1102
 5251 002c 032D     		cmp	r5, #3
 5252 002e 0CBF     		ite	eq
 5253 0030 4FF44A73 		moveq	r3, #808
 5254 0034 4FF48973 		movne	r3, #274
 5255 0038 A4F83E32 		strh	r3, [r4, #574]	@ movhi
 5256 003c 0022     		movs	r2, #0
 5257 003e 0A4B     		ldr	r3, .L1103+8
 5258 0040 84F83D22 		strb	r2, [r4, #573]
 5259 0044 C4F84433 		str	r3, [r4, #836]
 5260 0048 0120     		movs	r0, #1
 5261 004a 38BD     		pop	{r3, r4, r5, pc}
 5262              	.L1102:
 5263 004c 04F11400 		add	r0, r4, #20
 5264 0050 FFF7FEFF 		bl	f_close
 5265 0054 034B     		ldr	r3, .L1103+4
 5266 0056 4FF00052 		mov	r2, #536870912
 5267 005a 2846     		mov	r0, r5
 5268 005c 9A61     		str	r2, [r3, #24]
 5269 005e 38BD     		pop	{r3, r4, r5, pc}
 5270              	.L1104:
 5271              		.align	2
 5272              	.L1103:
 5273 0060 00000000 		.word	.LANCHOR28
 5274 0064 00080240 		.word	1073874944
 5275 0068 3E030000 		.word	.LANCHOR28+830
 5277              		.section	.text.printhex.constprop.94,"ax",%progbits
 5278              		.align	1
 5279              		.p2align 2,,3
 5280              		.syntax unified
 5281              		.thumb
 5282              		.thumb_func
 5283              		.fpu fpv4-sp-d16
 5285              	printhex.constprop.94:
 5286              		@ args = 0, pretend = 0, frame = 8
 5287              		@ frame_needed = 0, uses_anonymous_args = 0
 5288 0000 2DE9F043 		push	{r4, r5, r6, r7, r8, r9, lr}
 5289 0004 01EBD178 		add	r8, r1, r1, lsr #31
 5290 0008 83B0     		sub	sp, sp, #12
 5291 000a 4FEA6808 		asr	r8, r8, #1
ARM GAS  C:\Users\Jay\AppData\Local\Temp\ccrCOBv6.s 			page 91


 5292 000e 0022     		movs	r2, #0
 5293 0010 124F     		ldr	r7, .L1123
 5294 0012 0190     		str	r0, [sp, #4]
 5295 0014 8946     		mov	r9, r1
 5296 0016 C8F10408 		rsb	r8, r8, #4
 5297 001a 1546     		mov	r5, r2
 5298 001c 0DF10706 		add	r6, sp, #7
 5299              	.L1109:
 5300 0020 16F80149 		ldrb	r4, [r6], #-1	@ zero_extendqisi2
 5301 0024 2309     		lsrs	r3, r4, #4
 5302 0026 74B1     		cbz	r4, .L1121
 5303              	.L1106:
 5304 0028 04F00F04 		and	r4, r4, #15
 5305 002c F85C     		ldrb	r0, [r7, r3]	@ zero_extendqisi2
 5306 002e FFF7FEFF 		bl	buf_putchar
 5307 0032 385D     		ldrb	r0, [r7, r4]	@ zero_extendqisi2
 5308 0034 FFF7FEFF 		bl	buf_putchar
 5309 0038 0122     		movs	r2, #1
 5310              	.L1108:
 5311 003a 0135     		adds	r5, r5, #1
 5312 003c 042D     		cmp	r5, #4
 5313 003e EFD1     		bne	.L1109
 5314 0040 03B0     		add	sp, sp, #12
 5315              		@ sp needed
 5316 0042 BDE8F083 		pop	{r4, r5, r6, r7, r8, r9, pc}
 5317              	.L1121:
 5318 0046 B9F1000F 		cmp	r9, #0
 5319 004a 04D1     		bne	.L1122
 5320              	.L1107:
 5321 004c 032D     		cmp	r5, #3
 5322 004e EBD0     		beq	.L1106
 5323 0050 002A     		cmp	r2, #0
 5324 0052 F2D0     		beq	.L1108
 5325 0054 E8E7     		b	.L1106
 5326              	.L1122:
 5327 0056 A845     		cmp	r8, r5
 5328 0058 E6D9     		bls	.L1106
 5329 005a F7E7     		b	.L1107
 5330              	.L1124:
 5331              		.align	2
 5332              	.L1123:
 5333 005c 00000000 		.word	.LANCHOR30
 5335              		.section	.text.sdio_check_tran.constprop.96,"ax",%progbits
 5336              		.align	1
 5337              		.p2align 2,,3
 5338              		.syntax unified
 5339              		.thumb
 5340              		.thumb_func
 5341              		.fpu fpv4-sp-d16
 5343              	sdio_check_tran.constprop.96:
 5344              		@ args = 0, pretend = 0, frame = 8
 5345              		@ frame_needed = 0, uses_anonymous_args = 0
 5346 0000 30B5     		push	{r4, r5, lr}
 5347 0002 104C     		ldr	r4, .L1137
 5348 0004 104B     		ldr	r3, .L1137+4
 5349 0006 6360     		str	r3, [r4, #4]
 5350 0008 104D     		ldr	r5, .L1137+8
ARM GAS  C:\Users\Jay\AppData\Local\Temp\ccrCOBv6.s 			page 92


 5351 000a 0023     		movs	r3, #0
 5352 000c 83B0     		sub	sp, sp, #12
 5353 000e A360     		str	r3, [r4, #8]
 5354              	.L1132:
 5355 0010 2168     		ldr	r1, [r4]
 5356 0012 C903     		lsls	r1, r1, #15
 5357 0014 01AB     		add	r3, sp, #4
 5358 0016 4FF00102 		mov	r2, #1
 5359 001a 4FF00D00 		mov	r0, #13
 5360 001e 0DD4     		bmi	.L1136
 5361 0020 2988     		ldrh	r1, [r5]
 5362 0022 0904     		lsls	r1, r1, #16
 5363 0024 FFF7FEFF 		bl	sdio_cmd_send
 5364 0028 0028     		cmp	r0, #0
 5365 002a F1D0     		beq	.L1132
 5366 002c 019B     		ldr	r3, [sp, #4]
 5367 002e 03F4F053 		and	r3, r3, #7680
 5368 0032 B3F5006F 		cmp	r3, #2048
 5369 0036 EBD1     		bne	.L1132
 5370 0038 03B0     		add	sp, sp, #12
 5371              		@ sp needed
 5372 003a 30BD     		pop	{r4, r5, pc}
 5373              	.L1136:
 5374 003c 0020     		movs	r0, #0
 5375 003e 03B0     		add	sp, sp, #12
 5376              		@ sp needed
 5377 0040 30BD     		pop	{r4, r5, pc}
 5378              	.L1138:
 5379 0042 00BF     		.align	2
 5380              	.L1137:
 5381 0044 10E000E0 		.word	-536813552
 5382 0048 A037A000 		.word	10500000
 5383 004c 00000000 		.word	.LANCHOR0
 5385              		.section	.text.magic_desk_init,"ax",%progbits
 5386              		.align	1
 5387              		.p2align 2,,3
 5388              		.syntax unified
 5389              		.thumb
 5390              		.thumb_func
 5391              		.fpu fpv4-sp-d16
 5393              	magic_desk_init:
 5394              		@ args = 0, pretend = 0, frame = 0
 5395              		@ frame_needed = 0, uses_anonymous_args = 0
 5396              		@ link register save eliminated.
 5397 0000 014B     		ldr	r3, .L1140
 5398 0002 024A     		ldr	r2, .L1140+4
 5399 0004 9A61     		str	r2, [r3, #24]
 5400 0006 7047     		bx	lr
 5401              	.L1141:
 5402              		.align	2
 5403              	.L1140:
 5404 0008 00080240 		.word	1073874944
 5405 000c 004000A0 		.word	-1610596352
 5407              		.section	.text.c64_send_text,"ax",%progbits
 5408              		.align	1
 5409              		.p2align 2,,3
 5410              		.syntax unified
ARM GAS  C:\Users\Jay\AppData\Local\Temp\ccrCOBv6.s 			page 93


 5411              		.thumb
 5412              		.thumb_func
 5413              		.fpu fpv4-sp-d16
 5415              	c64_send_text:
 5416              		@ args = 0, pretend = 0, frame = 0
 5417              		@ frame_needed = 0, uses_anonymous_args = 0
 5418 0000 2DE9F843 		push	{r3, r4, r5, r6, r7, r8, r9, lr}
 5419 0004 364F     		ldr	r7, .L1173
 5420 0006 01F54879 		add	r9, r1, #800
 5421 000a 0A46     		mov	r2, r1
 5422 000c 3E46     		mov	r6, r7
 5423 000e 05E0     		b	.L1147
 5424              	.L1171:
 5425 0010 5FFA8EF3 		uxtb	r3, lr
 5426              	.L1145:
 5427 0014 9145     		cmp	r9, r2
 5428 0016 06F8013B 		strb	r3, [r6], #1
 5429 001a 1AD0     		beq	.L1170
 5430              	.L1147:
 5431 001c 551A     		subs	r5, r2, r1
 5432 001e 12F8013B 		ldrb	r3, [r2], #1	@ zero_extendqisi2
 5433 0022 A3F16104 		sub	r4, r3, #97
 5434 0026 A3F1410C 		sub	ip, r3, #65
 5435 002a E4B2     		uxtb	r4, r4
 5436 002c 03F1200E 		add	lr, r3, #32
 5437 0030 ADB2     		uxth	r5, r5
 5438 0032 B046     		mov	r8, r6
 5439 0034 A3B1     		cbz	r3, .L1143
 5440 0036 BCF1190F 		cmp	ip, #25
 5441 003a E9D9     		bls	.L1171
 5442 003c 192C     		cmp	r4, #25
 5443 003e A3F12004 		sub	r4, r3, #32
 5444 0042 0BD9     		bls	.L1172
 5445 0044 5F2B     		cmp	r3, #95
 5446 0046 08BF     		it	eq
 5447 0048 A423     		moveq	r3, #164
 5448 004a 9145     		cmp	r9, r2
 5449 004c 06F8013B 		strb	r3, [r6], #1
 5450 0050 E4D1     		bne	.L1147
 5451              	.L1170:
 5452 0052 40F22135 		movw	r5, #801
 5453 0056 DFF89C80 		ldr	r8, .L1173+20
 5454 005a 03E0     		b	.L1148
 5455              	.L1172:
 5456 005c E3B2     		uxtb	r3, r4
 5457 005e D9E7     		b	.L1145
 5458              	.L1143:
 5459 0060 0135     		adds	r5, r5, #1
 5460 0062 ADB2     		uxth	r5, r5
 5461              	.L1148:
 5462 0064 0023     		movs	r3, #0
 5463 0066 1F49     		ldr	r1, .L1173+4
 5464 0068 88F80030 		strb	r3, [r8]
 5465 006c FFF7FEFF 		bl	c64_send_command
 5466 0070 0028     		cmp	r0, #0
 5467 0072 32D0     		beq	.L1149
 5468 0074 1C4A     		ldr	r2, .L1173+8
ARM GAS  C:\Users\Jay\AppData\Local\Temp\ccrCOBv6.s 			page 94


 5469 0076 E9B2     		uxtb	r1, r5
 5470              	.L1150:
 5471 0078 1378     		ldrb	r3, [r2]	@ zero_extendqisi2
 5472 007a 002B     		cmp	r3, #0
 5473 007c FCD1     		bne	.L1150
 5474 007e DFF878C0 		ldr	ip, .L1173+24
 5475 0082 8023     		movs	r3, #128
 5476 0084 8CF80010 		strb	r1, [ip]
 5477 0088 1370     		strb	r3, [r2]
 5478 008a C5F30721 		ubfx	r1, r5, #8, #8
 5479              	.L1151:
 5480 008e 1378     		ldrb	r3, [r2]	@ zero_extendqisi2
 5481 0090 002B     		cmp	r3, #0
 5482 0092 FCD1     		bne	.L1151
 5483 0094 8CF80010 		strb	r1, [ip]
 5484 0098 8026     		movs	r6, #128
 5485 009a 1149     		ldr	r1, .L1173
 5486 009c 1670     		strb	r6, [r2]
 5487 009e 3D44     		add	r5, r5, r7
 5488              	.L1153:
 5489 00a0 11F8014B 		ldrb	r4, [r1], #1	@ zero_extendqisi2
 5490              	.L1152:
 5491 00a4 1378     		ldrb	r3, [r2]	@ zero_extendqisi2
 5492 00a6 002B     		cmp	r3, #0
 5493 00a8 FCD1     		bne	.L1152
 5494 00aa A942     		cmp	r1, r5
 5495 00ac 8CF80040 		strb	r4, [ip]
 5496 00b0 1670     		strb	r6, [r2]
 5497 00b2 F5D1     		bne	.L1153
 5498 00b4 0D4B     		ldr	r3, .L1173+12
 5499              	.L1154:
 5500 00b6 1A78     		ldrb	r2, [r3]	@ zero_extendqisi2
 5501 00b8 002A     		cmp	r2, #0
 5502 00ba FCD1     		bne	.L1154
 5503 00bc 0C4C     		ldr	r4, .L1173+16
 5504 00be 2178     		ldrb	r1, [r4]	@ zero_extendqisi2
 5505 00c0 C9B2     		uxtb	r1, r1
 5506 00c2 4022     		movs	r2, #64
 5507 00c4 1A70     		strb	r2, [r3]
 5508              	.L1155:
 5509 00c6 1A78     		ldrb	r2, [r3]	@ zero_extendqisi2
 5510 00c8 002A     		cmp	r2, #0
 5511 00ca FCD1     		bne	.L1155
 5512 00cc 2278     		ldrb	r2, [r4]	@ zero_extendqisi2
 5513 00ce D2B2     		uxtb	r2, r2
 5514 00d0 4024     		movs	r4, #64
 5515 00d2 1C70     		strb	r4, [r3]
 5516 00d4 01B9     		cbnz	r1, .L1157
 5517 00d6 02B1     		cbz	r2, .L1149
 5518              	.L1157:
 5519 00d8 0020     		movs	r0, #0
 5520              	.L1149:
 5521 00da BDE8F883 		pop	{r3, r4, r5, r6, r7, r8, r9, pc}
 5522              	.L1174:
 5523 00de 00BF     		.align	2
 5524              	.L1173:
 5525 00e0 00000100 		.word	scratch_buf
ARM GAS  C:\Users\Jay\AppData\Local\Temp\ccrCOBv6.s 			page 95


 5526 00e4 00000000 		.word	.LC19
 5527 00e8 00000000 		.word	.LANCHOR10
 5528 00ec 00000000 		.word	.LANCHOR12
 5529 00f0 00000000 		.word	.LANCHOR13
 5530 00f4 20030100 		.word	scratch_buf+800
 5531 00f8 00000000 		.word	.LANCHOR11
 5533              		.section	.text.handle_failed_to_read_sd,"ax",%progbits
 5534              		.align	1
 5535              		.p2align 2,,3
 5536              		.syntax unified
 5537              		.thumb
 5538              		.thumb_func
 5539              		.fpu fpv4-sp-d16
 5541              	handle_failed_to_read_sd:
 5542              		@ Volatile: function does not return.
 5543              		@ args = 0, pretend = 0, frame = 0
 5544              		@ frame_needed = 0, uses_anonymous_args = 0
 5545 0000 08B5     		push	{r3, lr}
 5546 0002 FFF7FEFF 		bl	c64_send_exit_menu
 5547 0006 0349     		ldr	r1, .L1177
 5548 0008 0348     		ldr	r0, .L1177+4
 5549 000a FFF7FEFF 		bl	c64_send_text
 5550 000e FFF7FEFF 		bl	restart_to_menu
 5551              	.L1178:
 5552 0012 00BF     		.align	2
 5553              	.L1177:
 5554 0014 00000000 		.word	.LC20
 5555 0018 18000000 		.word	.LC21
 5557              		.section	.text.handle_file_open,"ax",%progbits
 5558              		.align	1
 5559              		.p2align 2,,3
 5560              		.syntax unified
 5561              		.thumb
 5562              		.thumb_func
 5563              		.fpu fpv4-sp-d16
 5565              	handle_file_open:
 5566              		@ args = 0, pretend = 0, frame = 0
 5567              		@ frame_needed = 0, uses_anonymous_args = 0
 5568 0000 08B5     		push	{r3, lr}
 5569 0002 0122     		movs	r2, #1
 5570 0004 FFF7FEFF 		bl	f_open
 5571 0008 28B1     		cbz	r0, .L1179
 5572 000a 034B     		ldr	r3, .L1182
 5573 000c 4FF00052 		mov	r2, #536870912
 5574 0010 9A61     		str	r2, [r3, #24]
 5575 0012 FFF7FEFF 		bl	handle_failed_to_read_sd
 5576              	.L1179:
 5577 0016 08BD     		pop	{r3, pc}
 5578              	.L1183:
 5579              		.align	2
 5580              	.L1182:
 5581 0018 00080240 		.word	1073874944
 5583              		.section	.text.d64_menu_init,"ax",%progbits
 5584              		.align	1
 5585              		.p2align 2,,3
 5586              		.syntax unified
 5587              		.thumb
ARM GAS  C:\Users\Jay\AppData\Local\Temp\ccrCOBv6.s 			page 96


 5588              		.thumb_func
 5589              		.fpu fpv4-sp-d16
 5591              	d64_menu_init:
 5592              		@ args = 0, pretend = 0, frame = 0
 5593              		@ frame_needed = 0, uses_anonymous_args = 0
 5594 0000 38B5     		push	{r3, r4, r5, lr}
 5595 0002 0A4B     		ldr	r3, .L1190
 5596 0004 1A68     		ldr	r2, [r3]
 5597 0006 22B1     		cbz	r2, .L1188
 5598              	.L1185:
 5599 0008 FFF7FEFF 		bl	d64_open.constprop.89
 5600 000c 60B1     		cbz	r0, .L1189
 5601 000e 0748     		ldr	r0, .L1190
 5602 0010 38BD     		pop	{r3, r4, r5, pc}
 5603              	.L1188:
 5604 0012 074A     		ldr	r2, .L1190+4
 5605 0014 074D     		ldr	r5, .L1190+8
 5606 0016 084C     		ldr	r4, .L1190+12
 5607 0018 0849     		ldr	r1, .L1190+16
 5608 001a 1A60     		str	r2, [r3]
 5609 001c 084A     		ldr	r2, .L1190+20
 5610 001e C3E90154 		strd	r5, r4, [r3, #4]
 5611 0022 C3E90312 		strd	r1, r2, [r3, #12]
 5612 0026 EFE7     		b	.L1185
 5613              	.L1189:
 5614 0028 FFF7FEFF 		bl	handle_failed_to_read_sd
 5615              	.L1191:
 5616              		.align	2
 5617              	.L1190:
 5618 002c 00000000 		.word	.LANCHOR28
 5619 0030 00000000 		.word	d64_dir
 5620 0034 00000000 		.word	d64_dir_up
 5621 0038 00000000 		.word	d64_prev_page
 5622 003c 00000000 		.word	d64_next_page
 5623 0040 00000000 		.word	d64_select
 5625              		.section	.text.d64_skip_to_page,"ax",%progbits
 5626              		.align	1
 5627              		.p2align 2,,3
 5628              		.syntax unified
 5629              		.thumb
 5630              		.thumb_func
 5631              		.fpu fpv4-sp-d16
 5633              	d64_skip_to_page:
 5634              		@ args = 0, pretend = 0, frame = 0
 5635              		@ frame_needed = 0, uses_anonymous_args = 0
 5636 0000 2DE9F041 		push	{r4, r5, r6, r7, r8, lr}
 5637 0004 01EB8106 		add	r6, r1, r1, lsl #2
 5638 0008 01EB4606 		add	r6, r1, r6, lsl #1
 5639 000c 7600     		lsls	r6, r6, #1
 5640 000e 022E     		cmp	r6, #2
 5641 0010 80F84813 		strb	r1, [r0, #840]
 5642 0014 17D9     		bls	.L1197
 5643 0016 8046     		mov	r8, r0
 5644 0018 00F11407 		add	r7, r0, #20
 5645 001c 0224     		movs	r4, #2
 5646 001e 03E0     		b	.L1196
 5647              	.L1204:
ARM GAS  C:\Users\Jay\AppData\Local\Temp\ccrCOBv6.s 			page 97


 5648 0020 0134     		adds	r4, r4, #1
 5649 0022 A4B2     		uxth	r4, r4
 5650 0024 A642     		cmp	r6, r4
 5651 0026 0ED0     		beq	.L1197
 5652              	.L1196:
 5653 0028 3846     		mov	r0, r7
 5654 002a FFF7FEFF 		bl	d64_read_dir
 5655 002e 0546     		mov	r5, r0
 5656 0030 0028     		cmp	r0, #0
 5657 0032 F5D1     		bne	.L1204
 5658 0034 3846     		mov	r0, r7
 5659 0036 FFF7FEFF 		bl	d64_read_disk_header
 5660 003a 40B1     		cbz	r0, .L1205
 5661 003c 88F84853 		strb	r5, [r8, #840]
 5662 0040 2846     		mov	r0, r5
 5663 0042 BDE8F081 		pop	{r4, r5, r6, r7, r8, pc}
 5664              	.L1197:
 5665 0046 0125     		movs	r5, #1
 5666 0048 2846     		mov	r0, r5
 5667 004a BDE8F081 		pop	{r4, r5, r6, r7, r8, pc}
 5668              	.L1205:
 5669 004e FFF7FEFF 		bl	handle_failed_to_read_sd
 5671 0052 00BF     		.section	.text.handle_dir_open,"ax",%progbits
 5672              		.align	1
 5673              		.p2align 2,,3
 5674              		.syntax unified
 5675              		.thumb
 5676              		.thumb_func
 5677              		.fpu fpv4-sp-d16
 5679              	handle_dir_open:
 5680              		@ args = 0, pretend = 0, frame = 0
 5681              		@ frame_needed = 0, uses_anonymous_args = 0
 5682 0000 F8B5     		push	{r3, r4, r5, r6, r7, lr}
 5683 0002 00F11804 		add	r4, r0, #24
 5684 0006 0646     		mov	r6, r0
 5685 0008 0C49     		ldr	r1, .L1209
 5686 000a 2046     		mov	r0, r4
 5687 000c FFF7FEFF 		bl	f_opendir
 5688 0010 28B1     		cbz	r0, .L1207
 5689 0012 0B4B     		ldr	r3, .L1209+4
 5690 0014 4FF00052 		mov	r2, #536870912
 5691 0018 9A61     		str	r2, [r3, #24]
 5692 001a FFF7FEFF 		bl	handle_failed_to_read_sd
 5693              	.L1207:
 5694 001e 0746     		mov	r7, r0
 5695 0020 0FCC     		ldmia	r4!, {r0, r1, r2, r3}
 5696 0022 06F14805 		add	r5, r6, #72
 5697 0026 0FC5     		stmia	r5!, {r0, r1, r2, r3}
 5698 0028 0FCC     		ldmia	r4!, {r0, r1, r2, r3}
 5699 002a 0FC5     		stmia	r5!, {r0, r1, r2, r3}
 5700 002c 94E80F00 		ldm	r4, {r0, r1, r2, r3}
 5701 0030 85E80F00 		stm	r5, {r0, r1, r2, r3}
 5702 0034 A6F87870 		strh	r7, [r6, #120]	@ movhi
 5703 0038 7775     		strb	r7, [r6, #21]
 5704 003a F8BD     		pop	{r3, r4, r5, r6, r7, pc}
 5705              	.L1210:
 5706              		.align	2
ARM GAS  C:\Users\Jay\AppData\Local\Temp\ccrCOBv6.s 			page 98


 5707              	.L1209:
 5708 003c 00000000 		.word	.LC14
 5709 0040 00080240 		.word	1073874944
 5711              		.section	.text.settings_save,"ax",%progbits
 5712              		.align	1
 5713              		.p2align 2,,3
 5714              		.syntax unified
 5715              		.thumb
 5716              		.thumb_func
 5717              		.fpu fpv4-sp-d16
 5719              	settings_save:
 5720              		@ Volatile: function does not return.
 5721              		@ args = 0, pretend = 0, frame = 0
 5722              		@ frame_needed = 0, uses_anonymous_args = 0
 5723 0000 08B5     		push	{r3, lr}
 5724 0002 0A4A     		ldr	r2, .L1213
 5725 0004 0A4B     		ldr	r3, .L1213+4
 5726 0006 1278     		ldrb	r2, [r2]	@ zero_extendqisi2
 5727 0008 1A72     		strb	r2, [r3, #8]
 5728 000a FFF7FEFF 		bl	c64_send_exit_menu
 5729 000e 0949     		ldr	r1, .L1213+8
 5730 0010 0948     		ldr	r0, .L1213+12
 5731 0012 FFF7FEFF 		bl	c64_send_text
 5732 0016 094B     		ldr	r3, .L1213+16
 5733 0018 DA68     		ldr	r2, [r3, #12]
 5734 001a 6FF00801 		mvn	r1, #8
 5735 001e 0A40     		ands	r2, r2, r1
 5736 0020 DA60     		str	r2, [r3, #12]
 5737 0022 1961     		str	r1, [r3, #16]
 5738 0024 FFF7FEFF 		bl	save_dat
 5739 0028 FFF7FEFF 		bl	restart_to_menu
 5740              	.L1214:
 5741              		.align	2
 5742              	.L1213:
 5743 002c 00000000 		.word	.LANCHOR31
 5744 0030 00000000 		.word	dat_file
 5745 0034 00000000 		.word	.LC22
 5746 0038 14000000 		.word	.LC23
 5747 003c 00000140 		.word	1073807360
 5749              		.section	.text.crt_handler,"ax",%progbits
 5750              		.align	1
 5751              		.p2align 2,,3
 5752              		.global	crt_handler
 5753              		.syntax unified
 5754              		.thumb
 5755              		.thumb_func
 5756              		.fpu fpv4-sp-d16
 5758              	crt_handler:
 5759              		@ args = 0, pretend = 0, frame = 0
 5760              		@ frame_needed = 0, uses_anonymous_args = 0
 5761 0000 4449     		ldr	r1, .L1259
 5762 0002 0B69     		ldr	r3, [r1, #16]
 5763 0004 1B07     		lsls	r3, r3, #28
 5764 0006 40F18480 		bpl	.L1252
 5765 000a 4348     		ldr	r0, .L1259+4
 5766 000c DFF81CC1 		ldr	ip, .L1259+24
 5767 0010 424B     		ldr	r3, .L1259+8
ARM GAS  C:\Users\Jay\AppData\Local\Temp\ccrCOBv6.s 			page 99


 5768 0012 2DE9F043 		push	{r4, r5, r6, r7, r8, r9, lr}
 5769 0016 4FF00042 		mov	r2, #-2147483648
 5770 001a 414C     		ldr	r4, .L1259+12
 5771 001c 414D     		ldr	r5, .L1259+16
 5772 001e 424F     		ldr	r7, .L1259+20
 5773 0020 8261     		str	r2, [r0, #24]
 5774 0022 45F25556 		movw	r6, #21845
 5775 0026 4FF0000E 		mov	lr, #0
 5776              	.L1229:
 5777 002a 2269     		ldr	r2, [r4, #16]
 5778 002c 1FFA82F9 		uxth	r9, r2
 5779 0030 0269     		ldr	r2, [r0, #16]
 5780 0032 5FFA82F8 		uxtb	r8, r2
 5781 0036 08F00902 		and	r2, r8, #9
 5782 003a 012A     		cmp	r2, #1
 5783 003c 3CD0     		beq	.L1257
 5784 003e 18F0010F 		tst	r8, #1
 5785 0042 55D0     		beq	.L1220
 5786 0044 08F0C002 		and	r2, r8, #192
 5787 0048 C02A     		cmp	r2, #192
 5788 004a 0CD0     		beq	.L1218
 5789 004c DCF80020 		ldr	r2, [ip]
 5790 0050 C9F30D09 		ubfx	r9, r9, #0, #14
 5791 0054 12F80920 		ldrb	r2, [r2, r9]	@ zero_extendqisi2
 5792 0058 3A70     		strb	r2, [r7]
 5793 005a 2E80     		strh	r6, [r5]	@ movhi
 5794              	.L1221:
 5795 005c 4A6A     		ldr	r2, [r1, #36]
 5796 005e 932A     		cmp	r2, #147
 5797 0060 FCD9     		bls	.L1221
 5798 0062 A5F800E0 		strh	lr, [r5]	@ movhi
 5799              	.L1218:
 5800 0066 18F0100F 		tst	r8, #16
 5801 006a 48D1     		bne	.L1258
 5802              	.L1223:
 5803 006c 4A6A     		ldr	r2, [r1, #36]
 5804 006e 532A     		cmp	r2, #83
 5805 0070 FCD8     		bhi	.L1223
 5806 0072 4A6A     		ldr	r2, [r1, #36]
 5807 0074 5A60     		str	r2, [r3, #4]
 5808              	.L1224:
 5809 0076 5A68     		ldr	r2, [r3, #4]
 5810 0078 112A     		cmp	r2, #17
 5811 007a FCD9     		bls	.L1224
 5812 007c D4F81080 		ldr	r8, [r4, #16]
 5813              	.L1225:
 5814 0080 5A68     		ldr	r2, [r3, #4]
 5815 0082 202A     		cmp	r2, #32
 5816 0084 FCD9     		bls	.L1225
 5817 0086 0269     		ldr	r2, [r0, #16]
 5818 0088 02F0C002 		and	r2, r2, #192
 5819 008c C02A     		cmp	r2, #192
 5820 008e 0CD0     		beq	.L1228
 5821 0090 DCF80020 		ldr	r2, [ip]
 5822 0094 C8F30D08 		ubfx	r8, r8, #0, #14
 5823 0098 12F80820 		ldrb	r2, [r2, r8]	@ zero_extendqisi2
 5824 009c 3A70     		strb	r2, [r7]
ARM GAS  C:\Users\Jay\AppData\Local\Temp\ccrCOBv6.s 			page 100


 5825 009e 2E80     		strh	r6, [r5]	@ movhi
 5826              	.L1227:
 5827 00a0 5A68     		ldr	r2, [r3, #4]
 5828 00a2 3C2A     		cmp	r2, #60
 5829 00a4 FCD9     		bls	.L1227
 5830 00a6 A5F800E0 		strh	lr, [r5]	@ movhi
 5831              	.L1228:
 5832 00aa 5A68     		ldr	r2, [r3, #4]
 5833 00ac 602A     		cmp	r2, #96
 5834 00ae BCD8     		bhi	.L1229
 5835 00b0 5A68     		ldr	r2, [r3, #4]
 5836 00b2 602A     		cmp	r2, #96
 5837 00b4 F9D9     		bls	.L1228
 5838 00b6 B8E7     		b	.L1229
 5839              	.L1257:
 5840              		.syntax unified
 5841              	@ 44 "cartridges/crt_normal.c" 1
 5842 00b8 00BF     		nop
 5843              	@ 0 "" 2
 5844              	@ 44 "cartridges/crt_normal.c" 1
 5845 00ba 00BF     		nop
 5846              	@ 0 "" 2
 5847              	@ 44 "cartridges/crt_normal.c" 1
 5848 00bc 00BF     		nop
 5849              	@ 0 "" 2
 5850              	@ 44 "cartridges/crt_normal.c" 1
 5851 00be 00BF     		nop
 5852              	@ 0 "" 2
 5853              	@ 44 "cartridges/crt_normal.c" 1
 5854 00c0 00BF     		nop
 5855              	@ 0 "" 2
 5856              	@ 44 "cartridges/crt_normal.c" 1
 5857 00c2 00BF     		nop
 5858              	@ 0 "" 2
 5859              	@ 44 "cartridges/crt_normal.c" 1
 5860 00c4 00BF     		nop
 5861              	@ 0 "" 2
 5862              		.thumb
 5863              		.syntax unified
 5864 00c6 0269     		ldr	r2, [r0, #16]
 5865 00c8 5FFA82F8 		uxtb	r8, r2
 5866 00cc 08F0C002 		and	r2, r8, #192
 5867 00d0 C02A     		cmp	r2, #192
 5868 00d2 C8D0     		beq	.L1218
 5869 00d4 DCF80020 		ldr	r2, [ip]
 5870 00d8 C9F30D09 		ubfx	r9, r9, #0, #14
 5871 00dc 12F80920 		ldrb	r2, [r2, r9]	@ zero_extendqisi2
 5872 00e0 3A70     		strb	r2, [r7]
 5873 00e2 2E80     		strh	r6, [r5]	@ movhi
 5874              	.L1219:
 5875 00e4 4A6A     		ldr	r2, [r1, #36]
 5876 00e6 932A     		cmp	r2, #147
 5877 00e8 FCD9     		bls	.L1219
 5878 00ea A5F800E0 		strh	lr, [r5]	@ movhi
 5879 00ee BAE7     		b	.L1218
 5880              	.L1220:
 5881              	.L1222:
ARM GAS  C:\Users\Jay\AppData\Local\Temp\ccrCOBv6.s 			page 101


 5882 00f0 4A6A     		ldr	r2, [r1, #36]
 5883 00f2 812A     		cmp	r2, #129
 5884 00f4 FCD9     		bls	.L1222
 5885 00f6 18F0100F 		tst	r8, #16
 5886 00fa 2A69     		ldr	r2, [r5, #16]
 5887 00fc B6D0     		beq	.L1223
 5888              	.L1258:
 5889 00fe 054B     		ldr	r3, .L1259
 5890 0100 DA68     		ldr	r2, [r3, #12]
 5891 0102 6FF00801 		mvn	r1, #8
 5892 0106 0A40     		ands	r2, r2, r1
 5893 0108 DA60     		str	r2, [r3, #12]
 5894 010a 1961     		str	r1, [r3, #16]
 5895 010c 1961     		str	r1, [r3, #16]
 5896 010e BDE8F083 		pop	{r4, r5, r6, r7, r8, r9, pc}
 5897              	.L1252:
 5898 0112 7047     		bx	lr
 5899              	.L1260:
 5900              		.align	2
 5901              	.L1259:
 5902 0114 00000140 		.word	1073807360
 5903 0118 00000240 		.word	1073872896
 5904 011c 001000E0 		.word	-536866816
 5905 0120 00040240 		.word	1073873920
 5906 0124 00080240 		.word	1073874944
 5907 0128 14080240 		.word	1073874964
 5908 012c 00000000 		.word	.LANCHOR7
 5910              		.section	.text.sprint,"ax",%progbits
 5911              		.align	1
 5912              		.p2align 2,,3
 5913              		.syntax unified
 5914              		.thumb
 5915              		.thumb_func
 5916              		.fpu fpv4-sp-d16
 5918              	sprint:
 5919              		@ args = 4, pretend = 12, frame = 8
 5920              		@ frame_needed = 0, uses_anonymous_args = 1
 5921 0000 0EB4     		push	{r1, r2, r3}
 5922 0002 2DE9F04F 		push	{r4, r5, r6, r7, r8, r9, r10, fp, lr}
 5923 0006 82B0     		sub	sp, sp, #8
 5924 0008 0BAA     		add	r2, sp, #44
 5925 000a 8749     		ldr	r1, .L1319
 5926 000c 52F8045B 		ldr	r5, [r2], #4
 5927 0010 864E     		ldr	r6, .L1319+4
 5928 0012 2B78     		ldrb	r3, [r5]	@ zero_extendqisi2
 5929 0014 0192     		str	r2, [sp, #4]
 5930 0016 0024     		movs	r4, #0
 5931 0018 0746     		mov	r7, r0
 5932 001a 0860     		str	r0, [r1]
 5933 001c 3460     		str	r4, [r6]
 5934 001e 002B     		cmp	r3, #0
 5935 0020 00F00081 		beq	.L1289
 5936 0024 A246     		mov	r10, r4
 5937              	.L1288:
 5938 0026 252B     		cmp	r3, #37
 5939 0028 29D0     		beq	.L1314
 5940 002a 002C     		cmp	r4, #0
ARM GAS  C:\Users\Jay\AppData\Local\Temp\ccrCOBv6.s 			page 102


 5941 002c 3CD0     		beq	.L1315
 5942 002e A3F15802 		sub	r2, r3, #88
 5943 0032 202A     		cmp	r2, #32
 5944 0034 00F2E580 		bhi	.L1267
 5945 0038 DFE812F0 		tbh	[pc, r2, lsl #1]
 5946              	.L1269:
 5947 003c AD00     		.2byte	(.L1268-.L1269)/2
 5948 003e E300     		.2byte	(.L1267-.L1269)/2
 5949 0040 E300     		.2byte	(.L1267-.L1269)/2
 5950 0042 E300     		.2byte	(.L1267-.L1269)/2
 5951 0044 E300     		.2byte	(.L1267-.L1269)/2
 5952 0046 E300     		.2byte	(.L1267-.L1269)/2
 5953 0048 E300     		.2byte	(.L1267-.L1269)/2
 5954 004a E300     		.2byte	(.L1267-.L1269)/2
 5955 004c E300     		.2byte	(.L1267-.L1269)/2
 5956 004e E300     		.2byte	(.L1267-.L1269)/2
 5957 0050 E300     		.2byte	(.L1267-.L1269)/2
 5958 0052 A300     		.2byte	(.L1270-.L1269)/2
 5959 0054 7300     		.2byte	(.L1271-.L1269)/2
 5960 0056 E300     		.2byte	(.L1267-.L1269)/2
 5961 0058 E300     		.2byte	(.L1267-.L1269)/2
 5962 005a E300     		.2byte	(.L1267-.L1269)/2
 5963 005c E300     		.2byte	(.L1267-.L1269)/2
 5964 005e E300     		.2byte	(.L1267-.L1269)/2
 5965 0060 E300     		.2byte	(.L1267-.L1269)/2
 5966 0062 E300     		.2byte	(.L1267-.L1269)/2
 5967 0064 E300     		.2byte	(.L1267-.L1269)/2
 5968 0066 E300     		.2byte	(.L1267-.L1269)/2
 5969 0068 E300     		.2byte	(.L1267-.L1269)/2
 5970 006a E300     		.2byte	(.L1267-.L1269)/2
 5971 006c 6300     		.2byte	(.L1272-.L1269)/2
 5972 006e E300     		.2byte	(.L1267-.L1269)/2
 5973 0070 E300     		.2byte	(.L1267-.L1269)/2
 5974 0072 3D00     		.2byte	(.L1273-.L1269)/2
 5975 0074 E300     		.2byte	(.L1267-.L1269)/2
 5976 0076 B800     		.2byte	(.L1274-.L1269)/2
 5977 0078 E300     		.2byte	(.L1267-.L1269)/2
 5978 007a E300     		.2byte	(.L1267-.L1269)/2
 5979 007c AD00     		.2byte	(.L1268-.L1269)/2
 5980              		.p2align 1
 5981              	.L1314:
 5982 007e C4B1     		cbz	r4, .L1316
 5983 0080 3268     		ldr	r2, [r6]
 5984 0082 511C     		adds	r1, r2, #1
 5985 0084 BB54     		strb	r3, [r7, r2]
 5986 0086 3160     		str	r1, [r6]
 5987              	.L1292:
 5988 0088 0024     		movs	r4, #0
 5989              	.L1264:
 5990 008a 15F8013F 		ldrb	r3, [r5, #1]!	@ zero_extendqisi2
 5991 008e 002B     		cmp	r3, #0
 5992 0090 C9D1     		bne	.L1288
 5993 0092 3368     		ldr	r3, [r6]
 5994 0094 1F44     		add	r7, r7, r3
 5995 0096 0133     		adds	r3, r3, #1
 5996              	.L1262:
 5997 0098 0022     		movs	r2, #0
ARM GAS  C:\Users\Jay\AppData\Local\Temp\ccrCOBv6.s 			page 103


 5998 009a 3360     		str	r3, [r6]
 5999 009c 3A70     		strb	r2, [r7]
 6000 009e 02B0     		add	sp, sp, #8
 6001              		@ sp needed
 6002 00a0 BDE8F04F 		pop	{r4, r5, r6, r7, r8, r9, r10, fp, lr}
 6003 00a4 03B0     		add	sp, sp, #12
 6004 00a6 7047     		bx	lr
 6005              	.L1315:
 6006 00a8 3268     		ldr	r2, [r6]
 6007 00aa 511C     		adds	r1, r2, #1
 6008 00ac BB54     		strb	r3, [r7, r2]
 6009 00ae 3160     		str	r1, [r6]
 6010 00b0 EBE7     		b	.L1264
 6011              	.L1316:
 6012 00b2 0124     		movs	r4, #1
 6013 00b4 E9E7     		b	.L1264
 6014              	.L1273:
 6015 00b6 0AF1FF30 		add	r0, r10, #-1
 6016 00ba BAF1000F 		cmp	r10, #0
 6017 00be 0AD0     		beq	.L1276
 6018 00c0 3368     		ldr	r3, [r6]
 6019 00c2 FA18     		adds	r2, r7, r3
 6020 00c4 9244     		add	r10, r10, r2
 6021 00c6 2021     		movs	r1, #32
 6022              	.L1277:
 6023 00c8 02F8011B 		strb	r1, [r2], #1
 6024 00cc 5245     		cmp	r2, r10
 6025 00ce FBD1     		bne	.L1277
 6026 00d0 0133     		adds	r3, r3, #1
 6027 00d2 0344     		add	r3, r3, r0
 6028 00d4 3360     		str	r3, [r6]
 6029              	.L1276:
 6030 00d6 0199     		ldr	r1, [sp, #4]
 6031 00d8 0B68     		ldr	r3, [r1]
 6032 00da 1A78     		ldrb	r2, [r3]	@ zero_extendqisi2
 6033 00dc 0431     		adds	r1, r1, #4
 6034 00de 0191     		str	r1, [sp, #4]
 6035 00e0 62B1     		cbz	r2, .L1278
 6036 00e2 3068     		ldr	r0, [r6]
 6037 00e4 411E     		subs	r1, r0, #1
 6038 00e6 3944     		add	r1, r1, r7
 6039 00e8 C01A     		subs	r0, r0, r3
 6040 00ea 0133     		adds	r3, r3, #1
 6041              	.L1279:
 6042 00ec 01F8012F 		strb	r2, [r1, #1]!
 6043 00f0 C418     		adds	r4, r0, r3
 6044 00f2 13F8012B 		ldrb	r2, [r3], #1	@ zero_extendqisi2
 6045 00f6 002A     		cmp	r2, #0
 6046 00f8 F8D1     		bne	.L1279
 6047 00fa 3460     		str	r4, [r6]
 6048              	.L1278:
 6049 00fc 0024     		movs	r4, #0
 6050 00fe A246     		mov	r10, r4
 6051 0100 C3E7     		b	.L1264
 6052              	.L1272:
 6053 0102 3368     		ldr	r3, [r6]
 6054 0104 019A     		ldr	r2, [sp, #4]
ARM GAS  C:\Users\Jay\AppData\Local\Temp\ccrCOBv6.s 			page 104


 6055 0106 3021     		movs	r1, #48
 6056 0108 F954     		strb	r1, [r7, r3]
 6057 010a F918     		adds	r1, r7, r3
 6058 010c 7820     		movs	r0, #120
 6059 010e 4870     		strb	r0, [r1, #1]
 6060 0110 1068     		ldr	r0, [r2]
 6061 0112 0233     		adds	r3, r3, #2
 6062 0114 0432     		adds	r2, r2, #4
 6063 0116 5146     		mov	r1, r10
 6064 0118 3360     		str	r3, [r6]
 6065 011a 0192     		str	r2, [sp, #4]
 6066 011c FFF7FEFF 		bl	printhex.constprop.94
 6067 0120 B2E7     		b	.L1292
 6068              	.L1271:
 6069 0122 019A     		ldr	r2, [sp, #4]
 6070 0124 D2F800B0 		ldr	fp, [r2]
 6071 0128 0432     		adds	r2, r2, #4
 6072 012a BBF1000F 		cmp	fp, #0
 6073 012e 0192     		str	r2, [sp, #4]
 6074 0130 73D0     		beq	.L1311
 6075 0132 04DA     		bge	.L1284
 6076 0134 2D20     		movs	r0, #45
 6077 0136 FFF7FEFF 		bl	buf_putchar
 6078 013a CBF1000B 		rsb	fp, fp, #0
 6079              	.L1284:
 6080 013e DFF8F490 		ldr	r9, .L1319+12
 6081 0142 9BFBF9F0 		sdiv	r0, fp, r9
 6082 0146 4FF00A08 		mov	r8, #10
 6083 014a 0022     		movs	r2, #0
 6084 014c 09FB10BB 		mls	fp, r9, r0, fp
 6085 0150 A0B1     		cbz	r0, .L1317
 6086              	.L1285:
 6087 0152 3030     		adds	r0, r0, #48
 6088 0154 C0B2     		uxtb	r0, r0
 6089 0156 FFF7FEFF 		bl	buf_putchar
 6090 015a 2246     		mov	r2, r4
 6091              	.L1286:
 6092 015c 344B     		ldr	r3, .L1319+8
 6093 015e B8F10108 		subs	r8, r8, #1
 6094 0162 83FB0931 		smull	r3, r1, r3, r9
 6095 0166 4FEAE979 		asr	r9, r9, #31
 6096 016a C9EBA109 		rsb	r9, r9, r1, asr #2
 6097 016e 8BD0     		beq	.L1292
 6098 0170 9BFBF9F0 		sdiv	r0, fp, r9
 6099 0174 09FB10BB 		mls	fp, r9, r0, fp
 6100 0178 0028     		cmp	r0, #0
 6101 017a EAD1     		bne	.L1285
 6102              	.L1317:
 6103 017c 002A     		cmp	r2, #0
 6104 017e EDD0     		beq	.L1286
 6105 0180 E7E7     		b	.L1285
 6106              	.L1270:
 6107 0182 019A     		ldr	r2, [sp, #4]
 6108 0184 3368     		ldr	r3, [r6]
 6109 0186 1178     		ldrb	r1, [r2]	@ zero_extendqisi2
 6110 0188 F954     		strb	r1, [r7, r3]
 6111 018a 0432     		adds	r2, r2, #4
ARM GAS  C:\Users\Jay\AppData\Local\Temp\ccrCOBv6.s 			page 105


 6112 018c 0133     		adds	r3, r3, #1
 6113 018e 0192     		str	r2, [sp, #4]
 6114 0190 3360     		str	r3, [r6]
 6115 0192 0024     		movs	r4, #0
 6116 0194 79E7     		b	.L1264
 6117              	.L1268:
 6118 0196 019B     		ldr	r3, [sp, #4]
 6119 0198 5146     		mov	r1, r10
 6120 019a 1A1D     		adds	r2, r3, #4
 6121 019c 1868     		ldr	r0, [r3]
 6122 019e 0192     		str	r2, [sp, #4]
 6123 01a0 4FF0000A 		mov	r10, #0
 6124 01a4 FFF7FEFF 		bl	printhex.constprop.94
 6125 01a8 5446     		mov	r4, r10
 6126 01aa 6EE7     		b	.L1264
 6127              	.L1274:
 6128 01ac 019A     		ldr	r2, [sp, #4]
 6129 01ae D2F800B0 		ldr	fp, [r2]
 6130 01b2 0432     		adds	r2, r2, #4
 6131 01b4 0192     		str	r2, [sp, #4]
 6132 01b6 BBF1000F 		cmp	fp, #0
 6133 01ba 2ED0     		beq	.L1311
 6134 01bc DFF87490 		ldr	r9, .L1319+12
 6135 01c0 9BFBF9F0 		sdiv	r0, fp, r9
 6136 01c4 4FF00A08 		mov	r8, #10
 6137 01c8 0022     		movs	r2, #0
 6138 01ca 09FB10BB 		mls	fp, r9, r0, fp
 6139 01ce A8B1     		cbz	r0, .L1318
 6140              	.L1281:
 6141 01d0 3030     		adds	r0, r0, #48
 6142 01d2 C0B2     		uxtb	r0, r0
 6143 01d4 FFF7FEFF 		bl	buf_putchar
 6144 01d8 2246     		mov	r2, r4
 6145              	.L1282:
 6146 01da 154B     		ldr	r3, .L1319+8
 6147 01dc B8F10108 		subs	r8, r8, #1
 6148 01e0 83FB0931 		smull	r3, r1, r3, r9
 6149 01e4 4FEAE979 		asr	r9, r9, #31
 6150 01e8 C9EBA109 		rsb	r9, r9, r1, asr #2
 6151 01ec 3FF44CAF 		beq	.L1292
 6152 01f0 9BFBF9F0 		sdiv	r0, fp, r9
 6153 01f4 09FB10BB 		mls	fp, r9, r0, fp
 6154 01f8 0028     		cmp	r0, #0
 6155 01fa E9D1     		bne	.L1281
 6156              	.L1318:
 6157 01fc 002A     		cmp	r2, #0
 6158 01fe ECD0     		beq	.L1282
 6159 0200 E6E7     		b	.L1281
 6160              	.L1267:
 6161 0202 A3F13002 		sub	r2, r3, #48
 6162 0206 092A     		cmp	r2, #9
 6163 0208 3FF63EAF 		bhi	.L1292
 6164 020c 0AEB8A0A 		add	r10, r10, r10, lsl #2
 6165 0210 03EB4A03 		add	r3, r3, r10, lsl #1
 6166 0214 A3F1300A 		sub	r10, r3, #48
 6167 0218 37E7     		b	.L1264
 6168              	.L1311:
ARM GAS  C:\Users\Jay\AppData\Local\Temp\ccrCOBv6.s 			page 106


 6169 021a 3020     		movs	r0, #48
 6170 021c 5C46     		mov	r4, fp
 6171 021e FFF7FEFF 		bl	buf_putchar
 6172 0222 32E7     		b	.L1264
 6173              	.L1289:
 6174 0224 0123     		movs	r3, #1
 6175 0226 37E7     		b	.L1262
 6176              	.L1320:
 6177              		.align	2
 6178              	.L1319:
 6179 0228 00000000 		.word	.LANCHOR4
 6180 022c 00000000 		.word	.LANCHOR5
 6181 0230 67666666 		.word	1717986919
 6182 0234 00CA9A3B 		.word	1000000000
 6184              		.section	.text.settings_basic_change,"ax",%progbits
 6185              		.align	1
 6186              		.p2align 2,,3
 6187              		.syntax unified
 6188              		.thumb
 6189              		.thumb_func
 6190              		.fpu fpv4-sp-d16
 6192              	settings_basic_change:
 6193              		@ args = 0, pretend = 0, frame = 0
 6194              		@ frame_needed = 0, uses_anonymous_args = 0
 6195 0000 10B5     		push	{r4, lr}
 6196 0002 1048     		ldr	r0, .L1325
 6197 0004 0378     		ldrb	r3, [r0]	@ zero_extendqisi2
 6198 0006 DA07     		lsls	r2, r3, #31
 6199 0008 0C46     		mov	r4, r1
 6200 000a 15D5     		bpl	.L1322
 6201 000c 23F00103 		bic	r3, r3, #1
 6202 0010 0D4A     		ldr	r2, .L1325+4
 6203 0012 0370     		strb	r3, [r0]
 6204              	.L1323:
 6205 0014 0D49     		ldr	r1, .L1325+8
 6206 0016 0E48     		ldr	r0, .L1325+12
 6207 0018 FFF7FEFF 		bl	sprint
 6208 001c 0C49     		ldr	r1, .L1325+12
 6209 001e 2422     		movs	r2, #36
 6210 0020 601C     		adds	r0, r4, #1
 6211 0022 FFF7FEFF 		bl	to_petscii_pad
 6212 0026 0B4A     		ldr	r2, .L1325+16
 6213 0028 2023     		movs	r3, #32
 6214 002a 1068     		ldr	r0, [r2]
 6215 002c 84F82530 		strb	r3, [r4, #37]
 6216 0030 0368     		ldr	r3, [r0]
 6217 0032 9847     		blx	r3
 6218 0034 0020     		movs	r0, #0
 6219 0036 10BD     		pop	{r4, pc}
 6220              	.L1322:
 6221 0038 43F00103 		orr	r3, r3, #1
 6222 003c 064A     		ldr	r2, .L1325+20
 6223 003e 0370     		strb	r3, [r0]
 6224 0040 E8E7     		b	.L1323
 6225              	.L1326:
 6226 0042 00BF     		.align	2
 6227              	.L1325:
ARM GAS  C:\Users\Jay\AppData\Local\Temp\ccrCOBv6.s 			page 107


 6228 0044 00000000 		.word	.LANCHOR31
 6229 0048 04000000 		.word	.LC25
 6230 004c 08000000 		.word	.LC26
 6231 0050 00000100 		.word	scratch_buf
 6232 0054 00000000 		.word	.LANCHOR14
 6233 0058 00000000 		.word	.LC24
 6235              		.section	.text.sd_send_page,"ax",%progbits
 6236              		.align	1
 6237              		.p2align 2,,3
 6238              		.syntax unified
 6239              		.thumb
 6240              		.thumb_func
 6241              		.fpu fpv4-sp-d16
 6243              	sd_send_page:
 6244              		@ args = 0, pretend = 0, frame = 296
 6245              		@ frame_needed = 0, uses_anonymous_args = 0
 6246 0000 2DE9F04F 		push	{r4, r5, r6, r7, r8, r9, r10, fp, lr}
 6247 0004 077D     		ldrb	r7, [r0, #20]	@ zero_extendqisi2
 6248 0006 CBB0     		sub	sp, sp, #300
 6249 0008 8146     		mov	r9, r0
 6250 000a 0191     		str	r1, [sp, #4]
 6251 000c 002F     		cmp	r7, #0
 6252 000e 40F09B80 		bne	.L1345
 6253 0012 B0F878B0 		ldrh	fp, [r0, #120]
 6254 0016 04AE     		add	r6, sp, #16
 6255 0018 BBF1000F 		cmp	fp, #0
 6256 001c 61D0     		beq	.L1329
 6257 001e DFF85881 		ldr	r8, .L1357+28
 6258 0022 4E4C     		ldr	r4, .L1357
 6259 0024 4E4D     		ldr	r5, .L1357+4
 6260              	.L1328:
 6261 0026 09F1480B 		add	fp, r9, #72
 6262 002a 5846     		mov	r0, fp
 6263 002c 3146     		mov	r1, r6
 6264 002e FFF7FEFF 		bl	f_readdir
 6265 0032 4C4B     		ldr	r3, .L1357+8
 6266 0034 4FF00052 		mov	r2, #536870912
 6267 0038 9A61     		str	r2, [r3, #24]
 6268 003a 0028     		cmp	r0, #0
 6269 003c 65D1     		bne	.L1355
 6270 003e B37D     		ldrb	r3, [r6, #22]	@ zero_extendqisi2
 6271 0040 002B     		cmp	r3, #0
 6272 0042 64D0     		beq	.L1331
 6273 0044 7B1C     		adds	r3, r7, #1
 6274 0046 BB46     		mov	fp, r7
 6275 0048 DFB2     		uxtb	r7, r3
 6276              	.L1344:
 6277 004a 4FF0200A 		mov	r10, #32
 6278 004e 1F22     		movs	r2, #31
 6279 0050 0DF12601 		add	r1, sp, #38
 6280 0054 4448     		ldr	r0, .L1357+12
 6281 0056 88F800A0 		strb	r10, [r8]
 6282 005a FFF7FEFF 		bl	to_petscii_pad
 6283 005e 327A     		ldrb	r2, [r6, #8]	@ zero_extendqisi2
 6284 0060 88F820A0 		strb	r10, [r8, #32]
 6285 0064 D306     		lsls	r3, r2, #27
 6286 0066 49D4     		bmi	.L1356
ARM GAS  C:\Users\Jay\AppData\Local\Temp\ccrCOBv6.s 			page 108


 6287 0068 404B     		ldr	r3, .L1357+16
 6288 006a 3268     		ldr	r2, [r6]
 6289 006c 93E80300 		ldm	r3, {r0, r1}
 6290 0070 B2F57A7F 		cmp	r2, #1000
 6291 0074 0290     		str	r0, [sp, #8]
 6292 0076 8DF80C10 		strb	r1, [sp, #12]
 6293 007a 63D3     		bcc	.L1346
 6294 007c 02AB     		add	r3, sp, #8
 6295 007e 00E0     		b	.L1339
 6296              	.L1347:
 6297 0080 0B46     		mov	r3, r1
 6298              	.L1339:
 6299 0082 1832     		adds	r2, r2, #24
 6300 0084 920A     		lsrs	r2, r2, #10
 6301 0086 B2F57A7F 		cmp	r2, #1000
 6302 008a 03F10101 		add	r1, r3, #1
 6303 008e F7D2     		bcs	.L1347
 6304 0090 5B78     		ldrb	r3, [r3, #1]	@ zero_extendqisi2
 6305              	.L1338:
 6306 0092 632A     		cmp	r2, #99
 6307 0094 37D8     		bhi	.L1348
 6308 0096 2021     		movs	r1, #32
 6309 0098 092A     		cmp	r2, #9
 6310 009a 88F82110 		strb	r1, [r8, #33]
 6311 009e 5AD8     		bhi	.L1349
 6312 00a0 3348     		ldr	r0, .L1357+20
 6313 00a2 88F82210 		strb	r1, [r8, #34]
 6314              	.L1340:
 6315 00a6 3349     		ldr	r1, .L1357+24
 6316 00a8 FFF7FEFF 		bl	sprint
 6317              	.L1337:
 6318 00ac 019B     		ldr	r3, [sp, #4]
 6319 00ae 324A     		ldr	r2, .L1357+28
 6320 00b0 5B45     		cmp	r3, fp
 6321 00b2 04BF     		itt	eq
 6322 00b4 A023     		moveq	r3, #160
 6323 00b6 88F80030 		strbeq	r3, [r8]
 6324 00ba 4FF0800C 		mov	ip, #128
 6325 00be 02F12600 		add	r0, r2, #38
 6326              	.L1343:
 6327 00c2 12F8011B 		ldrb	r1, [r2], #1	@ zero_extendqisi2
 6328              	.L1342:
 6329 00c6 2378     		ldrb	r3, [r4]	@ zero_extendqisi2
 6330 00c8 002B     		cmp	r3, #0
 6331 00ca FCD1     		bne	.L1342
 6332 00cc 8242     		cmp	r2, r0
 6333 00ce 2970     		strb	r1, [r5]
 6334 00d0 84F800C0 		strb	ip, [r4]
 6335 00d4 F5D1     		bne	.L1343
 6336 00d6 162F     		cmp	r7, #22
 6337 00d8 A5D1     		bne	.L1328
 6338              	.L1350:
 6339 00da 3846     		mov	r0, r7
 6340 00dc 4BB0     		add	sp, sp, #300
 6341              		@ sp needed
 6342 00de BDE8F08F 		pop	{r4, r5, r6, r7, r8, r9, r10, fp, pc}
 6343              	.L1329:
ARM GAS  C:\Users\Jay\AppData\Local\Temp\ccrCOBv6.s 			page 109


 6344 00e2 42F62E62 		movw	r2, #11822
 6345 00e6 1023     		movs	r3, #16
 6346 00e8 86F818B0 		strb	fp, [r6, #24]
 6347 00ec F282     		strh	r2, [r6, #22]	@ movhi
 6348 00ee 3372     		strb	r3, [r6, #8]
 6349 00f0 0127     		movs	r7, #1
 6350 00f2 DFF88480 		ldr	r8, .L1357+28
 6351 00f6 194C     		ldr	r4, .L1357
 6352 00f8 194D     		ldr	r5, .L1357+4
 6353 00fa A6E7     		b	.L1344
 6354              	.L1356:
 6355 00fc 1F49     		ldr	r1, .L1357+32
 6356 00fe 2048     		ldr	r0, .L1357+36
 6357 0100 FFF7FEFF 		bl	sprint
 6358 0104 D2E7     		b	.L1337
 6359              	.L1348:
 6360 0106 1E48     		ldr	r0, .L1357+36
 6361 0108 CDE7     		b	.L1340
 6362              	.L1355:
 6363 010a 0023     		movs	r3, #0
 6364 010c B375     		strb	r3, [r6, #22]
 6365              	.L1331:
 6366 010e 5846     		mov	r0, fp
 6367 0110 FFF7FEFF 		bl	f_closedir
 6368 0114 134B     		ldr	r3, .L1357+8
 6369 0116 184A     		ldr	r2, .L1357+28
 6370 0118 4FF00051 		mov	r1, #536870912
 6371 011c 9961     		str	r1, [r3, #24]
 6372 011e 0123     		movs	r3, #1
 6373 0120 0021     		movs	r1, #0
 6374 0122 89F81530 		strb	r3, [r9, #21]
 6375 0126 02F12506 		add	r6, r2, #37
 6376 012a 88F80010 		strb	r1, [r8]
 6377 012e 8020     		movs	r0, #128
 6378              	.L1333:
 6379 0130 2378     		ldrb	r3, [r4]	@ zero_extendqisi2
 6380 0132 002B     		cmp	r3, #0
 6381 0134 FCD1     		bne	.L1333
 6382 0136 B242     		cmp	r2, r6
 6383 0138 2970     		strb	r1, [r5]
 6384 013a 2070     		strb	r0, [r4]
 6385 013c CDD0     		beq	.L1350
 6386 013e 12F8011F 		ldrb	r1, [r2, #1]!	@ zero_extendqisi2
 6387 0142 F5E7     		b	.L1333
 6388              	.L1346:
 6389 0144 4223     		movs	r3, #66
 6390 0146 A4E7     		b	.L1338
 6391              	.L1345:
 6392 0148 DFF82C80 		ldr	r8, .L1357+28
 6393 014c 034C     		ldr	r4, .L1357
 6394 014e 044D     		ldr	r5, .L1357+4
 6395 0150 0027     		movs	r7, #0
 6396 0152 04AE     		add	r6, sp, #16
 6397 0154 67E7     		b	.L1328
 6398              	.L1349:
 6399 0156 0B48     		ldr	r0, .L1357+40
 6400 0158 A5E7     		b	.L1340
ARM GAS  C:\Users\Jay\AppData\Local\Temp\ccrCOBv6.s 			page 110


 6401              	.L1358:
 6402 015a 00BF     		.align	2
 6403              	.L1357:
 6404 015c 00000000 		.word	.LANCHOR10
 6405 0160 00000000 		.word	.LANCHOR11
 6406 0164 00080240 		.word	1073874944
 6407 0168 01000100 		.word	scratch_buf+1
 6408 016c 10000000 		.word	.LC28
 6409 0170 23000100 		.word	scratch_buf+35
 6410 0174 08000000 		.word	.LC29
 6411 0178 00000100 		.word	scratch_buf
 6412 017c 00000000 		.word	.LC27
 6413 0180 21000100 		.word	scratch_buf+33
 6414 0184 22000100 		.word	scratch_buf+34
 6416              		.section	.text.handle_dir_next_page_command,"ax",%progbits
 6417              		.align	1
 6418              		.p2align 2,,3
 6419              		.syntax unified
 6420              		.thumb
 6421              		.thumb_func
 6422              		.fpu fpv4-sp-d16
 6424              	handle_dir_next_page_command:
 6425              		@ args = 0, pretend = 0, frame = 48
 6426              		@ frame_needed = 0, uses_anonymous_args = 0
 6427 0000 70B5     		push	{r4, r5, r6, lr}
 6428 0002 234A     		ldr	r2, .L1371
 6429 0004 8CB0     		sub	sp, sp, #48
 6430              	.L1360:
 6431 0006 1178     		ldrb	r1, [r2]	@ zero_extendqisi2
 6432 0008 01F0FF03 		and	r3, r1, #255
 6433 000c 0029     		cmp	r1, #0
 6434 000e FAD1     		bne	.L1360
 6435 0010 204D     		ldr	r5, .L1371+4
 6436 0012 417D     		ldrb	r1, [r0, #21]	@ zero_extendqisi2
 6437 0014 0226     		movs	r6, #2
 6438 0016 8024     		movs	r4, #128
 6439 0018 2E70     		strb	r6, [r5]
 6440 001a 1470     		strb	r4, [r2]
 6441 001c 79B1     		cbz	r1, .L1370
 6442 001e 1E48     		ldr	r0, .L1371+8
 6443 0020 0146     		mov	r1, r0
 6444 0022 0370     		strb	r3, [r0]
 6445 0024 01F12506 		add	r6, r1, #37
 6446 0028 1846     		mov	r0, r3
 6447              	.L1365:
 6448 002a 1378     		ldrb	r3, [r2]	@ zero_extendqisi2
 6449 002c 002B     		cmp	r3, #0
 6450 002e FCD1     		bne	.L1365
 6451 0030 8E42     		cmp	r6, r1
 6452 0032 2870     		strb	r0, [r5]
 6453 0034 1470     		strb	r4, [r2]
 6454 0036 22D0     		beq	.L1359
 6455 0038 11F8010F 		ldrb	r0, [r1, #1]!	@ zero_extendqisi2
 6456 003c F5E7     		b	.L1365
 6457              	.L1370:
 6458 003e 00F14806 		add	r6, r0, #72
 6459 0042 0446     		mov	r4, r0
ARM GAS  C:\Users\Jay\AppData\Local\Temp\ccrCOBv6.s 			page 111


 6460 0044 0FCE     		ldmia	r6!, {r0, r1, r2, r3}
 6461 0046 6D46     		mov	r5, sp
 6462 0048 0FC5     		stmia	r5!, {r0, r1, r2, r3}
 6463 004a 0FCE     		ldmia	r6!, {r0, r1, r2, r3}
 6464 004c 0FC5     		stmia	r5!, {r0, r1, r2, r3}
 6465 004e 96E80F00 		ldm	r6, {r0, r1, r2, r3}
 6466 0052 B4F87860 		ldrh	r6, [r4, #120]
 6467 0056 0136     		adds	r6, r6, #1
 6468 0058 85E80F00 		stm	r5, {r0, r1, r2, r3}
 6469 005c A4F87860 		strh	r6, [r4, #120]	@ movhi
 6470 0060 1621     		movs	r1, #22
 6471 0062 2046     		mov	r0, r4
 6472 0064 FFF7FEFF 		bl	sd_send_page
 6473 0068 58B1     		cbz	r0, .L1362
 6474 006a 6D46     		mov	r5, sp
 6475 006c 0FCD     		ldmia	r5!, {r0, r1, r2, r3}
 6476 006e 1834     		adds	r4, r4, #24
 6477 0070 0FC4     		stmia	r4!, {r0, r1, r2, r3}
 6478 0072 0FCD     		ldmia	r5!, {r0, r1, r2, r3}
 6479 0074 0FC4     		stmia	r4!, {r0, r1, r2, r3}
 6480 0076 95E80F00 		ldm	r5, {r0, r1, r2, r3}
 6481 007a 84E80F00 		stm	r4, {r0, r1, r2, r3}
 6482              	.L1359:
 6483 007e 0CB0     		add	sp, sp, #48
 6484              		@ sp needed
 6485 0080 70BD     		pop	{r4, r5, r6, pc}
 6486              	.L1362:
 6487 0082 B4F87830 		ldrh	r3, [r4, #120]
 6488 0086 013B     		subs	r3, r3, #1
 6489 0088 A4F87830 		strh	r3, [r4, #120]	@ movhi
 6490 008c 0CB0     		add	sp, sp, #48
 6491              		@ sp needed
 6492 008e 70BD     		pop	{r4, r5, r6, pc}
 6493              	.L1372:
 6494              		.align	2
 6495              	.L1371:
 6496 0090 00000000 		.word	.LANCHOR10
 6497 0094 00000000 		.word	.LANCHOR11
 6498 0098 00000100 		.word	scratch_buf
 6500              		.section	.text.handle_dir_prev_page_command,"ax",%progbits
 6501              		.align	1
 6502              		.p2align 2,,3
 6503              		.syntax unified
 6504              		.thumb
 6505              		.thumb_func
 6506              		.fpu fpv4-sp-d16
 6508              	handle_dir_prev_page_command:
 6509              		@ args = 0, pretend = 0, frame = 280
 6510              		@ frame_needed = 0, uses_anonymous_args = 0
 6511 0000 2DE9F047 		push	{r4, r5, r6, r7, r8, r9, r10, lr}
 6512 0004 B0F87830 		ldrh	r3, [r0, #120]
 6513 0008 C6B0     		sub	sp, sp, #280
