ARM GAS  C:\Users\Jay\AppData\Local\Temp\ccrCOBv6.s 			page 1


   1              		.cpu cortex-m4
   2              		.eabi_attribute 27, 1
   3              		.eabi_attribute 28, 1
   4              		.eabi_attribute 20, 1
   5              		.eabi_attribute 21, 1
   6              		.eabi_attribute 23, 3
   7              		.eabi_attribute 24, 1
   8              		.eabi_attribute 25, 1
   9              		.eabi_attribute 26, 1
  10              		.eabi_attribute 30, 2
  11              		.eabi_attribute 34, 1
  12              		.eabi_attribute 18, 4
  13              		.file	"main.c"
  14              		.text
  15              		.section	.text.sdio_cmd_send,"ax",%progbits
  16              		.align	1
  17              		.p2align 2,,3
  18              		.syntax unified
  19              		.thumb
  20              		.thumb_func
  21              		.fpu fpv4-sp-d16
  23              	sdio_cmd_send:
  24              		@ args = 0, pretend = 0, frame = 0
  25              		@ frame_needed = 0, uses_anonymous_args = 0
  26 0000 F8B5     		push	{r3, r4, r5, r6, r7, lr}
  27 0002 1546     		mov	r5, r2
  28 0004 0206     		lsls	r2, r0, #24
  29 0006 0446     		mov	r4, r0
  30 0008 0F46     		mov	r7, r1
  31 000a 1E46     		mov	r6, r3
  32 000c 3AD4     		bmi	.L2
  33              	.L8:
  34 000e 012D     		cmp	r5, #1
  35 0010 04F03F04 		and	r4, r4, #63
  36 0014 2BD0     		beq	.L35
  37 0016 022D     		cmp	r5, #2
  38 0018 14BF     		ite	ne
  39 001a 44F48061 		orrne	r1, r4, #1024
  40 001e 44F49861 		orreq	r1, r4, #1216
  41              	.L9:
  42 0022 1F4B     		ldr	r3, .L37
  43 0024 1F4A     		ldr	r2, .L37+4
  44 0026 9A63     		str	r2, [r3, #56]
  45 0028 9F60     		str	r7, [r3, #8]
  46 002a 1A46     		mov	r2, r3
  47 002c D960     		str	r1, [r3, #12]
  48              	.L11:
  49 002e 536B     		ldr	r3, [r2, #52]
  50 0030 1905     		lsls	r1, r3, #20
  51 0032 FCD4     		bmi	.L11
  52 0034 85B1     		cbz	r5, .L32
  53 0036 1A4A     		ldr	r2, .L37
  54              	.L12:
  55 0038 536B     		ldr	r3, [r2, #52]
  56 003a 13F0450F 		tst	r3, #69
  57 003e FBD0     		beq	.L12
  58 0040 5A07     		lsls	r2, r3, #29
ARM GAS  C:\Users\Jay\AppData\Local\Temp\ccrCOBv6.s 			page 2


  59 0042 07D4     		bmi	.L7
  60 0044 DB07     		lsls	r3, r3, #31
  61 0046 0BD5     		bpl	.L13
  62 0048 012C     		cmp	r4, #1
  63 004a 09D0     		beq	.L13
  64 004c 0C2C     		cmp	r4, #12
  65 004e 07D0     		beq	.L13
  66 0050 292C     		cmp	r4, #41
  67 0052 05D0     		beq	.L13
  68              	.L7:
  69 0054 0020     		movs	r0, #0
  70 0056 F8BD     		pop	{r3, r4, r5, r6, r7, pc}
  71              	.L32:
  72 0058 506B     		ldr	r0, [r2, #52]
  73 005a C0F3C010 		ubfx	r0, r0, #7, #1
  74 005e F8BD     		pop	{r3, r4, r5, r6, r7, pc}
  75              	.L13:
  76 0060 0F4B     		ldr	r3, .L37
  77 0062 022D     		cmp	r5, #2
  78 0064 5A69     		ldr	r2, [r3, #20]
  79 0066 3260     		str	r2, [r6]
  80 0068 04D0     		beq	.L36
  81 006a 0120     		movs	r0, #1
  82 006c F8BD     		pop	{r3, r4, r5, r6, r7, pc}
  83              	.L35:
  84 006e 44F48861 		orr	r1, r4, #1088
  85 0072 D6E7     		b	.L9
  86              	.L36:
  87 0074 9A69     		ldr	r2, [r3, #24]
  88 0076 7260     		str	r2, [r6, #4]
  89 0078 DA69     		ldr	r2, [r3, #28]
  90 007a B260     		str	r2, [r6, #8]
  91 007c 1B6A     		ldr	r3, [r3, #32]
  92 007e F360     		str	r3, [r6, #12]
  93 0080 0120     		movs	r0, #1
  94 0082 F8BD     		pop	{r3, r4, r5, r6, r7, pc}
  95              	.L2:
  96 0084 084A     		ldr	r2, .L37+8
  97 0086 1188     		ldrh	r1, [r2]
  98 0088 3720     		movs	r0, #55
  99 008a 0122     		movs	r2, #1
 100 008c 0904     		lsls	r1, r1, #16
 101 008e FFF7B7FF 		bl	sdio_cmd_send
 102 0092 0028     		cmp	r0, #0
 103 0094 DED0     		beq	.L7
 104 0096 3368     		ldr	r3, [r6]
 105 0098 9806     		lsls	r0, r3, #26
 106 009a B8D4     		bmi	.L8
 107 009c DAE7     		b	.L7
 108              	.L38:
 109 009e 00BF     		.align	2
 110              	.L37:
 111 00a0 002C0140 		.word	1073818624
 112 00a4 C500C000 		.word	12583109
 113 00a8 00000000 		.word	.LANCHOR0
 115              		.section	.text.usbd_set_address,"ax",%progbits
 116              		.align	1
ARM GAS  C:\Users\Jay\AppData\Local\Temp\ccrCOBv6.s 			page 3


 117              		.p2align 2,,3
 118              		.syntax unified
 119              		.thumb
 120              		.thumb_func
 121              		.fpu fpv4-sp-d16
 123              	usbd_set_address:
 124              		@ args = 0, pretend = 0, frame = 0
 125              		@ frame_needed = 0, uses_anonymous_args = 0
 126 0000 38B5     		push	{r3, r4, r5, lr}
 127 0002 0368     		ldr	r3, [r0]
 128 0004 0D46     		mov	r5, r1
 129 0006 0446     		mov	r4, r0
 130 0008 DB68     		ldr	r3, [r3, #12]
 131 000a 8878     		ldrb	r0, [r1, #2]	@ zero_extendqisi2
 132 000c 9847     		blx	r3
 133 000e 6B88     		ldrh	r3, [r5, #2]
 134 0010 002B     		cmp	r3, #0
 135 0012 14BF     		ite	ne
 136 0014 0323     		movne	r3, #3
 137 0016 0223     		moveq	r3, #2
 138 0018 84F86230 		strb	r3, [r4, #98]
 139 001c 38BD     		pop	{r3, r4, r5, pc}
 141 001e 00BF     		.section	.text.usbd_process_evt,"ax",%progbits
 142              		.align	1
 143              		.p2align 2,,3
 144              		.syntax unified
 145              		.thumb
 146              		.thumb_func
 147              		.fpu fpv4-sp-d16
 149              	usbd_process_evt:
 150              		@ args = 0, pretend = 0, frame = 0
 151              		@ frame_needed = 0, uses_anonymous_args = 0
 152 0000 70B5     		push	{r4, r5, r6, lr}
 153 0002 0446     		mov	r4, r0
 154 0004 1646     		mov	r6, r2
 155 0006 0D46     		mov	r5, r1
 156 0008 A9B1     		cbz	r1, .L45
 157 000a 0B1F     		subs	r3, r1, #4
 158 000c 022B     		cmp	r3, #2
 159 000e 09D9     		bls	.L53
 160              	.L44:
 161 0010 04EB8503 		add	r3, r4, r5, lsl #2
 162 0014 5B69     		ldr	r3, [r3, #20]
 163 0016 13B3     		cbz	r3, .L43
 164 0018 3246     		mov	r2, r6
 165 001a 2946     		mov	r1, r5
 166 001c 2046     		mov	r0, r4
 167 001e BDE87040 		pop	{r4, r5, r6, lr}
 168 0022 1847     		bx	r3	@ indirect register sibling call
 169              	.L53:
 170 0024 02F00703 		and	r3, r2, #7
 171 0028 00EB8303 		add	r3, r0, r3, lsl #2
 172 002c 5B6B     		ldr	r3, [r3, #52]
 173 002e 002B     		cmp	r3, #0
 174 0030 EED0     		beq	.L44
 175 0032 9847     		blx	r3
 176 0034 ECE7     		b	.L44
ARM GAS  C:\Users\Jay\AppData\Local\Temp\ccrCOBv6.s 			page 4


 177              	.L45:
 178 0036 0368     		ldr	r3, [r0]
 179 0038 84F86310 		strb	r1, [r4, #99]
 180 003c 0222     		movs	r2, #2
 181 003e 84F86110 		strb	r1, [r4, #97]
 182 0042 80F86220 		strb	r2, [r0, #98]
 183 0046 1B69     		ldr	r3, [r3, #16]
 184 0048 90F86020 		ldrb	r2, [r0, #96]	@ zero_extendqisi2
 185 004c 0846     		mov	r0, r1
 186 004e 9847     		blx	r3
 187 0050 2368     		ldr	r3, [r4]
 188 0052 034A     		ldr	r2, .L54
 189 0054 DB68     		ldr	r3, [r3, #12]
 190 0056 6263     		str	r2, [r4, #52]
 191 0058 2846     		mov	r0, r5
 192 005a 9847     		blx	r3
 193 005c D8E7     		b	.L44
 194              	.L43:
 195 005e 70BD     		pop	{r4, r5, r6, pc}
 196              	.L55:
 197              		.align	2
 198              	.L54:
 199 0060 00000000 		.word	usbd_process_ep0
 201              		.section	.text.setaddr,"ax",%progbits
 202              		.align	1
 203              		.p2align 2,,3
 204              		.global	setaddr
 205              		.syntax unified
 206              		.thumb
 207              		.thumb_func
 208              		.fpu fpv4-sp-d16
 210              	setaddr:
 211              		@ args = 0, pretend = 0, frame = 0
 212              		@ frame_needed = 0, uses_anonymous_args = 0
 213              		@ link register save eliminated.
 214 0000 034A     		ldr	r2, .L57
 215 0002 1368     		ldr	r3, [r2]
 216 0004 23F4FE63 		bic	r3, r3, #2032
 217 0008 43EA0010 		orr	r0, r3, r0, lsl #4
 218 000c 1060     		str	r0, [r2]
 219 000e 7047     		bx	lr
 220              	.L58:
 221              		.align	2
 222              	.L57:
 223 0010 00080050 		.word	1342179328
 225              		.section	.text.set_tx_fifo,"ax",%progbits
 226              		.align	1
 227              		.p2align 2,,3
 228              		.syntax unified
 229              		.thumb
 230              		.thumb_func
 231              		.fpu fpv4-sp-d16
 233              	set_tx_fifo:
 234              		@ args = 0, pretend = 0, frame = 0
 235              		@ frame_needed = 0, uses_anonymous_args = 0
 236              		@ link register save eliminated.
 237 0000 4FF0A043 		mov	r3, #1342177280
ARM GAS  C:\Users\Jay\AppData\Local\Temp\ccrCOBv6.s 			page 5


 238 0004 30B4     		push	{r4, r5}
 239 0006 9C6A     		ldr	r4, [r3, #40]
 240 0008 04EB1444 		add	r4, r4, r4, lsr #16
 241 000c A4B2     		uxth	r4, r4
 242 000e 0022     		movs	r2, #0
 243              	.L61:
 244 0010 9300     		lsls	r3, r2, #2
 245 0012 03F1A043 		add	r3, r3, #1342177280
 246 0016 03F58073 		add	r3, r3, #256
 247 001a 0132     		adds	r2, r2, #1
 248 001c 5B68     		ldr	r3, [r3, #4]
 249 001e 9DB2     		uxth	r5, r3
 250 0020 B5F5007F 		cmp	r5, #512
 251 0024 05D2     		bcs	.L60
 252 0026 03EB1343 		add	r3, r3, r3, lsr #16
 253 002a 9BB2     		uxth	r3, r3
 254 002c 9C42     		cmp	r4, r3
 255 002e 38BF     		it	cc
 256 0030 1C46     		movcc	r4, r3
 257              	.L60:
 258 0032 032A     		cmp	r2, #3
 259 0034 ECD1     		bne	.L61
 260 0036 0331     		adds	r1, r1, #3
 261 0038 8910     		asrs	r1, r1, #2
 262 003a 1029     		cmp	r1, #16
 263 003c B8BF     		it	lt
 264 003e 1021     		movlt	r1, #16
 265 0040 0B19     		adds	r3, r1, r4
 266 0042 B3F5A07F 		cmp	r3, #320
 267 0046 09D8     		bhi	.L63
 268 0048 8000     		lsls	r0, r0, #2
 269 004a 00F1A040 		add	r0, r0, #1342177280
 270 004e 44EA0144 		orr	r4, r4, r1, lsl #16
 271 0052 C0F80041 		str	r4, [r0, #256]
 272 0056 0120     		movs	r0, #1
 273 0058 30BC     		pop	{r4, r5}
 274 005a 7047     		bx	lr
 275              	.L63:
 276 005c 0020     		movs	r0, #0
 277 005e 30BC     		pop	{r4, r5}
 278 0060 7047     		bx	lr
 280 0062 00BF     		.section	.text.ep_deconfig,"ax",%progbits
 281              		.align	1
 282              		.p2align 2,,3
 283              		.global	ep_deconfig
 284              		.syntax unified
 285              		.thumb
 286              		.thumb_func
 287              		.fpu fpv4-sp-d16
 289              	ep_deconfig:
 290              		@ args = 0, pretend = 0, frame = 0
 291              		@ frame_needed = 0, uses_anonymous_args = 0
 292              		@ link register save eliminated.
 293 0000 30B4     		push	{r4, r5}
 294 0002 2E4C     		ldr	r4, .L80
 295 0004 00F07F00 		and	r0, r0, #127
 296 0008 E369     		ldr	r3, [r4, #28]
ARM GAS  C:\Users\Jay\AppData\Local\Temp\ccrCOBv6.s 			page 6


 297 000a 4FF00112 		mov	r2, #65537
 298 000e 8240     		lsls	r2, r2, r0
 299 0010 4101     		lsls	r1, r0, #5
 300 0012 01F1A041 		add	r1, r1, #1342177280
 301 0016 23EA0203 		bic	r3, r3, r2
 302 001a E361     		str	r3, [r4, #28]
 303 001c D1F80039 		ldr	r3, [r1, #2304]
 304 0020 4FF0A042 		mov	r2, #1342177280
 305 0024 23F40043 		bic	r3, r3, #32768
 306 0028 C1F80039 		str	r3, [r1, #2304]
 307 002c 1469     		ldr	r4, [r2, #16]
 308 002e 8301     		lsls	r3, r0, #6
 309 0030 24F4F864 		bic	r4, r4, #1984
 310 0034 44F02004 		orr	r4, r4, #32
 311 0038 03F4F863 		and	r3, r3, #1984
 312 003c 2343     		orrs	r3, r3, r4
 313 003e 1361     		str	r3, [r2, #16]
 314 0040 01F51065 		add	r5, r1, #2304
 315 0044 01F53064 		add	r4, r1, #2816
 316              	.L67:
 317 0048 1369     		ldr	r3, [r2, #16]
 318 004a 9B06     		lsls	r3, r3, #26
 319 004c FCD4     		bmi	.L67
 320 004e D1F80039 		ldr	r3, [r1, #2304]
 321 0052 002B     		cmp	r3, #0
 322 0054 0EDB     		blt	.L79
 323 0056 FF23     		movs	r3, #255
 324 0058 AB60     		str	r3, [r5, #8]
 325 005a 90B9     		cbnz	r0, .L70
 326              	.L71:
 327 005c D1F8003B 		ldr	r3, [r1, #2816]
 328 0060 23F40043 		bic	r3, r3, #32768
 329 0064 C1F8003B 		str	r3, [r1, #2816]
 330 0068 D1F8003B 		ldr	r3, [r1, #2816]
 331 006c FF23     		movs	r3, #255
 332 006e A360     		str	r3, [r4, #8]
 333 0070 30BC     		pop	{r4, r5}
 334 0072 7047     		bx	lr
 335              	.L79:
 336 0074 F8B1     		cbz	r0, .L69
 337 0076 4FF08042 		mov	r2, #1073741824
 338 007a FF23     		movs	r3, #255
 339 007c C1F80029 		str	r2, [r1, #2304]
 340 0080 AB60     		str	r3, [r5, #8]
 341              	.L70:
 342 0082 8300     		lsls	r3, r0, #2
 343 0084 03F1A043 		add	r3, r3, #1342177280
 344 0088 00F10110 		add	r0, r0, #65537
 345 008c 4002     		lsls	r0, r0, #9
 346 008e C3F80001 		str	r0, [r3, #256]
 347 0092 D1F8003B 		ldr	r3, [r1, #2816]
 348 0096 23F40043 		bic	r3, r3, #32768
 349 009a C1F8003B 		str	r3, [r1, #2816]
 350 009e D1F8003B 		ldr	r3, [r1, #2816]
 351 00a2 002B     		cmp	r3, #0
 352 00a4 BCBF     		itt	lt
 353 00a6 4FF08043 		movlt	r3, #1073741824
ARM GAS  C:\Users\Jay\AppData\Local\Temp\ccrCOBv6.s 			page 7


 354 00aa C1F8003B 		strlt	r3, [r1, #2816]
 355 00ae FF23     		movs	r3, #255
 356 00b0 A360     		str	r3, [r4, #8]
 357 00b2 30BC     		pop	{r4, r5}
 358 00b4 7047     		bx	lr
 359              	.L69:
 360 00b6 FF23     		movs	r3, #255
 361 00b8 AB60     		str	r3, [r5, #8]
 362 00ba CFE7     		b	.L71
 363              	.L81:
 364              		.align	2
 365              	.L80:
 366 00bc 00080050 		.word	1342179328
 368              		.section	.text.ep_read,"ax",%progbits
 369              		.align	1
 370              		.p2align 2,,3
 371              		.global	ep_read
 372              		.syntax unified
 373              		.thumb
 374              		.thumb_func
 375              		.fpu fpv4-sp-d16
 377              	ep_read:
 378              		@ args = 0, pretend = 0, frame = 0
 379              		@ frame_needed = 0, uses_anonymous_args = 0
 380              		@ link register save eliminated.
 381 0000 4FF0A043 		mov	r3, #1342177280
 382 0004 F0B4     		push	{r4, r5, r6, r7}
 383 0006 5C69     		ldr	r4, [r3, #20]
 384 0008 E406     		lsls	r4, r4, #27
 385 000a 2CD5     		bpl	.L90
 386 000c DC69     		ldr	r4, [r3, #28]
 387 000e 00F07F00 		and	r0, r0, #127
 388 0012 04F00F04 		and	r4, r4, #15
 389 0016 8442     		cmp	r4, r0
 390 0018 25D1     		bne	.L90
 391 001a 186A     		ldr	r0, [r3, #32]
 392 001c C0F30A10 		ubfx	r0, r0, #4, #11
 393 0020 F8B1     		cbz	r0, .L82
 394 0022 124F     		ldr	r7, .L97
 395 0024 0025     		movs	r5, #0
 396 0026 06E0     		b	.L88
 397              	.L84:
 398 0028 043A     		subs	r2, r2, #4
 399 002a 41F8043B 		str	r3, [r1], #4
 400 002e 92B2     		uxth	r2, r2
 401              	.L86:
 402 0030 0435     		adds	r5, r5, #4
 403 0032 8542     		cmp	r5, r0
 404 0034 15D2     		bcs	.L82
 405              	.L88:
 406 0036 032A     		cmp	r2, #3
 407 0038 3B68     		ldr	r3, [r7]
 408 003a F5D8     		bhi	.L84
 409 003c 002A     		cmp	r2, #0
 410 003e F7D0     		beq	.L86
 411 0040 013A     		subs	r2, r2, #1
 412 0042 92B2     		uxth	r2, r2
ARM GAS  C:\Users\Jay\AppData\Local\Temp\ccrCOBv6.s 			page 8


 413 0044 8E18     		adds	r6, r1, r2
 414 0046 4C1E     		subs	r4, r1, #1
 415              	.L87:
 416 0048 04F8013F 		strb	r3, [r4, #1]!
 417 004c A642     		cmp	r6, r4
 418 004e 4FEA1323 		lsr	r3, r3, #8
 419 0052 F9D1     		bne	.L87
 420 0054 0435     		adds	r5, r5, #4
 421 0056 0132     		adds	r2, r2, #1
 422 0058 8542     		cmp	r5, r0
 423 005a 1144     		add	r1, r1, r2
 424 005c 4FF00002 		mov	r2, #0
 425 0060 E9D3     		bcc	.L88
 426              	.L82:
 427 0062 F0BC     		pop	{r4, r5, r6, r7}
 428 0064 7047     		bx	lr
 429              	.L90:
 430 0066 4FF0FF30 		mov	r0, #-1
 431 006a FAE7     		b	.L82
 432              	.L98:
 433              		.align	2
 434              	.L97:
 435 006c 00100050 		.word	1342181376
 437              		.section	.text.ep_write,"ax",%progbits
 438              		.align	1
 439              		.p2align 2,,3
 440              		.global	ep_write
 441              		.syntax unified
 442              		.thumb
 443              		.thumb_func
 444              		.fpu fpv4-sp-d16
 446              	ep_write:
 447              		@ args = 0, pretend = 0, frame = 0
 448              		@ frame_needed = 0, uses_anonymous_args = 0
 449              		@ link register save eliminated.
 450 0000 F0B4     		push	{r4, r5, r6, r7}
 451 0002 00F07F06 		and	r6, r0, #127
 452 0006 7501     		lsls	r5, r6, #5
 453 0008 05F1A045 		add	r5, r5, #1342177280
 454 000c 05F51067 		add	r7, r5, #2304
 455 0010 D31C     		adds	r3, r2, #3
 456 0012 D7F818C0 		ldr	ip, [r7, #24]
 457 0016 9B10     		asrs	r3, r3, #2
 458 0018 9C45     		cmp	ip, r3
 459 001a 23D3     		bcc	.L104
 460 001c 3403     		lsls	r4, r6, #12
 461 001e 04F1A044 		add	r4, r4, #1342177280
 462 0022 1046     		mov	r0, r2
 463 0024 04F58054 		add	r4, r4, #4096
 464 0028 C6B9     		cbnz	r6, .L113
 465              	.L101:
 466 002a 02F50022 		add	r2, r2, #524288
 467 002e 0026     		movs	r6, #0
 468 0030 3E61     		str	r6, [r7, #16]
 469 0032 3A61     		str	r2, [r7, #16]
 470 0034 D5F80029 		ldr	r2, [r5, #2304]
 471 0038 22F00442 		bic	r2, r2, #-2080374784
ARM GAS  C:\Users\Jay\AppData\Local\Temp\ccrCOBv6.s 			page 9


 472 003c 22F40012 		bic	r2, r2, #2097152
 473 0040 42F00442 		orr	r2, r2, #-2080374784
 474 0044 C5F80029 		str	r2, [r5, #2304]
 475 0048 33B1     		cbz	r3, .L99
 476 004a 01EB8302 		add	r2, r1, r3, lsl #2
 477              	.L102:
 478 004e 51F8043B 		ldr	r3, [r1], #4
 479 0052 2360     		str	r3, [r4]
 480 0054 8A42     		cmp	r2, r1
 481 0056 FAD1     		bne	.L102
 482              	.L99:
 483 0058 F0BC     		pop	{r4, r5, r6, r7}
 484 005a 7047     		bx	lr
 485              	.L113:
 486 005c D5F80069 		ldr	r6, [r5, #2304]
 487 0060 002E     		cmp	r6, #0
 488 0062 E2DA     		bge	.L101
 489              	.L104:
 490 0064 4FF0FF30 		mov	r0, #-1
 491 0068 F6E7     		b	.L99
 493 006a 00BF     		.section	.text.get_frame,"ax",%progbits
 494              		.align	1
 495              		.p2align 2,,3
 496              		.global	get_frame
 497              		.syntax unified
 498              		.thumb
 499              		.thumb_func
 500              		.fpu fpv4-sp-d16
 502              	get_frame:
 503              		@ args = 0, pretend = 0, frame = 0
 504              		@ frame_needed = 0, uses_anonymous_args = 0
 505              		@ link register save eliminated.
 506 0000 024B     		ldr	r3, .L115
 507 0002 9868     		ldr	r0, [r3, #8]
 508 0004 C0F30D20 		ubfx	r0, r0, #8, #14
 509 0008 7047     		bx	lr
 510              	.L116:
 511 000a 00BF     		.align	2
 512              	.L115:
 513 000c 00080050 		.word	1342179328
 515              		.section	.text.evt_poll,"ax",%progbits
 516              		.align	1
 517              		.p2align 2,,3
 518              		.global	evt_poll
 519              		.syntax unified
 520              		.thumb
 521              		.thumb_func
 522              		.fpu fpv4-sp-d16
 524              	evt_poll:
 525              		@ args = 0, pretend = 0, frame = 0
 526              		@ frame_needed = 0, uses_anonymous_args = 0
 527 0000 2DE9F041 		push	{r4, r5, r6, r7, r8, lr}
 528 0004 0746     		mov	r7, r0
 529 0006 0E46     		mov	r6, r1
 530 0008 0024     		movs	r4, #0
 531 000a 4FF0A045 		mov	r5, #1342177280
 532 000e 4FF48058 		mov	r8, #4096
ARM GAS  C:\Users\Jay\AppData\Local\Temp\ccrCOBv6.s 			page 10


 533              	.L118:
 534 0012 6B69     		ldr	r3, [r5, #20]
 535 0014 13F48051 		ands	r1, r3, #4096
 536 0018 20D1     		bne	.L150
 537              	.L119:
 538 001a 9804     		lsls	r0, r3, #18
 539 001c 59D4     		bmi	.L151
 540 001e 5A03     		lsls	r2, r3, #13
 541 0020 5BD4     		bmi	.L152
 542 0022 D806     		lsls	r0, r3, #27
 543 0024 72D5     		bpl	.L130
 544 0026 EC69     		ldr	r4, [r5, #28]
 545 0028 C4F34343 		ubfx	r3, r4, #17, #4
 546 002c 023B     		subs	r3, r3, #2
 547 002e 04F00F04 		and	r4, r4, #15
 548 0032 042B     		cmp	r3, #4
 549 0034 0DD8     		bhi	.L131
 550 0036 DFE803F0 		tbb	[pc, r3]
 551              	.L132:
 552 003a 27       		.byte	(.L137-.L132)/2
 553 003b 03       		.byte	(.L133-.L132)/2
 554 003c 03       		.byte	(.L133-.L132)/2
 555 003d 0C       		.byte	(.L131-.L132)/2
 556 003e 2E       		.byte	(.L134-.L132)/2
 557 003f 00       		.p2align 1
 558              	.L133:
 559 0040 6301     		lsls	r3, r4, #5
 560 0042 03F1A043 		add	r3, r3, #1342177280
 561 0046 D3F8002B 		ldr	r2, [r3, #2816]
 562 004a 42F00442 		orr	r2, r2, #-2080374784
 563 004e C3F8002B 		str	r2, [r3, #2816]
 564              	.L131:
 565 0052 2B6A     		ldr	r3, [r5, #32]
 566 0054 6B69     		ldr	r3, [r5, #20]
 567 0056 13F48051 		ands	r1, r3, #4096
 568 005a DED0     		beq	.L119
 569              	.L150:
 570 005c 0020     		movs	r0, #0
 571 005e C5F81480 		str	r8, [r5, #20]
 572 0062 FFF7FEFF 		bl	ep_deconfig
 573 0066 0120     		movs	r0, #1
 574 0068 FFF7FEFF 		bl	ep_deconfig
 575 006c 0220     		movs	r0, #2
 576 006e FFF7FEFF 		bl	ep_deconfig
 577 0072 0320     		movs	r0, #3
 578 0074 FFF7FEFF 		bl	ep_deconfig
 579 0078 2B69     		ldr	r3, [r5, #16]
 580 007a 43F01003 		orr	r3, r3, #16
 581 007e 2B61     		str	r3, [r5, #16]
 582              	.L120:
 583 0080 2B69     		ldr	r3, [r5, #16]
 584 0082 DB06     		lsls	r3, r3, #27
 585 0084 FCD4     		bmi	.L120
 586 0086 C4E7     		b	.L118
 587              	.L137:
 588 0088 0521     		movs	r1, #5
 589              	.L123:
ARM GAS  C:\Users\Jay\AppData\Local\Temp\ccrCOBv6.s 			page 11


 590 008a E2B2     		uxtb	r2, r4
 591 008c 3846     		mov	r0, r7
 592 008e 3346     		mov	r3, r6
 593 0090 BDE8F041 		pop	{r4, r5, r6, r7, r8, lr}
 594 0094 1847     		bx	r3	@ indirect register sibling call
 595              	.L134:
 596 0096 6301     		lsls	r3, r4, #5
 597 0098 03F1A043 		add	r3, r3, #1342177280
 598 009c 03F51063 		add	r3, r3, #2304
 599 00a0 254A     		ldr	r2, .L155
 600 00a2 1B69     		ldr	r3, [r3, #16]
 601 00a4 1A40     		ands	r2, r2, r3
 602 00a6 6AB1     		cbz	r2, .L138
 603 00a8 4FF0A041 		mov	r1, #1342177280
 604 00ac 0A46     		mov	r2, r1
 605 00ae 0B69     		ldr	r3, [r1, #16]
 606 00b0 23F4F863 		bic	r3, r3, #1984
 607 00b4 43F02003 		orr	r3, r3, #32
 608 00b8 43EA8413 		orr	r3, r3, r4, lsl #6
 609 00bc 0B61     		str	r3, [r1, #16]
 610              	.L135:
 611 00be 1369     		ldr	r3, [r2, #16]
 612 00c0 9906     		lsls	r1, r3, #26
 613 00c2 FCD4     		bmi	.L135
 614              	.L138:
 615 00c4 E2B2     		uxtb	r2, r4
 616 00c6 3846     		mov	r0, r7
 617 00c8 3346     		mov	r3, r6
 618 00ca 0621     		movs	r1, #6
 619 00cc BDE8F041 		pop	{r4, r5, r6, r7, r8, lr}
 620 00d0 1847     		bx	r3	@ indirect register sibling call
 621              	.L151:
 622 00d2 4FF40053 		mov	r3, #8192
 623 00d6 6B61     		str	r3, [r5, #20]
 624 00d8 D7E7     		b	.L123
 625              	.L152:
 626 00da 6201     		lsls	r2, r4, #5
 627 00dc 02F1A042 		add	r2, r2, #1342177280
 628 00e0 032C     		cmp	r4, #3
 629 00e2 02F51062 		add	r2, r2, #2304
 630 00e6 15D8     		bhi	.L117
 631 00e8 9368     		ldr	r3, [r2, #8]
 632 00ea DB07     		lsls	r3, r3, #31
 633 00ec 19D4     		bmi	.L126
 634 00ee 04F12073 		add	r3, r4, #41943040
 635 00f2 4933     		adds	r3, r3, #73
 636 00f4 5B01     		lsls	r3, r3, #5
 637 00f6 04E0     		b	.L128
 638              	.L148:
 639 00f8 9968     		ldr	r1, [r3, #8]
 640 00fa CD07     		lsls	r5, r1, #31
 641 00fc 03F12003 		add	r3, r3, #32
 642 0100 0FD4     		bmi	.L126
 643              	.L128:
 644 0102 0134     		adds	r4, r4, #1
 645 0104 042C     		cmp	r4, #4
 646 0106 1A46     		mov	r2, r3
ARM GAS  C:\Users\Jay\AppData\Local\Temp\ccrCOBv6.s 			page 12


 647 0108 F6D1     		bne	.L148
 648 010a 03E0     		b	.L117
 649              	.L130:
 650 010c 1A05     		lsls	r2, r3, #20
 651 010e 03D4     		bmi	.L153
 652 0110 002B     		cmp	r3, #0
 653 0112 0CDB     		blt	.L154
 654              	.L117:
 655 0114 BDE8F081 		pop	{r4, r5, r6, r7, r8, pc}
 656              	.L153:
 657 0118 4FF40063 		mov	r3, #2048
 658 011c 6B61     		str	r3, [r5, #20]
 659 011e 0221     		movs	r1, #2
 660 0120 B3E7     		b	.L123
 661              	.L126:
 662 0122 0123     		movs	r3, #1
 663 0124 44F08004 		orr	r4, r4, #128
 664 0128 9360     		str	r3, [r2, #8]
 665 012a 0421     		movs	r1, #4
 666 012c ADE7     		b	.L123
 667              	.L154:
 668 012e 4FF00043 		mov	r3, #-2147483648
 669 0132 6B61     		str	r3, [r5, #20]
 670 0134 0321     		movs	r1, #3
 671 0136 A8E7     		b	.L123
 672              	.L156:
 673              		.align	2
 674              	.L155:
 675 0138 0000F81F 		.word	536346624
 677              		.section	.text.get_serialno_desc,"ax",%progbits
 678              		.align	1
 679              		.p2align 2,,3
 680              		.global	get_serialno_desc
 681              		.syntax unified
 682              		.thumb
 683              		.thumb_func
 684              		.fpu fpv4-sp-d16
 686              	get_serialno_desc:
 687              		@ args = 0, pretend = 0, frame = 0
 688              		@ frame_needed = 0, uses_anonymous_args = 0
 689              		@ link register save eliminated.
 690 0000 1D4B     		ldr	r3, .L169
 691 0002 1E49     		ldr	r1, .L169+4
 692 0004 30B4     		push	{r4, r5}
 693 0006 1C68     		ldr	r4, [r3]
 694 0008 1D4D     		ldr	r5, .L169+8
 695 000a 0422     		movs	r2, #4
 696              	.L158:
 697 000c E3B2     		uxtb	r3, r4
 698 000e 5940     		eors	r1, r1, r3
 699 0010 013A     		subs	r2, r2, #1
 700 0012 05FB01F1 		mul	r1, r5, r1
 701 0016 4FEA1424 		lsr	r4, r4, #8
 702 001a F7D1     		bne	.L158
 703 001c 194B     		ldr	r3, .L169+12
 704 001e 184D     		ldr	r5, .L169+8
 705 0020 1C68     		ldr	r4, [r3]
ARM GAS  C:\Users\Jay\AppData\Local\Temp\ccrCOBv6.s 			page 13


 706 0022 0422     		movs	r2, #4
 707              	.L159:
 708 0024 E3B2     		uxtb	r3, r4
 709 0026 5940     		eors	r1, r1, r3
 710 0028 013A     		subs	r2, r2, #1
 711 002a 05FB01F1 		mul	r1, r5, r1
 712 002e 4FEA1424 		lsr	r4, r4, #8
 713 0032 F7D1     		bne	.L159
 714 0034 144B     		ldr	r3, .L169+16
 715 0036 124D     		ldr	r5, .L169+8
 716 0038 1C68     		ldr	r4, [r3]
 717 003a 0422     		movs	r2, #4
 718              	.L160:
 719 003c E3B2     		uxtb	r3, r4
 720 003e 5940     		eors	r1, r1, r3
 721 0040 013A     		subs	r2, r2, #1
 722 0042 05FB01F1 		mul	r1, r5, r1
 723 0046 4FEA1424 		lsr	r4, r4, #8
 724 004a F7D1     		bne	.L160
 725 004c 0546     		mov	r5, r0
 726 004e 1C22     		movs	r2, #28
 727              	.L162:
 728 0050 21FA02F3 		lsr	r3, r1, r2
 729 0054 03F00F03 		and	r3, r3, #15
 730 0058 0A2B     		cmp	r3, #10
 731 005a 34BF     		ite	cc
 732 005c 3024     		movcc	r4, #48
 733 005e 3724     		movcs	r4, #55
 734 0060 2344     		add	r3, r3, r4
 735 0062 043A     		subs	r2, r2, #4
 736 0064 25F8023F 		strh	r3, [r5, #2]!	@ movhi
 737 0068 131D     		adds	r3, r2, #4
 738 006a F1D1     		bne	.L162
 739 006c 40F21233 		movw	r3, #786
 740 0070 0380     		strh	r3, [r0]	@ movhi
 741 0072 30BC     		pop	{r4, r5}
 742 0074 1220     		movs	r0, #18
 743 0076 7047     		bx	lr
 744              	.L170:
 745              		.align	2
 746              	.L169:
 747 0078 107AFF1F 		.word	536836624
 748 007c C59D1C81 		.word	-2128831035
 749 0080 93010001 		.word	16777619
 750 0084 147AFF1F 		.word	536836628
 751 0088 187AFF1F 		.word	536836632
 753              		.section	.text.cdc_getdesc,"ax",%progbits
 754              		.align	1
 755              		.p2align 2,,3
 756              		.syntax unified
 757              		.thumb
 758              		.thumb_func
 759              		.fpu fpv4-sp-d16
 761              	cdc_getdesc:
 762              		@ args = 0, pretend = 0, frame = 0
 763              		@ frame_needed = 0, uses_anonymous_args = 0
 764              		@ link register save eliminated.
ARM GAS  C:\Users\Jay\AppData\Local\Temp\ccrCOBv6.s 			page 14


 765 0000 4088     		ldrh	r0, [r0, #2]
 766 0002 030A     		lsrs	r3, r0, #8
 767 0004 022B     		cmp	r3, #2
 768 0006 10B4     		push	{r4}
 769 0008 17D0     		beq	.L178
 770 000a 032B     		cmp	r3, #3
 771 000c 0DD0     		beq	.L174
 772 000e 012B     		cmp	r3, #1
 773 0010 03D0     		beq	.L182
 774              	.L179:
 775 0012 0020     		movs	r0, #0
 776 0014 5DF8044B 		ldr	r4, [sp], #4
 777 0018 7047     		bx	lr
 778              	.L182:
 779 001a 094B     		ldr	r3, .L183
 780 001c 1224     		movs	r4, #18
 781              	.L173:
 782 001e 0B60     		str	r3, [r1]
 783 0020 0120     		movs	r0, #1
 784 0022 1480     		strh	r4, [r2]	@ movhi
 785 0024 5DF8044B 		ldr	r4, [sp], #4
 786 0028 7047     		bx	lr
 787              	.L174:
 788 002a C0B2     		uxtb	r0, r0
 789 002c 0228     		cmp	r0, #2
 790 002e F0D8     		bhi	.L179
 791 0030 044B     		ldr	r3, .L183+4
 792 0032 53F82030 		ldr	r3, [r3, r0, lsl #2]
 793 0036 1C78     		ldrb	r4, [r3]	@ zero_extendqisi2
 794 0038 F1E7     		b	.L173
 795              	.L178:
 796 003a 034B     		ldr	r3, .L183+8
 797 003c 4B24     		movs	r4, #75
 798 003e EEE7     		b	.L173
 799              	.L184:
 800              		.align	2
 801              	.L183:
 802 0040 00000000 		.word	.LANCHOR1
 803 0044 00000000 		.word	.LANCHOR3
 804 0048 00000000 		.word	.LANCHOR2
 806              		.section	.text.flash_sector_program,"ax",%progbits
 807              		.align	1
 808              		.p2align 2,,3
 809              		.syntax unified
 810              		.thumb
 811              		.thumb_func
 812              		.fpu fpv4-sp-d16
 814              	flash_sector_program:
 815              		@ args = 0, pretend = 0, frame = 0
 816              		@ frame_needed = 0, uses_anonymous_args = 0
 817              		@ link register save eliminated.
 818 0000 70B4     		push	{r4, r5, r6}
 819              		.syntax unified
 820              	@ 142 "stm32f4xx/cmsis/cmsis_gcc.h" 1
 821 0002 72B6     		cpsid i
 822              	@ 0 "" 2
 823              		.thumb
ARM GAS  C:\Users\Jay\AppData\Local\Temp\ccrCOBv6.s 			page 15


 824              		.syntax unified
 825 0004 214C     		ldr	r4, .L202
 826 0006 224E     		ldr	r6, .L202+4
 827 0008 224D     		ldr	r5, .L202+8
 828 000a 6660     		str	r6, [r4, #4]
 829 000c C0B2     		uxtb	r0, r0
 830 000e 0B28     		cmp	r0, #11
 831 0010 6560     		str	r5, [r4, #4]
 832 0012 22D9     		bls	.L187
 833              	.L186:
 834 0014 1D4C     		ldr	r4, .L202
 835              	.L189:
 836 0016 E068     		ldr	r0, [r4, #12]
 837 0018 C503     		lsls	r5, r0, #15
 838 001a FCD4     		bmi	.L189
 839 001c 2069     		ldr	r0, [r4, #16]
 840 001e 20F00300 		bic	r0, r0, #3
 841 0022 40F00100 		orr	r0, r0, #1
 842 0026 2061     		str	r0, [r4, #16]
 843 0028 5BB1     		cbz	r3, .L190
 844 002a 184C     		ldr	r4, .L202
 845 002c 1546     		mov	r5, r2
 846              	.L192:
 847 002e 55F8040B 		ldr	r0, [r5], #4
 848 0032 0860     		str	r0, [r1]
 849 0034 0431     		adds	r1, r1, #4
 850              	.L191:
 851 0036 E068     		ldr	r0, [r4, #12]
 852 0038 C003     		lsls	r0, r0, #15
 853 003a FCD4     		bmi	.L191
 854 003c A81A     		subs	r0, r5, r2
 855 003e 8342     		cmp	r3, r0
 856 0040 F5D8     		bhi	.L192
 857              	.L190:
 858 0042 124B     		ldr	r3, .L202
 859 0044 1A69     		ldr	r2, [r3, #16]
 860 0046 22F00102 		bic	r2, r2, #1
 861 004a 1A61     		str	r2, [r3, #16]
 862 004c 1A69     		ldr	r2, [r3, #16]
 863 004e 42F00042 		orr	r2, r2, #-2147483648
 864 0052 1A61     		str	r2, [r3, #16]
 865              		.syntax unified
 866              	@ 131 "stm32f4xx/cmsis/cmsis_gcc.h" 1
 867 0054 62B6     		cpsie i
 868              	@ 0 "" 2
 869              		.thumb
 870              		.syntax unified
 871 0056 70BC     		pop	{r4, r5, r6}
 872 0058 7047     		bx	lr
 873              	.L187:
 874 005a E568     		ldr	r5, [r4, #12]
 875 005c ED03     		lsls	r5, r5, #15
 876 005e FCD4     		bmi	.L187
 877 0060 2569     		ldr	r5, [r4, #16]
 878 0062 0A4E     		ldr	r6, .L202
 879 0064 25F47F75 		bic	r5, r5, #1020
 880 0068 25F00105 		bic	r5, r5, #1
ARM GAS  C:\Users\Jay\AppData\Local\Temp\ccrCOBv6.s 			page 16


 881 006c 45F40075 		orr	r5, r5, #512
 882 0070 45F00205 		orr	r5, r5, #2
 883 0074 45EAC000 		orr	r0, r5, r0, lsl #3
 884 0078 2061     		str	r0, [r4, #16]
 885 007a 2069     		ldr	r0, [r4, #16]
 886 007c 40F48030 		orr	r0, r0, #65536
 887 0080 2061     		str	r0, [r4, #16]
 888              	.L188:
 889 0082 F068     		ldr	r0, [r6, #12]
 890 0084 C003     		lsls	r0, r0, #15
 891 0086 FCD4     		bmi	.L188
 892 0088 C4E7     		b	.L186
 893              	.L203:
 894 008a 00BF     		.align	2
 895              	.L202:
 896 008c 003C0240 		.word	1073888256
 897 0090 23016745 		.word	1164378403
 898 0094 AB89EFCD 		.word	-839939669
 900              		.section	.text.buf_putchar,"ax",%progbits
 901              		.align	1
 902              		.p2align 2,,3
 903              		.syntax unified
 904              		.thumb
 905              		.thumb_func
 906              		.fpu fpv4-sp-d16
 908              	buf_putchar:
 909              		@ args = 0, pretend = 0, frame = 0
 910              		@ frame_needed = 0, uses_anonymous_args = 0
 911              		@ link register save eliminated.
 912 0000 054B     		ldr	r3, .L206
 913 0002 0649     		ldr	r1, .L206+4
 914 0004 1A68     		ldr	r2, [r3]
 915 0006 10B4     		push	{r4}
 916 0008 0C68     		ldr	r4, [r1]
 917 000a 511C     		adds	r1, r2, #1
 918 000c A054     		strb	r0, [r4, r2]
 919 000e 1960     		str	r1, [r3]
 920 0010 5DF8044B 		ldr	r4, [sp], #4
 921 0014 7047     		bx	lr
 922              	.L207:
 923 0016 00BF     		.align	2
 924              	.L206:
 925 0018 00000000 		.word	.LANCHOR5
 926 001c 00000000 		.word	.LANCHOR4
 928              		.section	.text.d64_image_type,"ax",%progbits
 929              		.align	1
 930              		.p2align 2,,3
 931              		.syntax unified
 932              		.thumb
 933              		.thumb_func
 934              		.fpu fpv4-sp-d16
 936              	d64_image_type:
 937              		@ args = 0, pretend = 0, frame = 0
 938              		@ frame_needed = 0, uses_anonymous_args = 0
 939              		@ link register save eliminated.
 940 0000 154B     		ldr	r3, .L226
 941 0002 9842     		cmp	r0, r3
ARM GAS  C:\Users\Jay\AppData\Local\Temp\ccrCOBv6.s 			page 17


 942 0004 1ED0     		beq	.L216
 943 0006 13D9     		bls	.L223
 944 0008 144B     		ldr	r3, .L226+4
 945 000a 9842     		cmp	r0, r3
 946 000c 1CD0     		beq	.L213
 947 000e 07D9     		bls	.L224
 948 0010 B0F5482F 		cmp	r0, #819200
 949 0014 02D0     		beq	.L215
 950 0016 124B     		ldr	r3, .L226+8
 951 0018 9842     		cmp	r0, r3
 952 001a 07D1     		bne	.L209
 953              	.L215:
 954 001c 0320     		movs	r0, #3
 955 001e 7047     		bx	lr
 956              	.L224:
 957 0020 104B     		ldr	r3, .L226+12
 958 0022 9842     		cmp	r0, r3
 959 0024 0ED0     		beq	.L216
 960 0026 104B     		ldr	r3, .L226+16
 961 0028 9842     		cmp	r0, r3
 962 002a 0DD0     		beq	.L213
 963              	.L209:
 964 002c 0020     		movs	r0, #0
 965 002e 7047     		bx	lr
 966              	.L223:
 967 0030 0E4B     		ldr	r3, .L226+20
 968 0032 9842     		cmp	r0, r3
 969 0034 06D0     		beq	.L216
 970 0036 09D9     		bls	.L225
 971 0038 B0F5403F 		cmp	r0, #196608
 972 003c 02D0     		beq	.L216
 973 003e 0C4B     		ldr	r3, .L226+24
 974 0040 9842     		cmp	r0, r3
 975 0042 F3D1     		bne	.L209
 976              	.L216:
 977 0044 0120     		movs	r0, #1
 978 0046 7047     		bx	lr
 979              	.L213:
 980 0048 0220     		movs	r0, #2
 981 004a 7047     		bx	lr
 982              	.L225:
 983 004c A3F2AB23 		subw	r3, r3, #683
 984 0050 9842     		cmp	r0, r3
 985 0052 EBD1     		bne	.L209
 986 0054 F6E7     		b	.L216
 987              	.L227:
 988 0056 00BF     		.align	2
 989              	.L226:
 990 0058 00220300 		.word	205312
 991 005c 565B0500 		.word	351062
 992 0060 808C0C00 		.word	822400
 993 0064 22250300 		.word	206114
 994 0068 00560500 		.word	349696
 995 006c ABAD0200 		.word	175531
 996 0070 00030300 		.word	197376
 998              		.section	.text.get_file_type,"ax",%progbits
 999              		.align	1
ARM GAS  C:\Users\Jay\AppData\Local\Temp\ccrCOBv6.s 			page 18


 1000              		.p2align 2,,3
 1001              		.syntax unified
 1002              		.thumb
 1003              		.thumb_func
 1004              		.fpu fpv4-sp-d16
 1006              	get_file_type:
 1007              		@ args = 0, pretend = 0, frame = 0
 1008              		@ frame_needed = 0, uses_anonymous_args = 0
 1009 0000 F8B5     		push	{r3, r4, r5, r6, r7, lr}
 1010 0002 037A     		ldrb	r3, [r0, #8]	@ zero_extendqisi2
 1011 0004 DB06     		lsls	r3, r3, #27
 1012 0006 00F1E580 		bmi	.L280
 1013 000a 00F11605 		add	r5, r0, #22
 1014 000e 2A46     		mov	r2, r5
 1015 0010 00F21516 		addw	r6, r0, #277
 1016 0014 FE24     		movs	r4, #254
 1017 0016 05E0     		b	.L232
 1018              	.L311:
 1019 0018 2E29     		cmp	r1, #46
 1020 001a 08BF     		it	eq
 1021 001c 1C46     		moveq	r4, r3
 1022 001e B242     		cmp	r2, r6
 1023 0020 00F0DA80 		beq	.L310
 1024              	.L232:
 1025 0024 531B     		subs	r3, r2, r5
 1026 0026 12F8011B 		ldrb	r1, [r2], #1	@ zero_extendqisi2
 1027 002a DBB2     		uxtb	r3, r3
 1028 002c 0029     		cmp	r1, #0
 1029 002e F3D1     		bne	.L311
 1030              	.L233:
 1031 0030 1B1B     		subs	r3, r3, r4
 1032 0032 032B     		cmp	r3, #3
 1033 0034 40F3CC80 		ble	.L286
 1034 0038 05EB040C 		add	ip, r5, r4
 1035 003c 6446     		mov	r4, ip
 1036 003e 7C49     		ldr	r1, .L325
 1037 0040 0334     		adds	r4, r4, #3
 1038 0042 6246     		mov	r2, ip
 1039              	.L237:
 1040 0044 12F8013F 		ldrb	r3, [r2, #1]!	@ zero_extendqisi2
 1041 0048 11F8016B 		ldrb	r6, [r1], #1	@ zero_extendqisi2
 1042 004c A3F16105 		sub	r5, r3, #97
 1043 0050 192D     		cmp	r5, #25
 1044 0052 A3F12007 		sub	r7, r3, #32
 1045 0056 0CD8     		bhi	.L234
 1046 0058 BE42     		cmp	r6, r7
 1047 005a 0CD1     		bne	.L235
 1048              	.L236:
 1049 005c A242     		cmp	r2, r4
 1050 005e F1D1     		bne	.L237
 1051 0060 0068     		ldr	r0, [r0]
 1052 0062 4FF6FC73 		movw	r3, #65532
 1053 0066 0338     		subs	r0, r0, #3
 1054 0068 9842     		cmp	r0, r3
 1055 006a 8CBF     		ite	hi
 1056 006c FF20     		movhi	r0, #255
 1057 006e 0220     		movls	r0, #2
ARM GAS  C:\Users\Jay\AppData\Local\Temp\ccrCOBv6.s 			page 19


 1058 0070 F8BD     		pop	{r3, r4, r5, r6, r7, pc}
 1059              	.L234:
 1060 0072 B342     		cmp	r3, r6
 1061 0074 F2D0     		beq	.L236
 1062              	.L235:
 1063 0076 6F49     		ldr	r1, .L325+4
 1064 0078 6246     		mov	r2, ip
 1065 007a 04E0     		b	.L242
 1066              	.L313:
 1067 007c B742     		cmp	r7, r6
 1068 007e 0ED1     		bne	.L240
 1069              	.L241:
 1070 0080 A242     		cmp	r2, r4
 1071 0082 00F0AB80 		beq	.L312
 1072              	.L242:
 1073 0086 12F8013F 		ldrb	r3, [r2, #1]!	@ zero_extendqisi2
 1074 008a 11F8016B 		ldrb	r6, [r1], #1	@ zero_extendqisi2
 1075 008e A3F16105 		sub	r5, r3, #97
 1076 0092 192D     		cmp	r5, #25
 1077 0094 A3F12007 		sub	r7, r3, #32
 1078 0098 F0D9     		bls	.L313
 1079 009a B342     		cmp	r3, r6
 1080 009c F0D0     		beq	.L241
 1081              	.L240:
 1082 009e 6649     		ldr	r1, .L325+8
 1083 00a0 6246     		mov	r2, ip
 1084 00a2 04E0     		b	.L247
 1085              	.L315:
 1086 00a4 AF42     		cmp	r7, r5
 1087 00a6 0ED1     		bne	.L245
 1088              	.L246:
 1089 00a8 A242     		cmp	r2, r4
 1090 00aa 00F09D80 		beq	.L314
 1091              	.L247:
 1092 00ae 12F8013F 		ldrb	r3, [r2, #1]!	@ zero_extendqisi2
 1093 00b2 11F8015B 		ldrb	r5, [r1], #1	@ zero_extendqisi2
 1094 00b6 A3F16106 		sub	r6, r3, #97
 1095 00ba 192E     		cmp	r6, #25
 1096 00bc A3F12007 		sub	r7, r3, #32
 1097 00c0 F0D9     		bls	.L315
 1098 00c2 AB42     		cmp	r3, r5
 1099 00c4 F0D0     		beq	.L246
 1100              	.L245:
 1101 00c6 5D49     		ldr	r1, .L325+12
 1102 00c8 6246     		mov	r2, ip
 1103 00ca 04E0     		b	.L252
 1104              	.L316:
 1105 00cc B742     		cmp	r7, r6
 1106 00ce 0ED1     		bne	.L250
 1107              	.L251:
 1108 00d0 A242     		cmp	r2, r4
 1109 00d2 00F08F80 		beq	.L253
 1110              	.L252:
 1111 00d6 12F8013F 		ldrb	r3, [r2, #1]!	@ zero_extendqisi2
 1112 00da 11F8016B 		ldrb	r6, [r1], #1	@ zero_extendqisi2
 1113 00de A3F16105 		sub	r5, r3, #97
 1114 00e2 192D     		cmp	r5, #25
ARM GAS  C:\Users\Jay\AppData\Local\Temp\ccrCOBv6.s 			page 20


 1115 00e4 A3F12007 		sub	r7, r3, #32
 1116 00e8 F0D9     		bls	.L316
 1117 00ea B342     		cmp	r3, r6
 1118 00ec F0D0     		beq	.L251
 1119              	.L250:
 1120 00ee 5449     		ldr	r1, .L325+16
 1121 00f0 6246     		mov	r2, ip
 1122 00f2 03E0     		b	.L257
 1123              	.L317:
 1124 00f4 B742     		cmp	r7, r6
 1125 00f6 0DD1     		bne	.L255
 1126              	.L256:
 1127 00f8 A242     		cmp	r2, r4
 1128 00fa 7BD0     		beq	.L253
 1129              	.L257:
 1130 00fc 12F8013F 		ldrb	r3, [r2, #1]!	@ zero_extendqisi2
 1131 0100 11F8016B 		ldrb	r6, [r1], #1	@ zero_extendqisi2
 1132 0104 A3F16105 		sub	r5, r3, #97
 1133 0108 192D     		cmp	r5, #25
 1134 010a A3F12007 		sub	r7, r3, #32
 1135 010e F1D9     		bls	.L317
 1136 0110 B342     		cmp	r3, r6
 1137 0112 F1D0     		beq	.L256
 1138              	.L255:
 1139 0114 4B49     		ldr	r1, .L325+20
 1140 0116 6346     		mov	r3, ip
 1141 0118 03E0     		b	.L261
 1142              	.L318:
 1143 011a AF42     		cmp	r7, r5
 1144 011c 0DD1     		bne	.L259
 1145              	.L260:
 1146 011e A342     		cmp	r3, r4
 1147 0120 68D0     		beq	.L253
 1148              	.L261:
 1149 0122 13F8012F 		ldrb	r2, [r3, #1]!	@ zero_extendqisi2
 1150 0126 11F8015B 		ldrb	r5, [r1], #1	@ zero_extendqisi2
 1151 012a A2F16106 		sub	r6, r2, #97
 1152 012e 192E     		cmp	r6, #25
 1153 0130 A2F12007 		sub	r7, r2, #32
 1154 0134 F1D9     		bls	.L318
 1155 0136 AA42     		cmp	r2, r5
 1156 0138 F1D0     		beq	.L260
 1157              	.L259:
 1158 013a 4349     		ldr	r1, .L325+24
 1159 013c 6346     		mov	r3, ip
 1160 013e 03E0     		b	.L265
 1161              	.L319:
 1162 0140 AF42     		cmp	r7, r5
 1163 0142 0DD1     		bne	.L263
 1164              	.L264:
 1165 0144 A342     		cmp	r3, r4
 1166 0146 5DD0     		beq	.L266
 1167              	.L265:
 1168 0148 13F8012F 		ldrb	r2, [r3, #1]!	@ zero_extendqisi2
 1169 014c 11F8015B 		ldrb	r5, [r1], #1	@ zero_extendqisi2
 1170 0150 A2F16106 		sub	r6, r2, #97
 1171 0154 192E     		cmp	r6, #25
ARM GAS  C:\Users\Jay\AppData\Local\Temp\ccrCOBv6.s 			page 21


 1172 0156 A2F12007 		sub	r7, r2, #32
 1173 015a F1D9     		bls	.L319
 1174 015c AA42     		cmp	r2, r5
 1175 015e F1D0     		beq	.L264
 1176              	.L263:
 1177 0160 3A49     		ldr	r1, .L325+28
 1178 0162 6346     		mov	r3, ip
 1179 0164 03E0     		b	.L270
 1180              	.L320:
 1181 0166 AE42     		cmp	r6, r5
 1182 0168 0DD1     		bne	.L268
 1183              	.L269:
 1184 016a A342     		cmp	r3, r4
 1185 016c 4AD0     		beq	.L266
 1186              	.L270:
 1187 016e 13F8012F 		ldrb	r2, [r3, #1]!	@ zero_extendqisi2
 1188 0172 11F8015B 		ldrb	r5, [r1], #1	@ zero_extendqisi2
 1189 0176 A2F16107 		sub	r7, r2, #97
 1190 017a 192F     		cmp	r7, #25
 1191 017c A2F12006 		sub	r6, r2, #32
 1192 0180 F1D9     		bls	.L320
 1193 0182 AA42     		cmp	r2, r5
 1194 0184 F1D0     		beq	.L269
 1195              	.L268:
 1196 0186 3249     		ldr	r1, .L325+32
 1197 0188 6346     		mov	r3, ip
 1198 018a 03E0     		b	.L274
 1199              	.L322:
 1200 018c AE42     		cmp	r6, r5
 1201 018e 0DD1     		bne	.L272
 1202              	.L273:
 1203 0190 A342     		cmp	r3, r4
 1204 0192 3ED0     		beq	.L321
 1205              	.L274:
 1206 0194 13F8012F 		ldrb	r2, [r3, #1]!	@ zero_extendqisi2
 1207 0198 11F8015B 		ldrb	r5, [r1], #1	@ zero_extendqisi2
 1208 019c A2F16107 		sub	r7, r2, #97
 1209 01a0 192F     		cmp	r7, #25
 1210 01a2 A2F12006 		sub	r6, r2, #32
 1211 01a6 F1D9     		bls	.L322
 1212 01a8 AA42     		cmp	r2, r5
 1213 01aa F1D0     		beq	.L273
 1214              	.L272:
 1215 01ac 294A     		ldr	r2, .L325+36
 1216 01ae 03E0     		b	.L278
 1217              	.L324:
 1218 01b0 8D42     		cmp	r5, r1
 1219 01b2 0DD1     		bne	.L286
 1220              	.L277:
 1221 01b4 A445     		cmp	ip, r4
 1222 01b6 33D0     		beq	.L323
 1223              	.L278:
 1224 01b8 1CF8013F 		ldrb	r3, [ip, #1]!	@ zero_extendqisi2
 1225 01bc 12F8011B 		ldrb	r1, [r2], #1	@ zero_extendqisi2
 1226 01c0 A3F16106 		sub	r6, r3, #97
 1227 01c4 192E     		cmp	r6, #25
 1228 01c6 A3F12005 		sub	r5, r3, #32
ARM GAS  C:\Users\Jay\AppData\Local\Temp\ccrCOBv6.s 			page 22


 1229 01ca F1D9     		bls	.L324
 1230 01cc 8B42     		cmp	r3, r1
 1231 01ce F1D0     		beq	.L277
 1232              	.L286:
 1233 01d0 FF20     		movs	r0, #255
 1234 01d2 F8BD     		pop	{r3, r4, r5, r6, r7, pc}
 1235              	.L280:
 1236 01d4 0020     		movs	r0, #0
 1237 01d6 F8BD     		pop	{r3, r4, r5, r6, r7, pc}
 1238              	.L310:
 1239 01d8 FF23     		movs	r3, #255
 1240 01da 29E7     		b	.L233
 1241              	.L312:
 1242 01dc 0368     		ldr	r3, [r0]
 1243 01de 1B2B     		cmp	r3, #27
 1244 01e0 34BF     		ite	cc
 1245 01e2 FF20     		movcc	r0, #255
 1246 01e4 0320     		movcs	r0, #3
 1247 01e6 F8BD     		pop	{r3, r4, r5, r6, r7, pc}
 1248              	.L314:
 1249 01e8 0368     		ldr	r3, [r0]
 1250 01ea 412B     		cmp	r3, #65
 1251 01ec 34BF     		ite	cc
 1252 01ee FF20     		movcc	r0, #255
 1253 01f0 0120     		movcs	r0, #1
 1254 01f2 F8BD     		pop	{r3, r4, r5, r6, r7, pc}
 1255              	.L253:
 1256 01f4 0068     		ldr	r0, [r0]
 1257 01f6 FFF7FEFF 		bl	d64_image_type
 1258 01fa 0028     		cmp	r0, #0
 1259 01fc 0CBF     		ite	eq
 1260 01fe FF20     		moveq	r0, #255
 1261 0200 0420     		movne	r0, #4
 1262 0202 F8BD     		pop	{r3, r4, r5, r6, r7, pc}
 1263              	.L266:
 1264 0204 0368     		ldr	r3, [r0]
 1265 0206 B3F5005F 		cmp	r3, #8192
 1266 020a 14BF     		ite	ne
 1267 020c FF20     		movne	r0, #255
 1268 020e 0620     		moveq	r0, #6
 1269 0210 F8BD     		pop	{r3, r4, r5, r6, r7, pc}
 1270              	.L321:
 1271 0212 0368     		ldr	r3, [r0]
 1272 0214 B3F5803F 		cmp	r3, #65536
 1273 0218 14BF     		ite	ne
 1274 021a FF20     		movne	r0, #255
 1275 021c FD20     		moveq	r0, #253
 1276 021e F8BD     		pop	{r3, r4, r5, r6, r7, pc}
 1277              	.L323:
 1278 0220 0368     		ldr	r3, [r0]
 1279 0222 B3F5823F 		cmp	r3, #66560
 1280 0226 14BF     		ite	ne
 1281 0228 FF20     		movne	r0, #255
 1282 022a FE20     		moveq	r0, #254
 1283 022c F8BD     		pop	{r3, r4, r5, r6, r7, pc}
 1284              	.L326:
 1285 022e 00BF     		.align	2
ARM GAS  C:\Users\Jay\AppData\Local\Temp\ccrCOBv6.s 			page 23


 1286              	.L325:
 1287 0230 24000000 		.word	.LC9
 1288 0234 20000000 		.word	.LC8
 1289 0238 1C000000 		.word	.LC7
 1290 023c 18000000 		.word	.LC6
 1291 0240 14000000 		.word	.LC5
 1292 0244 10000000 		.word	.LC4
 1293 0248 0C000000 		.word	.LC3
 1294 024c 08000000 		.word	.LC2
 1295 0250 04000000 		.word	.LC1
 1296 0254 00000000 		.word	.LC0
 1298              		.section	.text.ar4x_init,"ax",%progbits
 1299              		.align	1
 1300              		.p2align 2,,3
 1301              		.syntax unified
 1302              		.thumb
 1303              		.thumb_func
 1304              		.fpu fpv4-sp-d16
 1306              	ar4x_init:
 1307              		@ args = 0, pretend = 0, frame = 0
 1308              		@ frame_needed = 0, uses_anonymous_args = 0
 1309              		@ link register save eliminated.
 1310 0000 034B     		ldr	r3, .L328
 1311 0002 0449     		ldr	r1, .L328+4
 1312 0004 044A     		ldr	r2, .L328+8
 1313 0006 9961     		str	r1, [r3, #24]
 1314 0008 044B     		ldr	r3, .L328+12
 1315 000a 1268     		ldr	r2, [r2]
 1316 000c 1A60     		str	r2, [r3]
 1317 000e 7047     		bx	lr
 1318              	.L329:
 1319              		.align	2
 1320              	.L328:
 1321 0010 00080240 		.word	1073874944
 1322 0014 004000A0 		.word	-1610596352
 1323 0018 00000000 		.word	.LANCHOR7
 1324 001c 00000000 		.word	.LANCHOR6
 1326              		.section	.text.kcs_init,"ax",%progbits
 1327              		.align	1
 1328              		.p2align 2,,3
 1329              		.syntax unified
 1330              		.thumb
 1331              		.thumb_func
 1332              		.fpu fpv4-sp-d16
 1334              	kcs_init:
 1335              		@ args = 0, pretend = 0, frame = 0
 1336              		@ frame_needed = 0, uses_anonymous_args = 0
 1337              		@ link register save eliminated.
 1338 0000 30B4     		push	{r4, r5}
 1339 0002 0649     		ldr	r1, .L332
 1340 0004 064C     		ldr	r4, .L332+4
 1341 0006 074B     		ldr	r3, .L332+8
 1342 0008 074A     		ldr	r2, .L332+12
 1343 000a 0025     		movs	r5, #0
 1344 000c 4FF06040 		mov	r0, #-536870912
 1345 0010 2570     		strb	r5, [r4]
 1346 0012 8861     		str	r0, [r1, #24]
ARM GAS  C:\Users\Jay\AppData\Local\Temp\ccrCOBv6.s 			page 24


 1347 0014 30BC     		pop	{r4, r5}
 1348 0016 1A60     		str	r2, [r3]
 1349 0018 7047     		bx	lr
 1350              	.L333:
 1351 001a 00BF     		.align	2
 1352              	.L332:
 1353 001c 00080240 		.word	1073874944
 1354 0020 00000000 		.word	.LANCHOR8
 1355 0024 00000000 		.word	.LANCHOR7
 1356 0028 00000000 		.word	dat_buffer
 1358              		.section	.text.fc3_init,"ax",%progbits
 1359              		.align	1
 1360              		.p2align 2,,3
 1361              		.syntax unified
 1362              		.thumb
 1363              		.thumb_func
 1364              		.fpu fpv4-sp-d16
 1366              	fc3_init:
 1367              		@ args = 0, pretend = 0, frame = 0
 1368              		@ frame_needed = 0, uses_anonymous_args = 0
 1369              		@ link register save eliminated.
 1370 0000 30B4     		push	{r4, r5}
 1371 0002 0749     		ldr	r1, .L336
 1372 0004 074C     		ldr	r4, .L336+4
 1373 0006 084B     		ldr	r3, .L336+8
 1374 0008 4FF06045 		mov	r5, #-536870912
 1375 000c 4FF08060 		mov	r0, #67108864
 1376 0010 4DF6FF72 		movw	r2, #57343
 1377 0014 A561     		str	r5, [r4, #24]
 1378 0016 8861     		str	r0, [r1, #24]
 1379 0018 30BC     		pop	{r4, r5}
 1380 001a 1A80     		strh	r2, [r3]	@ movhi
 1381 001c 7047     		bx	lr
 1382              	.L337:
 1383 001e 00BF     		.align	2
 1384              	.L336:
 1385 0020 00000240 		.word	1073872896
 1386 0024 00080240 		.word	1073874944
 1387 0028 00000000 		.word	.LANCHOR9
 1389              		.section	.text.epyx_init,"ax",%progbits
 1390              		.align	1
 1391              		.p2align 2,,3
 1392              		.syntax unified
 1393              		.thumb
 1394              		.thumb_func
 1395              		.fpu fpv4-sp-d16
 1397              	epyx_init:
 1398              		@ args = 0, pretend = 0, frame = 0
 1399              		@ frame_needed = 0, uses_anonymous_args = 0
 1400              		@ link register save eliminated.
 1401 0000 014B     		ldr	r3, .L339
 1402 0002 024A     		ldr	r2, .L339+4
 1403 0004 9A61     		str	r2, [r3, #24]
 1404 0006 7047     		bx	lr
 1405              	.L340:
 1406              		.align	2
 1407              	.L339:
ARM GAS  C:\Users\Jay\AppData\Local\Temp\ccrCOBv6.s 			page 25


 1408 0008 00080240 		.word	1073874944
 1409 000c 004000A0 		.word	-1610596352
 1411              		.section	.text.zaxxon_init,"ax",%progbits
 1412              		.align	1
 1413              		.p2align 2,,3
 1414              		.syntax unified
 1415              		.thumb
 1416              		.thumb_func
 1417              		.fpu fpv4-sp-d16
 1419              	zaxxon_init:
 1420              		@ args = 0, pretend = 0, frame = 0
 1421              		@ frame_needed = 0, uses_anonymous_args = 0
 1422              		@ link register save eliminated.
 1423 0000 0349     		ldr	r1, .L342
 1424 0002 044B     		ldr	r3, .L342+4
 1425 0004 044A     		ldr	r2, .L342+8
 1426 0006 4FF06040 		mov	r0, #-536870912
 1427 000a 8861     		str	r0, [r1, #24]
 1428 000c 1A60     		str	r2, [r3]
 1429 000e 7047     		bx	lr
 1430              	.L343:
 1431              		.align	2
 1432              	.L342:
 1433 0010 00080240 		.word	1073874944
 1434 0014 00000000 		.word	.LANCHOR6
 1435 0018 00000000 		.word	dat_buffer
 1437              		.section	.text.ss5_init,"ax",%progbits
 1438              		.align	1
 1439              		.p2align 2,,3
 1440              		.syntax unified
 1441              		.thumb
 1442              		.thumb_func
 1443              		.fpu fpv4-sp-d16
 1445              	ss5_init:
 1446              		@ args = 0, pretend = 0, frame = 0
 1447              		@ frame_needed = 0, uses_anonymous_args = 0
 1448              		@ link register save eliminated.
 1449 0000 30B4     		push	{r4, r5}
 1450 0002 0549     		ldr	r1, .L346
 1451 0004 054C     		ldr	r4, .L346+4
 1452 0006 064B     		ldr	r3, .L346+8
 1453 0008 064D     		ldr	r5, .L346+12
 1454 000a 0748     		ldr	r0, .L346+16
 1455 000c 074A     		ldr	r2, .L346+20
 1456 000e A561     		str	r5, [r4, #24]
 1457 0010 0860     		str	r0, [r1]
 1458 0012 1A60     		str	r2, [r3]
 1459 0014 30BC     		pop	{r4, r5}
 1460 0016 7047     		bx	lr
 1461              	.L347:
 1462              		.align	2
 1463              	.L346:
 1464 0018 00000000 		.word	.LANCHOR6
 1465 001c 00080240 		.word	1073874944
 1466 0020 00000000 		.word	.LANCHOR7
 1467 0024 00800060 		.word	1610645504
 1468 0028 00000000 		.word	dat_buffer
ARM GAS  C:\Users\Jay\AppData\Local\Temp\ccrCOBv6.s 			page 26


 1469 002c 00000000 		.word	crt_ram_buf
 1471              		.section	.text.ef_init,"ax",%progbits
 1472              		.align	1
 1473              		.p2align 2,,3
 1474              		.syntax unified
 1475              		.thumb
 1476              		.thumb_func
 1477              		.fpu fpv4-sp-d16
 1479              	ef_init:
 1480              		@ args = 0, pretend = 0, frame = 0
 1481              		@ frame_needed = 0, uses_anonymous_args = 0
 1482              		@ link register save eliminated.
 1483 0000 014B     		ldr	r3, .L349
 1484 0002 024A     		ldr	r2, .L349+4
 1485 0004 9A61     		str	r2, [r3, #24]
 1486 0006 7047     		bx	lr
 1487              	.L350:
 1488              		.align	2
 1489              	.L349:
 1490 0008 00080240 		.word	1073874944
 1491 000c 00800060 		.word	1610645504
 1493              		.section	.text.comal80_init,"ax",%progbits
 1494              		.align	1
 1495              		.p2align 2,,3
 1496              		.syntax unified
 1497              		.thumb
 1498              		.thumb_func
 1499              		.fpu fpv4-sp-d16
 1501              	comal80_init:
 1502              		@ args = 0, pretend = 0, frame = 0
 1503              		@ frame_needed = 0, uses_anonymous_args = 0
 1504              		@ link register save eliminated.
 1505 0000 024B     		ldr	r3, .L352
 1506 0002 4FF06042 		mov	r2, #-536870912
 1507 0006 9A61     		str	r2, [r3, #24]
 1508 0008 7047     		bx	lr
 1509              	.L353:
 1510 000a 00BF     		.align	2
 1511              	.L352:
 1512 000c 00080240 		.word	1073874944
 1514              		.section	.text.c64_send_exit_menu,"ax",%progbits
 1515              		.align	1
 1516              		.p2align 2,,3
 1517              		.syntax unified
 1518              		.thumb
 1519              		.thumb_func
 1520              		.fpu fpv4-sp-d16
 1522              	c64_send_exit_menu:
 1523              		@ args = 0, pretend = 0, frame = 0
 1524              		@ frame_needed = 0, uses_anonymous_args = 0
 1525              		@ link register save eliminated.
 1526 0000 10B4     		push	{r4}
 1527 0002 0D4A     		ldr	r2, .L362
 1528              	.L355:
 1529 0004 1378     		ldrb	r3, [r2]	@ zero_extendqisi2
 1530 0006 002B     		cmp	r3, #0
 1531 0008 FCD1     		bne	.L355
ARM GAS  C:\Users\Jay\AppData\Local\Temp\ccrCOBv6.s 			page 27


 1532 000a 0C48     		ldr	r0, .L362+4
 1533 000c 0C4B     		ldr	r3, .L362+8
 1534 000e 0324     		movs	r4, #3
 1535 0010 8021     		movs	r1, #128
 1536 0012 0470     		strb	r4, [r0]
 1537 0014 1170     		strb	r1, [r2]
 1538              	.L356:
 1539 0016 1A78     		ldrb	r2, [r3]	@ zero_extendqisi2
 1540 0018 002A     		cmp	r2, #0
 1541 001a FCD1     		bne	.L356
 1542 001c 0949     		ldr	r1, .L362+12
 1543 001e 0A78     		ldrb	r2, [r1]	@ zero_extendqisi2
 1544 0020 4022     		movs	r2, #64
 1545 0022 1A70     		strb	r2, [r3]
 1546              	.L357:
 1547 0024 1A78     		ldrb	r2, [r3]	@ zero_extendqisi2
 1548 0026 002A     		cmp	r2, #0
 1549 0028 FCD1     		bne	.L357
 1550 002a 0A78     		ldrb	r2, [r1]	@ zero_extendqisi2
 1551 002c 4022     		movs	r2, #64
 1552 002e 1A70     		strb	r2, [r3]
 1553 0030 5DF8044B 		ldr	r4, [sp], #4
 1554 0034 7047     		bx	lr
 1555              	.L363:
 1556 0036 00BF     		.align	2
 1557              	.L362:
 1558 0038 00000000 		.word	.LANCHOR10
 1559 003c 00000000 		.word	.LANCHOR11
 1560 0040 00000000 		.word	.LANCHOR12
 1561 0044 00000000 		.word	.LANCHOR13
 1563              		.section	.text.options_dir_up,"ax",%progbits
 1564              		.align	1
 1565              		.p2align 2,,3
 1566              		.syntax unified
 1567              		.thumb
 1568              		.thumb_func
 1569              		.fpu fpv4-sp-d16
 1571              	options_dir_up:
 1572              		@ args = 0, pretend = 0, frame = 0
 1573              		@ frame_needed = 0, uses_anonymous_args = 0
 1574              		@ link register save eliminated.
 1575 0000 044B     		ldr	r3, .L367
 1576 0002 4069     		ldr	r0, [r0, #20]
 1577 0004 1860     		str	r0, [r3]
 1578 0006 09B9     		cbnz	r1, .L366
 1579 0008 0368     		ldr	r3, [r0]
 1580 000a 1847     		bx	r3	@ indirect register sibling call
 1581              	.L366:
 1582 000c 4368     		ldr	r3, [r0, #4]
 1583 000e 0121     		movs	r1, #1
 1584 0010 1847     		bx	r3	@ indirect register sibling call
 1585              	.L368:
 1586 0012 00BF     		.align	2
 1587              	.L367:
 1588 0014 00000000 		.word	.LANCHOR14
 1590              		.section	.text.options_prev_select,"ax",%progbits
 1591              		.align	1
ARM GAS  C:\Users\Jay\AppData\Local\Temp\ccrCOBv6.s 			page 28


 1592              		.p2align 2,,3
 1593              		.syntax unified
 1594              		.thumb
 1595              		.thumb_func
 1596              		.fpu fpv4-sp-d16
 1598              	options_prev_select:
 1599              		@ args = 0, pretend = 0, frame = 0
 1600              		@ frame_needed = 0, uses_anonymous_args = 0
 1601              		@ link register save eliminated.
 1602 0000 30B4     		push	{r4, r5}
 1603 0002 4069     		ldr	r0, [r0, #20]
 1604 0004 054D     		ldr	r5, .L371
 1605 0006 0469     		ldr	r4, [r0, #16]
 1606 0008 2860     		str	r0, [r5]
 1607 000a 0B46     		mov	r3, r1
 1608 000c 91F82C10 		ldrb	r1, [r1, #44]	@ zero_extendqisi2
 1609 0010 1143     		orrs	r1, r1, r2
 1610 0012 93F82D20 		ldrb	r2, [r3, #45]	@ zero_extendqisi2
 1611 0016 2346     		mov	r3, r4
 1612 0018 30BC     		pop	{r4, r5}
 1613 001a 1847     		bx	r3
 1614              	.L372:
 1615              		.align	2
 1616              	.L371:
 1617 001c 00000000 		.word	.LANCHOR14
 1619              		.section	.text.options_prev_dir,"ax",%progbits
 1620              		.align	1
 1621              		.p2align 2,,3
 1622              		.syntax unified
 1623              		.thumb
 1624              		.thumb_func
 1625              		.fpu fpv4-sp-d16
 1627              	options_prev_dir:
 1628              		@ args = 0, pretend = 0, frame = 0
 1629              		@ frame_needed = 0, uses_anonymous_args = 0
 1630 0000 08B5     		push	{r3, lr}
 1631 0002 4069     		ldr	r0, [r0, #20]
 1632 0004 024A     		ldr	r2, .L375
 1633 0006 0368     		ldr	r3, [r0]
 1634 0008 1060     		str	r0, [r2]
 1635 000a 9847     		blx	r3
 1636 000c 0020     		movs	r0, #0
 1637 000e 08BD     		pop	{r3, pc}
 1638              	.L376:
 1639              		.align	2
 1640              	.L375:
 1641 0010 00000000 		.word	.LANCHOR14
 1643              		.section	.text.reply_page_end,"ax",%progbits
 1644              		.align	1
 1645              		.p2align 2,,3
 1646              		.syntax unified
 1647              		.thumb
 1648              		.thumb_func
 1649              		.fpu fpv4-sp-d16
 1651              	reply_page_end:
 1652              		@ args = 0, pretend = 0, frame = 0
 1653              		@ frame_needed = 0, uses_anonymous_args = 0
ARM GAS  C:\Users\Jay\AppData\Local\Temp\ccrCOBv6.s 			page 29


 1654              		@ link register save eliminated.
 1655 0000 70B4     		push	{r4, r5, r6}
 1656 0002 0D4A     		ldr	r2, .L385
 1657              	.L378:
 1658 0004 1378     		ldrb	r3, [r2]	@ zero_extendqisi2
 1659 0006 03F0FF00 		and	r0, r3, #255
 1660 000a 002B     		cmp	r3, #0
 1661 000c FAD1     		bne	.L378
 1662 000e 0B49     		ldr	r1, .L385+4
 1663 0010 0B4D     		ldr	r5, .L385+8
 1664 0012 0870     		strb	r0, [r1]
 1665 0014 0223     		movs	r3, #2
 1666 0016 8024     		movs	r4, #128
 1667 0018 2B70     		strb	r3, [r5]
 1668 001a 01F12506 		add	r6, r1, #37
 1669 001e 1470     		strb	r4, [r2]
 1670              	.L379:
 1671 0020 1378     		ldrb	r3, [r2]	@ zero_extendqisi2
 1672 0022 002B     		cmp	r3, #0
 1673 0024 FCD1     		bne	.L379
 1674 0026 B142     		cmp	r1, r6
 1675 0028 2870     		strb	r0, [r5]
 1676 002a 1470     		strb	r4, [r2]
 1677 002c 02D0     		beq	.L377
 1678 002e 11F8010F 		ldrb	r0, [r1, #1]!	@ zero_extendqisi2
 1679 0032 F5E7     		b	.L379
 1680              	.L377:
 1681 0034 70BC     		pop	{r4, r5, r6}
 1682 0036 7047     		bx	lr
 1683              	.L386:
 1684              		.align	2
 1685              	.L385:
 1686 0038 00000000 		.word	.LANCHOR10
 1687 003c 00000100 		.word	scratch_buf
 1688 0040 00000000 		.word	.LANCHOR11
 1690              		.section	.text.options_prev_next_page,"ax",%progbits
 1691              		.align	1
 1692              		.p2align 2,,3
 1693              		.syntax unified
 1694              		.thumb
 1695              		.thumb_func
 1696              		.fpu fpv4-sp-d16
 1698              	options_prev_next_page:
 1699              		@ args = 0, pretend = 0, frame = 0
 1700              		@ frame_needed = 0, uses_anonymous_args = 0
 1701              		@ link register save eliminated.
 1702 0000 FFF7FEBF 		b	reply_page_end
 1704              		.section	.text.disk_filename_match,"ax",%progbits
 1705              		.align	1
 1706              		.p2align 2,,3
 1707              		.syntax unified
 1708              		.thumb
 1709              		.thumb_func
 1710              		.fpu fpv4-sp-d16
 1712              	disk_filename_match:
 1713              		@ args = 0, pretend = 0, frame = 0
 1714              		@ frame_needed = 0, uses_anonymous_args = 0
ARM GAS  C:\Users\Jay\AppData\Local\Temp\ccrCOBv6.s 			page 30


 1715              		@ link register save eliminated.
 1716 0000 10B4     		push	{r4}
 1717 0002 4A1E     		subs	r2, r1, #1
 1718 0004 041D     		adds	r4, r0, #4
 1719 0006 0F31     		adds	r1, r1, #15
 1720              	.L393:
 1721 0008 12F8013F 		ldrb	r3, [r2, #1]!	@ zero_extendqisi2
 1722 000c 14F8010F 		ldrb	r0, [r4, #1]!	@ zero_extendqisi2
 1723 0010 2A2B     		cmp	r3, #42
 1724 0012 0ED0     		beq	.L395
 1725 0014 3F2B     		cmp	r3, #63
 1726 0016 08D0     		beq	.L399
 1727 0018 7BB9     		cbnz	r3, .L392
 1728 001a A028     		cmp	r0, #160
 1729 001c 09D0     		beq	.L395
 1730 001e B0FA80F0 		clz	r0, r0
 1731 0022 4009     		lsrs	r0, r0, #5
 1732              	.L397:
 1733 0024 5DF8044B 		ldr	r4, [sp], #4
 1734 0028 7047     		bx	lr
 1735              	.L399:
 1736 002a 0028     		cmp	r0, #0
 1737 002c FAD0     		beq	.L397
 1738              	.L391:
 1739 002e 8A42     		cmp	r2, r1
 1740 0030 EAD1     		bne	.L393
 1741              	.L395:
 1742 0032 0120     		movs	r0, #1
 1743 0034 5DF8044B 		ldr	r4, [sp], #4
 1744 0038 7047     		bx	lr
 1745              	.L392:
 1746 003a 8342     		cmp	r3, r0
 1747 003c F7D0     		beq	.L391
 1748 003e 0020     		movs	r0, #0
 1749 0040 F0E7     		b	.L397
 1751 0042 00BF     		.section	.text.disk_parse_filename,"ax",%progbits
 1752              		.align	1
 1753              		.p2align 2,,3
 1754              		.syntax unified
 1755              		.thumb
 1756              		.thumb_func
 1757              		.fpu fpv4-sp-d16
 1759              	disk_parse_filename:
 1760              		@ args = 0, pretend = 0, frame = 0
 1761              		@ frame_needed = 0, uses_anonymous_args = 0
 1762              		@ link register save eliminated.
 1763 0000 F0B4     		push	{r4, r5, r6, r7}
 1764 0002 0024     		movs	r4, #0
 1765 0004 0C71     		strb	r4, [r1, #4]
 1766 0006 0246     		mov	r2, r0
 1767 0008 02E0     		b	.L401
 1768              	.L403:
 1769 000a 3A2B     		cmp	r3, #58
 1770 000c 30D0     		beq	.L417
 1771 000e 1C46     		mov	r4, r3
 1772              	.L401:
 1773 0010 12F8013B 		ldrb	r3, [r2], #1	@ zero_extendqisi2
ARM GAS  C:\Users\Jay\AppData\Local\Temp\ccrCOBv6.s 			page 31


 1774 0014 002B     		cmp	r3, #0
 1775 0016 F8D1     		bne	.L403
 1776              	.L402:
 1777 0018 0024     		movs	r4, #0
 1778 001a 0860     		str	r0, [r1]
 1779 001c 4C71     		strb	r4, [r1, #5]
 1780 001e 8C71     		strb	r4, [r1, #6]
 1781 0020 0378     		ldrb	r3, [r0]	@ zero_extendqisi2
 1782 0022 4FF0010C 		mov	ip, #1
 1783 0026 0327     		movs	r7, #3
 1784 0028 0226     		movs	r6, #2
 1785 002a 0425     		movs	r5, #4
 1786 002c 421C     		adds	r2, r0, #1
 1787 002e 33B1     		cbz	r3, .L400
 1788              	.L413:
 1789 0030 2C2B     		cmp	r3, #44
 1790 0032 06D0     		beq	.L418
 1791              	.L411:
 1792 0034 1046     		mov	r0, r2
 1793              	.L419:
 1794 0036 0378     		ldrb	r3, [r0]	@ zero_extendqisi2
 1795 0038 421C     		adds	r2, r0, #1
 1796 003a 002B     		cmp	r3, #0
 1797 003c F8D1     		bne	.L413
 1798              	.L400:
 1799 003e F0BC     		pop	{r4, r5, r6, r7}
 1800 0040 7047     		bx	lr
 1801              	.L418:
 1802 0042 02F8014C 		strb	r4, [r2, #-1]
 1803 0046 4B79     		ldrb	r3, [r1, #5]	@ zero_extendqisi2
 1804 0048 5BB9     		cbnz	r3, .L406
 1805 004a 1378     		ldrb	r3, [r2]	@ zero_extendqisi2
 1806 004c 532B     		cmp	r3, #83
 1807 004e 19D0     		beq	.L408
 1808 0050 552B     		cmp	r3, #85
 1809 0052 14D0     		beq	.L409
 1810 0054 4C2B     		cmp	r3, #76
 1811 0056 0CBF     		ite	eq
 1812 0058 2B46     		moveq	r3, r5
 1813 005a 3346     		movne	r3, r6
 1814 005c 4B71     		strb	r3, [r1, #5]
 1815 005e 1046     		mov	r0, r2
 1816 0060 E9E7     		b	.L419
 1817              	.L406:
 1818 0062 8B79     		ldrb	r3, [r1, #6]	@ zero_extendqisi2
 1819 0064 002B     		cmp	r3, #0
 1820 0066 E5D1     		bne	.L411
 1821 0068 4378     		ldrb	r3, [r0, #1]	@ zero_extendqisi2
 1822 006a 8B71     		strb	r3, [r1, #6]
 1823 006c F0BC     		pop	{r4, r5, r6, r7}
 1824 006e 7047     		bx	lr
 1825              	.L417:
 1826 0070 303C     		subs	r4, r4, #48
 1827 0072 E4B2     		uxtb	r4, r4
 1828 0074 092C     		cmp	r4, #9
 1829 0076 09D8     		bhi	.L415
 1830 0078 0C71     		strb	r4, [r1, #4]
ARM GAS  C:\Users\Jay\AppData\Local\Temp\ccrCOBv6.s 			page 32


 1831 007a 1046     		mov	r0, r2
 1832 007c CCE7     		b	.L402
 1833              	.L409:
 1834 007e 4F71     		strb	r7, [r1, #5]
 1835 0080 1046     		mov	r0, r2
 1836 0082 D8E7     		b	.L419
 1837              	.L408:
 1838 0084 81F805C0 		strb	ip, [r1, #5]
 1839 0088 1046     		mov	r0, r2
 1840 008a D4E7     		b	.L419
 1841              	.L415:
 1842 008c 1046     		mov	r0, r2
 1843 008e C3E7     		b	.L402
 1845              		.section	.text.disk_send_prg,"ax",%progbits
 1846              		.align	1
 1847              		.p2align 2,,3
 1848              		.syntax unified
 1849              		.thumb
 1850              		.thumb_func
 1851              		.fpu fpv4-sp-d16
 1853              	disk_send_prg:
 1854              		@ args = 0, pretend = 0, frame = 0
 1855              		@ frame_needed = 0, uses_anonymous_args = 0
 1856              		@ link register save eliminated.
 1857 0000 10B4     		push	{r4}
 1858 0002 0D4B     		ldr	r3, .L428
 1859              	.L421:
 1860 0004 1A78     		ldrb	r2, [r3]	@ zero_extendqisi2
 1861 0006 002A     		cmp	r2, #0
 1862 0008 FCD1     		bne	.L421
 1863 000a 0C49     		ldr	r1, .L428+4
 1864 000c 8022     		movs	r2, #128
 1865 000e 0A70     		strb	r2, [r1]
 1866 0010 C4B2     		uxtb	r4, r0
 1867 0012 1A70     		strb	r2, [r3]
 1868              	.L422:
 1869 0014 1A78     		ldrb	r2, [r3]	@ zero_extendqisi2
 1870 0016 002A     		cmp	r2, #0
 1871 0018 FCD1     		bne	.L422
 1872 001a 8022     		movs	r2, #128
 1873 001c 0C70     		strb	r4, [r1]
 1874 001e C0F30720 		ubfx	r0, r0, #8, #8
 1875 0022 1A70     		strb	r2, [r3]
 1876              	.L423:
 1877 0024 1A78     		ldrb	r2, [r3]	@ zero_extendqisi2
 1878 0026 002A     		cmp	r2, #0
 1879 0028 FCD1     		bne	.L423
 1880 002a 8022     		movs	r2, #128
 1881 002c 0870     		strb	r0, [r1]
 1882 002e 1A70     		strb	r2, [r3]
 1883 0030 5DF8044B 		ldr	r4, [sp], #4
 1884 0034 7047     		bx	lr
 1885              	.L429:
 1886 0036 00BF     		.align	2
 1887              	.L428:
 1888 0038 00000000 		.word	.LANCHOR10
 1889 003c 00000000 		.word	.LANCHOR11
ARM GAS  C:\Users\Jay\AppData\Local\Temp\ccrCOBv6.s 			page 33


 1891              		.section	.text.disk_send_prg_bank,"ax",%progbits
 1892              		.align	1
 1893              		.p2align 2,,3
 1894              		.syntax unified
 1895              		.thumb
 1896              		.thumb_func
 1897              		.fpu fpv4-sp-d16
 1899              	disk_send_prg_bank:
 1900              		@ args = 0, pretend = 0, frame = 0
 1901              		@ frame_needed = 0, uses_anonymous_args = 0
 1902              		@ link register save eliminated.
 1903 0000 10B4     		push	{r4}
 1904 0002 0D4B     		ldr	r3, .L438
 1905              	.L431:
 1906 0004 1A78     		ldrb	r2, [r3]	@ zero_extendqisi2
 1907 0006 002A     		cmp	r2, #0
 1908 0008 FCD1     		bne	.L431
 1909 000a 0C49     		ldr	r1, .L438+4
 1910 000c 8124     		movs	r4, #129
 1911 000e 8022     		movs	r2, #128
 1912 0010 0C70     		strb	r4, [r1]
 1913 0012 C4B2     		uxtb	r4, r0
 1914 0014 1A70     		strb	r2, [r3]
 1915              	.L432:
 1916 0016 1A78     		ldrb	r2, [r3]	@ zero_extendqisi2
 1917 0018 002A     		cmp	r2, #0
 1918 001a FCD1     		bne	.L432
 1919 001c 8022     		movs	r2, #128
 1920 001e 0C70     		strb	r4, [r1]
 1921 0020 C0F30720 		ubfx	r0, r0, #8, #8
 1922 0024 1A70     		strb	r2, [r3]
 1923              	.L433:
 1924 0026 1A78     		ldrb	r2, [r3]	@ zero_extendqisi2
 1925 0028 002A     		cmp	r2, #0
 1926 002a FCD1     		bne	.L433
 1927 002c 8022     		movs	r2, #128
 1928 002e 0870     		strb	r0, [r1]
 1929 0030 1A70     		strb	r2, [r3]
 1930 0032 5DF8044B 		ldr	r4, [sp], #4
 1931 0036 7047     		bx	lr
 1932              	.L439:
 1933              		.align	2
 1934              	.L438:
 1935 0038 00000000 		.word	.LANCHOR10
 1936 003c 00000000 		.word	.LANCHOR11
 1938              		.section	.text.c64_send_command,"ax",%progbits
 1939              		.align	1
 1940              		.p2align 2,,3
 1941              		.syntax unified
 1942              		.thumb
 1943              		.thumb_func
 1944              		.fpu fpv4-sp-d16
 1946              	c64_send_command:
 1947              		@ args = 0, pretend = 0, frame = 8
 1948              		@ frame_needed = 0, uses_anonymous_args = 0
 1949 0000 F0B5     		push	{r4, r5, r6, r7, lr}
 1950 0002 1B4C     		ldr	r4, .L454
ARM GAS  C:\Users\Jay\AppData\Local\Temp\ccrCOBv6.s 			page 34


 1951 0004 1B4A     		ldr	r2, .L454+4
 1952 0006 1C4E     		ldr	r6, .L454+8
 1953 0008 83B0     		sub	sp, sp, #12
 1954 000a 04F1080C 		add	ip, r4, #8
 1955 000e 8027     		movs	r7, #128
 1956              	.L442:
 1957 0010 14F8015B 		ldrb	r5, [r4], #1	@ zero_extendqisi2
 1958              	.L441:
 1959 0014 1378     		ldrb	r3, [r2]	@ zero_extendqisi2
 1960 0016 002B     		cmp	r3, #0
 1961 0018 FCD1     		bne	.L441
 1962 001a 6445     		cmp	r4, ip
 1963 001c 3570     		strb	r5, [r6]
 1964 001e 1770     		strb	r7, [r2]
 1965 0020 F6D1     		bne	.L442
 1966 0022 071D     		adds	r7, r0, #4
 1967 0024 8025     		movs	r5, #128
 1968              	.L444:
 1969 0026 10F8014B 		ldrb	r4, [r0], #1	@ zero_extendqisi2
 1970              	.L443:
 1971 002a 1378     		ldrb	r3, [r2]	@ zero_extendqisi2
 1972 002c 002B     		cmp	r3, #0
 1973 002e FCD1     		bne	.L443
 1974 0030 B842     		cmp	r0, r7
 1975 0032 3470     		strb	r4, [r6]
 1976 0034 1570     		strb	r5, [r2]
 1977 0036 F6D1     		bne	.L444
 1978 0038 104A     		ldr	r2, .L454+12
 1979 003a 114F     		ldr	r7, .L454+16
 1980 003c 6846     		mov	r0, sp
 1981 003e 0DF10506 		add	r6, sp, #5
 1982 0042 4025     		movs	r5, #64
 1983              	.L445:
 1984 0044 1378     		ldrb	r3, [r2]	@ zero_extendqisi2
 1985 0046 03F0FF04 		and	r4, r3, #255
 1986 004a 002B     		cmp	r3, #0
 1987 004c FAD1     		bne	.L445
 1988 004e 3B78     		ldrb	r3, [r7]	@ zero_extendqisi2
 1989 0050 DBB2     		uxtb	r3, r3
 1990 0052 00F8013B 		strb	r3, [r0], #1
 1991 0056 B042     		cmp	r0, r6
 1992 0058 1570     		strb	r5, [r2]
 1993 005a F3D1     		bne	.L445
 1994 005c 6846     		mov	r0, sp
 1995 005e 8DF80540 		strb	r4, [sp, #5]
 1996 0062 FFF7FEFF 		bl	strcmp
 1997 0066 B0FA80F0 		clz	r0, r0
 1998 006a 4009     		lsrs	r0, r0, #5
 1999 006c 03B0     		add	sp, sp, #12
 2000              		@ sp needed
 2001 006e F0BD     		pop	{r4, r5, r6, r7, pc}
 2002              	.L455:
 2003              		.align	2
 2004              	.L454:
 2005 0070 00000000 		.word	.LC10
 2006 0074 00000000 		.word	.LANCHOR10
 2007 0078 00000000 		.word	.LANCHOR11
ARM GAS  C:\Users\Jay\AppData\Local\Temp\ccrCOBv6.s 			page 35


 2008 007c 00000000 		.word	.LANCHOR12
 2009 0080 00000000 		.word	.LANCHOR13
 2011              		.section	.text.c64_receive_command,"ax",%progbits
 2012              		.align	1
 2013              		.p2align 2,,3
 2014              		.syntax unified
 2015              		.thumb
 2016              		.thumb_func
 2017              		.fpu fpv4-sp-d16
 2019              	c64_receive_command:
 2020              		@ args = 0, pretend = 0, frame = 8
 2021              		@ frame_needed = 0, uses_anonymous_args = 0
 2022              		@ link register save eliminated.
 2023 0000 70B4     		push	{r4, r5, r6}
 2024 0002 0E4A     		ldr	r2, .L464
 2025 0004 0E4E     		ldr	r6, .L464+4
 2026 0006 83B0     		sub	sp, sp, #12
 2027 0008 6946     		mov	r1, sp
 2028 000a 0DF10505 		add	r5, sp, #5
 2029 000e 4024     		movs	r4, #64
 2030              	.L457:
 2031 0010 1378     		ldrb	r3, [r2]	@ zero_extendqisi2
 2032 0012 03F0FF00 		and	r0, r3, #255
 2033 0016 002B     		cmp	r3, #0
 2034 0018 FAD1     		bne	.L457
 2035 001a 3378     		ldrb	r3, [r6]	@ zero_extendqisi2
 2036 001c DBB2     		uxtb	r3, r3
 2037 001e 01F8013B 		strb	r3, [r1], #1
 2038 0022 A942     		cmp	r1, r5
 2039 0024 1470     		strb	r4, [r2]
 2040 0026 F3D1     		bne	.L457
 2041 0028 064B     		ldr	r3, .L464+8
 2042 002a 009A     		ldr	r2, [sp]
 2043 002c 9A42     		cmp	r2, r3
 2044 002e 08BF     		it	eq
 2045 0030 9DF80400 		ldrbeq	r0, [sp, #4]	@ zero_extendqisi2
 2046 0034 03B0     		add	sp, sp, #12
 2047              		@ sp needed
 2048 0036 70BC     		pop	{r4, r5, r6}
 2049 0038 7047     		bx	lr
 2050              	.L465:
 2051 003a 00BF     		.align	2
 2052              	.L464:
 2053 003c 00000000 		.word	.LANCHOR12
 2054 0040 00000000 		.word	.LANCHOR13
 2055 0044 4B46463A 		.word	977684043
 2057              		.section	.text.prg_load_file,"ax",%progbits
 2058              		.align	1
 2059              		.p2align 2,,3
 2060              		.syntax unified
 2061              		.thumb
 2062              		.thumb_func
 2063              		.fpu fpv4-sp-d16
 2065              	prg_load_file:
 2066              		@ args = 0, pretend = 0, frame = 8
 2067              		@ frame_needed = 0, uses_anonymous_args = 0
 2068 0000 00B5     		push	{lr}
ARM GAS  C:\Users\Jay\AppData\Local\Temp\ccrCOBv6.s 			page 36


 2069 0002 83B0     		sub	sp, sp, #12
 2070 0004 01AB     		add	r3, sp, #4
 2071 0006 4FF48032 		mov	r2, #65536
 2072 000a 0F49     		ldr	r1, .L471
 2073 000c FFF7FEFF 		bl	f_read
 2074 0010 50B1     		cbz	r0, .L467
 2075 0012 0E4B     		ldr	r3, .L471+4
 2076 0014 4FF00052 		mov	r2, #536870912
 2077 0018 9A61     		str	r2, [r3, #24]
 2078              	.L468:
 2079 001a 0D4B     		ldr	r3, .L471+8
 2080 001c 0020     		movs	r0, #0
 2081 001e D872     		strb	r0, [r3, #11]
 2082 0020 1873     		strb	r0, [r3, #12]
 2083 0022 03B0     		add	sp, sp, #12
 2084              		@ sp needed
 2085 0024 5DF804FB 		ldr	pc, [sp], #4
 2086              	.L467:
 2087 0028 BDF80430 		ldrh	r3, [sp, #4]
 2088 002c 074A     		ldr	r2, .L471+4
 2089 002e 4FF00051 		mov	r1, #536870912
 2090 0032 022B     		cmp	r3, #2
 2091 0034 9161     		str	r1, [r2, #24]
 2092 0036 F0D9     		bls	.L468
 2093 0038 054A     		ldr	r2, .L471+8
 2094 003a 0120     		movs	r0, #1
 2095 003c A2F80B30 		strh	r3, [r2, #11]	@ unaligned
 2096 0040 03B0     		add	sp, sp, #12
 2097              		@ sp needed
 2098 0042 5DF804FB 		ldr	pc, [sp], #4
 2099              	.L472:
 2100 0046 00BF     		.align	2
 2101              	.L471:
 2102 0048 00000000 		.word	dat_buffer
 2103 004c 00080240 		.word	1073874944
 2104 0050 00000000 		.word	dat_file
 2106              		.section	.text.auto_boot,"ax",%progbits
 2107              		.align	1
 2108              		.p2align 2,,3
 2109              		.syntax unified
 2110              		.thumb
 2111              		.thumb_func
 2112              		.fpu fpv4-sp-d16
 2114              	auto_boot:
 2115              		@ args = 0, pretend = 0, frame = 560
 2116              		@ frame_needed = 0, uses_anonymous_args = 0
 2117 0000 10B5     		push	{r4, lr}
 2118 0002 ADF50C7D 		sub	sp, sp, #560
 2119 0006 02A8     		add	r0, sp, #8
 2120 0008 0122     		movs	r2, #1
 2121 000a 3349     		ldr	r1, .L496
 2122 000c FFF7FEFF 		bl	f_open
 2123 0010 38B3     		cbz	r0, .L474
 2124 0012 324B     		ldr	r3, .L496+4
 2125 0014 4FF00052 		mov	r2, #536870912
 2126 0018 9A61     		str	r2, [r3, #24]
 2127              	.L475:
ARM GAS  C:\Users\Jay\AppData\Local\Temp\ccrCOBv6.s 			page 37


 2128 001a 314C     		ldr	r4, .L496+8
 2129 001c 0021     		movs	r1, #0
 2130 001e 4FF48062 		mov	r2, #1024
 2131 0022 2046     		mov	r0, r4
 2132 0024 FFF7FEFF 		bl	memset
 2133 0028 2E4B     		ldr	r3, .L496+12
 2134 002a 03CB     		ldmia	r3!, {r0, r1}
 2135 002c 2060     		str	r0, [r4]	@ unaligned
 2136 002e 6160     		str	r1, [r4, #4]	@ unaligned
 2137              	.L479:
 2138 0030 02A8     		add	r0, sp, #8
 2139 0032 FFF7FEFF 		bl	f_close
 2140 0036 2949     		ldr	r1, .L496+4
 2141 0038 2B4A     		ldr	r2, .L496+16
 2142 003a 2C4B     		ldr	r3, .L496+20
 2143 003c 4FF00050 		mov	r0, #536870912
 2144 0040 8861     		str	r0, [r1, #24]
 2145 0042 1168     		ldr	r1, [r2]
 2146 0044 9942     		cmp	r1, r3
 2147 0046 38D0     		beq	.L495
 2148              	.L480:
 2149 0048 294B     		ldr	r3, .L496+24
 2150 004a 1B69     		ldr	r3, [r3, #16]
 2151 004c DB06     		lsls	r3, r3, #27
 2152 004e 41D5     		bpl	.L486
 2153              	.L482:
 2154 0050 274B     		ldr	r3, .L496+24
 2155              	.L490:
 2156 0052 1869     		ldr	r0, [r3, #16]
 2157 0054 10F01000 		ands	r0, r0, #16
 2158 0058 FBD1     		bne	.L490
 2159 005a 1070     		strb	r0, [r2]
 2160              	.L493:
 2161 005c 0DF50C7D 		add	sp, sp, #560
 2162              		@ sp needed
 2163 0060 10BD     		pop	{r4, pc}
 2164              	.L474:
 2165 0062 0446     		mov	r4, r0
 2166 0064 01AB     		add	r3, sp, #4
 2167 0066 4FF48062 		mov	r2, #1024
 2168 006a 1D49     		ldr	r1, .L496+8
 2169 006c 02A8     		add	r0, sp, #8
 2170 006e FFF7FEFF 		bl	f_read
 2171 0072 00B1     		cbz	r0, .L485
 2172 0074 0194     		str	r4, [sp, #4]
 2173              	.L485:
 2174 0076 019B     		ldr	r3, [sp, #4]
 2175 0078 184A     		ldr	r2, .L496+4
 2176 007a 4FF00051 		mov	r1, #536870912
 2177 007e B3F5806F 		cmp	r3, #1024
 2178 0082 9161     		str	r1, [r2, #24]
 2179 0084 C9D1     		bne	.L475
 2180 0086 01AB     		add	r3, sp, #4
 2181 0088 4FF48032 		mov	r2, #65536
 2182 008c 1949     		ldr	r1, .L496+28
 2183 008e 02A8     		add	r0, sp, #8
 2184 0090 FFF7FEFF 		bl	f_read
ARM GAS  C:\Users\Jay\AppData\Local\Temp\ccrCOBv6.s 			page 38


 2185 0094 08B1     		cbz	r0, .L477
 2186 0096 0023     		movs	r3, #0
 2187 0098 0193     		str	r3, [sp, #4]
 2188              	.L477:
 2189 009a 019B     		ldr	r3, [sp, #4]
 2190 009c 0F4A     		ldr	r2, .L496+4
 2191 009e 4FF00051 		mov	r1, #536870912
 2192 00a2 B3F5803F 		cmp	r3, #65536
 2193 00a6 9161     		str	r1, [r2, #24]
 2194 00a8 B7D1     		bne	.L475
 2195 00aa 0822     		movs	r2, #8
 2196 00ac 0C49     		ldr	r1, .L496+8
 2197 00ae 0D48     		ldr	r0, .L496+12
 2198 00b0 FFF7FEFF 		bl	memcmp
 2199 00b4 0028     		cmp	r0, #0
 2200 00b6 BBD0     		beq	.L479
 2201 00b8 AFE7     		b	.L475
 2202              	.L495:
 2203 00ba A3F1D153 		sub	r3, r3, #438304768
 2204 00be A3F5A013 		sub	r3, r3, #1310720
 2205 00c2 5168     		ldr	r1, [r2, #4]
 2206 00c4 053B     		subs	r3, r3, #5
 2207 00c6 9942     		cmp	r1, r3
 2208 00c8 BED1     		bne	.L480
 2209 00ca 0B4B     		ldr	r3, .L496+32
 2210 00cc 9168     		ldr	r1, [r2, #8]
 2211 00ce 9942     		cmp	r1, r3
 2212 00d0 BAD1     		bne	.L480
 2213 00d2 BDE7     		b	.L482
 2214              	.L486:
 2215 00d4 0120     		movs	r0, #1
 2216 00d6 C1E7     		b	.L493
 2217              	.L497:
 2218              		.align	2
 2219              	.L496:
 2220 00d8 00000000 		.word	.LC11
 2221 00dc 00080240 		.word	1073874944
 2222 00e0 00000000 		.word	dat_file
 2223 00e4 14000000 		.word	.LC12
 2224 00e8 00000100 		.word	scratch_buf
 2225 00ec 4B756E67 		.word	1735292235
 2226 00f0 00000240 		.word	1073872896
 2227 00f4 00000000 		.word	dat_buffer
 2228 00f8 656E7500 		.word	7695973
 2230              		.section	.text.d64_read_next_sector,"ax",%progbits
 2231              		.align	1
 2232              		.p2align 2,,3
 2233              		.syntax unified
 2234              		.thumb
 2235              		.thumb_func
 2236              		.fpu fpv4-sp-d16
 2238              	d64_read_next_sector:
 2239              		@ args = 0, pretend = 0, frame = 8
 2240              		@ frame_needed = 0, uses_anonymous_args = 0
 2241 0000 F0B5     		push	{r4, r5, r6, r7, lr}
 2242 0002 90F82822 		ldrb	r2, [r0, #552]	@ zero_extendqisi2
 2243 0006 0B78     		ldrb	r3, [r1]	@ zero_extendqisi2
ARM GAS  C:\Users\Jay\AppData\Local\Temp\ccrCOBv6.s 			page 39


 2244 0008 032A     		cmp	r2, #3
 2245 000a 0546     		mov	r5, r0
 2246 000c 83B0     		sub	sp, sp, #12
 2247 000e 0C46     		mov	r4, r1
 2248 0010 4878     		ldrb	r0, [r1, #1]	@ zero_extendqisi2
 2249 0012 20D0     		beq	.L511
 2250 0014 232B     		cmp	r3, #35
 2251 0016 18D8     		bhi	.L512
 2252              	.L508:
 2253 0018 0021     		movs	r1, #0
 2254              	.L501:
 2255 001a 013B     		subs	r3, r3, #1
 2256 001c DAB2     		uxtb	r2, r3
 2257 001e 292A     		cmp	r2, #41
 2258 0020 0CD9     		bls	.L513
 2259              	.L509:
 2260 0022 0021     		movs	r1, #0
 2261              	.L500:
 2262 0024 2846     		mov	r0, r5
 2263 0026 FFF7FEFF 		bl	f_lseek
 2264 002a 194E     		ldr	r6, .L515
 2265 002c 4FF00057 		mov	r7, #536870912
 2266 0030 B761     		str	r7, [r6, #24]
 2267 0032 D0B1     		cbz	r0, .L502
 2268              	.L505:
 2269 0034 0020     		movs	r0, #0
 2270 0036 2070     		strb	r0, [r4]
 2271 0038 03B0     		add	sp, sp, #12
 2272              		@ sp needed
 2273 003a F0BD     		pop	{r4, r5, r6, r7, pc}
 2274              	.L513:
 2275 003c 154A     		ldr	r2, .L515+4
 2276 003e 32F81330 		ldrh	r3, [r2, r3, lsl #1]
 2277 0042 1844     		add	r0, r0, r3
 2278 0044 01EB0021 		add	r1, r1, r0, lsl #8
 2279 0048 ECE7     		b	.L500
 2280              	.L512:
 2281 004a 022A     		cmp	r2, #2
 2282 004c E4D1     		bne	.L508
 2283 004e 233B     		subs	r3, r3, #35
 2284 0050 DBB2     		uxtb	r3, r3
 2285 0052 1149     		ldr	r1, .L515+8
 2286 0054 E1E7     		b	.L501
 2287              	.L511:
 2288 0056 013B     		subs	r3, r3, #1
 2289 0058 DAB2     		uxtb	r2, r3
 2290 005a 4F2A     		cmp	r2, #79
 2291 005c E1D8     		bhi	.L509
 2292 005e 03EB8303 		add	r3, r3, r3, lsl #2
 2293 0062 00EBC303 		add	r3, r0, r3, lsl #3
 2294 0066 1902     		lsls	r1, r3, #8
 2295 0068 DCE7     		b	.L500
 2296              	.L502:
 2297 006a 2846     		mov	r0, r5
 2298 006c 01AB     		add	r3, sp, #4
 2299 006e 4FF48072 		mov	r2, #256
 2300 0072 2146     		mov	r1, r4
ARM GAS  C:\Users\Jay\AppData\Local\Temp\ccrCOBv6.s 			page 40


 2301 0074 FFF7FEFF 		bl	f_read
 2302 0078 38B9     		cbnz	r0, .L514
 2303 007a 019B     		ldr	r3, [sp, #4]
 2304 007c B761     		str	r7, [r6, #24]
 2305 007e B3F5807F 		cmp	r3, #256
 2306 0082 D7D1     		bne	.L505
 2307 0084 0120     		movs	r0, #1
 2308 0086 03B0     		add	sp, sp, #12
 2309              		@ sp needed
 2310 0088 F0BD     		pop	{r4, r5, r6, r7, pc}
 2311              	.L514:
 2312 008a B761     		str	r7, [r6, #24]
 2313 008c D2E7     		b	.L505
 2314              	.L516:
 2315 008e 00BF     		.align	2
 2316              	.L515:
 2317 0090 00080240 		.word	1073874944
 2318 0094 00000000 		.word	.LANCHOR15
 2319 0098 00AB0200 		.word	174848
 2321              		.section	.text.d64_read_dir,"ax",%progbits
 2322              		.align	1
 2323              		.p2align 2,,3
 2324              		.syntax unified
 2325              		.thumb
 2326              		.thumb_func
 2327              		.fpu fpv4-sp-d16
 2329              	d64_read_dir:
 2330              		@ args = 0, pretend = 0, frame = 0
 2331              		@ frame_needed = 0, uses_anonymous_args = 0
 2332 0000 2DE9F041 		push	{r4, r5, r6, r7, r8, lr}
 2333 0004 0546     		mov	r5, r0
 2334 0006 00F20A37 		addw	r7, r0, #778
 2335 000a 00F22A26 		addw	r6, r0, #554
 2336 000e 4FF00008 		mov	r8, #0
 2337              	.L518:
 2338 0012 D5F83043 		ldr	r4, [r5, #816]
 2339 0016 2034     		adds	r4, r4, #32
 2340 0018 BC42     		cmp	r4, r7
 2341 001a 3146     		mov	r1, r6
 2342 001c 2846     		mov	r0, r5
 2343 001e 0DD8     		bhi	.L519
 2344 0020 C5F83043 		str	r4, [r5, #816]
 2345              	.L520:
 2346 0024 6379     		ldrb	r3, [r4, #5]	@ zero_extendqisi2
 2347 0026 A02B     		cmp	r3, #160
 2348 0028 1DD0     		beq	.L534
 2349 002a FBB1     		cbz	r3, .L524
 2350 002c A378     		ldrb	r3, [r4, #2]	@ zero_extendqisi2
 2351 002e 84F81580 		strb	r8, [r4, #21]
 2352 0032 002B     		cmp	r3, #0
 2353 0034 EDD0     		beq	.L518
 2354 0036 0120     		movs	r0, #1
 2355 0038 BDE8F081 		pop	{r4, r5, r6, r7, r8, pc}
 2356              	.L519:
 2357 003c 95F82A32 		ldrb	r3, [r5, #554]	@ zero_extendqisi2
 2358 0040 C5F83063 		str	r6, [r5, #816]
 2359 0044 3446     		mov	r4, r6
ARM GAS  C:\Users\Jay\AppData\Local\Temp\ccrCOBv6.s 			page 41


 2360 0046 5BB1     		cbz	r3, .L521
 2361 0048 95F82932 		ldrb	r3, [r5, #553]	@ zero_extendqisi2
 2362 004c 272B     		cmp	r3, #39
 2363 004e 03F10102 		add	r2, r3, #1
 2364 0052 05D8     		bhi	.L521
 2365 0054 85F82922 		strb	r2, [r5, #553]
 2366 0058 FFF7FEFF 		bl	d64_read_next_sector
 2367 005c 0028     		cmp	r0, #0
 2368 005e E1D1     		bne	.L520
 2369              	.L521:
 2370 0060 0020     		movs	r0, #0
 2371 0062 BDE8F081 		pop	{r4, r5, r6, r7, r8, pc}
 2372              	.L534:
 2373 0066 84F81580 		strb	r8, [r4, #21]
 2374 006a D2E7     		b	.L518
 2375              	.L524:
 2376 006c 6375     		strb	r3, [r4, #21]
 2377 006e D0E7     		b	.L518
 2379              		.section	.text.save_dat,"ax",%progbits
 2380              		.align	1
 2381              		.p2align 2,,3
 2382              		.syntax unified
 2383              		.thumb
 2384              		.thumb_func
 2385              		.fpu fpv4-sp-d16
 2387              	save_dat:
 2388              		@ args = 0, pretend = 0, frame = 560
 2389              		@ frame_needed = 0, uses_anonymous_args = 0
 2390 0000 10B5     		push	{r4, lr}
 2391 0002 ADF50C7D 		sub	sp, sp, #560
 2392 0006 02A8     		add	r0, sp, #8
 2393 0008 0A22     		movs	r2, #10
 2394 000a 1E49     		ldr	r1, .L549
 2395 000c FFF7FEFF 		bl	f_open
 2396 0010 40B1     		cbz	r0, .L536
 2397 0012 1D4B     		ldr	r3, .L549+4
 2398 0014 4FF00052 		mov	r2, #536870912
 2399 0018 9A61     		str	r2, [r3, #24]
 2400 001a 0024     		movs	r4, #0
 2401              	.L546:
 2402 001c 2046     		mov	r0, r4
 2403 001e 0DF50C7D 		add	sp, sp, #560
 2404              		@ sp needed
 2405 0022 10BD     		pop	{r4, pc}
 2406              	.L536:
 2407 0024 0446     		mov	r4, r0
 2408 0026 01AB     		add	r3, sp, #4
 2409 0028 4FF48062 		mov	r2, #1024
 2410 002c 1749     		ldr	r1, .L549+8
 2411 002e 02A8     		add	r0, sp, #8
 2412 0030 FFF7FEFF 		bl	f_write
 2413 0034 80B9     		cbnz	r0, .L540
 2414              	.L541:
 2415 0036 019B     		ldr	r3, [sp, #4]
 2416 0038 134A     		ldr	r2, .L549+4
 2417 003a 4FF00051 		mov	r1, #536870912
 2418 003e B3F5806F 		cmp	r3, #1024
ARM GAS  C:\Users\Jay\AppData\Local\Temp\ccrCOBv6.s 			page 42


 2419 0042 9161     		str	r1, [r2, #24]
 2420 0044 0AD0     		beq	.L548
 2421 0046 0024     		movs	r4, #0
 2422              	.L538:
 2423 0048 02A8     		add	r0, sp, #8
 2424 004a FFF7FEFF 		bl	f_close
 2425 004e 0E4B     		ldr	r3, .L549+4
 2426 0050 4FF00052 		mov	r2, #536870912
 2427 0054 9A61     		str	r2, [r3, #24]
 2428 0056 E1E7     		b	.L546
 2429              	.L540:
 2430 0058 0194     		str	r4, [sp, #4]
 2431 005a ECE7     		b	.L541
 2432              	.L548:
 2433 005c 01AB     		add	r3, sp, #4
 2434 005e 4FF48032 		mov	r2, #65536
 2435 0062 0B49     		ldr	r1, .L549+12
 2436 0064 02A8     		add	r0, sp, #8
 2437 0066 FFF7FEFF 		bl	f_write
 2438 006a 08B1     		cbz	r0, .L539
 2439 006c 0023     		movs	r3, #0
 2440 006e 0193     		str	r3, [sp, #4]
 2441              	.L539:
 2442 0070 019C     		ldr	r4, [sp, #4]
 2443 0072 054B     		ldr	r3, .L549+4
 2444 0074 A4F58031 		sub	r1, r4, #65536
 2445 0078 4FF00052 		mov	r2, #536870912
 2446 007c 4C42     		rsbs	r4, r1, #0
 2447 007e 4C41     		adcs	r4, r4, r1
 2448 0080 9A61     		str	r2, [r3, #24]
 2449 0082 E1E7     		b	.L538
 2450              	.L550:
 2451              		.align	2
 2452              	.L549:
 2453 0084 00000000 		.word	.LC11
 2454 0088 00080240 		.word	1073874944
 2455 008c 00000000 		.word	dat_file
 2456 0090 00000000 		.word	dat_buffer
 2458              		.section	.text.usbd_process_eptx,"ax",%progbits
 2459              		.align	1
 2460              		.p2align 2,,3
 2461              		.syntax unified
 2462              		.thumb
 2463              		.thumb_func
 2464              		.fpu fpv4-sp-d16
 2466              	usbd_process_eptx:
 2467              		@ args = 0, pretend = 0, frame = 0
 2468              		@ frame_needed = 0, uses_anonymous_args = 0
 2469 0000 38B5     		push	{r3, r4, r5, lr}
 2470 0002 90F86330 		ldrb	r3, [r0, #99]	@ zero_extendqisi2
 2471 0006 023B     		subs	r3, r3, #2
 2472 0008 0446     		mov	r4, r0
 2473 000a 032B     		cmp	r3, #3
 2474 000c 25D8     		bhi	.L551
 2475 000e DFE803F0 		tbb	[pc, r3]
 2476              	.L554:
 2477 0012 02       		.byte	(.L553-.L554)/2
ARM GAS  C:\Users\Jay\AppData\Local\Temp\ccrCOBv6.s 			page 43


 2478 0013 02       		.byte	(.L553-.L554)/2
 2479 0014 2F       		.byte	(.L555-.L554)/2
 2480 0015 25       		.byte	(.L556-.L554)/2
 2481              		.p2align 1
 2482              	.L553:
 2483 0016 94F86050 		ldrb	r5, [r4, #96]	@ zero_extendqisi2
 2484 001a B4F85C20 		ldrh	r2, [r4, #92]
 2485 001e 2368     		ldr	r3, [r4]
 2486 0020 9542     		cmp	r5, r2
 2487 0022 28BF     		it	cs
 2488 0024 1546     		movcs	r5, r2
 2489 0026 0846     		mov	r0, r1
 2490 0028 DB69     		ldr	r3, [r3, #28]
 2491 002a A16D     		ldr	r1, [r4, #88]
 2492 002c 2A46     		mov	r2, r5
 2493 002e 9847     		blx	r3
 2494 0030 B4F85C30 		ldrh	r3, [r4, #92]
 2495 0034 A26D     		ldr	r2, [r4, #88]
 2496 0036 5B1B     		subs	r3, r3, r5
 2497 0038 9BB2     		uxth	r3, r3
 2498 003a 2A44     		add	r2, r2, r5
 2499 003c A4F85C30 		strh	r3, [r4, #92]	@ movhi
 2500 0040 A265     		str	r2, [r4, #88]
 2501 0042 53B9     		cbnz	r3, .L551
 2502 0044 94F86330 		ldrb	r3, [r4, #99]	@ zero_extendqisi2
 2503 0048 022B     		cmp	r3, #2
 2504 004a 03D0     		beq	.L558
 2505 004c 94F86030 		ldrb	r3, [r4, #96]	@ zero_extendqisi2
 2506 0050 AB42     		cmp	r3, r5
 2507 0052 02D0     		beq	.L551
 2508              	.L558:
 2509 0054 0423     		movs	r3, #4
 2510 0056 84F86330 		strb	r3, [r4, #99]
 2511              	.L551:
 2512 005a 38BD     		pop	{r3, r4, r5, pc}
 2513              	.L556:
 2514 005c 8368     		ldr	r3, [r0, #8]
 2515 005e 0025     		movs	r5, #0
 2516 0060 80F86350 		strb	r5, [r0, #99]
 2517 0064 002B     		cmp	r3, #0
 2518 0066 F8D0     		beq	.L551
 2519 0068 416D     		ldr	r1, [r0, #84]
 2520 006a 9847     		blx	r3
 2521 006c A560     		str	r5, [r4, #8]
 2522 006e 38BD     		pop	{r3, r4, r5, pc}
 2523              	.L555:
 2524 0070 0623     		movs	r3, #6
 2525 0072 80F86330 		strb	r3, [r0, #99]
 2526 0076 38BD     		pop	{r3, r4, r5, pc}
 2528              		.section	.text.usbd_process_ep0,"ax",%progbits
 2529              		.align	1
 2530              		.p2align 2,,3
 2531              		.syntax unified
 2532              		.thumb
 2533              		.thumb_func
 2534              		.fpu fpv4-sp-d16
 2536              	usbd_process_ep0:
ARM GAS  C:\Users\Jay\AppData\Local\Temp\ccrCOBv6.s 			page 44


 2537              		@ args = 0, pretend = 0, frame = 0
 2538              		@ frame_needed = 0, uses_anonymous_args = 0
 2539 0000 0529     		cmp	r1, #5
 2540 0002 F8B5     		push	{r3, r4, r5, r6, r7, lr}
 2541 0004 1546     		mov	r5, r2
 2542 0006 0446     		mov	r4, r0
 2543 0008 27D0     		beq	.L569
 2544 000a 0629     		cmp	r1, #6
 2545 000c 07D0     		beq	.L570
 2546 000e 0429     		cmp	r1, #4
 2547 0010 00D0     		beq	.L631
 2548              	.L567:
 2549 0012 F8BD     		pop	{r3, r4, r5, r6, r7, pc}
 2550              	.L631:
 2551 0014 1146     		mov	r1, r2
 2552 0016 BDE8F840 		pop	{r3, r4, r5, r6, r7, lr}
 2553 001a FFF7FEBF 		b	usbd_process_eptx
 2554              	.L570:
 2555 001e 0023     		movs	r3, #0
 2556 0020 80F86330 		strb	r3, [r0, #99]
 2557 0024 8360     		str	r3, [r0, #8]
 2558 0026 476D     		ldr	r7, [r0, #84]
 2559 0028 0368     		ldr	r3, [r0]
 2560              	.L572:
 2561 002a 9B69     		ldr	r3, [r3, #24]
 2562 002c B4F85E20 		ldrh	r2, [r4, #94]
 2563 0030 3946     		mov	r1, r7
 2564 0032 2846     		mov	r0, r5
 2565 0034 9847     		blx	r3
 2566 0036 0828     		cmp	r0, #8
 2567 0038 47D0     		beq	.L576
 2568              	.L629:
 2569 003a 2368     		ldr	r3, [r4]
 2570 003c 1B6A     		ldr	r3, [r3, #32]
 2571 003e 0121     		movs	r1, #1
 2572              	.L630:
 2573 0040 05F07F00 		and	r0, r5, #127
 2574 0044 9847     		blx	r3
 2575 0046 2368     		ldr	r3, [r4]
 2576 0048 45F08000 		orr	r0, r5, #128
 2577 004c 1B6A     		ldr	r3, [r3, #32]
 2578 004e 0121     		movs	r1, #1
 2579 0050 9847     		blx	r3
 2580 0052 0023     		movs	r3, #0
 2581 0054 84F86330 		strb	r3, [r4, #99]
 2582 0058 F8BD     		pop	{r3, r4, r5, r6, r7, pc}
 2583              	.L569:
 2584 005a 90F86360 		ldrb	r6, [r0, #99]	@ zero_extendqisi2
 2585 005e 476D     		ldr	r7, [r0, #84]
 2586 0060 0368     		ldr	r3, [r0]
 2587 0062 012E     		cmp	r6, #1
 2588 0064 12D0     		beq	.L574
 2589 0066 E0D3     		bcc	.L572
 2590 0068 062E     		cmp	r6, #6
 2591 006a 2BD1     		bne	.L597
 2592 006c 0022     		movs	r2, #0
 2593 006e 9B69     		ldr	r3, [r3, #24]
ARM GAS  C:\Users\Jay\AppData\Local\Temp\ccrCOBv6.s 			page 45


 2594 0070 2846     		mov	r0, r5
 2595 0072 1146     		mov	r1, r2
 2596 0074 9847     		blx	r3
 2597 0076 A368     		ldr	r3, [r4, #8]
 2598 0078 0025     		movs	r5, #0
 2599 007a 84F86350 		strb	r5, [r4, #99]
 2600 007e 002B     		cmp	r3, #0
 2601 0080 C7D0     		beq	.L567
 2602 0082 616D     		ldr	r1, [r4, #84]
 2603 0084 2046     		mov	r0, r4
 2604 0086 9847     		blx	r3
 2605 0088 A560     		str	r5, [r4, #8]
 2606 008a F8BD     		pop	{r3, r4, r5, r6, r7, pc}
 2607              	.L574:
 2608 008c B0F85C20 		ldrh	r2, [r0, #92]
 2609 0090 9B69     		ldr	r3, [r3, #24]
 2610 0092 816D     		ldr	r1, [r0, #88]
 2611 0094 2846     		mov	r0, r5
 2612 0096 9847     		blx	r3
 2613 0098 B4F85C30 		ldrh	r3, [r4, #92]
 2614 009c 82B2     		uxth	r2, r0
 2615 009e 9A42     		cmp	r2, r3
 2616 00a0 26D9     		bls	.L579
 2617 00a2 2368     		ldr	r3, [r4]
 2618 00a4 3146     		mov	r1, r6
 2619 00a6 1B6A     		ldr	r3, [r3, #32]
 2620 00a8 05F07F00 		and	r0, r5, #127
 2621 00ac 9847     		blx	r3
 2622 00ae 2368     		ldr	r3, [r4]
 2623 00b0 3146     		mov	r1, r6
 2624 00b2 1B6A     		ldr	r3, [r3, #32]
 2625 00b4 45F08000 		orr	r0, r5, #128
 2626 00b8 9847     		blx	r3
 2627 00ba 0023     		movs	r3, #0
 2628 00bc 84F86330 		strb	r3, [r4, #99]
 2629 00c0 F8BD     		pop	{r3, r4, r5, r6, r7, pc}
 2630              	.L628:
 2631 00c2 2368     		ldr	r3, [r4]
 2632              	.L597:
 2633 00c4 1B6A     		ldr	r3, [r3, #32]
 2634 00c6 0121     		movs	r1, #1
 2635 00c8 BAE7     		b	.L630
 2636              	.L576:
 2637 00ca FB88     		ldrh	r3, [r7, #6]
 2638 00cc A4F85C30 		strh	r3, [r4, #92]	@ movhi
 2639 00d0 07F10806 		add	r6, r7, #8
 2640 00d4 A665     		str	r6, [r4, #88]
 2641 00d6 97F90010 		ldrsb	r1, [r7]
 2642 00da B4F85E20 		ldrh	r2, [r4, #94]
 2643 00de 0029     		cmp	r1, #0
 2644 00e0 13DB     		blt	.L577
 2645 00e2 93B1     		cbz	r3, .L577
 2646 00e4 9342     		cmp	r3, r2
 2647 00e6 A8D8     		bhi	.L629
 2648 00e8 0123     		movs	r3, #1
 2649 00ea 84F86330 		strb	r3, [r4, #99]
 2650 00ee F8BD     		pop	{r3, r4, r5, r6, r7, pc}
ARM GAS  C:\Users\Jay\AppData\Local\Temp\ccrCOBv6.s 			page 46


 2651              	.L579:
 2652 00f0 07D0     		beq	.L632
 2653 00f2 A16D     		ldr	r1, [r4, #88]
 2654 00f4 9B1A     		subs	r3, r3, r2
 2655 00f6 11FA80F0 		uxtah	r0, r1, r0
 2656 00fa A4F85C30 		strh	r3, [r4, #92]	@ movhi
 2657 00fe A065     		str	r0, [r4, #88]
 2658 0100 F8BD     		pop	{r3, r4, r5, r6, r7, pc}
 2659              	.L632:
 2660 0102 B4F85E20 		ldrh	r2, [r4, #94]
 2661 0106 07F10806 		add	r6, r7, #8
 2662              	.L577:
 2663 010a 6368     		ldr	r3, [r4, #4]
 2664 010c A665     		str	r6, [r4, #88]
 2665 010e A4F85C20 		strh	r2, [r4, #92]	@ movhi
 2666 0112 2BB1     		cbz	r3, .L587
 2667 0114 04F10802 		add	r2, r4, #8
 2668 0118 3946     		mov	r1, r7
 2669 011a 2046     		mov	r0, r4
 2670 011c 9847     		blx	r3
 2671 011e 60BB     		cbnz	r0, .L586
 2672              	.L587:
 2673 0120 3B78     		ldrb	r3, [r7]	@ zero_extendqisi2
 2674 0122 03F06302 		and	r2, r3, #99
 2675 0126 012A     		cmp	r2, #1
 2676 0128 00F08580 		beq	.L583
 2677 012c 2DD3     		bcc	.L584
 2678 012e 022A     		cmp	r2, #2
 2679 0130 C7D1     		bne	.L628
 2680 0132 7A78     		ldrb	r2, [r7, #1]	@ zero_extendqisi2
 2681 0134 2368     		ldr	r3, [r4]
 2682 0136 012A     		cmp	r2, #1
 2683 0138 00F08580 		beq	.L603
 2684 013c C0F09980 		bcc	.L604
 2685 0140 032A     		cmp	r2, #3
 2686 0142 BFD1     		bne	.L597
 2687 0144 1B6A     		ldr	r3, [r3, #32]
 2688 0146 3879     		ldrb	r0, [r7, #4]	@ zero_extendqisi2
 2689 0148 0121     		movs	r1, #1
 2690 014a 9847     		blx	r3
 2691 014c 3B78     		ldrb	r3, [r7]	@ zero_extendqisi2
 2692              	.L594:
 2693 014e 1B06     		lsls	r3, r3, #24
 2694 0150 45F08000 		orr	r0, r5, #128
 2695 0154 7DD4     		bmi	.L633
 2696 0156 2368     		ldr	r3, [r4]
 2697 0158 0022     		movs	r2, #0
 2698 015a DB69     		ldr	r3, [r3, #28]
 2699 015c 1146     		mov	r1, r2
 2700 015e 9847     		blx	r3
 2701 0160 0523     		movs	r3, #5
 2702 0162 84F86330 		strb	r3, [r4, #99]
 2703 0166 F8BD     		pop	{r3, r4, r5, r6, r7, pc}
 2704              	.L595:
 2705 0168 2369     		ldr	r3, [r4, #16]
 2706 016a 002B     		cmp	r3, #0
 2707 016c A9D0     		beq	.L628
ARM GAS  C:\Users\Jay\AppData\Local\Temp\ccrCOBv6.s 			page 47


 2708 016e 04F15C02 		add	r2, r4, #92
 2709 0172 04F15801 		add	r1, r4, #88
 2710 0176 3846     		mov	r0, r7
 2711 0178 9847     		blx	r3
 2712              	.L586:
 2713 017a 0128     		cmp	r0, #1
 2714 017c 61D0     		beq	.L606
 2715 017e 0228     		cmp	r0, #2
 2716 0180 9FD1     		bne	.L628
 2717 0182 0523     		movs	r3, #5
 2718 0184 84F86330 		strb	r3, [r4, #99]
 2719 0188 F8BD     		pop	{r3, r4, r5, r6, r7, pc}
 2720              	.L584:
 2721 018a 7A78     		ldrb	r2, [r7, #1]	@ zero_extendqisi2
 2722 018c 092A     		cmp	r2, #9
 2723 018e 98D8     		bhi	.L628
 2724 0190 01A1     		adr	r1, .L589
 2725 0192 51F822F0 		ldr	pc, [r1, r2, lsl #2]
 2726 0196 00BF     		.p2align 2
 2727              	.L589:
 2728 0198 07020000 		.word	.L588+1
 2729 019c C3000000 		.word	.L628+1
 2730 01a0 C3000000 		.word	.L628+1
 2731 01a4 C3000000 		.word	.L628+1
 2732 01a8 C3000000 		.word	.L628+1
 2733 01ac DB010000 		.word	.L590+1
 2734 01b0 C1010000 		.word	.L591+1
 2735 01b4 C3000000 		.word	.L628+1
 2736 01b8 FF010000 		.word	.L592+1
 2737 01bc 0D020000 		.word	.L593+1
 2738              		.p2align 1
 2739              	.L591:
 2740 01c0 7A88     		ldrh	r2, [r7, #2]
 2741 01c2 40F2FE33 		movw	r3, #1022
 2742 01c6 9A42     		cmp	r2, r3
 2743 01c8 CED1     		bne	.L595
 2744 01ca 2368     		ldr	r3, [r4]
 2745 01cc 3046     		mov	r0, r6
 2746 01ce 1B6B     		ldr	r3, [r3, #48]
 2747 01d0 9847     		blx	r3
 2748 01d2 A4F85C00 		strh	r0, [r4, #92]	@ movhi
 2749 01d6 3B78     		ldrb	r3, [r7]	@ zero_extendqisi2
 2750 01d8 B9E7     		b	.L594
 2751              	.L590:
 2752 01da 2368     		ldr	r3, [r4]
 2753 01dc 1B68     		ldr	r3, [r3]
 2754 01de 9847     		blx	r3
 2755 01e0 C207     		lsls	r2, r0, #31
 2756 01e2 52D5     		bpl	.L598
 2757 01e4 2368     		ldr	r3, [r4]
 2758 01e6 B878     		ldrb	r0, [r7, #2]	@ zero_extendqisi2
 2759 01e8 DB68     		ldr	r3, [r3, #12]
 2760 01ea 9847     		blx	r3
 2761 01ec 7B88     		ldrh	r3, [r7, #2]
 2762 01ee 002B     		cmp	r3, #0
 2763 01f0 0CBF     		ite	eq
 2764 01f2 0223     		moveq	r3, #2
ARM GAS  C:\Users\Jay\AppData\Local\Temp\ccrCOBv6.s 			page 48


 2765 01f4 0323     		movne	r3, #3
 2766 01f6 84F86230 		strb	r3, [r4, #98]
 2767 01fa 3B78     		ldrb	r3, [r7]	@ zero_extendqisi2
 2768 01fc A7E7     		b	.L594
 2769              	.L592:
 2770 01fe 94F86120 		ldrb	r2, [r4, #97]	@ zero_extendqisi2
 2771 0202 3A72     		strb	r2, [r7, #8]
 2772 0204 A3E7     		b	.L594
 2773              	.L588:
 2774 0206 0022     		movs	r2, #0
 2775 0208 3A81     		strh	r2, [r7, #8]	@ movhi
 2776 020a A0E7     		b	.L594
 2777              	.L593:
 2778 020c E368     		ldr	r3, [r4, #12]
 2779 020e BE78     		ldrb	r6, [r7, #2]	@ zero_extendqisi2
 2780 0210 002B     		cmp	r3, #0
 2781 0212 3FF456AF 		beq	.L628
 2782 0216 3146     		mov	r1, r6
 2783 0218 2046     		mov	r0, r4
 2784 021a 9847     		blx	r3
 2785 021c 0128     		cmp	r0, #1
 2786 021e 7FF450AF 		bne	.L628
 2787 0222 002E     		cmp	r6, #0
 2788 0224 0CBF     		ite	eq
 2789 0226 0323     		moveq	r3, #3
 2790 0228 0423     		movne	r3, #4
 2791 022a 84F86160 		strb	r6, [r4, #97]
 2792 022e 84F86230 		strb	r3, [r4, #98]
 2793 0232 3B78     		ldrb	r3, [r7]	@ zero_extendqisi2
 2794 0234 8BE7     		b	.L594
 2795              	.L583:
 2796 0236 7A78     		ldrb	r2, [r7, #1]	@ zero_extendqisi2
 2797 0238 002A     		cmp	r2, #0
 2798 023a 7FF442AF 		bne	.L628
 2799 023e 3A81     		strh	r2, [r7, #8]	@ movhi
 2800 0240 85E7     		b	.L594
 2801              	.L606:
 2802 0242 3B78     		ldrb	r3, [r7]	@ zero_extendqisi2
 2803 0244 83E7     		b	.L594
 2804              	.L603:
 2805 0246 1B6A     		ldr	r3, [r3, #32]
 2806 0248 3879     		ldrb	r0, [r7, #4]	@ zero_extendqisi2
 2807 024a 0021     		movs	r1, #0
 2808 024c 9847     		blx	r3
 2809 024e 3B78     		ldrb	r3, [r7]	@ zero_extendqisi2
 2810 0250 7DE7     		b	.L594
 2811              	.L633:
 2812 0252 FB88     		ldrh	r3, [r7, #6]
 2813 0254 B4F85C20 		ldrh	r2, [r4, #92]
 2814 0258 9A42     		cmp	r2, r3
 2815 025a 12D3     		bcc	.L609
 2816 025c 0222     		movs	r2, #2
 2817 025e A4F85C30 		strh	r3, [r4, #92]	@ movhi
 2818 0262 84F86320 		strb	r2, [r4, #99]
 2819              	.L610:
 2820 0266 0146     		mov	r1, r0
 2821 0268 2046     		mov	r0, r4
ARM GAS  C:\Users\Jay\AppData\Local\Temp\ccrCOBv6.s 			page 49


 2822 026a BDE8F840 		pop	{r3, r4, r5, r6, r7, lr}
 2823 026e FFF7FEBF 		b	usbd_process_eptx
 2824              	.L604:
 2825 0272 5B6A     		ldr	r3, [r3, #36]
 2826 0274 3879     		ldrb	r0, [r7, #4]	@ zero_extendqisi2
 2827 0276 9847     		blx	r3
 2828 0278 0023     		movs	r3, #0
 2829 027a 7B72     		strb	r3, [r7, #9]
 2830 027c 3872     		strb	r0, [r7, #8]
 2831 027e 3B78     		ldrb	r3, [r7]	@ zero_extendqisi2
 2832 0280 65E7     		b	.L594
 2833              	.L609:
 2834 0282 0323     		movs	r3, #3
 2835 0284 84F86330 		strb	r3, [r4, #99]
 2836 0288 EDE7     		b	.L610
 2837              	.L598:
 2838 028a 024B     		ldr	r3, .L634
 2839 028c A360     		str	r3, [r4, #8]
 2840 028e 3B78     		ldrb	r3, [r7]	@ zero_extendqisi2
 2841 0290 5DE7     		b	.L594
 2842              	.L635:
 2843 0292 00BF     		.align	2
 2844              	.L634:
 2845 0294 00000000 		.word	usbd_set_address
 2847              		.section	.text.getinfo,"ax",%progbits
 2848              		.align	1
 2849              		.p2align 2,,3
 2850              		.global	getinfo
 2851              		.syntax unified
 2852              		.thumb
 2853              		.thumb_func
 2854              		.fpu fpv4-sp-d16
 2856              	getinfo:
 2857              		@ args = 0, pretend = 0, frame = 0
 2858              		@ frame_needed = 0, uses_anonymous_args = 0
 2859              		@ link register save eliminated.
 2860 0000 064B     		ldr	r3, .L640
 2861 0002 5B6B     		ldr	r3, [r3, #52]
 2862 0004 1B06     		lsls	r3, r3, #24
 2863 0006 07D5     		bpl	.L638
 2864 0008 054B     		ldr	r3, .L640+4
 2865 000a 5B68     		ldr	r3, [r3, #4]
 2866 000c 13F0020F 		tst	r3, #2
 2867 0010 0CBF     		ite	eq
 2868 0012 2920     		moveq	r0, #41
 2869 0014 0920     		movne	r0, #9
 2870 0016 7047     		bx	lr
 2871              	.L638:
 2872 0018 0120     		movs	r0, #1
 2873 001a 7047     		bx	lr
 2874              	.L641:
 2875              		.align	2
 2876              	.L640:
 2877 001c 00380240 		.word	1073887232
 2878 0020 00080050 		.word	1342179328
 2880              		.section	.text.ep_setstall,"ax",%progbits
 2881              		.align	1
ARM GAS  C:\Users\Jay\AppData\Local\Temp\ccrCOBv6.s 			page 50


 2882              		.p2align 2,,3
 2883              		.global	ep_setstall
 2884              		.syntax unified
 2885              		.thumb
 2886              		.thumb_func
 2887              		.fpu fpv4-sp-d16
 2889              	ep_setstall:
 2890              		@ args = 0, pretend = 0, frame = 0
 2891              		@ frame_needed = 0, uses_anonymous_args = 0
 2892              		@ link register save eliminated.
 2893 0000 0306     		lsls	r3, r0, #24
 2894 0002 0ED4     		bmi	.L655
 2895 0004 4001     		lsls	r0, r0, #5
 2896 0006 00F1A040 		add	r0, r0, #1342177280
 2897 000a D0F8003B 		ldr	r3, [r0, #2816]
 2898 000e 1A04     		lsls	r2, r3, #16
 2899 0010 06D5     		bpl	.L642
 2900 0012 A9B9     		cbnz	r1, .L656
 2901 0014 23F0A153 		bic	r3, r3, #337641472
 2902 0018 43F0A053 		orr	r3, r3, #335544320
 2903              	.L648:
 2904 001c C0F8003B 		str	r3, [r0, #2816]
 2905              	.L642:
 2906 0020 7047     		bx	lr
 2907              	.L655:
 2908 0022 00F07F00 		and	r0, r0, #127
 2909 0026 4001     		lsls	r0, r0, #5
 2910 0028 00F1A040 		add	r0, r0, #1342177280
 2911 002c D0F80039 		ldr	r3, [r0, #2304]
 2912 0030 1A04     		lsls	r2, r3, #16
 2913 0032 F5D5     		bpl	.L642
 2914 0034 39B1     		cbz	r1, .L645
 2915 0036 43F40013 		orr	r3, r3, #2097152
 2916              	.L646:
 2917 003a C0F80039 		str	r3, [r0, #2304]
 2918 003e 7047     		bx	lr
 2919              	.L656:
 2920 0040 43F40013 		orr	r3, r3, #2097152
 2921 0044 EAE7     		b	.L648
 2922              	.L645:
 2923 0046 23F0C153 		bic	r3, r3, #404750336
 2924 004a 43F0C053 		orr	r3, r3, #402653184
 2925 004e F4E7     		b	.L646
 2927              		.section	.text.ep_isstalled,"ax",%progbits
 2928              		.align	1
 2929              		.p2align 2,,3
 2930              		.global	ep_isstalled
 2931              		.syntax unified
 2932              		.thumb
 2933              		.thumb_func
 2934              		.fpu fpv4-sp-d16
 2936              	ep_isstalled:
 2937              		@ args = 0, pretend = 0, frame = 0
 2938              		@ frame_needed = 0, uses_anonymous_args = 0
 2939              		@ link register save eliminated.
 2940 0000 0306     		lsls	r3, r0, #24
 2941 0002 07D4     		bmi	.L660
ARM GAS  C:\Users\Jay\AppData\Local\Temp\ccrCOBv6.s 			page 51


 2942 0004 4001     		lsls	r0, r0, #5
 2943 0006 00F1A040 		add	r0, r0, #1342177280
 2944 000a D0F8000B 		ldr	r0, [r0, #2816]
 2945 000e C0F34050 		ubfx	r0, r0, #21, #1
 2946 0012 7047     		bx	lr
 2947              	.L660:
 2948 0014 00F07F00 		and	r0, r0, #127
 2949 0018 4001     		lsls	r0, r0, #5
 2950 001a 00F1A040 		add	r0, r0, #1342177280
 2951 001e D0F80009 		ldr	r0, [r0, #2304]
 2952 0022 C0F34050 		ubfx	r0, r0, #21, #1
 2953 0026 7047     		bx	lr
 2955              		.section	.text.enable,"ax",%progbits
 2956              		.align	1
 2957              		.p2align 2,,3
 2958              		.global	enable
 2959              		.syntax unified
 2960              		.thumb
 2961              		.thumb_func
 2962              		.fpu fpv4-sp-d16
 2964              	enable:
 2965              		@ args = 0, pretend = 0, frame = 0
 2966              		@ frame_needed = 0, uses_anonymous_args = 0
 2967              		@ link register save eliminated.
 2968 0000 0028     		cmp	r0, #0
 2969 0002 39D0     		beq	.L662
 2970 0004 284A     		ldr	r2, .L673
 2971 0006 536B     		ldr	r3, [r2, #52]
 2972 0008 43F08003 		orr	r3, r3, #128
 2973 000c 70B4     		push	{r4, r5, r6}
 2974 000e 5363     		str	r3, [r2, #52]
 2975              		.syntax unified
 2976              	@ 879 "stm32f4xx/cmsis/cmsis_gcc.h" 1
 2977 0010 BFF34F8F 		dsb 0xF
 2978              	@ 0 "" 2
 2979              		.thumb
 2980              		.syntax unified
 2981 0014 4FF0A043 		mov	r3, #1342177280
 2982              	.L663:
 2983 0018 1A69     		ldr	r2, [r3, #16]
 2984 001a 002A     		cmp	r2, #0
 2985 001c FCDA     		bge	.L663
 2986 001e DA68     		ldr	r2, [r3, #12]
 2987 0020 224C     		ldr	r4, .L673+4
 2988 0022 2349     		ldr	r1, .L673+8
 2989 0024 234D     		ldr	r5, .L673+12
 2990 0026 2448     		ldr	r0, .L673+16
 2991 0028 22F08042 		bic	r2, r2, #1073741824
 2992 002c 22F47452 		bic	r2, r2, #15616
 2993 0030 42F08042 		orr	r2, r2, #1073741824
 2994 0034 42F4C052 		orr	r2, r2, #6144
 2995 0038 DA60     		str	r2, [r3, #12]
 2996 003a 4FF40012 		mov	r2, #2097152
 2997 003e 9A63     		str	r2, [r3, #56]
 2998 0040 0022     		movs	r2, #0
 2999 0042 2260     		str	r2, [r4]
 3000 0044 4A68     		ldr	r2, [r1, #4]
ARM GAS  C:\Users\Jay\AppData\Local\Temp\ccrCOBv6.s 			page 52


 3001 0046 42F00202 		orr	r2, r2, #2
 3002 004a 4A60     		str	r2, [r1, #4]
 3003 004c 0A68     		ldr	r2, [r1]
 3004 004e 22F04072 		bic	r2, r2, #50331648
 3005 0052 22F00302 		bic	r2, r2, #3
 3006 0056 42F00302 		orr	r2, r2, #3
 3007 005a 0A60     		str	r2, [r1]
 3008 005c 0124     		movs	r4, #1
 3009 005e 3426     		movs	r6, #52
 3010 0060 4FF0FF32 		mov	r2, #-1
 3011 0064 5E62     		str	r6, [r3, #36]
 3012 0066 9D62     		str	r5, [r3, #40]
 3013 0068 0C61     		str	r4, [r1, #16]
 3014 006a 9861     		str	r0, [r3, #24]
 3015 006c 5A61     		str	r2, [r3, #20]
 3016 006e 9A68     		ldr	r2, [r3, #8]
 3017 0070 2243     		orrs	r2, r2, r4
 3018 0072 9A60     		str	r2, [r3, #8]
 3019 0074 70BC     		pop	{r4, r5, r6}
 3020 0076 7047     		bx	lr
 3021              	.L662:
 3022 0078 0B4B     		ldr	r3, .L673
 3023 007a 5A6B     		ldr	r2, [r3, #52]
 3024 007c 1206     		lsls	r2, r2, #24
 3025 007e 12D5     		bpl	.L670
 3026 0080 5A69     		ldr	r2, [r3, #20]
 3027 0082 42F08002 		orr	r2, r2, #128
 3028 0086 5A61     		str	r2, [r3, #20]
 3029              		.syntax unified
 3030              	@ 879 "stm32f4xx/cmsis/cmsis_gcc.h" 1
 3031 0088 BFF34F8F 		dsb 0xF
 3032              	@ 0 "" 2
 3033              		.thumb
 3034              		.syntax unified
 3035 008c 5A69     		ldr	r2, [r3, #20]
 3036 008e 22F08002 		bic	r2, r2, #128
 3037 0092 5A61     		str	r2, [r3, #20]
 3038              		.syntax unified
 3039              	@ 879 "stm32f4xx/cmsis/cmsis_gcc.h" 1
 3040 0094 BFF34F8F 		dsb 0xF
 3041              	@ 0 "" 2
 3042              		.thumb
 3043              		.syntax unified
 3044 0098 5A6B     		ldr	r2, [r3, #52]
 3045 009a 22F08002 		bic	r2, r2, #128
 3046 009e 5A63     		str	r2, [r3, #52]
 3047              		.syntax unified
 3048              	@ 879 "stm32f4xx/cmsis/cmsis_gcc.h" 1
 3049 00a0 BFF34F8F 		dsb 0xF
 3050              	@ 0 "" 2
 3051              		.thumb
 3052              		.syntax unified
 3053 00a4 7047     		bx	lr
 3054              	.L670:
 3055 00a6 7047     		bx	lr
 3056              	.L674:
 3057              		.align	2
ARM GAS  C:\Users\Jay\AppData\Local\Temp\ccrCOBv6.s 			page 53


 3058              	.L673:
 3059 00a8 00380240 		.word	1073887232
 3060 00ac 000E0050 		.word	1342180864
 3061 00b0 00080050 		.word	1342179328
 3062 00b4 34001000 		.word	1048628
 3063 00b8 10380480 		.word	-2147207152
 3065              		.section	.text.connect,"ax",%progbits
 3066              		.align	1
 3067              		.p2align 2,,3
 3068              		.global	connect
 3069              		.syntax unified
 3070              		.thumb
 3071              		.thumb_func
 3072              		.fpu fpv4-sp-d16
 3074              	connect:
 3075              		@ args = 0, pretend = 0, frame = 0
 3076              		@ frame_needed = 0, uses_anonymous_args = 0
 3077              		@ link register save eliminated.
 3078 0000 60B9     		cbnz	r0, .L678
 3079 0002 0D49     		ldr	r1, .L679
 3080 0004 4B68     		ldr	r3, [r1, #4]
 3081 0006 4FF0A042 		mov	r2, #1342177280
 3082 000a 43F00203 		orr	r3, r3, #2
 3083 000e 4B60     		str	r3, [r1, #4]
 3084 0010 936B     		ldr	r3, [r2, #56]
 3085 0012 23F48033 		bic	r3, r3, #65536
 3086 0016 9363     		str	r3, [r2, #56]
 3087 0018 0020     		movs	r0, #0
 3088 001a 7047     		bx	lr
 3089              	.L678:
 3090 001c 4FF0A041 		mov	r1, #1342177280
 3091 0020 054A     		ldr	r2, .L679
 3092 0022 8B6B     		ldr	r3, [r1, #56]
 3093 0024 43F48033 		orr	r3, r3, #65536
 3094 0028 8B63     		str	r3, [r1, #56]
 3095 002a 5368     		ldr	r3, [r2, #4]
 3096 002c 23F00203 		bic	r3, r3, #2
 3097 0030 5360     		str	r3, [r2, #4]
 3098 0032 0020     		movs	r0, #0
 3099 0034 7047     		bx	lr
 3100              	.L680:
 3101 0036 00BF     		.align	2
 3102              	.L679:
 3103 0038 00080050 		.word	1342179328
 3105              		.section	.text.ep_config,"ax",%progbits
 3106              		.align	1
 3107              		.p2align 2,,3
 3108              		.global	ep_config
 3109              		.syntax unified
 3110              		.thumb
 3111              		.thumb_func
 3112              		.fpu fpv4-sp-d16
 3114              	ep_config:
 3115              		@ args = 0, pretend = 0, frame = 0
 3116              		@ frame_needed = 0, uses_anonymous_args = 0
 3117 0000 F8B5     		push	{r3, r4, r5, r6, r7, lr}
 3118 0002 78B9     		cbnz	r0, .L682
ARM GAS  C:\Users\Jay\AppData\Local\Temp\ccrCOBv6.s 			page 54


 3119 0004 082A     		cmp	r2, #8
 3120 0006 20D9     		bls	.L698
 3121 0008 102A     		cmp	r2, #16
 3122 000a 51D9     		bls	.L699
 3123 000c 484B     		ldr	r3, .L720
 3124 000e 494D     		ldr	r5, .L720+4
 3125 0010 494C     		ldr	r4, .L720+8
 3126 0012 4A48     		ldr	r0, .L720+12
 3127 0014 202A     		cmp	r2, #32
 3128 0016 92BF     		itee	ls
 3129 0018 1D46     		movls	r5, r3
 3130 001a 4FF00444 		movhi	r4, #-2080374784
 3131 001e 4FF00060 		movhi	r0, #134217728
 3132 0022 15E0     		b	.L683
 3133              	.L682:
 3134 0024 0306     		lsls	r3, r0, #24
 3135 0026 1FD4     		bmi	.L717
 3136 0028 4001     		lsls	r0, r0, #5
 3137 002a 0229     		cmp	r1, #2
 3138 002c 00F1A040 		add	r0, r0, #1342177280
 3139 0030 42F01442 		orr	r2, r2, #-1811939328
 3140 0034 4ED0     		beq	.L693
 3141 0036 0629     		cmp	r1, #6
 3142 0038 4CD0     		beq	.L693
 3143 003a 0129     		cmp	r1, #1
 3144 003c 3CD0     		beq	.L718
 3145 003e 42F44822 		orr	r2, r2, #819200
 3146 0042 C0F8002B 		str	r2, [r0, #2816]
 3147 0046 0120     		movs	r0, #1
 3148 0048 F8BD     		pop	{r3, r4, r5, r6, r7, pc}
 3149              	.L698:
 3150 004a 3D4C     		ldr	r4, .L720+16
 3151 004c 3D4D     		ldr	r5, .L720+20
 3152 004e 3E48     		ldr	r0, .L720+24
 3153              	.L683:
 3154 0050 3E49     		ldr	r1, .L720+28
 3155 0052 3F4A     		ldr	r2, .L720+32
 3156 0054 CB69     		ldr	r3, [r1, #28]
 3157 0056 3F4E     		ldr	r6, .L720+36
 3158 0058 43F00113 		orr	r3, r3, #65537
 3159 005c CB61     		str	r3, [r1, #28]
 3160 005e 3060     		str	r0, [r6]
 3161 0060 1561     		str	r5, [r2, #16]
 3162 0062 0120     		movs	r0, #1
 3163 0064 1460     		str	r4, [r2]
 3164 0066 F8BD     		pop	{r3, r4, r5, r6, r7, pc}
 3165              	.L717:
 3166 0068 00F07F04 		and	r4, r0, #127
 3167 006c 6301     		lsls	r3, r4, #5
 3168 006e 0129     		cmp	r1, #1
 3169 0070 1546     		mov	r5, r2
 3170 0072 0F46     		mov	r7, r1
 3171 0074 03F1A046 		add	r6, r3, #1342177280
 3172 0078 42D0     		beq	.L686
 3173 007a 0629     		cmp	r1, #6
 3174 007c 22D0     		beq	.L687
 3175 007e 1146     		mov	r1, r2
ARM GAS  C:\Users\Jay\AppData\Local\Temp\ccrCOBv6.s 			page 55


 3176 0080 2046     		mov	r0, r4
 3177 0082 FFF7FEFF 		bl	set_tx_fifo
 3178 0086 18B3     		cbz	r0, .L696
 3179 0088 304A     		ldr	r2, .L720+28
 3180 008a 0123     		movs	r3, #1
 3181 008c D169     		ldr	r1, [r2, #28]
 3182 008e A340     		lsls	r3, r3, r4
 3183 0090 0B43     		orrs	r3, r3, r1
 3184 0092 A405     		lsls	r4, r4, #22
 3185 0094 012F     		cmp	r7, #1
 3186 0096 D361     		str	r3, [r2, #28]
 3187 0098 2246     		mov	r2, r4
 3188 009a 3FD0     		beq	.L690
 3189 009c 022F     		cmp	r7, #2
 3190 009e 26D0     		beq	.L691
 3191 00a0 45F0C052 		orr	r2, r5, #402653184
 3192 00a4 42F44822 		orr	r2, r2, #819200
 3193 00a8 1443     		orrs	r4, r4, r2
 3194 00aa C6F80049 		str	r4, [r6, #2304]
 3195 00ae F8BD     		pop	{r3, r4, r5, r6, r7, pc}
 3196              	.L699:
 3197 00b0 294C     		ldr	r4, .L720+40
 3198 00b2 2A4D     		ldr	r5, .L720+44
 3199 00b4 2A48     		ldr	r0, .L720+48
 3200 00b6 CBE7     		b	.L683
 3201              	.L718:
 3202 00b8 42F49022 		orr	r2, r2, #294912
 3203 00bc C0F8002B 		str	r2, [r0, #2816]
 3204 00c0 0846     		mov	r0, r1
 3205 00c2 F8BD     		pop	{r3, r4, r5, r6, r7, pc}
 3206              	.L687:
 3207 00c4 5100     		lsls	r1, r2, #1
 3208 00c6 89B2     		uxth	r1, r1
 3209 00c8 2046     		mov	r0, r4
 3210 00ca FFF7FEFF 		bl	set_tx_fifo
 3211 00ce 38B9     		cbnz	r0, .L719
 3212              	.L696:
 3213 00d0 0020     		movs	r0, #0
 3214 00d2 F8BD     		pop	{r3, r4, r5, r6, r7, pc}
 3215              	.L693:
 3216 00d4 42F40822 		orr	r2, r2, #557056
 3217 00d8 C0F8002B 		str	r2, [r0, #2816]
 3218 00dc 0120     		movs	r0, #1
 3219 00de F8BD     		pop	{r3, r4, r5, r6, r7, pc}
 3220              	.L719:
 3221 00e0 1A4A     		ldr	r2, .L720+28
 3222 00e2 0123     		movs	r3, #1
 3223 00e4 D169     		ldr	r1, [r2, #28]
 3224 00e6 A340     		lsls	r3, r3, r4
 3225 00e8 0B43     		orrs	r3, r3, r1
 3226 00ea D361     		str	r3, [r2, #28]
 3227 00ec A405     		lsls	r4, r4, #22
 3228              	.L691:
 3229 00ee 45F0C052 		orr	r2, r5, #402653184
 3230 00f2 42F40822 		orr	r2, r2, #557056
 3231 00f6 1443     		orrs	r4, r4, r2
 3232 00f8 C6F80049 		str	r4, [r6, #2304]
ARM GAS  C:\Users\Jay\AppData\Local\Temp\ccrCOBv6.s 			page 56


 3233 00fc 0120     		movs	r0, #1
 3234 00fe F8BD     		pop	{r3, r4, r5, r6, r7, pc}
 3235              	.L686:
 3236 0100 5100     		lsls	r1, r2, #1
 3237 0102 89B2     		uxth	r1, r1
 3238 0104 2046     		mov	r0, r4
 3239 0106 FFF7FEFF 		bl	set_tx_fifo
 3240 010a 0028     		cmp	r0, #0
 3241 010c E0D0     		beq	.L696
 3242 010e 0F4B     		ldr	r3, .L720+28
 3243 0110 DA69     		ldr	r2, [r3, #28]
 3244 0112 07FA04F1 		lsl	r1, r7, r4
 3245 0116 1143     		orrs	r1, r1, r2
 3246 0118 D961     		str	r1, [r3, #28]
 3247 011a A205     		lsls	r2, r4, #22
 3248              	.L690:
 3249 011c 2A43     		orrs	r2, r2, r5
 3250 011e 42F01442 		orr	r2, r2, #-1811939328
 3251 0122 42F49022 		orr	r2, r2, #294912
 3252 0126 C6F80029 		str	r2, [r6, #2304]
 3253 012a 0120     		movs	r0, #1
 3254 012c F8BD     		pop	{r3, r4, r5, r6, r7, pc}
 3255              	.L721:
 3256 012e 00BF     		.align	2
 3257              	.L720:
 3258 0130 20000820 		.word	537395232
 3259 0134 40000820 		.word	537395264
 3260 0138 01000084 		.word	-2080374783
 3261 013c 01000008 		.word	134217729
 3262 0140 03000084 		.word	-2080374781
 3263 0144 08000820 		.word	537395208
 3264 0148 03000008 		.word	134217731
 3265 014c 00080050 		.word	1342179328
 3266 0150 000B0050 		.word	1342180096
 3267 0154 00090050 		.word	1342179584
 3268 0158 02000084 		.word	-2080374782
 3269 015c 10000820 		.word	537395216
 3270 0160 02000008 		.word	134217730
 3272              		.section	.text.cdc_control,"ax",%progbits
 3273              		.align	1
 3274              		.p2align 2,,3
 3275              		.syntax unified
 3276              		.thumb
 3277              		.thumb_func
 3278              		.fpu fpv4-sp-d16
 3280              	cdc_control:
 3281              		@ args = 0, pretend = 0, frame = 0
 3282              		@ frame_needed = 0, uses_anonymous_args = 0
 3283              		@ link register save eliminated.
 3284 0000 0B78     		ldrb	r3, [r1]	@ zero_extendqisi2
 3285 0002 03F06303 		and	r3, r3, #99
 3286 0006 212B     		cmp	r3, #33
 3287 0008 01D0     		beq	.L730
 3288              	.L728:
 3289 000a 0020     		movs	r0, #0
 3290 000c 7047     		bx	lr
 3291              	.L730:
ARM GAS  C:\Users\Jay\AppData\Local\Temp\ccrCOBv6.s 			page 57


 3292 000e 8B88     		ldrh	r3, [r1, #4]
 3293 0010 002B     		cmp	r3, #0
 3294 0012 FAD1     		bne	.L728
 3295 0014 4A78     		ldrb	r2, [r1, #1]	@ zero_extendqisi2
 3296 0016 212A     		cmp	r2, #33
 3297 0018 0CD0     		beq	.L725
 3298 001a 222A     		cmp	r2, #34
 3299 001c 11D0     		beq	.L729
 3300 001e 202A     		cmp	r2, #32
 3301 0020 F3D1     		bne	.L728
 3302 0022 094B     		ldr	r3, .L731
 3303 0024 1868     		ldr	r0, [r3]
 3304 0026 8860     		str	r0, [r1, #8]	@ unaligned
 3305 0028 9A88     		ldrh	r2, [r3, #4]	@ unaligned
 3306 002a 9B79     		ldrb	r3, [r3, #6]	@ zero_extendqisi2
 3307 002c 8B73     		strb	r3, [r1, #14]
 3308 002e 8A81     		strh	r2, [r1, #12]	@ unaligned
 3309 0030 0120     		movs	r0, #1
 3310 0032 7047     		bx	lr
 3311              	.L725:
 3312 0034 044B     		ldr	r3, .L731
 3313 0036 8365     		str	r3, [r0, #88]
 3314 0038 0723     		movs	r3, #7
 3315 003a A0F85C30 		strh	r3, [r0, #92]	@ movhi
 3316 003e 0120     		movs	r0, #1
 3317 0040 7047     		bx	lr
 3318              	.L729:
 3319 0042 0120     		movs	r0, #1
 3320 0044 7047     		bx	lr
 3321              	.L732:
 3322 0046 00BF     		.align	2
 3323              	.L731:
 3324 0048 00000000 		.word	.LANCHOR16
 3326              		.section	.text.cdc_setconf,"ax",%progbits
 3327              		.align	1
 3328              		.p2align 2,,3
 3329              		.syntax unified
 3330              		.thumb
 3331              		.thumb_func
 3332              		.fpu fpv4-sp-d16
 3334              	cdc_setconf:
 3335              		@ args = 0, pretend = 0, frame = 0
 3336              		@ frame_needed = 0, uses_anonymous_args = 0
 3337 0000 38B5     		push	{r3, r4, r5, lr}
 3338 0002 0546     		mov	r5, r0
 3339 0004 0C46     		mov	r4, r1
 3340 0006 F9B1     		cbz	r1, .L735
 3341 0008 0129     		cmp	r1, #1
 3342 000a 1BD1     		bne	.L740
 3343 000c 0368     		ldr	r3, [r0]
 3344 000e 4022     		movs	r2, #64
 3345 0010 1B69     		ldr	r3, [r3, #16]
 3346 0012 0221     		movs	r1, #2
 3347 0014 2046     		mov	r0, r4
 3348 0016 9847     		blx	r3
 3349 0018 2B68     		ldr	r3, [r5]
 3350 001a 4022     		movs	r2, #64
ARM GAS  C:\Users\Jay\AppData\Local\Temp\ccrCOBv6.s 			page 58


 3351 001c 1B69     		ldr	r3, [r3, #16]
 3352 001e 0221     		movs	r1, #2
 3353 0020 8120     		movs	r0, #129
 3354 0022 9847     		blx	r3
 3355 0024 2B68     		ldr	r3, [r5]
 3356 0026 0822     		movs	r2, #8
 3357 0028 1B69     		ldr	r3, [r3, #16]
 3358 002a 0321     		movs	r1, #3
 3359 002c 8220     		movs	r0, #130
 3360 002e 9847     		blx	r3
 3361 0030 2B68     		ldr	r3, [r5]
 3362 0032 0D4A     		ldr	r2, .L741
 3363 0034 DB69     		ldr	r3, [r3, #28]
 3364 0036 AA63     		str	r2, [r5, #56]
 3365 0038 0022     		movs	r2, #0
 3366 003a 1146     		mov	r1, r2
 3367 003c 8120     		movs	r0, #129
 3368 003e 9847     		blx	r3
 3369 0040 2046     		mov	r0, r4
 3370 0042 38BD     		pop	{r3, r4, r5, pc}
 3371              	.L740:
 3372 0044 0020     		movs	r0, #0
 3373 0046 38BD     		pop	{r3, r4, r5, pc}
 3374              	.L735:
 3375 0048 0368     		ldr	r3, [r0]
 3376 004a 8220     		movs	r0, #130
 3377 004c 5B69     		ldr	r3, [r3, #20]
 3378 004e 9847     		blx	r3
 3379 0050 2B68     		ldr	r3, [r5]
 3380 0052 8120     		movs	r0, #129
 3381 0054 5B69     		ldr	r3, [r3, #20]
 3382 0056 9847     		blx	r3
 3383 0058 2B68     		ldr	r3, [r5]
 3384 005a 0120     		movs	r0, #1
 3385 005c 5B69     		ldr	r3, [r3, #20]
 3386 005e 9847     		blx	r3
 3387 0060 AC63     		str	r4, [r5, #56]
 3388 0062 0120     		movs	r0, #1
 3389 0064 38BD     		pop	{r3, r4, r5, pc}
 3390              	.L742:
 3391 0066 00BF     		.align	2
 3392              	.L741:
 3393 0068 00000000 		.word	cdc_rx_tx
 3395              		.section	.text.c64_interface.part.23,"ax",%progbits
 3396              		.align	1
 3397              		.p2align 2,,3
 3398              		.syntax unified
 3399              		.thumb
 3400              		.thumb_func
 3401              		.fpu fpv4-sp-d16
 3403              	c64_interface.part.23:
 3404              		@ args = 0, pretend = 0, frame = 0
 3405              		@ frame_needed = 0, uses_anonymous_args = 0
 3406 0000 F0B5     		push	{r4, r5, r6, r7, lr}
 3407 0002 0021     		movs	r1, #0
 3408 0004 174C     		ldr	r4, .L754
 3409 0006 184F     		ldr	r7, .L754+4
ARM GAS  C:\Users\Jay\AppData\Local\Temp\ccrCOBv6.s 			page 59


 3410 0008 184A     		ldr	r2, .L754+8
 3411 000a 0846     		mov	r0, r1
 3412 000c 0E46     		mov	r6, r1
 3413 000e 47F2305C 		movw	ip, #30000
 3414 0012 4FF0005E 		mov	lr, #536870912
 3415 0016 1525     		movs	r5, #21
 3416              	.L749:
 3417 0018 636B     		ldr	r3, [r4, #52]
 3418 001a A72B     		cmp	r3, #167
 3419 001c 16D9     		bls	.L744
 3420 001e 636B     		ldr	r3, [r4, #52]
 3421 0020 A92B     		cmp	r3, #169
 3422 0022 13D8     		bhi	.L744
 3423 0024 0131     		adds	r1, r1, #1
 3424 0026 C9B2     		uxtb	r1, r1
 3425 0028 C7F818E0 		str	lr, [r7, #24]
 3426              	.L747:
 3427 002c 5560     		str	r5, [r2, #4]
 3428 002e 9660     		str	r6, [r2, #8]
 3429              	.L748:
 3430 0030 1368     		ldr	r3, [r2]
 3431 0032 DB03     		lsls	r3, r3, #15
 3432 0034 FCD5     		bpl	.L748
 3433 0036 0329     		cmp	r1, #3
 3434 0038 EED1     		bne	.L749
 3435 003a 0A4B     		ldr	r3, .L754
 3436 003c 6FF00802 		mvn	r2, #8
 3437 0040 1A61     		str	r2, [r3, #16]
 3438 0042 DA68     		ldr	r2, [r3, #12]
 3439 0044 42F00802 		orr	r2, r2, #8
 3440 0048 DA60     		str	r2, [r3, #12]
 3441 004a F0BD     		pop	{r4, r5, r6, r7, pc}
 3442              	.L744:
 3443 004c 6045     		cmp	r0, ip
 3444 004e 02D8     		bhi	.L746
 3445 0050 0130     		adds	r0, r0, #1
 3446 0052 0021     		movs	r1, #0
 3447 0054 EAE7     		b	.L747
 3448              	.L746:
 3449 0056 7B69     		ldr	r3, [r7, #20]
 3450 0058 0020     		movs	r0, #0
 3451 005a 83F40053 		eor	r3, r3, #8192
 3452 005e 7B61     		str	r3, [r7, #20]
 3453 0060 0146     		mov	r1, r0
 3454 0062 E3E7     		b	.L747
 3455              	.L755:
 3456              		.align	2
 3457              	.L754:
 3458 0064 00000140 		.word	1073807360
 3459 0068 00080240 		.word	1073874944
 3460 006c 10E000E0 		.word	-536813552
 3462              		.section	.text.c64_reset.part.24,"ax",%progbits
 3463              		.align	1
 3464              		.p2align 2,,3
 3465              		.syntax unified
 3466              		.thumb
 3467              		.thumb_func
ARM GAS  C:\Users\Jay\AppData\Local\Temp\ccrCOBv6.s 			page 60


 3468              		.fpu fpv4-sp-d16
 3470              	c64_reset.part.24:
 3471              		@ args = 0, pretend = 0, frame = 0
 3472              		@ frame_needed = 0, uses_anonymous_args = 0
 3473              		@ link register save eliminated.
 3474 0000 084B     		ldr	r3, .L761
 3475 0002 094A     		ldr	r2, .L761+4
 3476 0004 10B4     		push	{r4}
 3477 0006 41F26800 		movw	r0, #4200
 3478 000a 4FF40044 		mov	r4, #32768
 3479 000e 0021     		movs	r1, #0
 3480 0010 9461     		str	r4, [r2, #24]
 3481 0012 5860     		str	r0, [r3, #4]
 3482 0014 1A46     		mov	r2, r3
 3483 0016 9960     		str	r1, [r3, #8]
 3484              	.L757:
 3485 0018 1368     		ldr	r3, [r2]
 3486 001a DB03     		lsls	r3, r3, #15
 3487 001c FCD5     		bpl	.L757
 3488 001e 5DF8044B 		ldr	r4, [sp], #4
 3489 0022 7047     		bx	lr
 3490              	.L762:
 3491              		.align	2
 3492              	.L761:
 3493 0024 10E000E0 		.word	-536813552
 3494 0028 00000240 		.word	1073872896
 3496              		.section	.text.system_restart,"ax",%progbits
 3497              		.align	1
 3498              		.p2align 2,,3
 3499              		.syntax unified
 3500              		.thumb
 3501              		.thumb_func
 3502              		.fpu fpv4-sp-d16
 3504              	system_restart:
 3505              		@ Volatile: function does not return.
 3506              		@ args = 0, pretend = 0, frame = 0
 3507              		@ frame_needed = 0, uses_anonymous_args = 0
 3508 0000 0022     		movs	r2, #0
 3509 0002 08B5     		push	{r3, lr}
 3510 0004 1046     		mov	r0, r2
 3511 0006 0E49     		ldr	r1, .L766
 3512 0008 FFF7FEFF 		bl	f_mount
 3513 000c 0D4A     		ldr	r2, .L766+4
 3514 000e 0E4B     		ldr	r3, .L766+8
 3515 0010 4FF40051 		mov	r1, #8192
 3516 0014 9161     		str	r1, [r2, #24]
 3517 0016 DA68     		ldr	r2, [r3, #12]
 3518 0018 6FF00801 		mvn	r1, #8
 3519 001c 0A40     		ands	r2, r2, r1
 3520 001e DA60     		str	r2, [r3, #12]
 3521 0020 1961     		str	r1, [r3, #16]
 3522 0022 FFF7FEFF 		bl	c64_reset.part.24
 3523              		.syntax unified
 3524              	@ 879 "stm32f4xx/cmsis/cmsis_gcc.h" 1
 3525 0026 BFF34F8F 		dsb 0xF
 3526              	@ 0 "" 2
 3527              		.thumb
ARM GAS  C:\Users\Jay\AppData\Local\Temp\ccrCOBv6.s 			page 61


 3528              		.syntax unified
 3529 002a 0849     		ldr	r1, .L766+12
 3530 002c 084B     		ldr	r3, .L766+16
 3531 002e CA68     		ldr	r2, [r1, #12]
 3532 0030 02F4E062 		and	r2, r2, #1792
 3533 0034 1343     		orrs	r3, r3, r2
 3534 0036 CB60     		str	r3, [r1, #12]
 3535              		.syntax unified
 3536              	@ 879 "stm32f4xx/cmsis/cmsis_gcc.h" 1
 3537 0038 BFF34F8F 		dsb 0xF
 3538              	@ 0 "" 2
 3539              		.thumb
 3540              		.syntax unified
 3541              	.L764:
 3542              		.syntax unified
 3543              	@ 1950 "stm32f4xx/cmsis/core_cm4.h" 1
 3544 003c 00BF     		nop
 3545              	@ 0 "" 2
 3546              		.thumb
 3547              		.syntax unified
 3548 003e FDE7     		b	.L764
 3549              	.L767:
 3550              		.align	2
 3551              	.L766:
 3552 0040 00000000 		.word	.LC14
 3553 0044 00080240 		.word	1073874944
 3554 0048 00000140 		.word	1073807360
 3555 004c 00ED00E0 		.word	-536810240
 3556 0050 0400FA05 		.word	100270084
 3558              		.section	.text.restart_to_menu,"ax",%progbits
 3559              		.align	1
 3560              		.p2align 2,,3
 3561              		.syntax unified
 3562              		.thumb
 3563              		.thumb_func
 3564              		.fpu fpv4-sp-d16
 3566              	restart_to_menu:
 3567              		@ Volatile: function does not return.
 3568              		@ args = 0, pretend = 0, frame = 0
 3569              		@ frame_needed = 0, uses_anonymous_args = 0
 3570 0000 034A     		ldr	r2, .L770
 3571 0002 07CA     		ldm	r2, {r0, r1, r2}
 3572 0004 08B5     		push	{r3, lr}
 3573 0006 034B     		ldr	r3, .L770+4
 3574 0008 83E80700 		stm	r3, {r0, r1, r2}
 3575 000c FFF7FEFF 		bl	system_restart
 3576              	.L771:
 3577              		.align	2
 3578              	.L770:
 3579 0010 20000000 		.word	.LC13
 3580 0014 00000100 		.word	scratch_buf
 3582              		.section	.text.simons_basic_handler,"ax",%progbits
 3583              		.align	1
 3584              		.p2align 2,,3
 3585              		.global	simons_basic_handler
 3586              		.syntax unified
 3587              		.thumb
ARM GAS  C:\Users\Jay\AppData\Local\Temp\ccrCOBv6.s 			page 62


 3588              		.thumb_func
 3589              		.fpu fpv4-sp-d16
 3591              	simons_basic_handler:
 3592              		@ args = 0, pretend = 0, frame = 0
 3593              		@ frame_needed = 0, uses_anonymous_args = 0
 3594              		@ link register save eliminated.
 3595 0000 1B4B     		ldr	r3, .L786
 3596 0002 1A69     		ldr	r2, [r3, #16]
 3597 0004 1007     		lsls	r0, r2, #28
 3598 0006 2ED5     		bpl	.L782
 3599 0008 6FF01801 		mvn	r1, #24
 3600 000c 194A     		ldr	r2, .L786+4
 3601 000e 1961     		str	r1, [r3, #16]
 3602 0010 1069     		ldr	r0, [r2, #16]
 3603 0012 A2F58062 		sub	r2, r2, #1024
 3604 0016 1169     		ldr	r1, [r2, #16]
 3605 0018 C907     		lsls	r1, r1, #31
 3606 001a 19D5     		bpl	.L775
 3607 001c 1269     		ldr	r2, [r2, #16]
 3608 001e D2B2     		uxtb	r2, r2
 3609 0020 02F0C001 		and	r1, r2, #192
 3610 0024 C029     		cmp	r1, #192
 3611 0026 1CD0     		beq	.L776
 3612 0028 30B4     		push	{r4, r5}
 3613 002a 134A     		ldr	r2, .L786+8
 3614 002c 134C     		ldr	r4, .L786+12
 3615 002e 1568     		ldr	r5, [r2]
 3616 0030 134A     		ldr	r2, .L786+16
 3617 0032 C0F30D00 		ubfx	r0, r0, #0, #14
 3618 0036 45F25551 		movw	r1, #21845
 3619 003a 285C     		ldrb	r0, [r5, r0]	@ zero_extendqisi2
 3620 003c 2070     		strb	r0, [r4]
 3621 003e 1180     		strh	r1, [r2]	@ movhi
 3622              	.L777:
 3623 0040 1A69     		ldr	r2, [r3, #16]
 3624 0042 D106     		lsls	r1, r2, #27
 3625 0044 FCD5     		bpl	.L777
 3626 0046 0E4B     		ldr	r3, .L786+16
 3627 0048 0022     		movs	r2, #0
 3628 004a 1A80     		strh	r2, [r3]	@ movhi
 3629 004c 30BC     		pop	{r4, r5}
 3630 004e 7047     		bx	lr
 3631              	.L775:
 3632 0050 1269     		ldr	r2, [r2, #16]
 3633 0052 0B4B     		ldr	r3, .L786+16
 3634 0054 9207     		lsls	r2, r2, #30
 3635 0056 1969     		ldr	r1, [r3, #16]
 3636 0058 05D4     		bmi	.L782
 3637 005a 4FF06042 		mov	r2, #-536870912
 3638 005e 9A61     		str	r2, [r3, #24]
 3639 0060 7047     		bx	lr
 3640              	.L776:
 3641 0062 9007     		lsls	r0, r2, #30
 3642 0064 00D5     		bpl	.L785
 3643              	.L782:
 3644 0066 7047     		bx	lr
 3645              	.L785:
ARM GAS  C:\Users\Jay\AppData\Local\Temp\ccrCOBv6.s 			page 63


 3646 0068 054B     		ldr	r3, .L786+16
 3647 006a 064A     		ldr	r2, .L786+20
 3648 006c 9A61     		str	r2, [r3, #24]
 3649 006e 7047     		bx	lr
 3650              	.L787:
 3651              		.align	2
 3652              	.L786:
 3653 0070 00000140 		.word	1073807360
 3654 0074 00040240 		.word	1073873920
 3655 0078 00000000 		.word	.LANCHOR7
 3656 007c 14080240 		.word	1073874964
 3657 0080 00080240 		.word	1073874944
 3658 0084 004000A0 		.word	-1610596352
 3660              		.section	.text.epyx_handler.part.38,"ax",%progbits
 3661              		.align	1
 3662              		.p2align 2,,3
 3663              		.syntax unified
 3664              		.thumb
 3665              		.thumb_func
 3666              		.fpu fpv4-sp-d16
 3668              	epyx_handler.part.38:
 3669              		@ args = 0, pretend = 0, frame = 0
 3670              		@ frame_needed = 0, uses_anonymous_args = 0
 3671              		@ link register save eliminated.
 3672 0000 034A     		ldr	r2, .L792
 3673              	.L789:
 3674 0002 1369     		ldr	r3, [r2, #16]
 3675 0004 DB06     		lsls	r3, r3, #27
 3676 0006 FCD5     		bpl	.L789
 3677 0008 024B     		ldr	r3, .L792+4
 3678 000a 0022     		movs	r2, #0
 3679 000c 1A80     		strh	r2, [r3]	@ movhi
 3680 000e 7047     		bx	lr
 3681              	.L793:
 3682              		.align	2
 3683              	.L792:
 3684 0010 00000140 		.word	1073807360
 3685 0014 00080240 		.word	1073874944
 3687              		.thumb_set comal80_handler.part.54,epyx_handler.part.38
 3688              		.thumb_set ef_launcher_handler.part.51,epyx_handler.part.38
 3689              		.thumb_set zaxxon_handler.part.44,epyx_handler.part.38
 3690              		.section	.text.epyx_handler,"ax",%progbits
 3691              		.align	1
 3692              		.p2align 2,,3
 3693              		.global	epyx_handler
 3694              		.syntax unified
 3695              		.thumb
 3696              		.thumb_func
 3697              		.fpu fpv4-sp-d16
 3699              	epyx_handler:
 3700              		@ args = 0, pretend = 0, frame = 0
 3701              		@ frame_needed = 0, uses_anonymous_args = 0
 3702              		@ link register save eliminated.
 3703 0000 294B     		ldr	r3, .L814
 3704 0002 1A69     		ldr	r2, [r3, #16]
 3705 0004 1007     		lsls	r0, r2, #28
 3706 0006 0DD5     		bpl	.L807
ARM GAS  C:\Users\Jay\AppData\Local\Temp\ccrCOBv6.s 			page 64


 3707 0008 6FF01801 		mvn	r1, #24
 3708 000c 274A     		ldr	r2, .L814+4
 3709 000e 1961     		str	r1, [r3, #16]
 3710 0010 1269     		ldr	r2, [r2, #16]
 3711 0012 03F58033 		add	r3, r3, #65536
 3712 0016 1969     		ldr	r1, [r3, #16]
 3713 0018 C907     		lsls	r1, r1, #31
 3714 001a 04D4     		bmi	.L810
 3715 001c 1B69     		ldr	r3, [r3, #16]
 3716 001e 244B     		ldr	r3, .L814+8
 3717 0020 1B69     		ldr	r3, [r3, #16]
 3718 0022 7047     		bx	lr
 3719              	.L807:
 3720 0024 7047     		bx	lr
 3721              	.L810:
 3722 0026 30B4     		push	{r4, r5}
 3723 0028 92B2     		uxth	r2, r2
 3724 002a 1B69     		ldr	r3, [r3, #16]
 3725 002c DBB2     		uxtb	r3, r3
 3726 002e 5806     		lsls	r0, r3, #25
 3727 0030 13D5     		bpl	.L811
 3728 0032 5907     		lsls	r1, r3, #29
 3729 0034 2BD5     		bpl	.L812
 3730 0036 9B07     		lsls	r3, r3, #30
 3731 0038 21D5     		bpl	.L813
 3732 003a 1E4A     		ldr	r2, .L814+12
 3733 003c 1388     		ldrh	r3, [r2]
 3734 003e 53B1     		cbz	r3, .L794
 3735 0040 013B     		subs	r3, r3, #1
 3736 0042 9BB2     		uxth	r3, r3
 3737 0044 1380     		strh	r3, [r2]	@ movhi
 3738 0046 33B9     		cbnz	r3, .L794
 3739 0048 03F18043 		add	r3, r3, #1073741824
 3740 004c 03F50233 		add	r3, r3, #133120
 3741 0050 4FF46042 		mov	r2, #57344
 3742 0054 9A61     		str	r2, [r3, #24]
 3743              	.L794:
 3744 0056 30BC     		pop	{r4, r5}
 3745 0058 7047     		bx	lr
 3746              	.L811:
 3747 005a 174B     		ldr	r3, .L814+16
 3748 005c 154C     		ldr	r4, .L814+12
 3749 005e 1868     		ldr	r0, [r3]
 3750 0060 1649     		ldr	r1, .L814+20
 3751 0062 134B     		ldr	r3, .L814+8
 3752 0064 C2F30C02 		ubfx	r2, r2, #0, #13
 3753 0068 4FF40075 		mov	r5, #512
 3754 006c 805C     		ldrb	r0, [r0, r2]	@ zero_extendqisi2
 3755 006e 2580     		strh	r5, [r4]	@ movhi
 3756 0070 45F25552 		movw	r2, #21845
 3757 0074 0870     		strb	r0, [r1]
 3758 0076 1A80     		strh	r2, [r3]	@ movhi
 3759              	.L799:
 3760 0078 30BC     		pop	{r4, r5}
 3761 007a FFF7FEBF 		b	epyx_handler.part.38
 3762              	.L813:
 3763 007e 0D49     		ldr	r1, .L814+12
ARM GAS  C:\Users\Jay\AppData\Local\Temp\ccrCOBv6.s 			page 65


 3764 0080 0B4B     		ldr	r3, .L814+8
 3765 0082 0F4A     		ldr	r2, .L814+24
 3766 0084 4FF40070 		mov	r0, #512
 3767 0088 0880     		strh	r0, [r1]	@ movhi
 3768 008a 9A61     		str	r2, [r3, #24]
 3769 008c E3E7     		b	.L794
 3770              	.L812:
 3771 008e 0A4B     		ldr	r3, .L814+16
 3772 0090 0A48     		ldr	r0, .L814+20
 3773 0092 1C68     		ldr	r4, [r3]
 3774 0094 064B     		ldr	r3, .L814+8
 3775 0096 C2F30C02 		ubfx	r2, r2, #0, #13
 3776 009a 45F25551 		movw	r1, #21845
 3777 009e A25C     		ldrb	r2, [r4, r2]	@ zero_extendqisi2
 3778 00a0 0270     		strb	r2, [r0]
 3779 00a2 1980     		strh	r1, [r3]	@ movhi
 3780 00a4 E8E7     		b	.L799
 3781              	.L815:
 3782 00a6 00BF     		.align	2
 3783              	.L814:
 3784 00a8 00000140 		.word	1073807360
 3785 00ac 00040240 		.word	1073873920
 3786 00b0 00080240 		.word	1073874944
 3787 00b4 00000000 		.word	.LANCHOR17
 3788 00b8 00000000 		.word	.LANCHOR7
 3789 00bc 14080240 		.word	1073874964
 3790 00c0 004000A0 		.word	-1610596352
 3792              		.section	.text.c64gs_handler,"ax",%progbits
 3793              		.align	1
 3794              		.p2align 2,,3
 3795              		.global	c64gs_handler
 3796              		.syntax unified
 3797              		.thumb
 3798              		.thumb_func
 3799              		.fpu fpv4-sp-d16
 3801              	c64gs_handler:
 3802              		@ args = 0, pretend = 0, frame = 0
 3803              		@ frame_needed = 0, uses_anonymous_args = 0
 3804              		@ link register save eliminated.
 3805 0000 1C4B     		ldr	r3, .L830
 3806 0002 1A69     		ldr	r2, [r3, #16]
 3807 0004 1207     		lsls	r2, r2, #28
 3808 0006 26D5     		bpl	.L826
 3809 0008 6FF01801 		mvn	r1, #24
 3810 000c 1A4A     		ldr	r2, .L830+4
 3811 000e 1961     		str	r1, [r3, #16]
 3812 0010 1269     		ldr	r2, [r2, #16]
 3813 0012 92B2     		uxth	r2, r2
 3814 0014 1949     		ldr	r1, .L830+8
 3815 0016 0869     		ldr	r0, [r1, #16]
 3816 0018 C007     		lsls	r0, r0, #31
 3817 001a 17D5     		bpl	.L819
 3818 001c 0969     		ldr	r1, [r1, #16]
 3819 001e C9B2     		uxtb	r1, r1
 3820 0020 4806     		lsls	r0, r1, #25
 3821 0022 21D4     		bmi	.L820
 3822 0024 30B4     		push	{r4, r5}
ARM GAS  C:\Users\Jay\AppData\Local\Temp\ccrCOBv6.s 			page 66


 3823 0026 1649     		ldr	r1, .L830+12
 3824 0028 164C     		ldr	r4, .L830+16
 3825 002a 0D68     		ldr	r5, [r1]
 3826 002c 1649     		ldr	r1, .L830+20
 3827 002e C2F30C02 		ubfx	r2, r2, #0, #13
 3828 0032 45F25550 		movw	r0, #21845
 3829 0036 AA5C     		ldrb	r2, [r5, r2]	@ zero_extendqisi2
 3830 0038 2270     		strb	r2, [r4]
 3831 003a 0880     		strh	r0, [r1]	@ movhi
 3832              	.L821:
 3833 003c 1A69     		ldr	r2, [r3, #16]
 3834 003e D206     		lsls	r2, r2, #27
 3835 0040 FCD5     		bpl	.L821
 3836 0042 114B     		ldr	r3, .L830+20
 3837 0044 0022     		movs	r2, #0
 3838 0046 1A80     		strh	r2, [r3]	@ movhi
 3839 0048 30BC     		pop	{r4, r5}
 3840 004a 7047     		bx	lr
 3841              	.L819:
 3842 004c 0B69     		ldr	r3, [r1, #16]
 3843 004e 0E49     		ldr	r1, .L830+20
 3844 0050 9B07     		lsls	r3, r3, #30
 3845 0052 0969     		ldr	r1, [r1, #16]
 3846 0054 00D5     		bpl	.L829
 3847              	.L826:
 3848 0056 7047     		bx	lr
 3849              	.L829:
 3850 0058 02F03F02 		and	r2, r2, #63
 3851 005c 0B49     		ldr	r1, .L830+24
 3852 005e 084B     		ldr	r3, .L830+12
 3853 0060 51F82220 		ldr	r2, [r1, r2, lsl #2]
 3854 0064 1A60     		str	r2, [r3]
 3855 0066 7047     		bx	lr
 3856              	.L820:
 3857 0068 8907     		lsls	r1, r1, #30
 3858 006a F4D4     		bmi	.L826
 3859 006c 044B     		ldr	r3, .L830+12
 3860 006e 084A     		ldr	r2, .L830+28
 3861 0070 1A60     		str	r2, [r3]
 3862 0072 7047     		bx	lr
 3863              	.L831:
 3864              		.align	2
 3865              	.L830:
 3866 0074 00000140 		.word	1073807360
 3867 0078 00040240 		.word	1073873920
 3868 007c 00000240 		.word	1073872896
 3869 0080 00000000 		.word	.LANCHOR7
 3870 0084 14080240 		.word	1073874964
 3871 0088 00080240 		.word	1073874944
 3872 008c 00000000 		.word	.LANCHOR18
 3873 0090 00000000 		.word	dat_buffer
 3875              		.section	.text.dinamic_handler,"ax",%progbits
 3876              		.align	1
 3877              		.p2align 2,,3
 3878              		.global	dinamic_handler
 3879              		.syntax unified
 3880              		.thumb
ARM GAS  C:\Users\Jay\AppData\Local\Temp\ccrCOBv6.s 			page 67


 3881              		.thumb_func
 3882              		.fpu fpv4-sp-d16
 3884              	dinamic_handler:
 3885              		@ args = 0, pretend = 0, frame = 0
 3886              		@ frame_needed = 0, uses_anonymous_args = 0
 3887              		@ link register save eliminated.
 3888 0000 1A4B     		ldr	r3, .L845
 3889 0002 1A69     		ldr	r2, [r3, #16]
 3890 0004 1207     		lsls	r2, r2, #28
 3891 0006 21D5     		bpl	.L842
 3892 0008 6FF01801 		mvn	r1, #24
 3893 000c 184A     		ldr	r2, .L845+4
 3894 000e 1961     		str	r1, [r3, #16]
 3895 0010 1269     		ldr	r2, [r2, #16]
 3896 0012 1849     		ldr	r1, .L845+8
 3897 0014 0869     		ldr	r0, [r1, #16]
 3898 0016 C007     		lsls	r0, r0, #31
 3899 0018 19D5     		bpl	.L835
 3900 001a 92B2     		uxth	r2, r2
 3901 001c 0969     		ldr	r1, [r1, #16]
 3902 001e C9B2     		uxtb	r1, r1
 3903 0020 4806     		lsls	r0, r1, #25
 3904 0022 18D4     		bmi	.L836
 3905 0024 30B4     		push	{r4, r5}
 3906 0026 1449     		ldr	r1, .L845+12
 3907 0028 144C     		ldr	r4, .L845+16
 3908 002a 0D68     		ldr	r5, [r1]
 3909 002c 1449     		ldr	r1, .L845+20
 3910 002e C2F30C02 		ubfx	r2, r2, #0, #13
 3911 0032 45F25550 		movw	r0, #21845
 3912 0036 AA5C     		ldrb	r2, [r5, r2]	@ zero_extendqisi2
 3913 0038 2270     		strb	r2, [r4]
 3914 003a 0880     		strh	r0, [r1]	@ movhi
 3915              	.L837:
 3916 003c 1A69     		ldr	r2, [r3, #16]
 3917 003e D206     		lsls	r2, r2, #27
 3918 0040 FCD5     		bpl	.L837
 3919 0042 0F4B     		ldr	r3, .L845+20
 3920 0044 0022     		movs	r2, #0
 3921 0046 1A80     		strh	r2, [r3]	@ movhi
 3922 0048 30BC     		pop	{r4, r5}
 3923 004a 7047     		bx	lr
 3924              	.L842:
 3925 004c 7047     		bx	lr
 3926              	.L835:
 3927 004e 0B69     		ldr	r3, [r1, #16]
 3928 0050 0B4B     		ldr	r3, .L845+20
 3929 0052 1B69     		ldr	r3, [r3, #16]
 3930 0054 7047     		bx	lr
 3931              	.L836:
 3932 0056 8907     		lsls	r1, r1, #30
 3933 0058 F8D4     		bmi	.L842
 3934 005a 02F03F02 		and	r2, r2, #63
 3935 005e 0949     		ldr	r1, .L845+24
 3936 0060 054B     		ldr	r3, .L845+12
 3937 0062 51F82220 		ldr	r2, [r1, r2, lsl #2]
 3938 0066 1A60     		str	r2, [r3]
ARM GAS  C:\Users\Jay\AppData\Local\Temp\ccrCOBv6.s 			page 68


 3939 0068 7047     		bx	lr
 3940              	.L846:
 3941 006a 00BF     		.align	2
 3942              	.L845:
 3943 006c 00000140 		.word	1073807360
 3944 0070 00040240 		.word	1073873920
 3945 0074 00000240 		.word	1073872896
 3946 0078 00000000 		.word	.LANCHOR7
 3947 007c 14080240 		.word	1073874964
 3948 0080 00080240 		.word	1073874944
 3949 0084 00000000 		.word	.LANCHOR18
 3951              		.section	.text.zaxxon_handler,"ax",%progbits
 3952              		.align	1
 3953              		.p2align 2,,3
 3954              		.global	zaxxon_handler
 3955              		.syntax unified
 3956              		.thumb
 3957              		.thumb_func
 3958              		.fpu fpv4-sp-d16
 3960              	zaxxon_handler:
 3961              		@ args = 0, pretend = 0, frame = 0
 3962              		@ frame_needed = 0, uses_anonymous_args = 0
 3963              		@ link register save eliminated.
 3964 0000 1E4B     		ldr	r3, .L860
 3965 0002 1A69     		ldr	r2, [r3, #16]
 3966 0004 1107     		lsls	r1, r2, #28
 3967 0006 0DD5     		bpl	.L855
 3968 0008 6FF01801 		mvn	r1, #24
 3969 000c 1C4A     		ldr	r2, .L860+4
 3970 000e 1961     		str	r1, [r3, #16]
 3971 0010 1169     		ldr	r1, [r2, #16]
 3972 0012 03F58033 		add	r3, r3, #65536
 3973 0016 1A69     		ldr	r2, [r3, #16]
 3974 0018 D207     		lsls	r2, r2, #31
 3975 001a 04D4     		bmi	.L858
 3976 001c 1B69     		ldr	r3, [r3, #16]
 3977 001e 194B     		ldr	r3, .L860+8
 3978 0020 1B69     		ldr	r3, [r3, #16]
 3979 0022 7047     		bx	lr
 3980              	.L855:
 3981 0024 7047     		bx	lr
 3982              	.L858:
 3983 0026 70B4     		push	{r4, r5, r6}
 3984 0028 8AB2     		uxth	r2, r1
 3985 002a 1B69     		ldr	r3, [r3, #16]
 3986 002c 5806     		lsls	r0, r3, #25
 3987 002e 11D5     		bpl	.L859
 3988 0030 1B06     		lsls	r3, r3, #24
 3989 0032 0DD4     		bmi	.L847
 3990 0034 144B     		ldr	r3, .L860+12
 3991 0036 1548     		ldr	r0, .L860+16
 3992 0038 1C68     		ldr	r4, [r3]
 3993 003a 124B     		ldr	r3, .L860+8
 3994 003c C2F30D02 		ubfx	r2, r2, #0, #14
 3995 0040 45F25551 		movw	r1, #21845
 3996 0044 A25C     		ldrb	r2, [r4, r2]	@ zero_extendqisi2
 3997 0046 0270     		strb	r2, [r0]
ARM GAS  C:\Users\Jay\AppData\Local\Temp\ccrCOBv6.s 			page 69


 3998 0048 1980     		strh	r1, [r3]	@ movhi
 3999              	.L852:
 4000 004a 70BC     		pop	{r4, r5, r6}
 4001 004c FFF7FEBF 		b	zaxxon_handler.part.44
 4002              	.L847:
 4003 0050 70BC     		pop	{r4, r5, r6}
 4004 0052 7047     		bx	lr
 4005              	.L859:
 4006 0054 0E4B     		ldr	r3, .L860+20
 4007 0056 0F4E     		ldr	r6, .L860+24
 4008 0058 1B68     		ldr	r3, [r3]
 4009 005a 0C4C     		ldr	r4, .L860+16
 4010 005c 0948     		ldr	r0, .L860+8
 4011 005e C2F30B02 		ubfx	r2, r2, #0, #12
 4012 0062 C1F30031 		ubfx	r1, r1, #12, #1
 4013 0066 9D5C     		ldrb	r5, [r3, r2]	@ zero_extendqisi2
 4014 0068 074B     		ldr	r3, .L860+12
 4015 006a 56F82120 		ldr	r2, [r6, r1, lsl #2]
 4016 006e 2570     		strb	r5, [r4]
 4017 0070 45F25551 		movw	r1, #21845
 4018 0074 0180     		strh	r1, [r0]	@ movhi
 4019 0076 1A60     		str	r2, [r3]
 4020 0078 E7E7     		b	.L852
 4021              	.L861:
 4022 007a 00BF     		.align	2
 4023              	.L860:
 4024 007c 00000140 		.word	1073807360
 4025 0080 00040240 		.word	1073873920
 4026 0084 00080240 		.word	1073874944
 4027 0088 00000000 		.word	.LANCHOR7
 4028 008c 14080240 		.word	1073874964
 4029 0090 00000000 		.word	.LANCHOR6
 4030 0094 00000000 		.word	.LANCHOR18
 4032              		.section	.text.magic_desk_handler,"ax",%progbits
 4033              		.align	1
 4034              		.p2align 2,,3
 4035              		.global	magic_desk_handler
 4036              		.syntax unified
 4037              		.thumb
 4038              		.thumb_func
 4039              		.fpu fpv4-sp-d16
 4041              	magic_desk_handler:
 4042              		@ args = 0, pretend = 0, frame = 0
 4043              		@ frame_needed = 0, uses_anonymous_args = 0
 4044              		@ link register save eliminated.
 4045 0000 1D4B     		ldr	r3, .L875
 4046 0002 1A69     		ldr	r2, [r3, #16]
 4047 0004 1207     		lsls	r2, r2, #28
 4048 0006 32D5     		bpl	.L872
 4049 0008 6FF01801 		mvn	r1, #24
 4050 000c 1B4A     		ldr	r2, .L875+4
 4051 000e 1961     		str	r1, [r3, #16]
 4052 0010 1269     		ldr	r2, [r2, #16]
 4053 0012 92B2     		uxth	r2, r2
 4054 0014 1A49     		ldr	r1, .L875+8
 4055 0016 0869     		ldr	r0, [r1, #16]
 4056 0018 C007     		lsls	r0, r0, #31
ARM GAS  C:\Users\Jay\AppData\Local\Temp\ccrCOBv6.s 			page 70


 4057 001a 16D5     		bpl	.L865
 4058 001c 0969     		ldr	r1, [r1, #16]
 4059 001e 4906     		lsls	r1, r1, #25
 4060 0020 25D4     		bmi	.L872
 4061 0022 30B4     		push	{r4, r5}
 4062 0024 1749     		ldr	r1, .L875+12
 4063 0026 184C     		ldr	r4, .L875+16
 4064 0028 0D68     		ldr	r5, [r1]
 4065 002a 1849     		ldr	r1, .L875+20
 4066 002c C2F30C02 		ubfx	r2, r2, #0, #13
 4067 0030 45F25550 		movw	r0, #21845
 4068 0034 AA5C     		ldrb	r2, [r5, r2]	@ zero_extendqisi2
 4069 0036 2270     		strb	r2, [r4]
 4070 0038 0880     		strh	r0, [r1]	@ movhi
 4071              	.L867:
 4072 003a 1A69     		ldr	r2, [r3, #16]
 4073 003c D006     		lsls	r0, r2, #27
 4074 003e FCD5     		bpl	.L867
 4075 0040 124B     		ldr	r3, .L875+20
 4076 0042 0022     		movs	r2, #0
 4077 0044 1A80     		strh	r2, [r3]	@ movhi
 4078 0046 30BC     		pop	{r4, r5}
 4079 0048 7047     		bx	lr
 4080              	.L865:
 4081 004a 0969     		ldr	r1, [r1, #16]
 4082 004c 0F4B     		ldr	r3, .L875+20
 4083 004e 8907     		lsls	r1, r1, #30
 4084 0050 1869     		ldr	r0, [r3, #16]
 4085 0052 0CD4     		bmi	.L872
 4086 0054 B2F55E4F 		cmp	r2, #56832
 4087 0058 09D1     		bne	.L872
 4088 005a 0206     		lsls	r2, r0, #24
 4089 005c 08D4     		bmi	.L868
 4090 005e 00F03F00 		and	r0, r0, #63
 4091 0062 0B4A     		ldr	r2, .L875+24
 4092 0064 074B     		ldr	r3, .L875+12
 4093 0066 52F82020 		ldr	r2, [r2, r0, lsl #2]
 4094 006a 1A60     		str	r2, [r3]
 4095 006c 7047     		bx	lr
 4096              	.L872:
 4097 006e 7047     		bx	lr
 4098              	.L868:
 4099 0070 4FF46042 		mov	r2, #57344
 4100 0074 9A61     		str	r2, [r3, #24]
 4101 0076 7047     		bx	lr
 4102              	.L876:
 4103              		.align	2
 4104              	.L875:
 4105 0078 00000140 		.word	1073807360
 4106 007c 00040240 		.word	1073873920
 4107 0080 00000240 		.word	1073872896
 4108 0084 00000000 		.word	.LANCHOR7
 4109 0088 14080240 		.word	1073874964
 4110 008c 00080240 		.word	1073874944
 4111 0090 00000000 		.word	.LANCHOR18
 4113              		.section	.text.ef_launcher_handler,"ax",%progbits
 4114              		.align	1
ARM GAS  C:\Users\Jay\AppData\Local\Temp\ccrCOBv6.s 			page 71


 4115              		.p2align 2,,3
 4116              		.global	ef_launcher_handler
 4117              		.syntax unified
 4118              		.thumb
 4119              		.thumb_func
 4120              		.fpu fpv4-sp-d16
 4122              	ef_launcher_handler:
 4123              		@ args = 0, pretend = 0, frame = 0
 4124              		@ frame_needed = 0, uses_anonymous_args = 0
 4125              		@ link register save eliminated.
 4126 0000 424B     		ldr	r3, .L896
 4127 0002 1A69     		ldr	r2, [r3, #16]
 4128 0004 1207     		lsls	r2, r2, #28
 4129 0006 35D5     		bpl	.L893
 4130 0008 6FF01801 		mvn	r1, #24
 4131 000c 404A     		ldr	r2, .L896+4
 4132 000e 30B4     		push	{r4, r5}
 4133 0010 1961     		str	r1, [r3, #16]
 4134 0012 1169     		ldr	r1, [r2, #16]
 4135 0014 89B2     		uxth	r1, r1
 4136 0016 03F58033 		add	r3, r3, #65536
 4137 001a 1A69     		ldr	r2, [r3, #16]
 4138 001c D007     		lsls	r0, r2, #31
 4139 001e 13D5     		bpl	.L880
 4140 0020 1B69     		ldr	r3, [r3, #16]
 4141 0022 DBB2     		uxtb	r3, r3
 4142 0024 03F0C002 		and	r2, r3, #192
 4143 0028 C02A     		cmp	r2, #192
 4144 002a 2BD0     		beq	.L881
 4145 002c 394B     		ldr	r3, .L896+8
 4146 002e 3A4C     		ldr	r4, .L896+12
 4147 0030 1D68     		ldr	r5, [r3]
 4148 0032 3A4A     		ldr	r2, .L896+16
 4149 0034 C1F30D03 		ubfx	r3, r1, #0, #14
 4150 0038 45F25550 		movw	r0, #21845
 4151 003c EB5C     		ldrb	r3, [r5, r3]	@ zero_extendqisi2
 4152 003e 2370     		strb	r3, [r4]
 4153 0040 1080     		strh	r0, [r2]	@ movhi
 4154              	.L882:
 4155 0042 30BC     		pop	{r4, r5}
 4156 0044 FFF7FEBF 		b	ef_launcher_handler.part.51
 4157              	.L880:
 4158 0048 1B69     		ldr	r3, [r3, #16]
 4159 004a DBB2     		uxtb	r3, r3
 4160 004c 3348     		ldr	r0, .L896+16
 4161 004e 0269     		ldr	r2, [r0, #16]
 4162 0050 13F00204 		ands	r4, r3, #2
 4163 0054 D2B2     		uxtb	r2, r2
 4164 0056 0ED1     		bne	.L888
 4165 0058 C9B2     		uxtb	r1, r1
 4166 005a 0229     		cmp	r1, #2
 4167 005c 46D0     		beq	.L889
 4168 005e 0A29     		cmp	r1, #10
 4169 0060 3FD0     		beq	.L890
 4170 0062 69B9     		cbnz	r1, .L877
 4171 0064 02F03F02 		and	r2, r2, #63
 4172 0068 2D49     		ldr	r1, .L896+20
ARM GAS  C:\Users\Jay\AppData\Local\Temp\ccrCOBv6.s 			page 72


 4173 006a 2A4B     		ldr	r3, .L896+8
 4174 006c 51F82220 		ldr	r2, [r1, r2, lsl #2]
 4175 0070 1A60     		str	r2, [r3]
 4176 0072 05E0     		b	.L877
 4177              	.L893:
 4178 0074 7047     		bx	lr
 4179              	.L888:
 4180 0076 5B07     		lsls	r3, r3, #29
 4181 0078 02D4     		bmi	.L877
 4182 007a CBB2     		uxtb	r3, r1
 4183 007c 2949     		ldr	r1, .L896+24
 4184 007e CA54     		strb	r2, [r1, r3]
 4185              	.L877:
 4186 0080 30BC     		pop	{r4, r5}
 4187 0082 7047     		bx	lr
 4188              	.L881:
 4189 0084 13F00202 		ands	r2, r3, #2
 4190 0088 13D1     		bne	.L883
 4191 008a 4DF60963 		movw	r3, #56841
 4192 008e 9942     		cmp	r1, r3
 4193 0090 1BD0     		beq	.L885
 4194 0092 4DF60A63 		movw	r3, #56842
 4195 0096 9942     		cmp	r1, r3
 4196 0098 F2D1     		bne	.L877
 4197 009a 234B     		ldr	r3, .L896+28
 4198 009c 1E4D     		ldr	r5, .L896+12
 4199 009e 1B78     		ldrb	r3, [r3]	@ zero_extendqisi2
 4200 00a0 1E48     		ldr	r0, .L896+16
 4201 00a2 2249     		ldr	r1, .L896+32
 4202 00a4 DBB2     		uxtb	r3, r3
 4203 00a6 45F25554 		movw	r4, #21845
 4204 00aa 2B70     		strb	r3, [r5]
 4205 00ac 0480     		strh	r4, [r0]	@ movhi
 4206 00ae 0A70     		strb	r2, [r1]
 4207 00b0 C7E7     		b	.L882
 4208              	.L883:
 4209 00b2 5A07     		lsls	r2, r3, #29
 4210 00b4 E4D4     		bmi	.L877
 4211 00b6 CBB2     		uxtb	r3, r1
 4212 00b8 1A49     		ldr	r1, .L896+24
 4213 00ba 1748     		ldr	r0, .L896+12
 4214 00bc CB5C     		ldrb	r3, [r1, r3]	@ zero_extendqisi2
 4215 00be 174A     		ldr	r2, .L896+16
 4216 00c0 0370     		strb	r3, [r0]
 4217 00c2 45F25553 		movw	r3, #21845
 4218 00c6 1380     		strh	r3, [r2]	@ movhi
 4219 00c8 BBE7     		b	.L882
 4220              	.L885:
 4221 00ca 194A     		ldr	r2, .L896+36
 4222 00cc 174B     		ldr	r3, .L896+32
 4223 00ce 1248     		ldr	r0, .L896+12
 4224 00d0 1B78     		ldrb	r3, [r3]	@ zero_extendqisi2
 4225 00d2 1178     		ldrb	r1, [r2]	@ zero_extendqisi2
 4226 00d4 114A     		ldr	r2, .L896+16
 4227 00d6 0B43     		orrs	r3, r3, r1
 4228 00d8 45F25551 		movw	r1, #21845
 4229 00dc 0370     		strb	r3, [r0]
ARM GAS  C:\Users\Jay\AppData\Local\Temp\ccrCOBv6.s 			page 73


 4230 00de 1180     		strh	r1, [r2]	@ movhi
 4231 00e0 AFE7     		b	.L882
 4232              	.L890:
 4233 00e2 1449     		ldr	r1, .L896+40
 4234 00e4 124B     		ldr	r3, .L896+36
 4235 00e6 0A70     		strb	r2, [r1]
 4236 00e8 1C70     		strb	r4, [r3]
 4237 00ea C9E7     		b	.L877
 4238              	.L889:
 4239 00ec 5109     		lsrs	r1, r2, #5
 4240 00ee 02F00204 		and	r4, r2, #2
 4241 00f2 C2F38003 		ubfx	r3, r2, #2, #1
 4242 00f6 01F00401 		and	r1, r1, #4
 4243 00fa 23EA0202 		bic	r2, r3, r2
 4244 00fe 2143     		orrs	r1, r1, r4
 4245 0100 0A43     		orrs	r2, r2, r1
 4246 0102 0D4B     		ldr	r3, .L896+44
 4247 0104 53F82230 		ldr	r3, [r3, r2, lsl #2]
 4248 0108 8361     		str	r3, [r0, #24]
 4249 010a B9E7     		b	.L877
 4250              	.L897:
 4251              		.align	2
 4252              	.L896:
 4253 010c 00000140 		.word	1073807360
 4254 0110 00040240 		.word	1073873920
 4255 0114 00000000 		.word	.LANCHOR7
 4256 0118 14080240 		.word	1073874964
 4257 011c 00080240 		.word	1073874944
 4258 0120 00000000 		.word	.LANCHOR18
 4259 0124 00000000 		.word	crt_ram_buf
 4260 0128 00000000 		.word	.LANCHOR11
 4261 012c 00000000 		.word	.LANCHOR10
 4262 0130 00000000 		.word	.LANCHOR12
 4263 0134 00000000 		.word	.LANCHOR13
 4264 0138 00000000 		.word	.LANCHOR19
 4266              		.section	.text.comal80_handler,"ax",%progbits
 4267              		.align	1
 4268              		.p2align 2,,3
 4269              		.global	comal80_handler
 4270              		.syntax unified
 4271              		.thumb
 4272              		.thumb_func
 4273              		.fpu fpv4-sp-d16
 4275              	comal80_handler:
 4276              		@ args = 0, pretend = 0, frame = 0
 4277              		@ frame_needed = 0, uses_anonymous_args = 0
 4278              		@ link register save eliminated.
 4279 0000 1D4B     		ldr	r3, .L911
 4280 0002 1A69     		ldr	r2, [r3, #16]
 4281 0004 1207     		lsls	r2, r2, #28
 4282 0006 35D5     		bpl	.L908
 4283 0008 6FF01801 		mvn	r1, #24
 4284 000c 1B4A     		ldr	r2, .L911+4
 4285 000e 10B4     		push	{r4}
 4286 0010 1961     		str	r1, [r3, #16]
 4287 0012 1169     		ldr	r1, [r2, #16]
 4288 0014 03F58033 		add	r3, r3, #65536
ARM GAS  C:\Users\Jay\AppData\Local\Temp\ccrCOBv6.s 			page 74


 4289 0018 1A69     		ldr	r2, [r3, #16]
 4290 001a D007     		lsls	r0, r2, #31
 4291 001c 13D5     		bpl	.L901
 4292 001e 1B69     		ldr	r3, [r3, #16]
 4293 0020 03F0C003 		and	r3, r3, #192
 4294 0024 C02B     		cmp	r3, #192
 4295 0026 22D0     		beq	.L898
 4296 0028 154B     		ldr	r3, .L911+8
 4297 002a 1648     		ldr	r0, .L911+12
 4298 002c 1C68     		ldr	r4, [r3]
 4299 002e 164B     		ldr	r3, .L911+16
 4300 0030 C1F30D01 		ubfx	r1, r1, #0, #14
 4301 0034 45F25552 		movw	r2, #21845
 4302 0038 615C     		ldrb	r1, [r4, r1]	@ zero_extendqisi2
 4303 003a 0170     		strb	r1, [r0]
 4304 003c 5DF8044B 		ldr	r4, [sp], #4
 4305 0040 1A80     		strh	r2, [r3]	@ movhi
 4306 0042 FFF7FEBF 		b	comal80_handler.part.54
 4307              	.L901:
 4308 0046 1969     		ldr	r1, [r3, #16]
 4309 0048 0F4A     		ldr	r2, .L911+16
 4310 004a 8907     		lsls	r1, r1, #30
 4311 004c 1369     		ldr	r3, [r2, #16]
 4312 004e 0ED4     		bmi	.L898
 4313 0050 DBB2     		uxtb	r3, r3
 4314 0052 03F00704 		and	r4, r3, #7
 4315 0056 0D48     		ldr	r0, .L911+20
 4316 0058 0949     		ldr	r1, .L911+8
 4317 005a 50F82400 		ldr	r0, [r0, r4, lsl #2]
 4318 005e 0860     		str	r0, [r1]
 4319 0060 5B06     		lsls	r3, r3, #25
 4320 0062 4CBF     		ite	mi
 4321 0064 4FF46043 		movmi	r3, #57344
 4322 0068 4FF06043 		movpl	r3, #-536870912
 4323 006c 9361     		str	r3, [r2, #24]
 4324              	.L898:
 4325 006e 5DF8044B 		ldr	r4, [sp], #4
 4326 0072 7047     		bx	lr
 4327              	.L908:
 4328 0074 7047     		bx	lr
 4329              	.L912:
 4330 0076 00BF     		.align	2
 4331              	.L911:
 4332 0078 00000140 		.word	1073807360
 4333 007c 00040240 		.word	1073873920
 4334 0080 00000000 		.word	.LANCHOR7
 4335 0084 14080240 		.word	1073874964
 4336 0088 00080240 		.word	1073874944
 4337 008c 00000000 		.word	.LANCHOR18
 4339              		.section	.text.to_petscii_pad,"ax",%progbits
 4340              		.align	1
 4341              		.p2align 2,,3
 4342              		.syntax unified
 4343              		.thumb
 4344              		.thumb_func
 4345              		.fpu fpv4-sp-d16
 4347              	to_petscii_pad:
ARM GAS  C:\Users\Jay\AppData\Local\Temp\ccrCOBv6.s 			page 75


 4348              		@ args = 0, pretend = 0, frame = 0
 4349              		@ frame_needed = 0, uses_anonymous_args = 0
 4350              		@ link register save eliminated.
 4351 0000 531E     		subs	r3, r2, #1
 4352 0002 DBB2     		uxtb	r3, r3
 4353 0004 0133     		adds	r3, r3, #1
 4354 0006 70B4     		push	{r4, r5, r6}
 4355 0008 0246     		mov	r2, r0
 4356 000a 2026     		movs	r6, #32
 4357 000c 1844     		add	r0, r0, r3
 4358 000e 0DE0     		b	.L919
 4359              	.L924:
 4360 0010 A3F16104 		sub	r4, r3, #97
 4361 0014 192D     		cmp	r5, #25
 4362 0016 E4B2     		uxtb	r4, r4
 4363 0018 01F10101 		add	r1, r1, #1
 4364 001c 03F12005 		add	r5, r3, #32
 4365 0020 11D8     		bhi	.L915
 4366 0022 EBB2     		uxtb	r3, r5
 4367              	.L916:
 4368 0024 9042     		cmp	r0, r2
 4369 0026 02F8013C 		strb	r3, [r2, #-1]
 4370 002a 09D0     		beq	.L923
 4371              	.L919:
 4372 002c 0B78     		ldrb	r3, [r1]	@ zero_extendqisi2
 4373 002e 0132     		adds	r2, r2, #1
 4374 0030 A3F14105 		sub	r5, r3, #65
 4375 0034 002B     		cmp	r3, #0
 4376 0036 EBD1     		bne	.L924
 4377 0038 9042     		cmp	r0, r2
 4378 003a 02F8016C 		strb	r6, [r2, #-1]
 4379 003e F5D1     		bne	.L919
 4380              	.L923:
 4381 0040 0846     		mov	r0, r1
 4382 0042 70BC     		pop	{r4, r5, r6}
 4383 0044 7047     		bx	lr
 4384              	.L915:
 4385 0046 192C     		cmp	r4, #25
 4386 0048 A3F12004 		sub	r4, r3, #32
 4387 004c 03D9     		bls	.L925
 4388 004e 5F2B     		cmp	r3, #95
 4389 0050 08BF     		it	eq
 4390 0052 A423     		moveq	r3, #164
 4391 0054 E6E7     		b	.L916
 4392              	.L925:
 4393 0056 E3B2     		uxtb	r3, r4
 4394 0058 E4E7     		b	.L916
 4396 005a 00BF     		.section	.text.options_add_text_element,"ax",%progbits
 4397              		.align	1
 4398              		.p2align 2,,3
 4399              		.syntax unified
 4400              		.thumb
 4401              		.thumb_func
 4402              		.fpu fpv4-sp-d16
 4404              	options_add_text_element:
 4405              		@ args = 0, pretend = 0, frame = 0
 4406              		@ frame_needed = 0, uses_anonymous_args = 0
ARM GAS  C:\Users\Jay\AppData\Local\Temp\ccrCOBv6.s 			page 76


 4407 0000 F8B5     		push	{r3, r4, r5, r6, r7, lr}
 4408 0002 457F     		ldrb	r5, [r0, #29]	@ zero_extendqisi2
 4409 0004 162D     		cmp	r5, #22
 4410 0006 1CD0     		beq	.L927
 4411 0008 05EB4503 		add	r3, r5, r5, lsl #1
 4412 000c 134F     		ldr	r7, .L934
 4413 000e 6E1C     		adds	r6, r5, #1
 4414 0010 1B01     		lsls	r3, r3, #4
 4415 0012 F6B2     		uxtb	r6, r6
 4416 0014 DC19     		adds	r4, r3, r7
 4417 0016 F1B1     		cbz	r1, .L929
 4418              	.L933:
 4419 0018 4FF0200C 		mov	ip, #32
 4420 001c 03F807C0 		strb	ip, [r3, r7]
 4421 0020 037F     		ldrb	r3, [r0, #28]	@ zero_extendqisi2
 4422 0022 162B     		cmp	r3, #22
 4423 0024 0BD0     		beq	.L932
 4424              	.L930:
 4425 0026 A162     		str	r1, [r4, #40]
 4426 0028 1146     		mov	r1, r2
 4427 002a 4677     		strb	r6, [r0, #29]
 4428 002c 2422     		movs	r2, #36
 4429 002e 601C     		adds	r0, r4, #1
 4430 0030 FFF7FEFF 		bl	to_petscii_pad
 4431 0034 2023     		movs	r3, #32
 4432 0036 84F82530 		strb	r3, [r4, #37]
 4433 003a 2046     		mov	r0, r4
 4434 003c F8BD     		pop	{r3, r4, r5, r6, r7, pc}
 4435              	.L932:
 4436 003e 0577     		strb	r5, [r0, #28]
 4437 0040 F1E7     		b	.L930
 4438              	.L927:
 4439 0042 1523     		movs	r3, #21
 4440 0044 054F     		ldr	r7, .L934
 4441 0046 4377     		strb	r3, [r0, #29]
 4442 0048 2E46     		mov	r6, r5
 4443 004a 1D46     		mov	r5, r3
 4444 004c 4FF47C73 		mov	r3, #1008
 4445 0050 DC19     		adds	r4, r3, r7
 4446 0052 0029     		cmp	r1, #0
 4447 0054 E0D1     		bne	.L933
 4448              	.L929:
 4449 0056 E025     		movs	r5, #224
 4450 0058 DD55     		strb	r5, [r3, r7]
 4451 005a E4E7     		b	.L930
 4452              	.L935:
 4453              		.align	2
 4454              	.L934:
 4455 005c 00200100 		.word	scratch_buf+8192
 4457              		.section	.text.options_add_text_block,"ax",%progbits
 4458              		.align	1
 4459              		.p2align 2,,3
 4460              		.syntax unified
 4461              		.thumb
 4462              		.thumb_func
 4463              		.fpu fpv4-sp-d16
 4465              	options_add_text_block:
ARM GAS  C:\Users\Jay\AppData\Local\Temp\ccrCOBv6.s 			page 77


 4466              		@ args = 0, pretend = 0, frame = 0
 4467              		@ frame_needed = 0, uses_anonymous_args = 0
 4468 0000 2DE9F843 		push	{r3, r4, r5, r6, r7, r8, r9, lr}
 4469 0004 DFF85490 		ldr	r9, .L942+4
 4470 0008 0646     		mov	r6, r0
 4471 000a 4FF0E008 		mov	r8, #224
 4472 000e 0027     		movs	r7, #0
 4473              	.L938:
 4474 0010 737F     		ldrb	r3, [r6, #29]	@ zero_extendqisi2
 4475 0012 03EB4304 		add	r4, r3, r3, lsl #1
 4476 0016 162B     		cmp	r3, #22
 4477 0018 14BF     		ite	ne
 4478 001a 2401     		lslne	r4, r4, #4
 4479 001c 4FF47C74 		moveq	r4, #1008
 4480 0020 03F10102 		add	r2, r3, #1
 4481 0024 09EB0405 		add	r5, r9, r4
 4482 0028 18BF     		it	ne
 4483 002a D3B2     		uxtbne	r3, r2
 4484 002c 09F80480 		strb	r8, [r9, r4]
 4485 0030 2422     		movs	r2, #36
 4486 0032 AF62     		str	r7, [r5, #40]
 4487 0034 681C     		adds	r0, r5, #1
 4488 0036 7377     		strb	r3, [r6, #29]
 4489 0038 FFF7FEFF 		bl	to_petscii_pad
 4490 003c 2023     		movs	r3, #32
 4491 003e 85F82530 		strb	r3, [r5, #37]
 4492 0042 0378     		ldrb	r3, [r0]	@ zero_extendqisi2
 4493 0044 0146     		mov	r1, r0
 4494 0046 002B     		cmp	r3, #0
 4495 0048 E2D1     		bne	.L938
 4496 004a 1946     		mov	r1, r3
 4497 004c 3046     		mov	r0, r6
 4498 004e 024A     		ldr	r2, .L942
 4499 0050 BDE8F843 		pop	{r3, r4, r5, r6, r7, r8, r9, lr}
 4500 0054 FFF7FEBF 		b	options_add_text_element
 4501              	.L943:
 4502              		.align	2
 4503              	.L942:
 4504 0058 00000000 		.word	.LC14
 4505 005c 00200100 		.word	scratch_buf+8192
 4507              		.section	.text.build_options,"ax",%progbits
 4508              		.align	1
 4509              		.p2align 2,,3
 4510              		.syntax unified
 4511              		.thumb
 4512              		.thumb_func
 4513              		.fpu fpv4-sp-d16
 4515              	build_options:
 4516              		@ args = 0, pretend = 0, frame = 0
 4517              		@ frame_needed = 0, uses_anonymous_args = 0
 4518 0000 114B     		ldr	r3, .L949
 4519 0002 1A68     		ldr	r2, [r3]
 4520 0004 70B5     		push	{r4, r5, r6, lr}
 4521 0006 0646     		mov	r6, r0
 4522 0008 0C46     		mov	r4, r1
 4523 000a 9AB1     		cbz	r2, .L948
 4524              	.L945:
ARM GAS  C:\Users\Jay\AppData\Local\Temp\ccrCOBv6.s 			page 78


 4525 000c 0F4A     		ldr	r2, .L949+4
 4526 000e 0E48     		ldr	r0, .L949
 4527 0010 1268     		ldr	r2, [r2]
 4528 0012 9E61     		str	r6, [r3, #24]
 4529 0014 9A42     		cmp	r2, r3
 4530 0016 4FF01605 		mov	r5, #22
 4531 001a 18BF     		it	ne
 4532 001c 5A61     		strne	r2, [r3, #20]
 4533 001e 9D83     		strh	r5, [r3, #28]	@ movhi
 4534 0020 0B4A     		ldr	r2, .L949+8
 4535 0022 0021     		movs	r1, #0
 4536 0024 FFF7FEFF 		bl	options_add_text_element
 4537 0028 2146     		mov	r1, r4
 4538 002a 0748     		ldr	r0, .L949
 4539 002c FFF7FEFF 		bl	options_add_text_block
 4540 0030 0548     		ldr	r0, .L949
 4541 0032 70BD     		pop	{r4, r5, r6, pc}
 4542              	.L948:
 4543 0034 0749     		ldr	r1, .L949+12
 4544 0036 084A     		ldr	r2, .L949+16
 4545 0038 0848     		ldr	r0, .L949+20
 4546 003a 1960     		str	r1, [r3]
 4547 003c 0849     		ldr	r1, .L949+24
 4548 003e C3E90102 		strd	r0, r2, [r3, #4]
 4549 0042 C3E90321 		strd	r2, r1, [r3, #12]
 4550 0046 E1E7     		b	.L945
 4551              	.L950:
 4552              		.align	2
 4553              	.L949:
 4554 0048 00000000 		.word	.LANCHOR20
 4555 004c 00000000 		.word	.LANCHOR14
 4556 0050 00000000 		.word	.LC14
 4557 0054 00000000 		.word	options_dir
 4558 0058 00000000 		.word	options_prev_next_page
 4559 005c 00000000 		.word	options_dir_up
 4560 0060 00000000 		.word	options_select
 4562              		.section	.text.handle_file_options,"ax",%progbits
 4563              		.align	1
 4564              		.p2align 2,,3
 4565              		.syntax unified
 4566              		.thumb
 4567              		.thumb_func
 4568              		.fpu fpv4-sp-d16
 4570              	handle_file_options:
 4571              		@ args = 0, pretend = 0, frame = 0
 4572              		@ frame_needed = 0, uses_anonymous_args = 0
 4573 0000 0B46     		mov	r3, r1
 4574 0002 052B     		cmp	r3, #5
 4575 0004 2DE9F041 		push	{r4, r5, r6, r7, r8, lr}
 4576 0008 0146     		mov	r1, r0
 4577 000a 1546     		mov	r5, r2
 4578 000c 2BD8     		bhi	.L952
 4579 000e 1D48     		ldr	r0, .L958
 4580 0010 1D4A     		ldr	r2, .L958+4
 4581 0012 1E4C     		ldr	r4, .L958+8
 4582 0014 50F82300 		ldr	r0, [r0, r3, lsl #2]
 4583 0018 54F82370 		ldr	r7, [r4, r3, lsl #2]
ARM GAS  C:\Users\Jay\AppData\Local\Temp\ccrCOBv6.s 			page 79


 4584 001c 52F82360 		ldr	r6, [r2, r3, lsl #2]
 4585 0020 FFF7FEFF 		bl	build_options
 4586 0024 3A46     		mov	r2, r7
 4587 0026 1A49     		ldr	r1, .L958+12
 4588 0028 0446     		mov	r4, r0
 4589 002a FFF7FEFF 		bl	options_add_text_element
 4590 002e 0023     		movs	r3, #0
 4591 0030 80F82D50 		strb	r5, [r0, #45]
 4592 0034 80F82C30 		strb	r3, [r0, #44]
 4593 0038 4EB1     		cbz	r6, .L953
 4594 003a 3246     		mov	r2, r6
 4595 003c 1449     		ldr	r1, .L958+12
 4596 003e 2046     		mov	r0, r4
 4597 0040 FFF7FEFF 		bl	options_add_text_element
 4598 0044 0223     		movs	r3, #2
 4599 0046 80F82D50 		strb	r5, [r0, #45]
 4600 004a 80F82C30 		strb	r3, [r0, #44]
 4601              	.L953:
 4602 004e 114A     		ldr	r2, .L958+16
 4603 0050 1149     		ldr	r1, .L958+20
 4604 0052 2046     		mov	r0, r4
 4605 0054 FFF7FEFF 		bl	options_add_text_element
 4606 0058 104A     		ldr	r2, .L958+24
 4607 005a 2368     		ldr	r3, [r4]
 4608 005c 1460     		str	r4, [r2]
 4609 005e 2046     		mov	r0, r4
 4610 0060 BDE8F041 		pop	{r4, r5, r6, r7, r8, lr}
 4611 0064 1847     		bx	r3	@ indirect register sibling call
 4612              	.L952:
 4613 0066 0E48     		ldr	r0, .L958+28
 4614 0068 FFF7FEFF 		bl	build_options
 4615 006c 0D4A     		ldr	r2, .L958+32
 4616 006e 0849     		ldr	r1, .L958+12
 4617 0070 0446     		mov	r4, r0
 4618 0072 FFF7FEFF 		bl	options_add_text_element
 4619 0076 0023     		movs	r3, #0
 4620 0078 80F82D50 		strb	r5, [r0, #45]
 4621 007c 80F82C30 		strb	r3, [r0, #44]
 4622 0080 E5E7     		b	.L953
 4623              	.L959:
 4624 0082 00BF     		.align	2
 4625              	.L958:
 4626 0084 00000000 		.word	.LANCHOR23
 4627 0088 00000000 		.word	.LANCHOR22
 4628 008c 00000000 		.word	.LANCHOR21
 4629 0090 00000000 		.word	options_prev_select
 4630 0094 00000000 		.word	.LC15
 4631 0098 00000000 		.word	options_prev_dir
 4632 009c 00000000 		.word	.LANCHOR14
 4633 00a0 08000000 		.word	.LC16
 4634 00a4 18000000 		.word	.LC17
 4636              		.section	.text.handle_unsupported_ex,"ax",%progbits
 4637              		.align	1
 4638              		.p2align 2,,3
 4639              		.syntax unified
 4640              		.thumb
 4641              		.thumb_func
ARM GAS  C:\Users\Jay\AppData\Local\Temp\ccrCOBv6.s 			page 80


 4642              		.fpu fpv4-sp-d16
 4644              	handle_unsupported_ex:
 4645              		@ args = 0, pretend = 0, frame = 0
 4646              		@ frame_needed = 0, uses_anonymous_args = 0
 4647 0000 70B5     		push	{r4, r5, r6, lr}
 4648 0002 1546     		mov	r5, r2
 4649 0004 FFF7FEFF 		bl	build_options
 4650 0008 2946     		mov	r1, r5
 4651 000a 0446     		mov	r4, r0
 4652 000c FFF7FEFF 		bl	options_add_text_block
 4653 0010 2046     		mov	r0, r4
 4654 0012 054A     		ldr	r2, .L962
 4655 0014 0549     		ldr	r1, .L962+4
 4656 0016 FFF7FEFF 		bl	options_add_text_element
 4657 001a 054A     		ldr	r2, .L962+8
 4658 001c 2368     		ldr	r3, [r4]
 4659 001e 1460     		str	r4, [r2]
 4660 0020 2046     		mov	r0, r4
 4661 0022 BDE87040 		pop	{r4, r5, r6, lr}
 4662 0026 1847     		bx	r3	@ indirect register sibling call
 4663              	.L963:
 4664              		.align	2
 4665              	.L962:
 4666 0028 00000000 		.word	.LC18
 4667 002c 00000000 		.word	options_prev_dir
 4668 0030 00000000 		.word	.LANCHOR14
 4670              		.section	.text.options_dir,"ax",%progbits
 4671              		.align	1
 4672              		.p2align 2,,3
 4673              		.syntax unified
 4674              		.thumb
 4675              		.thumb_func
 4676              		.fpu fpv4-sp-d16
 4678              	options_dir:
 4679              		@ args = 0, pretend = 0, frame = 0
 4680              		@ frame_needed = 0, uses_anonymous_args = 0
 4681 0000 2DE9F843 		push	{r3, r4, r5, r6, r7, r8, r9, lr}
 4682 0004 2B4C     		ldr	r4, .L988
 4683 0006 0646     		mov	r6, r0
 4684              	.L965:
 4685 0008 2378     		ldrb	r3, [r4]	@ zero_extendqisi2
 4686 000a 002B     		cmp	r3, #0
 4687 000c FCD1     		bne	.L965
 4688 000e 2A4D     		ldr	r5, .L988+4
 4689 0010 B169     		ldr	r1, [r6, #24]
 4690 0012 2A48     		ldr	r0, .L988+8
 4691 0014 0123     		movs	r3, #1
 4692 0016 8027     		movs	r7, #128
 4693 0018 2222     		movs	r2, #34
 4694 001a 2B70     		strb	r3, [r5]
 4695 001c 2770     		strb	r7, [r4]
 4696 001e FFF7FEFF 		bl	to_petscii_pad
 4697 0022 DFF898C0 		ldr	ip, .L988+8
 4698 0026 6146     		mov	r1, ip
 4699 0028 0CF1220E 		add	lr, ip, #34
 4700              	.L967:
 4701 002c 11F8010B 		ldrb	r0, [r1], #1	@ zero_extendqisi2
ARM GAS  C:\Users\Jay\AppData\Local\Temp\ccrCOBv6.s 			page 81


 4702              	.L966:
 4703 0030 2378     		ldrb	r3, [r4]	@ zero_extendqisi2
 4704 0032 03F0FF02 		and	r2, r3, #255
 4705 0036 002B     		cmp	r3, #0
 4706 0038 FAD1     		bne	.L966
 4707 003a 7145     		cmp	r1, lr
 4708 003c 2870     		strb	r0, [r5]
 4709 003e 2770     		strb	r7, [r4]
 4710 0040 F4D1     		bne	.L967
 4711 0042 96F81DE0 		ldrb	lr, [r6, #29]	@ zero_extendqisi2
 4712 0046 BEF1000F 		cmp	lr, #0
 4713 004a 20D0     		beq	.L968
 4714 004c 96F81C80 		ldrb	r8, [r6, #28]	@ zero_extendqisi2
 4715 0050 1B4E     		ldr	r6, .L988+12
 4716 0052 1046     		mov	r0, r2
 4717 0054 1346     		mov	r3, r2
 4718 0056 4FF0A009 		mov	r9, #160
 4719 005a 8027     		movs	r7, #128
 4720              	.L974:
 4721 005c 9845     		cmp	r8, r3
 4722 005e 12BF     		itee	ne
 4723 0060 16F8251C 		ldrbne	r1, [r6, #-37]	@ zero_extendqisi2
 4724 0064 06F8259C 		strbeq	r9, [r6, #-37]
 4725 0068 A021     		moveq	r1, #160
 4726 006a A6F12502 		sub	r2, r6, #37
 4727              	.L971:
 4728 006e 2378     		ldrb	r3, [r4]	@ zero_extendqisi2
 4729 0070 002B     		cmp	r3, #0
 4730 0072 FCD1     		bne	.L971
 4731 0074 9642     		cmp	r6, r2
 4732 0076 2970     		strb	r1, [r5]
 4733 0078 2770     		strb	r7, [r4]
 4734 007a 02D0     		beq	.L972
 4735 007c 12F8011F 		ldrb	r1, [r2, #1]!	@ zero_extendqisi2
 4736 0080 F5E7     		b	.L971
 4737              	.L972:
 4738 0082 0130     		adds	r0, r0, #1
 4739 0084 C3B2     		uxtb	r3, r0
 4740 0086 9E45     		cmp	lr, r3
 4741 0088 06F13006 		add	r6, r6, #48
 4742 008c E6D8     		bhi	.L974
 4743              	.L968:
 4744 008e 0B4A     		ldr	r2, .L988+8
 4745 0090 0021     		movs	r1, #0
 4746 0092 02F12506 		add	r6, r2, #37
 4747 0096 8CF80010 		strb	r1, [ip]
 4748 009a 8020     		movs	r0, #128
 4749              	.L975:
 4750 009c 2378     		ldrb	r3, [r4]	@ zero_extendqisi2
 4751 009e 002B     		cmp	r3, #0
 4752 00a0 FCD1     		bne	.L975
 4753 00a2 9642     		cmp	r6, r2
 4754 00a4 2970     		strb	r1, [r5]
 4755 00a6 2070     		strb	r0, [r4]
 4756 00a8 02D0     		beq	.L964
 4757 00aa 12F8011F 		ldrb	r1, [r2, #1]!	@ zero_extendqisi2
 4758 00ae F5E7     		b	.L975
ARM GAS  C:\Users\Jay\AppData\Local\Temp\ccrCOBv6.s 			page 82


 4759              	.L964:
 4760 00b0 BDE8F883 		pop	{r3, r4, r5, r6, r7, r8, r9, pc}
 4761              	.L989:
 4762              		.align	2
 4763              	.L988:
 4764 00b4 00000000 		.word	.LANCHOR10
 4765 00b8 00000000 		.word	.LANCHOR11
 4766 00bc 00000100 		.word	scratch_buf
 4767 00c0 25200100 		.word	scratch_buf+8229
 4769              		.section	.text.options_select,"ax",%progbits
 4770              		.align	1
 4771              		.p2align 2,,3
 4772              		.syntax unified
 4773              		.thumb
 4774              		.thumb_func
 4775              		.fpu fpv4-sp-d16
 4777              	options_select:
 4778              		@ args = 0, pretend = 0, frame = 0
 4779              		@ frame_needed = 0, uses_anonymous_args = 0
 4780 0000 70B5     		push	{r4, r5, r6, lr}
 4781 0002 447F     		ldrb	r4, [r0, #29]	@ zero_extendqisi2
 4782 0004 9442     		cmp	r4, r2
 4783 0006 0346     		mov	r3, r0
 4784 0008 0ED9     		bls	.L991
 4785 000a 0A4C     		ldr	r4, .L996
 4786 000c 02EB4205 		add	r5, r2, r2, lsl #1
 4787 0010 04EB0514 		add	r4, r4, r5, lsl #4
 4788 0014 A56A     		ldr	r5, [r4, #40]
 4789 0016 3DB1     		cbz	r5, .L991
 4790 0018 0277     		strb	r2, [r0, #28]
 4791 001a 2B46     		mov	r3, r5
 4792 001c 01F0BF02 		and	r2, r1, #191
 4793 0020 2146     		mov	r1, r4
 4794 0022 BDE87040 		pop	{r4, r5, r6, lr}
 4795 0026 1847     		bx	r3
 4796              	.L991:
 4797 0028 1846     		mov	r0, r3
 4798 002a FFF7FEFF 		bl	options_dir
 4799 002e 0020     		movs	r0, #0
 4800 0030 70BD     		pop	{r4, r5, r6, pc}
 4801              	.L997:
 4802 0032 00BF     		.align	2
 4803              	.L996:
 4804 0034 00200100 		.word	scratch_buf+8192
 4806              		.section	.text.cdc_rx_tx,"ax",%progbits
 4807              		.align	1
 4808              		.p2align 2,,3
 4809              		.syntax unified
 4810              		.thumb
 4811              		.thumb_func
 4812              		.fpu fpv4-sp-d16
 4814              	cdc_rx_tx:
 4815              		@ args = 0, pretend = 0, frame = 0
 4816              		@ frame_needed = 0, uses_anonymous_args = 0
 4817 0000 0429     		cmp	r1, #4
 4818 0002 38B5     		push	{r3, r4, r5, lr}
 4819 0004 14D0     		beq	.L1000
ARM GAS  C:\Users\Jay\AppData\Local\Temp\ccrCOBv6.s 			page 83


 4820 0006 0529     		cmp	r1, #5
 4821 0008 11D1     		bne	.L998
 4822 000a 1A4C     		ldr	r4, .L1008
 4823 000c 2368     		ldr	r3, [r4]
 4824 000e B3F5E07F 		cmp	r3, #448
 4825 0012 27D2     		bcs	.L1004
 4826 0014 0368     		ldr	r3, [r0]
 4827 0016 2268     		ldr	r2, [r4]
 4828 0018 1749     		ldr	r1, .L1008+4
 4829 001a 9B69     		ldr	r3, [r3, #24]
 4830 001c 1144     		add	r1, r1, r2
 4831 001e 0120     		movs	r0, #1
 4832 0020 4022     		movs	r2, #64
 4833 0022 9847     		blx	r3
 4834 0024 0028     		cmp	r0, #0
 4835 0026 02DD     		ble	.L998
 4836 0028 2368     		ldr	r3, [r4]
 4837 002a 1844     		add	r0, r0, r3
 4838 002c 2060     		str	r0, [r4]
 4839              	.L998:
 4840 002e 38BD     		pop	{r3, r4, r5, pc}
 4841              	.L1000:
 4842 0030 124C     		ldr	r4, .L1008+8
 4843 0032 134D     		ldr	r5, .L1008+12
 4844 0034 2368     		ldr	r3, [r4]
 4845 0036 3F2B     		cmp	r3, #63
 4846 0038 98BF     		it	ls
 4847 003a 2268     		ldrls	r2, [r4]
 4848 003c 0368     		ldr	r3, [r0]
 4849 003e 94BF     		ite	ls
 4850 0040 92B2     		uxthls	r2, r2
 4851 0042 4022     		movhi	r2, #64
 4852 0044 DB69     		ldr	r3, [r3, #28]
 4853 0046 2946     		mov	r1, r5
 4854 0048 8120     		movs	r0, #129
 4855 004a 9847     		blx	r3
 4856 004c 0028     		cmp	r0, #0
 4857 004e EEDD     		ble	.L998
 4858 0050 2368     		ldr	r3, [r4]
 4859 0052 1B1A     		subs	r3, r3, r0
 4860 0054 2360     		str	r3, [r4]
 4861 0056 2918     		adds	r1, r5, r0
 4862 0058 2268     		ldr	r2, [r4]
 4863 005a 2846     		mov	r0, r5
 4864 005c BDE83840 		pop	{r3, r4, r5, lr}
 4865 0060 FFF7FEBF 		b	memmove
 4866              	.L1004:
 4867 0064 4FF0A042 		mov	r2, #1342177280
 4868 0068 9368     		ldr	r3, [r2, #8]
 4869 006a 23F00103 		bic	r3, r3, #1
 4870 006e 9360     		str	r3, [r2, #8]
 4871 0070 38BD     		pop	{r3, r4, r5, pc}
 4872              	.L1009:
 4873 0072 00BF     		.align	2
 4874              	.L1008:
 4875 0074 00000000 		.word	.LANCHOR26
 4876 0078 00000000 		.word	.LANCHOR27
ARM GAS  C:\Users\Jay\AppData\Local\Temp\ccrCOBv6.s 			page 84


 4877 007c 00000000 		.word	.LANCHOR24
 4878 0080 00000000 		.word	.LANCHOR25
 4880              		.section	.text.chdir_last.part.66,"ax",%progbits
 4881              		.align	1
 4882              		.p2align 2,,3
 4883              		.syntax unified
 4884              		.thumb
 4885              		.thumb_func
 4886              		.fpu fpv4-sp-d16
 4888              	chdir_last.part.66:
 4889              		@ args = 0, pretend = 0, frame = 0
 4890              		@ frame_needed = 0, uses_anonymous_args = 0
 4891 0000 08B5     		push	{r3, lr}
 4892 0002 0948     		ldr	r0, .L1016
 4893 0004 FFF7FEFF 		bl	f_chdir
 4894 0008 084B     		ldr	r3, .L1016+4
 4895 000a 0028     		cmp	r0, #0
 4896 000c 4FF00052 		mov	r2, #536870912
 4897 0010 0CBF     		ite	eq
 4898 0012 0120     		moveq	r0, #1
 4899 0014 0020     		movne	r0, #0
 4900 0016 9A61     		str	r2, [r3, #24]
 4901 0018 05D0     		beq	.L1011
 4902 001a 054B     		ldr	r3, .L1016+8
 4903 001c 0022     		movs	r2, #0
 4904 001e 83F82020 		strb	r2, [r3, #32]
 4905 0022 83F80023 		strb	r2, [r3, #768]
 4906              	.L1011:
 4907 0026 08BD     		pop	{r3, pc}
 4908              	.L1017:
 4909              		.align	2
 4910              	.L1016:
 4911 0028 20000000 		.word	dat_file+32
 4912 002c 00080240 		.word	1073874944
 4913 0030 00000000 		.word	dat_file
 4915              		.section	.text.d64_dir_up,"ax",%progbits
 4916              		.align	1
 4917              		.p2align 2,,3
 4918              		.syntax unified
 4919              		.thumb
 4920              		.thumb_func
 4921              		.fpu fpv4-sp-d16
 4923              	d64_dir_up:
 4924              		@ args = 0, pretend = 0, frame = 0
 4925              		@ frame_needed = 0, uses_anonymous_args = 0
 4926 0000 0D4B     		ldr	r3, .L1022
 4927 0002 0E48     		ldr	r0, .L1022+4
 4928 0004 10B5     		push	{r4, lr}
 4929 0006 4FF0FF32 		mov	r2, #-1
 4930 000a 5A73     		strb	r2, [r3, #13]
 4931 000c 9A73     		strb	r2, [r3, #14]
 4932 000e 0C46     		mov	r4, r1
 4933 0010 FFF7FEFF 		bl	f_close
 4934 0014 0A4A     		ldr	r2, .L1022+8
 4935 0016 0B4B     		ldr	r3, .L1022+12
 4936 0018 0B48     		ldr	r0, .L1022+16
 4937 001a 4FF00051 		mov	r1, #536870912
ARM GAS  C:\Users\Jay\AppData\Local\Temp\ccrCOBv6.s 			page 85


 4938 001e 9161     		str	r1, [r2, #24]
 4939 0020 1860     		str	r0, [r3]
 4940 0022 1CB9     		cbnz	r4, .L1021
 4941 0024 0368     		ldr	r3, [r0]
 4942 0026 BDE81040 		pop	{r4, lr}
 4943 002a 1847     		bx	r3	@ indirect register sibling call
 4944              	.L1021:
 4945 002c 4368     		ldr	r3, [r0, #4]
 4946 002e 0121     		movs	r1, #1
 4947 0030 BDE81040 		pop	{r4, lr}
 4948 0034 1847     		bx	r3	@ indirect register sibling call
 4949              	.L1023:
 4950 0036 00BF     		.align	2
 4951              	.L1022:
 4952 0038 00000000 		.word	dat_file
 4953 003c 14000000 		.word	.LANCHOR28+20
 4954 0040 00080240 		.word	1073874944
 4955 0044 00000000 		.word	.LANCHOR14
 4956 0048 00000000 		.word	.LANCHOR29
 4958              		.section	.text.d64_read_file_sector,"ax",%progbits
 4959              		.align	1
 4960              		.p2align 2,,3
 4961              		.syntax unified
 4962              		.thumb
 4963              		.thumb_func
 4964              		.fpu fpv4-sp-d16
 4966              	d64_read_file_sector:
 4967              		@ args = 0, pretend = 0, frame = 0
 4968              		@ frame_needed = 0, uses_anonymous_args = 0
 4969 0000 0A78     		ldrb	r2, [r1]	@ zero_extendqisi2
 4970 0002 0AB9     		cbnz	r2, .L1025
 4971 0004 0020     		movs	r0, #0
 4972 0006 7047     		bx	lr
 4973              	.L1025:
 4974 0008 10B5     		push	{r4, lr}
 4975 000a 0C46     		mov	r4, r1
 4976 000c FFF7FEFF 		bl	d64_read_next_sector
 4977 0010 30B1     		cbz	r0, .L1027
 4978 0012 2378     		ldrb	r3, [r4]	@ zero_extendqisi2
 4979 0014 33B9     		cbnz	r3, .L1028
 4980 0016 6078     		ldrb	r0, [r4, #1]	@ zero_extendqisi2
 4981 0018 10B1     		cbz	r0, .L1027
 4982 001a 0138     		subs	r0, r0, #1
 4983 001c C0B2     		uxtb	r0, r0
 4984 001e 10BD     		pop	{r4, pc}
 4985              	.L1027:
 4986 0020 0020     		movs	r0, #0
 4987 0022 10BD     		pop	{r4, pc}
 4988              	.L1028:
 4989 0024 FE20     		movs	r0, #254
 4990 0026 10BD     		pop	{r4, pc}
 4992              		.section	.text.d64_read_disk_header,"ax",%progbits
 4993              		.align	1
 4994              		.p2align 2,,3
 4995              		.syntax unified
 4996              		.thumb
 4997              		.thumb_func
ARM GAS  C:\Users\Jay\AppData\Local\Temp\ccrCOBv6.s 			page 86


 4998              		.fpu fpv4-sp-d16
 5000              	d64_read_disk_header:
 5001              		@ args = 0, pretend = 0, frame = 0
 5002              		@ frame_needed = 0, uses_anonymous_args = 0
 5003 0000 10B5     		push	{r4, lr}
 5004 0002 90F82832 		ldrb	r3, [r0, #552]	@ zero_extendqisi2
 5005 0006 032B     		cmp	r3, #3
 5006 0008 0CBF     		ite	eq
 5007 000a 2822     		moveq	r2, #40
 5008 000c 1222     		movne	r2, #18
 5009 000e 0023     		movs	r3, #0
 5010 0010 80F82A22 		strb	r2, [r0, #554]
 5011 0014 80F82B32 		strb	r3, [r0, #555]
 5012 0018 00F22A21 		addw	r1, r0, #554
 5013 001c 0446     		mov	r4, r0
 5014 001e FFF7FEFF 		bl	d64_read_next_sector
 5015 0022 E0B1     		cbz	r0, .L1041
 5016 0024 94F82832 		ldrb	r3, [r4, #552]	@ zero_extendqisi2
 5017 0028 032B     		cmp	r3, #3
 5018 002a 0CBF     		ite	eq
 5019 002c 04F22E23 		addweq	r3, r4, #558
 5020 0030 04F2BA23 		addwne	r3, r4, #698
 5021 0034 0022     		movs	r2, #0
 5022 0036 C4F82C33 		str	r3, [r4, #812]
 5023 003a DA75     		strb	r2, [r3, #23]
 5024 003c 94F82832 		ldrb	r3, [r4, #552]	@ zero_extendqisi2
 5025 0040 032B     		cmp	r3, #3
 5026 0042 0DD0     		beq	.L1050
 5027 0044 1222     		movs	r2, #18
 5028 0046 0123     		movs	r3, #1
 5029 0048 84F82A22 		strb	r2, [r4, #554]
 5030 004c 84F82B32 		strb	r3, [r4, #555]
 5031              	.L1045:
 5032 0050 0022     		movs	r2, #0
 5033 0052 04F22A33 		addw	r3, r4, #810
 5034 0056 84F82922 		strb	r2, [r4, #553]
 5035 005a C4F83033 		str	r3, [r4, #816]
 5036              	.L1041:
 5037 005e 10BD     		pop	{r4, pc}
 5038              	.L1050:
 5039 0060 2822     		movs	r2, #40
 5040 0062 84F82B32 		strb	r3, [r4, #555]
 5041 0066 84F82A22 		strb	r2, [r4, #554]
 5042 006a F1E7     		b	.L1045
 5044              		.section	.text.disk_find_file.constprop.81,"ax",%progbits
 5045              		.align	1
 5046              		.p2align 2,,3
 5047              		.syntax unified
 5048              		.thumb
 5049              		.thumb_func
 5050              		.fpu fpv4-sp-d16
 5052              	disk_find_file.constprop.81:
 5053              		@ args = 0, pretend = 0, frame = 0
 5054              		@ frame_needed = 0, uses_anonymous_args = 0
 5055 0000 F8B5     		push	{r3, r4, r5, r6, r7, lr}
 5056 0002 144C     		ldr	r4, .L1063
 5057 0004 144E     		ldr	r6, .L1063+4
ARM GAS  C:\Users\Jay\AppData\Local\Temp\ccrCOBv6.s 			page 87


 5058 0006 94F83C32 		ldrb	r3, [r4, #572]	@ zero_extendqisi2
 5059 000a C4F84463 		str	r6, [r4, #836]
 5060 000e 032B     		cmp	r3, #3
 5061 0010 0CBF     		ite	eq
 5062 0012 4FF44A73 		moveq	r3, #808
 5063 0016 4FF48973 		movne	r3, #274
 5064 001a A4F83E32 		strh	r3, [r4, #574]	@ movhi
 5065 001e 0023     		movs	r3, #0
 5066 0020 0746     		mov	r7, r0
 5067 0022 0D46     		mov	r5, r1
 5068 0024 A6F22A36 		subw	r6, r6, #810
 5069 0028 84F83D32 		strb	r3, [r4, #573]
 5070              	.L1060:
 5071 002c 3046     		mov	r0, r6
 5072 002e FFF7FEFF 		bl	d64_read_dir
 5073 0032 3946     		mov	r1, r7
 5074 0034 60B1     		cbz	r0, .L1056
 5075 0036 D4F84433 		ldr	r3, [r4, #836]
 5076 003a 1846     		mov	r0, r3
 5077 003c 25B1     		cbz	r5, .L1055
 5078 003e 9B78     		ldrb	r3, [r3, #2]	@ zero_extendqisi2
 5079 0040 03F00703 		and	r3, r3, #7
 5080 0044 9D42     		cmp	r5, r3
 5081 0046 F1D1     		bne	.L1060
 5082              	.L1055:
 5083 0048 FFF7FEFF 		bl	disk_filename_match
 5084 004c 0028     		cmp	r0, #0
 5085 004e EDD0     		beq	.L1060
 5086              	.L1056:
 5087 0050 F8BD     		pop	{r3, r4, r5, r6, r7, pc}
 5088              	.L1064:
 5089 0052 00BF     		.align	2
 5090              	.L1063:
 5091 0054 00000000 		.word	.LANCHOR28
 5092 0058 3E030000 		.word	.LANCHOR28+830
 5094              		.section	.text.format_path.constprop.88,"ax",%progbits
 5095              		.align	1
 5096              		.p2align 2,,3
 5097              		.syntax unified
 5098              		.thumb
 5099              		.thumb_func
 5100              		.fpu fpv4-sp-d16
 5102              	format_path.constprop.88:
 5103              		@ args = 0, pretend = 0, frame = 0
 5104              		@ frame_needed = 0, uses_anonymous_args = 0
 5105 0000 F8B5     		push	{r3, r4, r5, r6, r7, lr}
 5106 0002 374F     		ldr	r7, .L1090
 5107 0004 374D     		ldr	r5, .L1090+4
 5108 0006 3A46     		mov	r2, r7
 5109 0008 0023     		movs	r3, #0
 5110 000a 04E0     		b	.L1066
 5111              	.L1068:
 5112 000c B3F5387F 		cmp	r3, #736
 5113 0010 02F8011B 		strb	r1, [r2], #1
 5114 0014 56D0     		beq	.L1067
 5115              	.L1066:
 5116 0016 15F8011F 		ldrb	r1, [r5, #1]!	@ zero_extendqisi2
ARM GAS  C:\Users\Jay\AppData\Local\Temp\ccrCOBv6.s 			page 88


 5117 001a 9CB2     		uxth	r4, r3
 5118 001c 1646     		mov	r6, r2
 5119 001e 0133     		adds	r3, r3, #1
 5120 0020 0029     		cmp	r1, #0
 5121 0022 F3D1     		bne	.L1068
 5122 0024 98B1     		cbz	r0, .L1069
 5123 0026 012C     		cmp	r4, #1
 5124 0028 46D9     		bls	.L1070
 5125 002a 0134     		adds	r4, r4, #1
 5126 002c A4B2     		uxth	r4, r4
 5127 002e 2146     		mov	r1, r4
 5128              	.L1077:
 5129 0030 2D4B     		ldr	r3, .L1090+8
 5130 0032 93F80033 		ldrb	r3, [r3, #768]	@ zero_extendqisi2
 5131 0036 2F22     		movs	r2, #47
 5132 0038 3270     		strb	r2, [r6]
 5133 003a A3B1     		cbz	r3, .L1071
 5134              	.L1073:
 5135 003c 2B4A     		ldr	r2, .L1090+12
 5136              	.L1072:
 5137 003e 3B55     		strb	r3, [r7, r4]
 5138 0040 12F8013F 		ldrb	r3, [r2, #1]!	@ zero_extendqisi2
 5139 0044 0134     		adds	r4, r4, #1
 5140 0046 A4B2     		uxth	r4, r4
 5141 0048 002B     		cmp	r3, #0
 5142 004a F8D1     		bne	.L1072
 5143 004c 3E19     		adds	r6, r7, r4
 5144              	.L1069:
 5145 004e 0023     		movs	r3, #0
 5146 0050 3370     		strb	r3, [r6]
 5147 0052 4CB9     		cbnz	r4, .L1074
 5148 0054 2E23     		movs	r3, #46
 5149 0056 3B80     		strh	r3, [r7]	@ movhi
 5150 0058 2149     		ldr	r1, .L1090
 5151 005a 2148     		ldr	r0, .L1090
 5152 005c 2222     		movs	r2, #34
 5153 005e FFF7FEFF 		bl	to_petscii_pad
 5154 0062 2046     		mov	r0, r4
 5155 0064 F8BD     		pop	{r3, r4, r5, r6, r7, pc}
 5156              	.L1071:
 5157 0066 7B54     		strb	r3, [r7, r1]
 5158              	.L1074:
 5159 0068 222C     		cmp	r4, #34
 5160 006a 16D8     		bhi	.L1088
 5161 006c 012C     		cmp	r4, #1
 5162 006e 07D0     		beq	.L1089
 5163 0070 1B49     		ldr	r1, .L1090
 5164 0072 1B48     		ldr	r0, .L1090
 5165 0074 0024     		movs	r4, #0
 5166 0076 2222     		movs	r2, #34
 5167 0078 FFF7FEFF 		bl	to_petscii_pad
 5168 007c 2046     		mov	r0, r4
 5169 007e F8BD     		pop	{r3, r4, r5, r6, r7, pc}
 5170              	.L1089:
 5171 0080 3C78     		ldrb	r4, [r7]	@ zero_extendqisi2
 5172 0082 1749     		ldr	r1, .L1090
 5173 0084 1648     		ldr	r0, .L1090
ARM GAS  C:\Users\Jay\AppData\Local\Temp\ccrCOBv6.s 			page 89


 5174 0086 A4F12F04 		sub	r4, #47
 5175 008a B4FA84F4 		clz	r4, r4
 5176 008e 6409     		lsrs	r4, r4, #5
 5177 0090 2222     		movs	r2, #34
 5178 0092 FFF7FEFF 		bl	to_petscii_pad
 5179 0096 2046     		mov	r0, r4
 5180 0098 F8BD     		pop	{r3, r4, r5, r6, r7, pc}
 5181              	.L1088:
 5182 009a A4F12201 		sub	r1, r4, #34
 5183 009e 89B2     		uxth	r1, r1
 5184 00a0 4A1C     		adds	r2, r1, #1
 5185              	.L1078:
 5186 00a2 2E23     		movs	r3, #46
 5187 00a4 7B54     		strb	r3, [r7, r1]
 5188 00a6 0024     		movs	r4, #0
 5189 00a8 BB54     		strb	r3, [r7, r2]
 5190 00aa 3944     		add	r1, r1, r7
 5191 00ac 2222     		movs	r2, #34
 5192 00ae 0C48     		ldr	r0, .L1090
 5193 00b0 FFF7FEFF 		bl	to_petscii_pad
 5194 00b4 2046     		mov	r0, r4
 5195 00b6 F8BD     		pop	{r3, r4, r5, r6, r7, pc}
 5196              	.L1070:
 5197 00b8 0B4B     		ldr	r3, .L1090+8
 5198 00ba 93F80033 		ldrb	r3, [r3, #768]	@ zero_extendqisi2
 5199 00be 002B     		cmp	r3, #0
 5200 00c0 BCD1     		bne	.L1073
 5201 00c2 C4E7     		b	.L1069
 5202              	.L1067:
 5203 00c4 30B9     		cbnz	r0, .L1080
 5204 00c6 87F8E002 		strb	r0, [r7, #736]
 5205 00ca 40F2BF22 		movw	r2, #703
 5206 00ce 40F2BE21 		movw	r1, #702
 5207 00d2 E6E7     		b	.L1078
 5208              	.L1080:
 5209 00d4 40F2E121 		movw	r1, #737
 5210 00d8 054E     		ldr	r6, .L1090+16
 5211 00da 0C46     		mov	r4, r1
 5212 00dc A8E7     		b	.L1077
 5213              	.L1091:
 5214 00de 00BF     		.align	2
 5215              	.L1090:
 5216 00e0 00000100 		.word	scratch_buf
 5217 00e4 1F000000 		.word	dat_file+31
 5218 00e8 00000000 		.word	dat_file
 5219 00ec 00030000 		.word	dat_file+768
 5220 00f0 E0020100 		.word	scratch_buf+736
 5222              		.section	.text.d64_open.constprop.89,"ax",%progbits
 5223              		.align	1
 5224              		.p2align 2,,3
 5225              		.syntax unified
 5226              		.thumb
 5227              		.thumb_func
 5228              		.fpu fpv4-sp-d16
 5230              	d64_open.constprop.89:
 5231              		@ args = 0, pretend = 0, frame = 0
 5232              		@ frame_needed = 0, uses_anonymous_args = 0
ARM GAS  C:\Users\Jay\AppData\Local\Temp\ccrCOBv6.s 			page 90


 5233 0000 38B5     		push	{r3, r4, r5, lr}
 5234 0002 174C     		ldr	r4, .L1103
 5235 0004 0146     		mov	r1, r0
 5236 0006 0122     		movs	r2, #1
 5237 0008 04F11400 		add	r0, r4, #20
 5238 000c FFF7FEFF 		bl	f_open
 5239 0010 28B1     		cbz	r0, .L1093
 5240 0012 144B     		ldr	r3, .L1103+4
 5241 0014 4FF00052 		mov	r2, #536870912
 5242 0018 9A61     		str	r2, [r3, #24]
 5243 001a 0020     		movs	r0, #0
 5244 001c 38BD     		pop	{r3, r4, r5, pc}
 5245              	.L1093:
 5246 001e 206A     		ldr	r0, [r4, #32]
 5247 0020 FFF7FEFF 		bl	d64_image_type
 5248 0024 0546     		mov	r5, r0
 5249 0026 84F83C02 		strb	r0, [r4, #572]
 5250 002a 78B1     		cbz	r0, .L1102
 5251 002c 032D     		cmp	r5, #3
 5252 002e 0CBF     		ite	eq
 5253 0030 4FF44A73 		moveq	r3, #808
 5254 0034 4FF48973 		movne	r3, #274
 5255 0038 A4F83E32 		strh	r3, [r4, #574]	@ movhi
 5256 003c 0022     		movs	r2, #0
 5257 003e 0A4B     		ldr	r3, .L1103+8
 5258 0040 84F83D22 		strb	r2, [r4, #573]
 5259 0044 C4F84433 		str	r3, [r4, #836]
 5260 0048 0120     		movs	r0, #1
 5261 004a 38BD     		pop	{r3, r4, r5, pc}
 5262              	.L1102:
 5263 004c 04F11400 		add	r0, r4, #20
 5264 0050 FFF7FEFF 		bl	f_close
 5265 0054 034B     		ldr	r3, .L1103+4
 5266 0056 4FF00052 		mov	r2, #536870912
 5267 005a 2846     		mov	r0, r5
 5268 005c 9A61     		str	r2, [r3, #24]
 5269 005e 38BD     		pop	{r3, r4, r5, pc}
 5270              	.L1104:
 5271              		.align	2
 5272              	.L1103:
 5273 0060 00000000 		.word	.LANCHOR28
 5274 0064 00080240 		.word	1073874944
 5275 0068 3E030000 		.word	.LANCHOR28+830
 5277              		.section	.text.printhex.constprop.94,"ax",%progbits
 5278              		.align	1
 5279              		.p2align 2,,3
 5280              		.syntax unified
 5281              		.thumb
 5282              		.thumb_func
 5283              		.fpu fpv4-sp-d16
 5285              	printhex.constprop.94:
 5286              		@ args = 0, pretend = 0, frame = 8
 5287              		@ frame_needed = 0, uses_anonymous_args = 0
 5288 0000 2DE9F043 		push	{r4, r5, r6, r7, r8, r9, lr}
 5289 0004 01EBD178 		add	r8, r1, r1, lsr #31
 5290 0008 83B0     		sub	sp, sp, #12
 5291 000a 4FEA6808 		asr	r8, r8, #1
ARM GAS  C:\Users\Jay\AppData\Local\Temp\ccrCOBv6.s 			page 91


 5292 000e 0022     		movs	r2, #0
 5293 0010 124F     		ldr	r7, .L1123
 5294 0012 0190     		str	r0, [sp, #4]
 5295 0014 8946     		mov	r9, r1
 5296 0016 C8F10408 		rsb	r8, r8, #4
 5297 001a 1546     		mov	r5, r2
 5298 001c 0DF10706 		add	r6, sp, #7
 5299              	.L1109:
 5300 0020 16F80149 		ldrb	r4, [r6], #-1	@ zero_extendqisi2
 5301 0024 2309     		lsrs	r3, r4, #4
 5302 0026 74B1     		cbz	r4, .L1121
 5303              	.L1106:
 5304 0028 04F00F04 		and	r4, r4, #15
 5305 002c F85C     		ldrb	r0, [r7, r3]	@ zero_extendqisi2
 5306 002e FFF7FEFF 		bl	buf_putchar
 5307 0032 385D     		ldrb	r0, [r7, r4]	@ zero_extendqisi2
 5308 0034 FFF7FEFF 		bl	buf_putchar
 5309 0038 0122     		movs	r2, #1
 5310              	.L1108:
 5311 003a 0135     		adds	r5, r5, #1
 5312 003c 042D     		cmp	r5, #4
 5313 003e EFD1     		bne	.L1109
 5314 0040 03B0     		add	sp, sp, #12
 5315              		@ sp needed
 5316 0042 BDE8F083 		pop	{r4, r5, r6, r7, r8, r9, pc}
 5317              	.L1121:
 5318 0046 B9F1000F 		cmp	r9, #0
 5319 004a 04D1     		bne	.L1122
 5320              	.L1107:
 5321 004c 032D     		cmp	r5, #3
 5322 004e EBD0     		beq	.L1106
 5323 0050 002A     		cmp	r2, #0
 5324 0052 F2D0     		beq	.L1108
 5325 0054 E8E7     		b	.L1106
 5326              	.L1122:
 5327 0056 A845     		cmp	r8, r5
 5328 0058 E6D9     		bls	.L1106
 5329 005a F7E7     		b	.L1107
 5330              	.L1124:
 5331              		.align	2
 5332              	.L1123:
 5333 005c 00000000 		.word	.LANCHOR30
 5335              		.section	.text.sdio_check_tran.constprop.96,"ax",%progbits
 5336              		.align	1
 5337              		.p2align 2,,3
 5338              		.syntax unified
 5339              		.thumb
 5340              		.thumb_func
 5341              		.fpu fpv4-sp-d16
 5343              	sdio_check_tran.constprop.96:
 5344              		@ args = 0, pretend = 0, frame = 8
 5345              		@ frame_needed = 0, uses_anonymous_args = 0
 5346 0000 30B5     		push	{r4, r5, lr}
 5347 0002 104C     		ldr	r4, .L1137
 5348 0004 104B     		ldr	r3, .L1137+4
 5349 0006 6360     		str	r3, [r4, #4]
 5350 0008 104D     		ldr	r5, .L1137+8
ARM GAS  C:\Users\Jay\AppData\Local\Temp\ccrCOBv6.s 			page 92


 5351 000a 0023     		movs	r3, #0
 5352 000c 83B0     		sub	sp, sp, #12
 5353 000e A360     		str	r3, [r4, #8]
 5354              	.L1132:
 5355 0010 2168     		ldr	r1, [r4]
 5356 0012 C903     		lsls	r1, r1, #15
 5357 0014 01AB     		add	r3, sp, #4
 5358 0016 4FF00102 		mov	r2, #1
 5359 001a 4FF00D00 		mov	r0, #13
 5360 001e 0DD4     		bmi	.L1136
 5361 0020 2988     		ldrh	r1, [r5]
 5362 0022 0904     		lsls	r1, r1, #16
 5363 0024 FFF7FEFF 		bl	sdio_cmd_send
 5364 0028 0028     		cmp	r0, #0
 5365 002a F1D0     		beq	.L1132
 5366 002c 019B     		ldr	r3, [sp, #4]
 5367 002e 03F4F053 		and	r3, r3, #7680
 5368 0032 B3F5006F 		cmp	r3, #2048
 5369 0036 EBD1     		bne	.L1132
 5370 0038 03B0     		add	sp, sp, #12
 5371              		@ sp needed
 5372 003a 30BD     		pop	{r4, r5, pc}
 5373              	.L1136:
 5374 003c 0020     		movs	r0, #0
 5375 003e 03B0     		add	sp, sp, #12
 5376              		@ sp needed
 5377 0040 30BD     		pop	{r4, r5, pc}
 5378              	.L1138:
 5379 0042 00BF     		.align	2
 5380              	.L1137:
 5381 0044 10E000E0 		.word	-536813552
 5382 0048 A037A000 		.word	10500000
 5383 004c 00000000 		.word	.LANCHOR0
 5385              		.section	.text.magic_desk_init,"ax",%progbits
 5386              		.align	1
 5387              		.p2align 2,,3
 5388              		.syntax unified
 5389              		.thumb
 5390              		.thumb_func
 5391              		.fpu fpv4-sp-d16
 5393              	magic_desk_init:
 5394              		@ args = 0, pretend = 0, frame = 0
 5395              		@ frame_needed = 0, uses_anonymous_args = 0
 5396              		@ link register save eliminated.
 5397 0000 014B     		ldr	r3, .L1140
 5398 0002 024A     		ldr	r2, .L1140+4
 5399 0004 9A61     		str	r2, [r3, #24]
 5400 0006 7047     		bx	lr
 5401              	.L1141:
 5402              		.align	2
 5403              	.L1140:
 5404 0008 00080240 		.word	1073874944
 5405 000c 004000A0 		.word	-1610596352
 5407              		.section	.text.c64_send_text,"ax",%progbits
 5408              		.align	1
 5409              		.p2align 2,,3
 5410              		.syntax unified
ARM GAS  C:\Users\Jay\AppData\Local\Temp\ccrCOBv6.s 			page 93


 5411              		.thumb
 5412              		.thumb_func
 5413              		.fpu fpv4-sp-d16
 5415              	c64_send_text:
 5416              		@ args = 0, pretend = 0, frame = 0
 5417              		@ frame_needed = 0, uses_anonymous_args = 0
 5418 0000 2DE9F843 		push	{r3, r4, r5, r6, r7, r8, r9, lr}
 5419 0004 364F     		ldr	r7, .L1173
 5420 0006 01F54879 		add	r9, r1, #800
 5421 000a 0A46     		mov	r2, r1
 5422 000c 3E46     		mov	r6, r7
 5423 000e 05E0     		b	.L1147
 5424              	.L1171:
 5425 0010 5FFA8EF3 		uxtb	r3, lr
 5426              	.L1145:
 5427 0014 9145     		cmp	r9, r2
 5428 0016 06F8013B 		strb	r3, [r6], #1
 5429 001a 1AD0     		beq	.L1170
 5430              	.L1147:
 5431 001c 551A     		subs	r5, r2, r1
 5432 001e 12F8013B 		ldrb	r3, [r2], #1	@ zero_extendqisi2
 5433 0022 A3F16104 		sub	r4, r3, #97
 5434 0026 A3F1410C 		sub	ip, r3, #65
 5435 002a E4B2     		uxtb	r4, r4
 5436 002c 03F1200E 		add	lr, r3, #32
 5437 0030 ADB2     		uxth	r5, r5
 5438 0032 B046     		mov	r8, r6
 5439 0034 A3B1     		cbz	r3, .L1143
 5440 0036 BCF1190F 		cmp	ip, #25
 5441 003a E9D9     		bls	.L1171
 5442 003c 192C     		cmp	r4, #25
 5443 003e A3F12004 		sub	r4, r3, #32
 5444 0042 0BD9     		bls	.L1172
 5445 0044 5F2B     		cmp	r3, #95
 5446 0046 08BF     		it	eq
 5447 0048 A423     		moveq	r3, #164
 5448 004a 9145     		cmp	r9, r2
 5449 004c 06F8013B 		strb	r3, [r6], #1
 5450 0050 E4D1     		bne	.L1147
 5451              	.L1170:
 5452 0052 40F22135 		movw	r5, #801
 5453 0056 DFF89C80 		ldr	r8, .L1173+20
 5454 005a 03E0     		b	.L1148
 5455              	.L1172:
 5456 005c E3B2     		uxtb	r3, r4
 5457 005e D9E7     		b	.L1145
 5458              	.L1143:
 5459 0060 0135     		adds	r5, r5, #1
 5460 0062 ADB2     		uxth	r5, r5
 5461              	.L1148:
 5462 0064 0023     		movs	r3, #0
 5463 0066 1F49     		ldr	r1, .L1173+4
 5464 0068 88F80030 		strb	r3, [r8]
 5465 006c FFF7FEFF 		bl	c64_send_command
 5466 0070 0028     		cmp	r0, #0
 5467 0072 32D0     		beq	.L1149
 5468 0074 1C4A     		ldr	r2, .L1173+8
ARM GAS  C:\Users\Jay\AppData\Local\Temp\ccrCOBv6.s 			page 94


 5469 0076 E9B2     		uxtb	r1, r5
 5470              	.L1150:
 5471 0078 1378     		ldrb	r3, [r2]	@ zero_extendqisi2
 5472 007a 002B     		cmp	r3, #0
 5473 007c FCD1     		bne	.L1150
 5474 007e DFF878C0 		ldr	ip, .L1173+24
 5475 0082 8023     		movs	r3, #128
 5476 0084 8CF80010 		strb	r1, [ip]
 5477 0088 1370     		strb	r3, [r2]
 5478 008a C5F30721 		ubfx	r1, r5, #8, #8
 5479              	.L1151:
 5480 008e 1378     		ldrb	r3, [r2]	@ zero_extendqisi2
 5481 0090 002B     		cmp	r3, #0
 5482 0092 FCD1     		bne	.L1151
 5483 0094 8CF80010 		strb	r1, [ip]
 5484 0098 8026     		movs	r6, #128
 5485 009a 1149     		ldr	r1, .L1173
 5486 009c 1670     		strb	r6, [r2]
 5487 009e 3D44     		add	r5, r5, r7
 5488              	.L1153:
 5489 00a0 11F8014B 		ldrb	r4, [r1], #1	@ zero_extendqisi2
 5490              	.L1152:
 5491 00a4 1378     		ldrb	r3, [r2]	@ zero_extendqisi2
 5492 00a6 002B     		cmp	r3, #0
 5493 00a8 FCD1     		bne	.L1152
 5494 00aa A942     		cmp	r1, r5
 5495 00ac 8CF80040 		strb	r4, [ip]
 5496 00b0 1670     		strb	r6, [r2]
 5497 00b2 F5D1     		bne	.L1153
 5498 00b4 0D4B     		ldr	r3, .L1173+12
 5499              	.L1154:
 5500 00b6 1A78     		ldrb	r2, [r3]	@ zero_extendqisi2
 5501 00b8 002A     		cmp	r2, #0
 5502 00ba FCD1     		bne	.L1154
 5503 00bc 0C4C     		ldr	r4, .L1173+16
 5504 00be 2178     		ldrb	r1, [r4]	@ zero_extendqisi2
 5505 00c0 C9B2     		uxtb	r1, r1
 5506 00c2 4022     		movs	r2, #64
 5507 00c4 1A70     		strb	r2, [r3]
 5508              	.L1155:
 5509 00c6 1A78     		ldrb	r2, [r3]	@ zero_extendqisi2
 5510 00c8 002A     		cmp	r2, #0
 5511 00ca FCD1     		bne	.L1155
 5512 00cc 2278     		ldrb	r2, [r4]	@ zero_extendqisi2
 5513 00ce D2B2     		uxtb	r2, r2
 5514 00d0 4024     		movs	r4, #64
 5515 00d2 1C70     		strb	r4, [r3]
 5516 00d4 01B9     		cbnz	r1, .L1157
 5517 00d6 02B1     		cbz	r2, .L1149
 5518              	.L1157:
 5519 00d8 0020     		movs	r0, #0
 5520              	.L1149:
 5521 00da BDE8F883 		pop	{r3, r4, r5, r6, r7, r8, r9, pc}
 5522              	.L1174:
 5523 00de 00BF     		.align	2
 5524              	.L1173:
 5525 00e0 00000100 		.word	scratch_buf
ARM GAS  C:\Users\Jay\AppData\Local\Temp\ccrCOBv6.s 			page 95


 5526 00e4 00000000 		.word	.LC19
 5527 00e8 00000000 		.word	.LANCHOR10
 5528 00ec 00000000 		.word	.LANCHOR12
 5529 00f0 00000000 		.word	.LANCHOR13
 5530 00f4 20030100 		.word	scratch_buf+800
 5531 00f8 00000000 		.word	.LANCHOR11
 5533              		.section	.text.handle_failed_to_read_sd,"ax",%progbits
 5534              		.align	1
 5535              		.p2align 2,,3
 5536              		.syntax unified
 5537              		.thumb
 5538              		.thumb_func
 5539              		.fpu fpv4-sp-d16
 5541              	handle_failed_to_read_sd:
 5542              		@ Volatile: function does not return.
 5543              		@ args = 0, pretend = 0, frame = 0
 5544              		@ frame_needed = 0, uses_anonymous_args = 0
 5545 0000 08B5     		push	{r3, lr}
 5546 0002 FFF7FEFF 		bl	c64_send_exit_menu
 5547 0006 0349     		ldr	r1, .L1177
 5548 0008 0348     		ldr	r0, .L1177+4
 5549 000a FFF7FEFF 		bl	c64_send_text
 5550 000e FFF7FEFF 		bl	restart_to_menu
 5551              	.L1178:
 5552 0012 00BF     		.align	2
 5553              	.L1177:
 5554 0014 00000000 		.word	.LC20
 5555 0018 18000000 		.word	.LC21
 5557              		.section	.text.handle_file_open,"ax",%progbits
 5558              		.align	1
 5559              		.p2align 2,,3
 5560              		.syntax unified
 5561              		.thumb
 5562              		.thumb_func
 5563              		.fpu fpv4-sp-d16
 5565              	handle_file_open:
 5566              		@ args = 0, pretend = 0, frame = 0
 5567              		@ frame_needed = 0, uses_anonymous_args = 0
 5568 0000 08B5     		push	{r3, lr}
 5569 0002 0122     		movs	r2, #1
 5570 0004 FFF7FEFF 		bl	f_open
 5571 0008 28B1     		cbz	r0, .L1179
 5572 000a 034B     		ldr	r3, .L1182
 5573 000c 4FF00052 		mov	r2, #536870912
 5574 0010 9A61     		str	r2, [r3, #24]
 5575 0012 FFF7FEFF 		bl	handle_failed_to_read_sd
 5576              	.L1179:
 5577 0016 08BD     		pop	{r3, pc}
 5578              	.L1183:
 5579              		.align	2
 5580              	.L1182:
 5581 0018 00080240 		.word	1073874944
 5583              		.section	.text.d64_menu_init,"ax",%progbits
 5584              		.align	1
 5585              		.p2align 2,,3
 5586              		.syntax unified
 5587              		.thumb
ARM GAS  C:\Users\Jay\AppData\Local\Temp\ccrCOBv6.s 			page 96


 5588              		.thumb_func
 5589              		.fpu fpv4-sp-d16
 5591              	d64_menu_init:
 5592              		@ args = 0, pretend = 0, frame = 0
 5593              		@ frame_needed = 0, uses_anonymous_args = 0
 5594 0000 38B5     		push	{r3, r4, r5, lr}
 5595 0002 0A4B     		ldr	r3, .L1190
 5596 0004 1A68     		ldr	r2, [r3]
 5597 0006 22B1     		cbz	r2, .L1188
 5598              	.L1185:
 5599 0008 FFF7FEFF 		bl	d64_open.constprop.89
 5600 000c 60B1     		cbz	r0, .L1189
 5601 000e 0748     		ldr	r0, .L1190
 5602 0010 38BD     		pop	{r3, r4, r5, pc}
 5603              	.L1188:
 5604 0012 074A     		ldr	r2, .L1190+4
 5605 0014 074D     		ldr	r5, .L1190+8
 5606 0016 084C     		ldr	r4, .L1190+12
 5607 0018 0849     		ldr	r1, .L1190+16
 5608 001a 1A60     		str	r2, [r3]
 5609 001c 084A     		ldr	r2, .L1190+20
 5610 001e C3E90154 		strd	r5, r4, [r3, #4]
 5611 0022 C3E90312 		strd	r1, r2, [r3, #12]
 5612 0026 EFE7     		b	.L1185
 5613              	.L1189:
 5614 0028 FFF7FEFF 		bl	handle_failed_to_read_sd
 5615              	.L1191:
 5616              		.align	2
 5617              	.L1190:
 5618 002c 00000000 		.word	.LANCHOR28
 5619 0030 00000000 		.word	d64_dir
 5620 0034 00000000 		.word	d64_dir_up
 5621 0038 00000000 		.word	d64_prev_page
 5622 003c 00000000 		.word	d64_next_page
 5623 0040 00000000 		.word	d64_select
 5625              		.section	.text.d64_skip_to_page,"ax",%progbits
 5626              		.align	1
 5627              		.p2align 2,,3
 5628              		.syntax unified
 5629              		.thumb
 5630              		.thumb_func
 5631              		.fpu fpv4-sp-d16
 5633              	d64_skip_to_page:
 5634              		@ args = 0, pretend = 0, frame = 0
 5635              		@ frame_needed = 0, uses_anonymous_args = 0
 5636 0000 2DE9F041 		push	{r4, r5, r6, r7, r8, lr}
 5637 0004 01EB8106 		add	r6, r1, r1, lsl #2
 5638 0008 01EB4606 		add	r6, r1, r6, lsl #1
 5639 000c 7600     		lsls	r6, r6, #1
 5640 000e 022E     		cmp	r6, #2
 5641 0010 80F84813 		strb	r1, [r0, #840]
 5642 0014 17D9     		bls	.L1197
 5643 0016 8046     		mov	r8, r0
 5644 0018 00F11407 		add	r7, r0, #20
 5645 001c 0224     		movs	r4, #2
 5646 001e 03E0     		b	.L1196
 5647              	.L1204:
ARM GAS  C:\Users\Jay\AppData\Local\Temp\ccrCOBv6.s 			page 97


 5648 0020 0134     		adds	r4, r4, #1
 5649 0022 A4B2     		uxth	r4, r4
 5650 0024 A642     		cmp	r6, r4
 5651 0026 0ED0     		beq	.L1197
 5652              	.L1196:
 5653 0028 3846     		mov	r0, r7
 5654 002a FFF7FEFF 		bl	d64_read_dir
 5655 002e 0546     		mov	r5, r0
 5656 0030 0028     		cmp	r0, #0
 5657 0032 F5D1     		bne	.L1204
 5658 0034 3846     		mov	r0, r7
 5659 0036 FFF7FEFF 		bl	d64_read_disk_header
 5660 003a 40B1     		cbz	r0, .L1205
 5661 003c 88F84853 		strb	r5, [r8, #840]
 5662 0040 2846     		mov	r0, r5
 5663 0042 BDE8F081 		pop	{r4, r5, r6, r7, r8, pc}
 5664              	.L1197:
 5665 0046 0125     		movs	r5, #1
 5666 0048 2846     		mov	r0, r5
 5667 004a BDE8F081 		pop	{r4, r5, r6, r7, r8, pc}
 5668              	.L1205:
 5669 004e FFF7FEFF 		bl	handle_failed_to_read_sd
 5671 0052 00BF     		.section	.text.handle_dir_open,"ax",%progbits
 5672              		.align	1
 5673              		.p2align 2,,3
 5674              		.syntax unified
 5675              		.thumb
 5676              		.thumb_func
 5677              		.fpu fpv4-sp-d16
 5679              	handle_dir_open:
 5680              		@ args = 0, pretend = 0, frame = 0
 5681              		@ frame_needed = 0, uses_anonymous_args = 0
 5682 0000 F8B5     		push	{r3, r4, r5, r6, r7, lr}
 5683 0002 00F11804 		add	r4, r0, #24
 5684 0006 0646     		mov	r6, r0
 5685 0008 0C49     		ldr	r1, .L1209
 5686 000a 2046     		mov	r0, r4
 5687 000c FFF7FEFF 		bl	f_opendir
 5688 0010 28B1     		cbz	r0, .L1207
 5689 0012 0B4B     		ldr	r3, .L1209+4
 5690 0014 4FF00052 		mov	r2, #536870912
 5691 0018 9A61     		str	r2, [r3, #24]
 5692 001a FFF7FEFF 		bl	handle_failed_to_read_sd
 5693              	.L1207:
 5694 001e 0746     		mov	r7, r0
 5695 0020 0FCC     		ldmia	r4!, {r0, r1, r2, r3}
 5696 0022 06F14805 		add	r5, r6, #72
 5697 0026 0FC5     		stmia	r5!, {r0, r1, r2, r3}
 5698 0028 0FCC     		ldmia	r4!, {r0, r1, r2, r3}
 5699 002a 0FC5     		stmia	r5!, {r0, r1, r2, r3}
 5700 002c 94E80F00 		ldm	r4, {r0, r1, r2, r3}
 5701 0030 85E80F00 		stm	r5, {r0, r1, r2, r3}
 5702 0034 A6F87870 		strh	r7, [r6, #120]	@ movhi
 5703 0038 7775     		strb	r7, [r6, #21]
 5704 003a F8BD     		pop	{r3, r4, r5, r6, r7, pc}
 5705              	.L1210:
 5706              		.align	2
ARM GAS  C:\Users\Jay\AppData\Local\Temp\ccrCOBv6.s 			page 98


 5707              	.L1209:
 5708 003c 00000000 		.word	.LC14
 5709 0040 00080240 		.word	1073874944
 5711              		.section	.text.settings_save,"ax",%progbits
 5712              		.align	1
 5713              		.p2align 2,,3
 5714              		.syntax unified
 5715              		.thumb
 5716              		.thumb_func
 5717              		.fpu fpv4-sp-d16
 5719              	settings_save:
 5720              		@ Volatile: function does not return.
 5721              		@ args = 0, pretend = 0, frame = 0
 5722              		@ frame_needed = 0, uses_anonymous_args = 0
 5723 0000 08B5     		push	{r3, lr}
 5724 0002 0A4A     		ldr	r2, .L1213
 5725 0004 0A4B     		ldr	r3, .L1213+4
 5726 0006 1278     		ldrb	r2, [r2]	@ zero_extendqisi2
 5727 0008 1A72     		strb	r2, [r3, #8]
 5728 000a FFF7FEFF 		bl	c64_send_exit_menu
 5729 000e 0949     		ldr	r1, .L1213+8
 5730 0010 0948     		ldr	r0, .L1213+12
 5731 0012 FFF7FEFF 		bl	c64_send_text
 5732 0016 094B     		ldr	r3, .L1213+16
 5733 0018 DA68     		ldr	r2, [r3, #12]
 5734 001a 6FF00801 		mvn	r1, #8
 5735 001e 0A40     		ands	r2, r2, r1
 5736 0020 DA60     		str	r2, [r3, #12]
 5737 0022 1961     		str	r1, [r3, #16]
 5738 0024 FFF7FEFF 		bl	save_dat
 5739 0028 FFF7FEFF 		bl	restart_to_menu
 5740              	.L1214:
 5741              		.align	2
 5742              	.L1213:
 5743 002c 00000000 		.word	.LANCHOR31
 5744 0030 00000000 		.word	dat_file
 5745 0034 00000000 		.word	.LC22
 5746 0038 14000000 		.word	.LC23
 5747 003c 00000140 		.word	1073807360
 5749              		.section	.text.crt_handler,"ax",%progbits
 5750              		.align	1
 5751              		.p2align 2,,3
 5752              		.global	crt_handler
 5753              		.syntax unified
 5754              		.thumb
 5755              		.thumb_func
 5756              		.fpu fpv4-sp-d16
 5758              	crt_handler:
 5759              		@ args = 0, pretend = 0, frame = 0
 5760              		@ frame_needed = 0, uses_anonymous_args = 0
 5761 0000 4449     		ldr	r1, .L1259
 5762 0002 0B69     		ldr	r3, [r1, #16]
 5763 0004 1B07     		lsls	r3, r3, #28
 5764 0006 40F18480 		bpl	.L1252
 5765 000a 4348     		ldr	r0, .L1259+4
 5766 000c DFF81CC1 		ldr	ip, .L1259+24
 5767 0010 424B     		ldr	r3, .L1259+8
ARM GAS  C:\Users\Jay\AppData\Local\Temp\ccrCOBv6.s 			page 99


 5768 0012 2DE9F043 		push	{r4, r5, r6, r7, r8, r9, lr}
 5769 0016 4FF00042 		mov	r2, #-2147483648
 5770 001a 414C     		ldr	r4, .L1259+12
 5771 001c 414D     		ldr	r5, .L1259+16
 5772 001e 424F     		ldr	r7, .L1259+20
 5773 0020 8261     		str	r2, [r0, #24]
 5774 0022 45F25556 		movw	r6, #21845
 5775 0026 4FF0000E 		mov	lr, #0
 5776              	.L1229:
 5777 002a 2269     		ldr	r2, [r4, #16]
 5778 002c 1FFA82F9 		uxth	r9, r2
 5779 0030 0269     		ldr	r2, [r0, #16]
 5780 0032 5FFA82F8 		uxtb	r8, r2
 5781 0036 08F00902 		and	r2, r8, #9
 5782 003a 012A     		cmp	r2, #1
 5783 003c 3CD0     		beq	.L1257
 5784 003e 18F0010F 		tst	r8, #1
 5785 0042 55D0     		beq	.L1220
 5786 0044 08F0C002 		and	r2, r8, #192
 5787 0048 C02A     		cmp	r2, #192
 5788 004a 0CD0     		beq	.L1218
 5789 004c DCF80020 		ldr	r2, [ip]
 5790 0050 C9F30D09 		ubfx	r9, r9, #0, #14
 5791 0054 12F80920 		ldrb	r2, [r2, r9]	@ zero_extendqisi2
 5792 0058 3A70     		strb	r2, [r7]
 5793 005a 2E80     		strh	r6, [r5]	@ movhi
 5794              	.L1221:
 5795 005c 4A6A     		ldr	r2, [r1, #36]
 5796 005e 932A     		cmp	r2, #147
 5797 0060 FCD9     		bls	.L1221
 5798 0062 A5F800E0 		strh	lr, [r5]	@ movhi
 5799              	.L1218:
 5800 0066 18F0100F 		tst	r8, #16
 5801 006a 48D1     		bne	.L1258
 5802              	.L1223:
 5803 006c 4A6A     		ldr	r2, [r1, #36]
 5804 006e 532A     		cmp	r2, #83
 5805 0070 FCD8     		bhi	.L1223
 5806 0072 4A6A     		ldr	r2, [r1, #36]
 5807 0074 5A60     		str	r2, [r3, #4]
 5808              	.L1224:
 5809 0076 5A68     		ldr	r2, [r3, #4]
 5810 0078 112A     		cmp	r2, #17
 5811 007a FCD9     		bls	.L1224
 5812 007c D4F81080 		ldr	r8, [r4, #16]
 5813              	.L1225:
 5814 0080 5A68     		ldr	r2, [r3, #4]
 5815 0082 202A     		cmp	r2, #32
 5816 0084 FCD9     		bls	.L1225
 5817 0086 0269     		ldr	r2, [r0, #16]
 5818 0088 02F0C002 		and	r2, r2, #192
 5819 008c C02A     		cmp	r2, #192
 5820 008e 0CD0     		beq	.L1228
 5821 0090 DCF80020 		ldr	r2, [ip]
 5822 0094 C8F30D08 		ubfx	r8, r8, #0, #14
 5823 0098 12F80820 		ldrb	r2, [r2, r8]	@ zero_extendqisi2
 5824 009c 3A70     		strb	r2, [r7]
ARM GAS  C:\Users\Jay\AppData\Local\Temp\ccrCOBv6.s 			page 100


 5825 009e 2E80     		strh	r6, [r5]	@ movhi
 5826              	.L1227:
 5827 00a0 5A68     		ldr	r2, [r3, #4]
 5828 00a2 3C2A     		cmp	r2, #60
 5829 00a4 FCD9     		bls	.L1227
 5830 00a6 A5F800E0 		strh	lr, [r5]	@ movhi
 5831              	.L1228:
 5832 00aa 5A68     		ldr	r2, [r3, #4]
 5833 00ac 602A     		cmp	r2, #96
 5834 00ae BCD8     		bhi	.L1229
 5835 00b0 5A68     		ldr	r2, [r3, #4]
 5836 00b2 602A     		cmp	r2, #96
 5837 00b4 F9D9     		bls	.L1228
 5838 00b6 B8E7     		b	.L1229
 5839              	.L1257:
 5840              		.syntax unified
 5841              	@ 44 "cartridges/crt_normal.c" 1
 5842 00b8 00BF     		nop
 5843              	@ 0 "" 2
 5844              	@ 44 "cartridges/crt_normal.c" 1
 5845 00ba 00BF     		nop
 5846              	@ 0 "" 2
 5847              	@ 44 "cartridges/crt_normal.c" 1
 5848 00bc 00BF     		nop
 5849              	@ 0 "" 2
 5850              	@ 44 "cartridges/crt_normal.c" 1
 5851 00be 00BF     		nop
 5852              	@ 0 "" 2
 5853              	@ 44 "cartridges/crt_normal.c" 1
 5854 00c0 00BF     		nop
 5855              	@ 0 "" 2
 5856              	@ 44 "cartridges/crt_normal.c" 1
 5857 00c2 00BF     		nop
 5858              	@ 0 "" 2
 5859              	@ 44 "cartridges/crt_normal.c" 1
 5860 00c4 00BF     		nop
 5861              	@ 0 "" 2
 5862              		.thumb
 5863              		.syntax unified
 5864 00c6 0269     		ldr	r2, [r0, #16]
 5865 00c8 5FFA82F8 		uxtb	r8, r2
 5866 00cc 08F0C002 		and	r2, r8, #192
 5867 00d0 C02A     		cmp	r2, #192
 5868 00d2 C8D0     		beq	.L1218
 5869 00d4 DCF80020 		ldr	r2, [ip]
 5870 00d8 C9F30D09 		ubfx	r9, r9, #0, #14
 5871 00dc 12F80920 		ldrb	r2, [r2, r9]	@ zero_extendqisi2
 5872 00e0 3A70     		strb	r2, [r7]
 5873 00e2 2E80     		strh	r6, [r5]	@ movhi
 5874              	.L1219:
 5875 00e4 4A6A     		ldr	r2, [r1, #36]
 5876 00e6 932A     		cmp	r2, #147
 5877 00e8 FCD9     		bls	.L1219
 5878 00ea A5F800E0 		strh	lr, [r5]	@ movhi
 5879 00ee BAE7     		b	.L1218
 5880              	.L1220:
 5881              	.L1222:
ARM GAS  C:\Users\Jay\AppData\Local\Temp\ccrCOBv6.s 			page 101


 5882 00f0 4A6A     		ldr	r2, [r1, #36]
 5883 00f2 812A     		cmp	r2, #129
 5884 00f4 FCD9     		bls	.L1222
 5885 00f6 18F0100F 		tst	r8, #16
 5886 00fa 2A69     		ldr	r2, [r5, #16]
 5887 00fc B6D0     		beq	.L1223
 5888              	.L1258:
 5889 00fe 054B     		ldr	r3, .L1259
 5890 0100 DA68     		ldr	r2, [r3, #12]
 5891 0102 6FF00801 		mvn	r1, #8
 5892 0106 0A40     		ands	r2, r2, r1
 5893 0108 DA60     		str	r2, [r3, #12]
 5894 010a 1961     		str	r1, [r3, #16]
 5895 010c 1961     		str	r1, [r3, #16]
 5896 010e BDE8F083 		pop	{r4, r5, r6, r7, r8, r9, pc}
 5897              	.L1252:
 5898 0112 7047     		bx	lr
 5899              	.L1260:
 5900              		.align	2
 5901              	.L1259:
 5902 0114 00000140 		.word	1073807360
 5903 0118 00000240 		.word	1073872896
 5904 011c 001000E0 		.word	-536866816
 5905 0120 00040240 		.word	1073873920
 5906 0124 00080240 		.word	1073874944
 5907 0128 14080240 		.word	1073874964
 5908 012c 00000000 		.word	.LANCHOR7
 5910              		.section	.text.sprint,"ax",%progbits
 5911              		.align	1
 5912              		.p2align 2,,3
 5913              		.syntax unified
 5914              		.thumb
 5915              		.thumb_func
 5916              		.fpu fpv4-sp-d16
 5918              	sprint:
 5919              		@ args = 4, pretend = 12, frame = 8
 5920              		@ frame_needed = 0, uses_anonymous_args = 1
 5921 0000 0EB4     		push	{r1, r2, r3}
 5922 0002 2DE9F04F 		push	{r4, r5, r6, r7, r8, r9, r10, fp, lr}
 5923 0006 82B0     		sub	sp, sp, #8
 5924 0008 0BAA     		add	r2, sp, #44
 5925 000a 8749     		ldr	r1, .L1319
 5926 000c 52F8045B 		ldr	r5, [r2], #4
 5927 0010 864E     		ldr	r6, .L1319+4
 5928 0012 2B78     		ldrb	r3, [r5]	@ zero_extendqisi2
 5929 0014 0192     		str	r2, [sp, #4]
 5930 0016 0024     		movs	r4, #0
 5931 0018 0746     		mov	r7, r0
 5932 001a 0860     		str	r0, [r1]
 5933 001c 3460     		str	r4, [r6]
 5934 001e 002B     		cmp	r3, #0
 5935 0020 00F00081 		beq	.L1289
 5936 0024 A246     		mov	r10, r4
 5937              	.L1288:
 5938 0026 252B     		cmp	r3, #37
 5939 0028 29D0     		beq	.L1314
 5940 002a 002C     		cmp	r4, #0
ARM GAS  C:\Users\Jay\AppData\Local\Temp\ccrCOBv6.s 			page 102


 5941 002c 3CD0     		beq	.L1315
 5942 002e A3F15802 		sub	r2, r3, #88
 5943 0032 202A     		cmp	r2, #32
 5944 0034 00F2E580 		bhi	.L1267
 5945 0038 DFE812F0 		tbh	[pc, r2, lsl #1]
 5946              	.L1269:
 5947 003c AD00     		.2byte	(.L1268-.L1269)/2
 5948 003e E300     		.2byte	(.L1267-.L1269)/2
 5949 0040 E300     		.2byte	(.L1267-.L1269)/2
 5950 0042 E300     		.2byte	(.L1267-.L1269)/2
 5951 0044 E300     		.2byte	(.L1267-.L1269)/2
 5952 0046 E300     		.2byte	(.L1267-.L1269)/2
 5953 0048 E300     		.2byte	(.L1267-.L1269)/2
 5954 004a E300     		.2byte	(.L1267-.L1269)/2
 5955 004c E300     		.2byte	(.L1267-.L1269)/2
 5956 004e E300     		.2byte	(.L1267-.L1269)/2
 5957 0050 E300     		.2byte	(.L1267-.L1269)/2
 5958 0052 A300     		.2byte	(.L1270-.L1269)/2
 5959 0054 7300     		.2byte	(.L1271-.L1269)/2
 5960 0056 E300     		.2byte	(.L1267-.L1269)/2
 5961 0058 E300     		.2byte	(.L1267-.L1269)/2
 5962 005a E300     		.2byte	(.L1267-.L1269)/2
 5963 005c E300     		.2byte	(.L1267-.L1269)/2
 5964 005e E300     		.2byte	(.L1267-.L1269)/2
 5965 0060 E300     		.2byte	(.L1267-.L1269)/2
 5966 0062 E300     		.2byte	(.L1267-.L1269)/2
 5967 0064 E300     		.2byte	(.L1267-.L1269)/2
 5968 0066 E300     		.2byte	(.L1267-.L1269)/2
 5969 0068 E300     		.2byte	(.L1267-.L1269)/2
 5970 006a E300     		.2byte	(.L1267-.L1269)/2
 5971 006c 6300     		.2byte	(.L1272-.L1269)/2
 5972 006e E300     		.2byte	(.L1267-.L1269)/2
 5973 0070 E300     		.2byte	(.L1267-.L1269)/2
 5974 0072 3D00     		.2byte	(.L1273-.L1269)/2
 5975 0074 E300     		.2byte	(.L1267-.L1269)/2
 5976 0076 B800     		.2byte	(.L1274-.L1269)/2
 5977 0078 E300     		.2byte	(.L1267-.L1269)/2
 5978 007a E300     		.2byte	(.L1267-.L1269)/2
 5979 007c AD00     		.2byte	(.L1268-.L1269)/2
 5980              		.p2align 1
 5981              	.L1314:
 5982 007e C4B1     		cbz	r4, .L1316
 5983 0080 3268     		ldr	r2, [r6]
 5984 0082 511C     		adds	r1, r2, #1
 5985 0084 BB54     		strb	r3, [r7, r2]
 5986 0086 3160     		str	r1, [r6]
 5987              	.L1292:
 5988 0088 0024     		movs	r4, #0
 5989              	.L1264:
 5990 008a 15F8013F 		ldrb	r3, [r5, #1]!	@ zero_extendqisi2
 5991 008e 002B     		cmp	r3, #0
 5992 0090 C9D1     		bne	.L1288
 5993 0092 3368     		ldr	r3, [r6]
 5994 0094 1F44     		add	r7, r7, r3
 5995 0096 0133     		adds	r3, r3, #1
 5996              	.L1262:
 5997 0098 0022     		movs	r2, #0
ARM GAS  C:\Users\Jay\AppData\Local\Temp\ccrCOBv6.s 			page 103


 5998 009a 3360     		str	r3, [r6]
 5999 009c 3A70     		strb	r2, [r7]
 6000 009e 02B0     		add	sp, sp, #8
 6001              		@ sp needed
 6002 00a0 BDE8F04F 		pop	{r4, r5, r6, r7, r8, r9, r10, fp, lr}
 6003 00a4 03B0     		add	sp, sp, #12
 6004 00a6 7047     		bx	lr
 6005              	.L1315:
 6006 00a8 3268     		ldr	r2, [r6]
 6007 00aa 511C     		adds	r1, r2, #1
 6008 00ac BB54     		strb	r3, [r7, r2]
 6009 00ae 3160     		str	r1, [r6]
 6010 00b0 EBE7     		b	.L1264
 6011              	.L1316:
 6012 00b2 0124     		movs	r4, #1
 6013 00b4 E9E7     		b	.L1264
 6014              	.L1273:
 6015 00b6 0AF1FF30 		add	r0, r10, #-1
 6016 00ba BAF1000F 		cmp	r10, #0
 6017 00be 0AD0     		beq	.L1276
 6018 00c0 3368     		ldr	r3, [r6]
 6019 00c2 FA18     		adds	r2, r7, r3
 6020 00c4 9244     		add	r10, r10, r2
 6021 00c6 2021     		movs	r1, #32
 6022              	.L1277:
 6023 00c8 02F8011B 		strb	r1, [r2], #1
 6024 00cc 5245     		cmp	r2, r10
 6025 00ce FBD1     		bne	.L1277
 6026 00d0 0133     		adds	r3, r3, #1
 6027 00d2 0344     		add	r3, r3, r0
 6028 00d4 3360     		str	r3, [r6]
 6029              	.L1276:
 6030 00d6 0199     		ldr	r1, [sp, #4]
 6031 00d8 0B68     		ldr	r3, [r1]
 6032 00da 1A78     		ldrb	r2, [r3]	@ zero_extendqisi2
 6033 00dc 0431     		adds	r1, r1, #4
 6034 00de 0191     		str	r1, [sp, #4]
 6035 00e0 62B1     		cbz	r2, .L1278
 6036 00e2 3068     		ldr	r0, [r6]
 6037 00e4 411E     		subs	r1, r0, #1
 6038 00e6 3944     		add	r1, r1, r7
 6039 00e8 C01A     		subs	r0, r0, r3
 6040 00ea 0133     		adds	r3, r3, #1
 6041              	.L1279:
 6042 00ec 01F8012F 		strb	r2, [r1, #1]!
 6043 00f0 C418     		adds	r4, r0, r3
 6044 00f2 13F8012B 		ldrb	r2, [r3], #1	@ zero_extendqisi2
 6045 00f6 002A     		cmp	r2, #0
 6046 00f8 F8D1     		bne	.L1279
 6047 00fa 3460     		str	r4, [r6]
 6048              	.L1278:
 6049 00fc 0024     		movs	r4, #0
 6050 00fe A246     		mov	r10, r4
 6051 0100 C3E7     		b	.L1264
 6052              	.L1272:
 6053 0102 3368     		ldr	r3, [r6]
 6054 0104 019A     		ldr	r2, [sp, #4]
ARM GAS  C:\Users\Jay\AppData\Local\Temp\ccrCOBv6.s 			page 104


 6055 0106 3021     		movs	r1, #48
 6056 0108 F954     		strb	r1, [r7, r3]
 6057 010a F918     		adds	r1, r7, r3
 6058 010c 7820     		movs	r0, #120
 6059 010e 4870     		strb	r0, [r1, #1]
 6060 0110 1068     		ldr	r0, [r2]
 6061 0112 0233     		adds	r3, r3, #2
 6062 0114 0432     		adds	r2, r2, #4
 6063 0116 5146     		mov	r1, r10
 6064 0118 3360     		str	r3, [r6]
 6065 011a 0192     		str	r2, [sp, #4]
 6066 011c FFF7FEFF 		bl	printhex.constprop.94
 6067 0120 B2E7     		b	.L1292
 6068              	.L1271:
 6069 0122 019A     		ldr	r2, [sp, #4]
 6070 0124 D2F800B0 		ldr	fp, [r2]
 6071 0128 0432     		adds	r2, r2, #4
 6072 012a BBF1000F 		cmp	fp, #0
 6073 012e 0192     		str	r2, [sp, #4]
 6074 0130 73D0     		beq	.L1311
 6075 0132 04DA     		bge	.L1284
 6076 0134 2D20     		movs	r0, #45
 6077 0136 FFF7FEFF 		bl	buf_putchar
 6078 013a CBF1000B 		rsb	fp, fp, #0
 6079              	.L1284:
 6080 013e DFF8F490 		ldr	r9, .L1319+12
 6081 0142 9BFBF9F0 		sdiv	r0, fp, r9
 6082 0146 4FF00A08 		mov	r8, #10
 6083 014a 0022     		movs	r2, #0
 6084 014c 09FB10BB 		mls	fp, r9, r0, fp
 6085 0150 A0B1     		cbz	r0, .L1317
 6086              	.L1285:
 6087 0152 3030     		adds	r0, r0, #48
 6088 0154 C0B2     		uxtb	r0, r0
 6089 0156 FFF7FEFF 		bl	buf_putchar
 6090 015a 2246     		mov	r2, r4
 6091              	.L1286:
 6092 015c 344B     		ldr	r3, .L1319+8
 6093 015e B8F10108 		subs	r8, r8, #1
 6094 0162 83FB0931 		smull	r3, r1, r3, r9
 6095 0166 4FEAE979 		asr	r9, r9, #31
 6096 016a C9EBA109 		rsb	r9, r9, r1, asr #2
 6097 016e 8BD0     		beq	.L1292
 6098 0170 9BFBF9F0 		sdiv	r0, fp, r9
 6099 0174 09FB10BB 		mls	fp, r9, r0, fp
 6100 0178 0028     		cmp	r0, #0
 6101 017a EAD1     		bne	.L1285
 6102              	.L1317:
 6103 017c 002A     		cmp	r2, #0
 6104 017e EDD0     		beq	.L1286
 6105 0180 E7E7     		b	.L1285
 6106              	.L1270:
 6107 0182 019A     		ldr	r2, [sp, #4]
 6108 0184 3368     		ldr	r3, [r6]
 6109 0186 1178     		ldrb	r1, [r2]	@ zero_extendqisi2
 6110 0188 F954     		strb	r1, [r7, r3]
 6111 018a 0432     		adds	r2, r2, #4
ARM GAS  C:\Users\Jay\AppData\Local\Temp\ccrCOBv6.s 			page 105


 6112 018c 0133     		adds	r3, r3, #1
 6113 018e 0192     		str	r2, [sp, #4]
 6114 0190 3360     		str	r3, [r6]
 6115 0192 0024     		movs	r4, #0
 6116 0194 79E7     		b	.L1264
 6117              	.L1268:
 6118 0196 019B     		ldr	r3, [sp, #4]
 6119 0198 5146     		mov	r1, r10
 6120 019a 1A1D     		adds	r2, r3, #4
 6121 019c 1868     		ldr	r0, [r3]
 6122 019e 0192     		str	r2, [sp, #4]
 6123 01a0 4FF0000A 		mov	r10, #0
 6124 01a4 FFF7FEFF 		bl	printhex.constprop.94
 6125 01a8 5446     		mov	r4, r10
 6126 01aa 6EE7     		b	.L1264
 6127              	.L1274:
 6128 01ac 019A     		ldr	r2, [sp, #4]
 6129 01ae D2F800B0 		ldr	fp, [r2]
 6130 01b2 0432     		adds	r2, r2, #4
 6131 01b4 0192     		str	r2, [sp, #4]
 6132 01b6 BBF1000F 		cmp	fp, #0
 6133 01ba 2ED0     		beq	.L1311
 6134 01bc DFF87490 		ldr	r9, .L1319+12
 6135 01c0 9BFBF9F0 		sdiv	r0, fp, r9
 6136 01c4 4FF00A08 		mov	r8, #10
 6137 01c8 0022     		movs	r2, #0
 6138 01ca 09FB10BB 		mls	fp, r9, r0, fp
 6139 01ce A8B1     		cbz	r0, .L1318
 6140              	.L1281:
 6141 01d0 3030     		adds	r0, r0, #48
 6142 01d2 C0B2     		uxtb	r0, r0
 6143 01d4 FFF7FEFF 		bl	buf_putchar
 6144 01d8 2246     		mov	r2, r4
 6145              	.L1282:
 6146 01da 154B     		ldr	r3, .L1319+8
 6147 01dc B8F10108 		subs	r8, r8, #1
 6148 01e0 83FB0931 		smull	r3, r1, r3, r9
 6149 01e4 4FEAE979 		asr	r9, r9, #31
 6150 01e8 C9EBA109 		rsb	r9, r9, r1, asr #2
 6151 01ec 3FF44CAF 		beq	.L1292
 6152 01f0 9BFBF9F0 		sdiv	r0, fp, r9
 6153 01f4 09FB10BB 		mls	fp, r9, r0, fp
 6154 01f8 0028     		cmp	r0, #0
 6155 01fa E9D1     		bne	.L1281
 6156              	.L1318:
 6157 01fc 002A     		cmp	r2, #0
 6158 01fe ECD0     		beq	.L1282
 6159 0200 E6E7     		b	.L1281
 6160              	.L1267:
 6161 0202 A3F13002 		sub	r2, r3, #48
 6162 0206 092A     		cmp	r2, #9
 6163 0208 3FF63EAF 		bhi	.L1292
 6164 020c 0AEB8A0A 		add	r10, r10, r10, lsl #2
 6165 0210 03EB4A03 		add	r3, r3, r10, lsl #1
 6166 0214 A3F1300A 		sub	r10, r3, #48
 6167 0218 37E7     		b	.L1264
 6168              	.L1311:
ARM GAS  C:\Users\Jay\AppData\Local\Temp\ccrCOBv6.s 			page 106


 6169 021a 3020     		movs	r0, #48
 6170 021c 5C46     		mov	r4, fp
 6171 021e FFF7FEFF 		bl	buf_putchar
 6172 0222 32E7     		b	.L1264
 6173              	.L1289:
 6174 0224 0123     		movs	r3, #1
 6175 0226 37E7     		b	.L1262
 6176              	.L1320:
 6177              		.align	2
 6178              	.L1319:
 6179 0228 00000000 		.word	.LANCHOR4
 6180 022c 00000000 		.word	.LANCHOR5
 6181 0230 67666666 		.word	1717986919
 6182 0234 00CA9A3B 		.word	1000000000
 6184              		.section	.text.settings_basic_change,"ax",%progbits
 6185              		.align	1
 6186              		.p2align 2,,3
 6187              		.syntax unified
 6188              		.thumb
 6189              		.thumb_func
 6190              		.fpu fpv4-sp-d16
 6192              	settings_basic_change:
 6193              		@ args = 0, pretend = 0, frame = 0
 6194              		@ frame_needed = 0, uses_anonymous_args = 0
 6195 0000 10B5     		push	{r4, lr}
 6196 0002 1048     		ldr	r0, .L1325
 6197 0004 0378     		ldrb	r3, [r0]	@ zero_extendqisi2
 6198 0006 DA07     		lsls	r2, r3, #31
 6199 0008 0C46     		mov	r4, r1
 6200 000a 15D5     		bpl	.L1322
 6201 000c 23F00103 		bic	r3, r3, #1
 6202 0010 0D4A     		ldr	r2, .L1325+4
 6203 0012 0370     		strb	r3, [r0]
 6204              	.L1323:
 6205 0014 0D49     		ldr	r1, .L1325+8
 6206 0016 0E48     		ldr	r0, .L1325+12
 6207 0018 FFF7FEFF 		bl	sprint
 6208 001c 0C49     		ldr	r1, .L1325+12
 6209 001e 2422     		movs	r2, #36
 6210 0020 601C     		adds	r0, r4, #1
 6211 0022 FFF7FEFF 		bl	to_petscii_pad
 6212 0026 0B4A     		ldr	r2, .L1325+16
 6213 0028 2023     		movs	r3, #32
 6214 002a 1068     		ldr	r0, [r2]
 6215 002c 84F82530 		strb	r3, [r4, #37]
 6216 0030 0368     		ldr	r3, [r0]
 6217 0032 9847     		blx	r3
 6218 0034 0020     		movs	r0, #0
 6219 0036 10BD     		pop	{r4, pc}
 6220              	.L1322:
 6221 0038 43F00103 		orr	r3, r3, #1
 6222 003c 064A     		ldr	r2, .L1325+20
 6223 003e 0370     		strb	r3, [r0]
 6224 0040 E8E7     		b	.L1323
 6225              	.L1326:
 6226 0042 00BF     		.align	2
 6227              	.L1325:
ARM GAS  C:\Users\Jay\AppData\Local\Temp\ccrCOBv6.s 			page 107


 6228 0044 00000000 		.word	.LANCHOR31
 6229 0048 04000000 		.word	.LC25
 6230 004c 08000000 		.word	.LC26
 6231 0050 00000100 		.word	scratch_buf
 6232 0054 00000000 		.word	.LANCHOR14
 6233 0058 00000000 		.word	.LC24
 6235              		.section	.text.sd_send_page,"ax",%progbits
 6236              		.align	1
 6237              		.p2align 2,,3
 6238              		.syntax unified
 6239              		.thumb
 6240              		.thumb_func
 6241              		.fpu fpv4-sp-d16
 6243              	sd_send_page:
 6244              		@ args = 0, pretend = 0, frame = 296
 6245              		@ frame_needed = 0, uses_anonymous_args = 0
 6246 0000 2DE9F04F 		push	{r4, r5, r6, r7, r8, r9, r10, fp, lr}
 6247 0004 077D     		ldrb	r7, [r0, #20]	@ zero_extendqisi2
 6248 0006 CBB0     		sub	sp, sp, #300
 6249 0008 8146     		mov	r9, r0
 6250 000a 0191     		str	r1, [sp, #4]
 6251 000c 002F     		cmp	r7, #0
 6252 000e 40F09B80 		bne	.L1345
 6253 0012 B0F878B0 		ldrh	fp, [r0, #120]
 6254 0016 04AE     		add	r6, sp, #16
 6255 0018 BBF1000F 		cmp	fp, #0
 6256 001c 61D0     		beq	.L1329
 6257 001e DFF85881 		ldr	r8, .L1357+28
 6258 0022 4E4C     		ldr	r4, .L1357
 6259 0024 4E4D     		ldr	r5, .L1357+4
 6260              	.L1328:
 6261 0026 09F1480B 		add	fp, r9, #72
 6262 002a 5846     		mov	r0, fp
 6263 002c 3146     		mov	r1, r6
 6264 002e FFF7FEFF 		bl	f_readdir
 6265 0032 4C4B     		ldr	r3, .L1357+8
 6266 0034 4FF00052 		mov	r2, #536870912
 6267 0038 9A61     		str	r2, [r3, #24]
 6268 003a 0028     		cmp	r0, #0
 6269 003c 65D1     		bne	.L1355
 6270 003e B37D     		ldrb	r3, [r6, #22]	@ zero_extendqisi2
 6271 0040 002B     		cmp	r3, #0
 6272 0042 64D0     		beq	.L1331
 6273 0044 7B1C     		adds	r3, r7, #1
 6274 0046 BB46     		mov	fp, r7
 6275 0048 DFB2     		uxtb	r7, r3
 6276              	.L1344:
 6277 004a 4FF0200A 		mov	r10, #32
 6278 004e 1F22     		movs	r2, #31
 6279 0050 0DF12601 		add	r1, sp, #38
 6280 0054 4448     		ldr	r0, .L1357+12
 6281 0056 88F800A0 		strb	r10, [r8]
 6282 005a FFF7FEFF 		bl	to_petscii_pad
 6283 005e 327A     		ldrb	r2, [r6, #8]	@ zero_extendqisi2
 6284 0060 88F820A0 		strb	r10, [r8, #32]
 6285 0064 D306     		lsls	r3, r2, #27
 6286 0066 49D4     		bmi	.L1356
ARM GAS  C:\Users\Jay\AppData\Local\Temp\ccrCOBv6.s 			page 108


 6287 0068 404B     		ldr	r3, .L1357+16
 6288 006a 3268     		ldr	r2, [r6]
 6289 006c 93E80300 		ldm	r3, {r0, r1}
 6290 0070 B2F57A7F 		cmp	r2, #1000
 6291 0074 0290     		str	r0, [sp, #8]
 6292 0076 8DF80C10 		strb	r1, [sp, #12]
 6293 007a 63D3     		bcc	.L1346
 6294 007c 02AB     		add	r3, sp, #8
 6295 007e 00E0     		b	.L1339
 6296              	.L1347:
 6297 0080 0B46     		mov	r3, r1
 6298              	.L1339:
 6299 0082 1832     		adds	r2, r2, #24
 6300 0084 920A     		lsrs	r2, r2, #10
 6301 0086 B2F57A7F 		cmp	r2, #1000
 6302 008a 03F10101 		add	r1, r3, #1
 6303 008e F7D2     		bcs	.L1347
 6304 0090 5B78     		ldrb	r3, [r3, #1]	@ zero_extendqisi2
 6305              	.L1338:
 6306 0092 632A     		cmp	r2, #99
 6307 0094 37D8     		bhi	.L1348
 6308 0096 2021     		movs	r1, #32
 6309 0098 092A     		cmp	r2, #9
 6310 009a 88F82110 		strb	r1, [r8, #33]
 6311 009e 5AD8     		bhi	.L1349
 6312 00a0 3348     		ldr	r0, .L1357+20
 6313 00a2 88F82210 		strb	r1, [r8, #34]
 6314              	.L1340:
 6315 00a6 3349     		ldr	r1, .L1357+24
 6316 00a8 FFF7FEFF 		bl	sprint
 6317              	.L1337:
 6318 00ac 019B     		ldr	r3, [sp, #4]
 6319 00ae 324A     		ldr	r2, .L1357+28
 6320 00b0 5B45     		cmp	r3, fp
 6321 00b2 04BF     		itt	eq
 6322 00b4 A023     		moveq	r3, #160
 6323 00b6 88F80030 		strbeq	r3, [r8]
 6324 00ba 4FF0800C 		mov	ip, #128
 6325 00be 02F12600 		add	r0, r2, #38
 6326              	.L1343:
 6327 00c2 12F8011B 		ldrb	r1, [r2], #1	@ zero_extendqisi2
 6328              	.L1342:
 6329 00c6 2378     		ldrb	r3, [r4]	@ zero_extendqisi2
 6330 00c8 002B     		cmp	r3, #0
 6331 00ca FCD1     		bne	.L1342
 6332 00cc 8242     		cmp	r2, r0
 6333 00ce 2970     		strb	r1, [r5]
 6334 00d0 84F800C0 		strb	ip, [r4]
 6335 00d4 F5D1     		bne	.L1343
 6336 00d6 162F     		cmp	r7, #22
 6337 00d8 A5D1     		bne	.L1328
 6338              	.L1350:
 6339 00da 3846     		mov	r0, r7
 6340 00dc 4BB0     		add	sp, sp, #300
 6341              		@ sp needed
 6342 00de BDE8F08F 		pop	{r4, r5, r6, r7, r8, r9, r10, fp, pc}
 6343              	.L1329:
ARM GAS  C:\Users\Jay\AppData\Local\Temp\ccrCOBv6.s 			page 109


 6344 00e2 42F62E62 		movw	r2, #11822
 6345 00e6 1023     		movs	r3, #16
 6346 00e8 86F818B0 		strb	fp, [r6, #24]
 6347 00ec F282     		strh	r2, [r6, #22]	@ movhi
 6348 00ee 3372     		strb	r3, [r6, #8]
 6349 00f0 0127     		movs	r7, #1
 6350 00f2 DFF88480 		ldr	r8, .L1357+28
 6351 00f6 194C     		ldr	r4, .L1357
 6352 00f8 194D     		ldr	r5, .L1357+4
 6353 00fa A6E7     		b	.L1344
 6354              	.L1356:
 6355 00fc 1F49     		ldr	r1, .L1357+32
 6356 00fe 2048     		ldr	r0, .L1357+36
 6357 0100 FFF7FEFF 		bl	sprint
 6358 0104 D2E7     		b	.L1337
 6359              	.L1348:
 6360 0106 1E48     		ldr	r0, .L1357+36
 6361 0108 CDE7     		b	.L1340
 6362              	.L1355:
 6363 010a 0023     		movs	r3, #0
 6364 010c B375     		strb	r3, [r6, #22]
 6365              	.L1331:
 6366 010e 5846     		mov	r0, fp
 6367 0110 FFF7FEFF 		bl	f_closedir
 6368 0114 134B     		ldr	r3, .L1357+8
 6369 0116 184A     		ldr	r2, .L1357+28
 6370 0118 4FF00051 		mov	r1, #536870912
 6371 011c 9961     		str	r1, [r3, #24]
 6372 011e 0123     		movs	r3, #1
 6373 0120 0021     		movs	r1, #0
 6374 0122 89F81530 		strb	r3, [r9, #21]
 6375 0126 02F12506 		add	r6, r2, #37
 6376 012a 88F80010 		strb	r1, [r8]
 6377 012e 8020     		movs	r0, #128
 6378              	.L1333:
 6379 0130 2378     		ldrb	r3, [r4]	@ zero_extendqisi2
 6380 0132 002B     		cmp	r3, #0
 6381 0134 FCD1     		bne	.L1333
 6382 0136 B242     		cmp	r2, r6
 6383 0138 2970     		strb	r1, [r5]
 6384 013a 2070     		strb	r0, [r4]
 6385 013c CDD0     		beq	.L1350
 6386 013e 12F8011F 		ldrb	r1, [r2, #1]!	@ zero_extendqisi2
 6387 0142 F5E7     		b	.L1333
 6388              	.L1346:
 6389 0144 4223     		movs	r3, #66
 6390 0146 A4E7     		b	.L1338
 6391              	.L1345:
 6392 0148 DFF82C80 		ldr	r8, .L1357+28
 6393 014c 034C     		ldr	r4, .L1357
 6394 014e 044D     		ldr	r5, .L1357+4
 6395 0150 0027     		movs	r7, #0
 6396 0152 04AE     		add	r6, sp, #16
 6397 0154 67E7     		b	.L1328
 6398              	.L1349:
 6399 0156 0B48     		ldr	r0, .L1357+40
 6400 0158 A5E7     		b	.L1340
ARM GAS  C:\Users\Jay\AppData\Local\Temp\ccrCOBv6.s 			page 110


 6401              	.L1358:
 6402 015a 00BF     		.align	2
 6403              	.L1357:
 6404 015c 00000000 		.word	.LANCHOR10
 6405 0160 00000000 		.word	.LANCHOR11
 6406 0164 00080240 		.word	1073874944
 6407 0168 01000100 		.word	scratch_buf+1
 6408 016c 10000000 		.word	.LC28
 6409 0170 23000100 		.word	scratch_buf+35
 6410 0174 08000000 		.word	.LC29
 6411 0178 00000100 		.word	scratch_buf
 6412 017c 00000000 		.word	.LC27
 6413 0180 21000100 		.word	scratch_buf+33
 6414 0184 22000100 		.word	scratch_buf+34
 6416              		.section	.text.handle_dir_next_page_command,"ax",%progbits
 6417              		.align	1
 6418              		.p2align 2,,3
 6419              		.syntax unified
 6420              		.thumb
 6421              		.thumb_func
 6422              		.fpu fpv4-sp-d16
 6424              	handle_dir_next_page_command:
 6425              		@ args = 0, pretend = 0, frame = 48
 6426              		@ frame_needed = 0, uses_anonymous_args = 0
 6427 0000 70B5     		push	{r4, r5, r6, lr}
 6428 0002 234A     		ldr	r2, .L1371
 6429 0004 8CB0     		sub	sp, sp, #48
 6430              	.L1360:
 6431 0006 1178     		ldrb	r1, [r2]	@ zero_extendqisi2
 6432 0008 01F0FF03 		and	r3, r1, #255
 6433 000c 0029     		cmp	r1, #0
 6434 000e FAD1     		bne	.L1360
 6435 0010 204D     		ldr	r5, .L1371+4
 6436 0012 417D     		ldrb	r1, [r0, #21]	@ zero_extendqisi2
 6437 0014 0226     		movs	r6, #2
 6438 0016 8024     		movs	r4, #128
 6439 0018 2E70     		strb	r6, [r5]
 6440 001a 1470     		strb	r4, [r2]
 6441 001c 79B1     		cbz	r1, .L1370
 6442 001e 1E48     		ldr	r0, .L1371+8
 6443 0020 0146     		mov	r1, r0
 6444 0022 0370     		strb	r3, [r0]
 6445 0024 01F12506 		add	r6, r1, #37
 6446 0028 1846     		mov	r0, r3
 6447              	.L1365:
 6448 002a 1378     		ldrb	r3, [r2]	@ zero_extendqisi2
 6449 002c 002B     		cmp	r3, #0
 6450 002e FCD1     		bne	.L1365
 6451 0030 8E42     		cmp	r6, r1
 6452 0032 2870     		strb	r0, [r5]
 6453 0034 1470     		strb	r4, [r2]
 6454 0036 22D0     		beq	.L1359
 6455 0038 11F8010F 		ldrb	r0, [r1, #1]!	@ zero_extendqisi2
 6456 003c F5E7     		b	.L1365
 6457              	.L1370:
 6458 003e 00F14806 		add	r6, r0, #72
 6459 0042 0446     		mov	r4, r0
ARM GAS  C:\Users\Jay\AppData\Local\Temp\ccrCOBv6.s 			page 111


 6460 0044 0FCE     		ldmia	r6!, {r0, r1, r2, r3}
 6461 0046 6D46     		mov	r5, sp
 6462 0048 0FC5     		stmia	r5!, {r0, r1, r2, r3}
 6463 004a 0FCE     		ldmia	r6!, {r0, r1, r2, r3}
 6464 004c 0FC5     		stmia	r5!, {r0, r1, r2, r3}
 6465 004e 96E80F00 		ldm	r6, {r0, r1, r2, r3}
 6466 0052 B4F87860 		ldrh	r6, [r4, #120]
 6467 0056 0136     		adds	r6, r6, #1
 6468 0058 85E80F00 		stm	r5, {r0, r1, r2, r3}
 6469 005c A4F87860 		strh	r6, [r4, #120]	@ movhi
 6470 0060 1621     		movs	r1, #22
 6471 0062 2046     		mov	r0, r4
 6472 0064 FFF7FEFF 		bl	sd_send_page
 6473 0068 58B1     		cbz	r0, .L1362
 6474 006a 6D46     		mov	r5, sp
 6475 006c 0FCD     		ldmia	r5!, {r0, r1, r2, r3}
 6476 006e 1834     		adds	r4, r4, #24
 6477 0070 0FC4     		stmia	r4!, {r0, r1, r2, r3}
 6478 0072 0FCD     		ldmia	r5!, {r0, r1, r2, r3}
 6479 0074 0FC4     		stmia	r4!, {r0, r1, r2, r3}
 6480 0076 95E80F00 		ldm	r5, {r0, r1, r2, r3}
 6481 007a 84E80F00 		stm	r4, {r0, r1, r2, r3}
 6482              	.L1359:
 6483 007e 0CB0     		add	sp, sp, #48
 6484              		@ sp needed
 6485 0080 70BD     		pop	{r4, r5, r6, pc}
 6486              	.L1362:
 6487 0082 B4F87830 		ldrh	r3, [r4, #120]
 6488 0086 013B     		subs	r3, r3, #1
 6489 0088 A4F87830 		strh	r3, [r4, #120]	@ movhi
 6490 008c 0CB0     		add	sp, sp, #48
 6491              		@ sp needed
 6492 008e 70BD     		pop	{r4, r5, r6, pc}
 6493              	.L1372:
 6494              		.align	2
 6495              	.L1371:
 6496 0090 00000000 		.word	.LANCHOR10
 6497 0094 00000000 		.word	.LANCHOR11
 6498 0098 00000100 		.word	scratch_buf
 6500              		.section	.text.handle_dir_prev_page_command,"ax",%progbits
 6501              		.align	1
 6502              		.p2align 2,,3
 6503              		.syntax unified
 6504              		.thumb
 6505              		.thumb_func
 6506              		.fpu fpv4-sp-d16
 6508              	handle_dir_prev_page_command:
 6509              		@ args = 0, pretend = 0, frame = 280
 6510              		@ frame_needed = 0, uses_anonymous_args = 0
 6511 0000 2DE9F047 		push	{r4, r5, r6, r7, r8, r9, r10, lr}
 6512 0004 B0F87830 		ldrh	r3, [r0, #120]
 6513 0008 C6B0     		sub	sp, sp, #280
 6514 000a 63B3     		cbz	r3, .L1374
 6515 000c 03F1FF38 		add	r8, r3, #-1
 6516 0010 0746     		mov	r7, r0
 6517 0012 FFF7FEFF 		bl	handle_dir_open
 6518 0016 2B4A     		ldr	r2, .L1392
ARM GAS  C:\Users\Jay\AppData\Local\Temp\ccrCOBv6.s 			page 112


 6519 0018 1FFA88F8 		uxth	r8, r8
 6520              	.L1375:
 6521 001c 1378     		ldrb	r3, [r2]	@ zero_extendqisi2
 6522 001e 002B     		cmp	r3, #0
 6523 0020 FCD1     		bne	.L1375
 6524 0022 08EB8803 		add	r3, r8, r8, lsl #2
 6525 0026 08EB4303 		add	r3, r8, r3, lsl #1
 6526 002a 5B00     		lsls	r3, r3, #1
 6527 002c 2648     		ldr	r0, .L1392+4
 6528 002e 0224     		movs	r4, #2
 6529 0030 8021     		movs	r1, #128
 6530 0032 9BB2     		uxth	r3, r3
 6531 0034 0470     		strb	r4, [r0]
 6532 0036 1170     		strb	r1, [r2]
 6533 0038 D3B9     		cbnz	r3, .L1388
 6534 003a 07F14805 		add	r5, r7, #72
 6535              	.L1376:
 6536 003e A7F87880 		strh	r8, [r7, #120]	@ movhi
 6537 0042 2C46     		mov	r4, r5
 6538 0044 0FCC     		ldmia	r4!, {r0, r1, r2, r3}
 6539 0046 07F11805 		add	r5, r7, #24
 6540 004a 0FC5     		stmia	r5!, {r0, r1, r2, r3}
 6541 004c 0FCC     		ldmia	r4!, {r0, r1, r2, r3}
 6542 004e 0FC5     		stmia	r5!, {r0, r1, r2, r3}
 6543 0050 94E80F00 		ldm	r4, {r0, r1, r2, r3}
 6544 0054 85E80F00 		stm	r5, {r0, r1, r2, r3}
 6545              	.L1381:
 6546 0058 3846     		mov	r0, r7
 6547 005a 1621     		movs	r1, #22
 6548 005c FFF7FEFF 		bl	sd_send_page
 6549 0060 46B0     		add	sp, sp, #280
 6550              		@ sp needed
 6551 0062 BDE8F087 		pop	{r4, r5, r6, r7, r8, r9, r10, pc}
 6552              	.L1374:
 6553 0066 FFF7FEFF 		bl	reply_page_end
 6554 006a 46B0     		add	sp, sp, #280
 6555              		@ sp needed
 6556 006c BDE8F087 		pop	{r4, r5, r6, r7, r8, r9, r10, pc}
 6557              	.L1388:
 6558 0070 3A7D     		ldrb	r2, [r7, #20]	@ zero_extendqisi2
 6559 0072 EAB9     		cbnz	r2, .L1390
 6560 0074 9E1E     		subs	r6, r3, #2
 6561 0076 B6B2     		uxth	r6, r6
 6562              	.L1378:
 6563 0078 DFF850A0 		ldr	r10, .L1392+8
 6564 007c 0136     		adds	r6, r6, #1
 6565 007e 07F14805 		add	r5, r7, #72
 6566 0082 0024     		movs	r4, #0
 6567 0084 4FF00059 		mov	r9, #536870912
 6568              	.L1382:
 6569 0088 6946     		mov	r1, sp
 6570 008a 2846     		mov	r0, r5
 6571 008c FFF7FEFF 		bl	f_readdir
 6572 0090 0134     		adds	r4, r4, #1
 6573 0092 CAF81890 		str	r9, [r10, #24]
 6574 0096 70B1     		cbz	r0, .L1391
 6575              	.L1379:
ARM GAS  C:\Users\Jay\AppData\Local\Temp\ccrCOBv6.s 			page 113


 6576 0098 07F11806 		add	r6, r7, #24
 6577 009c 0FCE     		ldmia	r6!, {r0, r1, r2, r3}
 6578 009e 2C46     		mov	r4, r5
 6579 00a0 0FC4     		stmia	r4!, {r0, r1, r2, r3}
 6580 00a2 0FCE     		ldmia	r6!, {r0, r1, r2, r3}
 6581 00a4 0FC4     		stmia	r4!, {r0, r1, r2, r3}
 6582 00a6 96E80F00 		ldm	r6, {r0, r1, r2, r3}
 6583 00aa 84E80F00 		stm	r4, {r0, r1, r2, r3}
 6584 00ae D3E7     		b	.L1381
 6585              	.L1390:
 6586 00b0 5E1E     		subs	r6, r3, #1
 6587 00b2 B6B2     		uxth	r6, r6
 6588 00b4 E0E7     		b	.L1378
 6589              	.L1391:
 6590 00b6 9DF81630 		ldrb	r3, [sp, #22]	@ zero_extendqisi2
 6591 00ba 002B     		cmp	r3, #0
 6592 00bc ECD0     		beq	.L1379
 6593 00be B442     		cmp	r4, r6
 6594 00c0 E2D1     		bne	.L1382
 6595 00c2 BCE7     		b	.L1376
 6596              	.L1393:
 6597              		.align	2
 6598              	.L1392:
 6599 00c4 00000000 		.word	.LANCHOR10
 6600 00c8 00000000 		.word	.LANCHOR11
 6601 00cc 00080240 		.word	1073874944
 6603              		.section	.text.handle_dir_command,"ax",%progbits
 6604              		.align	1
 6605              		.p2align 2,,3
 6606              		.syntax unified
 6607              		.thumb
 6608              		.thumb_func
 6609              		.fpu fpv4-sp-d16
 6611              	handle_dir_command:
 6612              		@ args = 0, pretend = 0, frame = 328
 6613              		@ frame_needed = 0, uses_anonymous_args = 0
 6614 0000 2DE9F04F 		push	{r4, r5, r6, r7, r8, r9, r10, fp, lr}
 6615 0004 DFF884A1 		ldr	r10, .L1420+16
 6616 0008 DFF88481 		ldr	r8, .L1420+20
 6617 000c D3B0     		sub	sp, sp, #332
 6618 000e 0646     		mov	r6, r0
 6619 0010 FFF7FEFF 		bl	handle_dir_open
 6620 0014 4FF43871 		mov	r1, #736
 6621 0018 0AF12000 		add	r0, r10, #32
 6622 001c FFF7FEFF 		bl	f_getcwd
 6623 0020 4FF00053 		mov	r3, #536870912
 6624 0024 C8F81830 		str	r3, [r8, #24]
 6625 0028 0020     		movs	r0, #0
 6626 002a FFF7FEFF 		bl	format_path.constprop.88
 6627 002e 3075     		strb	r0, [r6, #20]
 6628 0030 9AF80033 		ldrb	r3, [r10, #768]	@ zero_extendqisi2
 6629 0034 002B     		cmp	r3, #0
 6630 0036 00F09F80 		beq	.L1408
 6631 003a 06F11807 		add	r7, r6, #24
 6632 003e 3D46     		mov	r5, r7
 6633 0040 8646     		mov	lr, r0
 6634 0042 0FCD     		ldmia	r5!, {r0, r1, r2, r3}
ARM GAS  C:\Users\Jay\AppData\Local\Temp\ccrCOBv6.s 			page 114


 6635 0044 6C46     		mov	r4, sp
 6636 0046 0FC4     		stmia	r4!, {r0, r1, r2, r3}
 6637 0048 0FCD     		ldmia	r5!, {r0, r1, r2, r3}
 6638 004a 0FC4     		stmia	r4!, {r0, r1, r2, r3}
 6639 004c 95E80F00 		ldm	r5, {r0, r1, r2, r3}
 6640 0050 0AF54079 		add	r9, r10, #768
 6641 0054 84E80F00 		stm	r4, {r0, r1, r2, r3}
 6642 0058 06F14805 		add	r5, r6, #72
 6643 005c BEF1000F 		cmp	lr, #0
 6644 0060 6CD1     		bne	.L1409
 6645              	.L1419:
 6646 0062 B6F87840 		ldrh	r4, [r6, #120]
 6647 0066 B4FA84F4 		clz	r4, r4
 6648 006a 6409     		lsrs	r4, r4, #5
 6649              	.L1396:
 6650 006c 4FF0005B 		mov	fp, #536870912
 6651              	.L1400:
 6652 0070 0CA9     		add	r1, sp, #48
 6653 0072 2846     		mov	r0, r5
 6654 0074 FFF7FEFF 		bl	f_readdir
 6655 0078 4FF48072 		mov	r2, #256
 6656 007c 0DF14601 		add	r1, sp, #70
 6657 0080 C8F818B0 		str	fp, [r8, #24]
 6658 0084 0028     		cmp	r0, #0
 6659 0086 36D0     		beq	.L1397
 6660 0088 0023     		movs	r3, #0
 6661 008a 8DF84630 		strb	r3, [sp, #70]
 6662              	.L1398:
 6663 008e 6C46     		mov	r4, sp
 6664 0090 0FCC     		ldmia	r4!, {r0, r1, r2, r3}
 6665 0092 0FC7     		stmia	r7!, {r0, r1, r2, r3}
 6666 0094 0FCC     		ldmia	r4!, {r0, r1, r2, r3}
 6667 0096 0FC7     		stmia	r7!, {r0, r1, r2, r3}
 6668 0098 94E80F00 		ldm	r4, {r0, r1, r2, r3}
 6669 009c EC46     		mov	ip, sp
 6670 009e 87E80F00 		stm	r7, {r0, r1, r2, r3}
 6671 00a2 BCE80F00 		ldmia	ip!, {r0, r1, r2, r3}
 6672 00a6 0FC5     		stmia	r5!, {r0, r1, r2, r3}
 6673 00a8 BCE80F00 		ldmia	ip!, {r0, r1, r2, r3}
 6674 00ac 0FC5     		stmia	r5!, {r0, r1, r2, r3}
 6675 00ae 94E80F00 		ldm	r4, {r0, r1, r2, r3}
 6676 00b2 0027     		movs	r7, #0
 6677 00b4 85E80F00 		stm	r5, {r0, r1, r2, r3}
 6678 00b8 1624     		movs	r4, #22
 6679 00ba A6F87870 		strh	r7, [r6, #120]	@ movhi
 6680              	.L1395:
 6681 00be 2F4A     		ldr	r2, .L1420
 6682              	.L1404:
 6683 00c0 1378     		ldrb	r3, [r2]	@ zero_extendqisi2
 6684 00c2 002B     		cmp	r3, #0
 6685 00c4 FCD1     		bne	.L1404
 6686 00c6 2E4F     		ldr	r7, .L1420+4
 6687 00c8 2E49     		ldr	r1, .L1420+8
 6688 00ca 0123     		movs	r3, #1
 6689 00cc 8025     		movs	r5, #128
 6690 00ce 3B70     		strb	r3, [r7]
 6691 00d0 01F1220C 		add	ip, r1, #34
ARM GAS  C:\Users\Jay\AppData\Local\Temp\ccrCOBv6.s 			page 115


 6692 00d4 1570     		strb	r5, [r2]
 6693              	.L1406:
 6694 00d6 11F8010B 		ldrb	r0, [r1], #1	@ zero_extendqisi2
 6695              	.L1405:
 6696 00da 1378     		ldrb	r3, [r2]	@ zero_extendqisi2
 6697 00dc 002B     		cmp	r3, #0
 6698 00de FCD1     		bne	.L1405
 6699 00e0 6145     		cmp	r1, ip
 6700 00e2 3870     		strb	r0, [r7]
 6701 00e4 1570     		strb	r5, [r2]
 6702 00e6 F6D1     		bne	.L1406
 6703 00e8 2146     		mov	r1, r4
 6704 00ea 3046     		mov	r0, r6
 6705 00ec FFF7FEFF 		bl	sd_send_page
 6706              	.L1394:
 6707 00f0 53B0     		add	sp, sp, #332
 6708              		@ sp needed
 6709 00f2 BDE8F08F 		pop	{r4, r5, r6, r7, r8, r9, r10, fp, pc}
 6710              	.L1397:
 6711 00f6 9DF84630 		ldrb	r3, [sp, #70]	@ zero_extendqisi2
 6712 00fa 4846     		mov	r0, r9
 6713 00fc 002B     		cmp	r3, #0
 6714 00fe C6D0     		beq	.L1398
 6715 0100 FFF7FEFF 		bl	strncmp
 6716 0104 631C     		adds	r3, r4, #1
 6717 0106 D8B1     		cbz	r0, .L1399
 6718 0108 DCB2     		uxtb	r4, r3
 6719 010a 162C     		cmp	r4, #22
 6720 010c B0D1     		bne	.L1400
 6721 010e AC46     		mov	ip, r5
 6722 0110 BCE80F00 		ldmia	ip!, {r0, r1, r2, r3}
 6723 0114 3C46     		mov	r4, r7
 6724 0116 0FC4     		stmia	r4!, {r0, r1, r2, r3}
 6725 0118 BCE80F00 		ldmia	ip!, {r0, r1, r2, r3}
 6726 011c 0FC4     		stmia	r4!, {r0, r1, r2, r3}
 6727 011e 9CE80F00 		ldm	ip, {r0, r1, r2, r3}
 6728 0122 B6F878C0 		ldrh	ip, [r6, #120]
 6729 0126 96F814E0 		ldrb	lr, [r6, #20]	@ zero_extendqisi2
 6730 012a 0CF1010C 		add	ip, ip, #1
 6731 012e 84E80F00 		stm	r4, {r0, r1, r2, r3}
 6732 0132 A6F878C0 		strh	ip, [r6, #120]	@ movhi
 6733 0136 BEF1000F 		cmp	lr, #0
 6734 013a 92D0     		beq	.L1419
 6735              	.L1409:
 6736 013c 0024     		movs	r4, #0
 6737 013e 95E7     		b	.L1396
 6738              	.L1399:
 6739 0140 0FCF     		ldmia	r7!, {r0, r1, r2, r3}
 6740 0142 0FC5     		stmia	r5!, {r0, r1, r2, r3}
 6741 0144 0FCF     		ldmia	r7!, {r0, r1, r2, r3}
 6742 0146 0FC5     		stmia	r5!, {r0, r1, r2, r3}
 6743 0148 97E80F00 		ldm	r7, {r0, r1, r2, r3}
 6744 014c 85E80F00 		stm	r5, {r0, r1, r2, r3}
 6745 0150 0CA8     		add	r0, sp, #48
 6746 0152 FFF7FEFF 		bl	get_file_type
 6747 0156 0428     		cmp	r0, #4
 6748 0158 B1D1     		bne	.L1395
ARM GAS  C:\Users\Jay\AppData\Local\Temp\ccrCOBv6.s 			page 116


 6749 015a BAF80D20 		ldrh	r2, [r10, #13]	@ unaligned
 6750 015e 4FF6FF73 		movw	r3, #65535
 6751 0162 9A42     		cmp	r2, r3
 6752 0164 ABD0     		beq	.L1395
 6753 0166 0DF14600 		add	r0, sp, #70
 6754 016a FFF7FEFF 		bl	d64_menu_init
 6755 016e 0649     		ldr	r1, .L1420+12
 6756 0170 0268     		ldr	r2, [r0]
 6757 0172 0860     		str	r0, [r1]
 6758 0174 9047     		blx	r2
 6759 0176 BBE7     		b	.L1394
 6760              	.L1408:
 6761 0178 1624     		movs	r4, #22
 6762 017a A0E7     		b	.L1395
 6763              	.L1421:
 6764              		.align	2
 6765              	.L1420:
 6766 017c 00000000 		.word	.LANCHOR10
 6767 0180 00000000 		.word	.LANCHOR11
 6768 0184 00000100 		.word	scratch_buf
 6769 0188 00000000 		.word	.LANCHOR14
 6770 018c 00000000 		.word	dat_file
 6771 0190 00080240 		.word	1073874944
 6773              		.section	.text.handle_change_dir,"ax",%progbits
 6774              		.align	1
 6775              		.p2align 2,,3
 6776              		.syntax unified
 6777              		.thumb
 6778              		.thumb_func
 6779              		.fpu fpv4-sp-d16
 6781              	handle_change_dir:
 6782              		@ args = 0, pretend = 0, frame = 0
 6783              		@ frame_needed = 0, uses_anonymous_args = 0
 6784 0000 F8B5     		push	{r3, r4, r5, r6, r7, lr}
 6785 0002 0546     		mov	r5, r0
 6786 0004 0E46     		mov	r6, r1
 6787 0006 FAB1     		cbz	r2, .L1423
 6788 0008 027D     		ldrb	r2, [r0, #20]	@ zero_extendqisi2
 6789 000a EAB9     		cbnz	r2, .L1423
 6790 000c 1848     		ldr	r0, .L1440
 6791 000e 1146     		mov	r1, r2
 6792 0010 07E0     		b	.L1426
 6793              	.L1438:
 6794 0012 0132     		adds	r2, r2, #1
 6795 0014 94B2     		uxth	r4, r2
 6796 0016 2F2B     		cmp	r3, #47
 6797 0018 08BF     		it	eq
 6798 001a 2146     		moveq	r1, r4
 6799 001c B2F5387F 		cmp	r2, #736
 6800 0020 03D0     		beq	.L1424
 6801              	.L1426:
 6802 0022 10F8013F 		ldrb	r3, [r0, #1]!	@ zero_extendqisi2
 6803 0026 002B     		cmp	r3, #0
 6804 0028 F3D1     		bne	.L1438
 6805              	.L1424:
 6806 002a 124F     		ldr	r7, .L1440+4
 6807 002c 541A     		subs	r4, r2, r1
ARM GAS  C:\Users\Jay\AppData\Local\Temp\ccrCOBv6.s 			page 117


 6808 002e 2246     		mov	r2, r4
 6809 0030 3944     		add	r1, r1, r7
 6810 0032 07F53870 		add	r0, r7, #736
 6811 0036 FFF7FEFF 		bl	memcpy
 6812 003a A7F12002 		sub	r2, r7, #32
 6813 003e 2244     		add	r2, r2, r4
 6814 0040 0023     		movs	r3, #0
 6815 0042 82F80033 		strb	r3, [r2, #768]
 6816 0046 03E0     		b	.L1427
 6817              	.L1423:
 6818 0048 0B4B     		ldr	r3, .L1440+8
 6819 004a 0022     		movs	r2, #0
 6820 004c 83F80023 		strb	r2, [r3, #768]
 6821              	.L1427:
 6822 0050 3046     		mov	r0, r6
 6823 0052 FFF7FEFF 		bl	f_chdir
 6824 0056 094B     		ldr	r3, .L1440+12
 6825 0058 4FF00052 		mov	r2, #536870912
 6826 005c 9A61     		str	r2, [r3, #24]
 6827 005e 20B9     		cbnz	r0, .L1439
 6828 0060 2846     		mov	r0, r5
 6829 0062 BDE8F840 		pop	{r3, r4, r5, r6, r7, lr}
 6830 0066 FFF7FEBF 		b	handle_dir_command
 6831              	.L1439:
 6832 006a FFF7FEFF 		bl	handle_failed_to_read_sd
 6833              	.L1441:
 6834 006e 00BF     		.align	2
 6835              	.L1440:
 6836 0070 1F000000 		.word	dat_file+31
 6837 0074 20000000 		.word	dat_file+32
 6838 0078 00000000 		.word	dat_file
 6839 007c 00080240 		.word	1073874944
 6841              		.section	.text.handle_dir_up_command,"ax",%progbits
 6842              		.align	1
 6843              		.p2align 2,,3
 6844              		.syntax unified
 6845              		.thumb
 6846              		.thumb_func
 6847              		.fpu fpv4-sp-d16
 6849              	handle_dir_up_command:
 6850              		@ args = 0, pretend = 0, frame = 0
 6851              		@ frame_needed = 0, uses_anonymous_args = 0
 6852              		@ link register save eliminated.
 6853 0000 19B9     		cbnz	r1, .L1444
 6854 0002 0122     		movs	r2, #1
 6855 0004 0349     		ldr	r1, .L1445
 6856 0006 FFF7FEBF 		b	handle_change_dir
 6857              	.L1444:
 6858 000a 0022     		movs	r2, #0
 6859 000c 0249     		ldr	r1, .L1445+4
 6860 000e FFF7FEBF 		b	handle_change_dir
 6861              	.L1446:
 6862 0012 00BF     		.align	2
 6863              	.L1445:
 6864 0014 04000000 		.word	.LC31
 6865 0018 00000000 		.word	.LC30
 6867              		.section	.text.handle_select_command,"ax",%progbits
ARM GAS  C:\Users\Jay\AppData\Local\Temp\ccrCOBv6.s 			page 118


 6868              		.align	1
 6869              		.p2align 2,,3
 6870              		.syntax unified
 6871              		.thumb
 6872              		.thumb_func
 6873              		.fpu fpv4-sp-d16
 6875              	handle_select_command:
 6876              		@ args = 0, pretend = 0, frame = 984
 6877              		@ frame_needed = 0, uses_anonymous_args = 0
 6878 0000 2DE9F04F 		push	{r4, r5, r6, r7, r8, r9, r10, fp, lr}
 6879 0004 A94C     		ldr	r4, .L1560
 6880 0006 0023     		movs	r3, #0
 6881 0008 84F80033 		strb	r3, [r4, #768]
 6882 000c 067D     		ldrb	r6, [r0, #20]	@ zero_extendqisi2
 6883 000e 6372     		strb	r3, [r4, #9]
 6884 0010 4FF0FF33 		mov	r3, #-1
 6885 0014 ADF5777D 		sub	sp, sp, #988
 6886 0018 8246     		mov	r10, r0
 6887 001a 8B46     		mov	fp, r1
 6888 001c 6373     		strb	r3, [r4, #13]
 6889 001e A373     		strb	r3, [r4, #14]
 6890 0020 9146     		mov	r9, r2
 6891 0022 1EB9     		cbnz	r6, .L1522
 6892 0024 B0F87830 		ldrh	r3, [r0, #120]
 6893 0028 002B     		cmp	r3, #0
 6894 002a 56D0     		beq	.L1545
 6895              	.L1522:
 6896 002c C846     		mov	r8, r9
 6897              	.L1448:
 6898 002e 0AF11806 		add	r6, r10, #24
 6899 0032 0FCE     		ldmia	r6!, {r0, r1, r2, r3}
 6900 0034 0AAD     		add	r5, sp, #40
 6901 0036 0FC5     		stmia	r5!, {r0, r1, r2, r3}
 6902 0038 0FCE     		ldmia	r6!, {r0, r1, r2, r3}
 6903 003a 0FC5     		stmia	r5!, {r0, r1, r2, r3}
 6904 003c 96E80F00 		ldm	r6, {r0, r1, r2, r3}
 6905 0040 9B4F     		ldr	r7, .L1560+4
 6906 0042 85E80F00 		stm	r5, {r0, r1, r2, r3}
 6907 0046 4FF00056 		mov	r6, #536870912
 6908 004a 0025     		movs	r5, #0
 6909              	.L1454:
 6910 004c 26A9     		add	r1, sp, #152
 6911 004e 0AA8     		add	r0, sp, #40
 6912 0050 FFF7FEFF 		bl	f_readdir
 6913 0054 BE61     		str	r6, [r7, #24]
 6914 0056 0028     		cmp	r0, #0
 6915 0058 40F08781 		bne	.L1546
 6916 005c 9DF8AE30 		ldrb	r3, [sp, #174]	@ zero_extendqisi2
 6917 0060 1BB1     		cbz	r3, .L1453
 6918 0062 0135     		adds	r5, r5, #1
 6919 0064 EBB2     		uxtb	r3, r5
 6920 0066 9845     		cmp	r8, r3
 6921 0068 F0D2     		bcs	.L1454
 6922              	.L1453:
 6923 006a 914F     		ldr	r7, .L1560+4
 6924 006c 0AA8     		add	r0, sp, #40
 6925 006e 4FF00056 		mov	r6, #536870912
ARM GAS  C:\Users\Jay\AppData\Local\Temp\ccrCOBv6.s 			page 119


 6926 0072 FFF7FEFF 		bl	f_closedir
 6927 0076 BE61     		str	r6, [r7, #24]
 6928 0078 9DF8AE50 		ldrb	r5, [sp, #174]	@ zero_extendqisi2
 6929 007c 25B3     		cbz	r5, .L1547
 6930 007e 26A8     		add	r0, sp, #152
 6931 0080 FFF7FEFF 		bl	get_file_type
 6932 0084 0DF1AE01 		add	r1, sp, #174
 6933 0088 8046     		mov	r8, r0
 6934 008a 8A48     		ldr	r0, .L1560+8
 6935 008c FFF7FEFF 		bl	strcpy
 6936 0090 1BF04003 		ands	r3, fp, #64
 6937 0094 3BD1     		bne	.L1548
 6938 0096 B8F1000F 		cmp	r8, #0
 6939 009a 27D0     		beq	.L1549
 6940 009c B8F1030F 		cmp	r8, #3
 6941 00a0 41D9     		bls	.L1550
 6942 00a2 B8F1FD0F 		cmp	r8, #253
 6943 00a6 00F0A380 		beq	.L1462
 6944 00aa B8F1FE0F 		cmp	r8, #254
 6945 00ae 68D0     		beq	.L1463
 6946 00b0 B8F1040F 		cmp	r8, #4
 6947 00b4 00F0D180 		beq	.L1551
 6948              	.L1458:
 6949 00b8 0DF1AE02 		add	r2, sp, #174
 6950 00bc 7E49     		ldr	r1, .L1560+12
 6951 00be 7F48     		ldr	r0, .L1560+16
 6952 00c0 FFF7FEFF 		bl	handle_unsupported_ex
 6953 00c4 0026     		movs	r6, #0
 6954 00c6 03E0     		b	.L1538
 6955              	.L1547:
 6956 00c8 5046     		mov	r0, r10
 6957 00ca FFF7FEFF 		bl	handle_dir_command
 6958 00ce 2E46     		mov	r6, r5
 6959              	.L1538:
 6960 00d0 3046     		mov	r0, r6
 6961 00d2 0DF5777D 		add	sp, sp, #988
 6962              		@ sp needed
 6963 00d6 BDE8F08F 		pop	{r4, r5, r6, r7, r8, r9, r10, fp, pc}
 6964              	.L1545:
 6965 00da 9AB9     		cbnz	r2, .L1449
 6966 00dc 11F0400F 		tst	r1, #64
 6967 00e0 4AD0     		beq	.L1450
 6968 00e2 3146     		mov	r1, r6
 6969 00e4 7648     		ldr	r0, .L1560+20
 6970 00e6 FFF7FEFF 		bl	handle_file_options
 6971 00ea F1E7     		b	.L1538
 6972              	.L1549:
 6973 00ec 5046     		mov	r0, r10
 6974 00ee 0DF1AE01 		add	r1, sp, #174
 6975 00f2 4246     		mov	r2, r8
 6976 00f4 FFF7FEFF 		bl	handle_change_dir
 6977 00f8 4646     		mov	r6, r8
 6978 00fa 3046     		mov	r0, r6
 6979 00fc 0DF5777D 		add	sp, sp, #988
 6980              		@ sp needed
 6981 0100 BDE8F08F 		pop	{r4, r5, r6, r7, r8, r9, r10, fp, pc}
 6982              	.L1449:
ARM GAS  C:\Users\Jay\AppData\Local\Temp\ccrCOBv6.s 			page 120


 6983 0104 02F1FF38 		add	r8, r2, #-1
 6984 0108 5FFA88F8 		uxtb	r8, r8
 6985 010c 8FE7     		b	.L1448
 6986              	.L1548:
 6987 010e 0DF1AE00 		add	r0, sp, #174
 6988 0112 4A46     		mov	r2, r9
 6989 0114 4146     		mov	r1, r8
 6990 0116 FFF7FEFF 		bl	handle_file_options
 6991 011a 0026     		movs	r6, #0
 6992 011c 3046     		mov	r0, r6
 6993 011e 0DF5777D 		add	sp, sp, #988
 6994              		@ sp needed
 6995 0122 BDE8F08F 		pop	{r4, r5, r6, r7, r8, r9, r10, fp, pc}
 6996              	.L1550:
 6997 0126 B8F1020F 		cmp	r8, #2
 6998 012a 32D2     		bcs	.L1460
 6999 012c B8F1010F 		cmp	r8, #1
 7000 0130 C2D1     		bne	.L1458
 7001 0132 6CAD     		add	r5, sp, #432
 7002 0134 2846     		mov	r0, r5
 7003 0136 0DF1AE01 		add	r1, sp, #174
 7004 013a 0DF15808 		add	r8, sp, #88
 7005 013e FFF7FEFF 		bl	handle_file_open
 7006 0142 2846     		mov	r0, r5
 7007 0144 06AB     		add	r3, sp, #24
 7008 0146 4146     		mov	r1, r8
 7009 0148 4022     		movs	r2, #64
 7010 014a FFF7FEFF 		bl	f_read
 7011 014e 0028     		cmp	r0, #0
 7012 0150 40F09E80 		bne	.L1474
 7013 0154 069B     		ldr	r3, [sp, #24]
 7014 0156 BE61     		str	r6, [r7, #24]
 7015 0158 402B     		cmp	r3, #64
 7016 015a 05D1     		bne	.L1475
 7017 015c 594B     		ldr	r3, .L1560+24
 7018 015e D8F80020 		ldr	r2, [r8]
 7019 0162 9A42     		cmp	r2, r3
 7020 0164 00F00381 		beq	.L1552
 7021              	.L1475:
 7022 0168 0DF1AE02 		add	r2, sp, #174
 7023 016c 5249     		ldr	r1, .L1560+12
 7024 016e 5348     		ldr	r0, .L1560+16
 7025 0170 FFF7FEFF 		bl	handle_unsupported_ex
 7026              	.L1544:
 7027 0174 0026     		movs	r6, #0
 7028 0176 ABE7     		b	.L1538
 7029              	.L1450:
 7030 0178 0122     		movs	r2, #1
 7031 017a 5149     		ldr	r1, .L1560+20
 7032 017c FFF7FEFF 		bl	handle_change_dir
 7033 0180 A6E7     		b	.L1538
 7034              	.L1463:
 7035 0182 0DF1AE02 		add	r2, sp, #174
 7036 0186 5049     		ldr	r1, .L1560+28
 7037 0188 5048     		ldr	r0, .L1560+32
 7038 018a 1E46     		mov	r6, r3
 7039 018c FFF7FEFF 		bl	handle_unsupported_ex
ARM GAS  C:\Users\Jay\AppData\Local\Temp\ccrCOBv6.s 			page 121


 7040 0190 9EE7     		b	.L1538
 7041              	.L1460:
 7042 0192 6CAD     		add	r5, sp, #432
 7043 0194 2846     		mov	r0, r5
 7044 0196 0DF1AE01 		add	r1, sp, #174
 7045 019a 0193     		str	r3, [sp, #4]
 7046 019c FFF7FEFF 		bl	handle_file_open
 7047 01a0 019B     		ldr	r3, [sp, #4]
 7048 01a2 E373     		strb	r3, [r4, #15]
 7049 01a4 B8F1020F 		cmp	r8, #2
 7050 01a8 00F0D080 		beq	.L1553
 7051 01ac 06AB     		add	r3, sp, #24
 7052 01ae 16A9     		add	r1, sp, #88
 7053 01b0 1A22     		movs	r2, #26
 7054 01b2 2846     		mov	r0, r5
 7055 01b4 FFF7FEFF 		bl	f_read
 7056 01b8 0028     		cmp	r0, #0
 7057 01ba 40F0C580 		bne	.L1468
 7058 01be BDF81830 		ldrh	r3, [sp, #24]
 7059 01c2 BE61     		str	r6, [r7, #24]
 7060 01c4 1A2B     		cmp	r3, #26
 7061 01c6 04D1     		bne	.L1467
 7062 01c8 414B     		ldr	r3, .L1560+36
 7063 01ca 169A     		ldr	r2, [sp, #88]
 7064 01cc 9A42     		cmp	r2, r3
 7065 01ce 00F04582 		beq	.L1554
 7066              	.L1467:
 7067 01d2 0DF1AE02 		add	r2, sp, #174
 7068 01d6 3849     		ldr	r1, .L1560+12
 7069 01d8 3848     		ldr	r0, .L1560+16
 7070 01da FFF7FEFF 		bl	handle_unsupported_ex
 7071 01de 0026     		movs	r6, #0
 7072              	.L1473:
 7073 01e0 2846     		mov	r0, r5
 7074 01e2 FFF7FEFF 		bl	f_close
 7075 01e6 324B     		ldr	r3, .L1560+4
 7076 01e8 4FF00052 		mov	r2, #536870912
 7077 01ec 9A61     		str	r2, [r3, #24]
 7078 01ee 6FE7     		b	.L1538
 7079              	.L1462:
 7080 01f0 1BF0010F 		tst	fp, #1
 7081 01f4 40F04B82 		bne	.L1505
 7082 01f8 6CAD     		add	r5, sp, #432
 7083 01fa 2846     		mov	r0, r5
 7084 01fc 0DF1AE01 		add	r1, sp, #174
 7085 0200 0DF15808 		add	r8, sp, #88
 7086 0204 FFF7FEFF 		bl	handle_file_open
 7087 0208 2846     		mov	r0, r5
 7088 020a 4346     		mov	r3, r8
 7089 020c 4FF48032 		mov	r2, #65536
 7090 0210 3049     		ldr	r1, .L1560+40
 7091 0212 FFF7FEFF 		bl	f_read
 7092 0216 60BB     		cbnz	r0, .L1506
 7093 0218 D8F80030 		ldr	r3, [r8]
 7094 021c BE61     		str	r6, [r7, #24]
 7095 021e B3F5803F 		cmp	r3, #65536
 7096 0222 27D1     		bne	.L1508
ARM GAS  C:\Users\Jay\AppData\Local\Temp\ccrCOBv6.s 			page 122


 7097 0224 2C48     		ldr	r0, .L1560+44
 7098 0226 0DF16B04 		add	r4, sp, #107
 7099 022a 4246     		mov	r2, r8
 7100 022c 09E0     		b	.L1512
 7101              	.L1510:
 7102 022e A3F14101 		sub	r1, r3, #65
 7103 0232 1929     		cmp	r1, #25
 7104 0234 9CBF     		itt	ls
 7105 0236 2033     		addls	r3, r3, #32
 7106 0238 DBB2     		uxtbls	r3, r3
 7107              	.L1511:
 7108 023a 02F8013B 		strb	r3, [r2], #1
 7109 023e A242     		cmp	r2, r4
 7110 0240 50D0     		beq	.L1555
 7111              	.L1512:
 7112 0242 10F8013B 		ldrb	r3, [r0], #1	@ zero_extendqisi2
 7113 0246 A2EB0801 		sub	r1, r2, r8
 7114 024a C9B2     		uxtb	r1, r1
 7115 024c 002B     		cmp	r3, #0
 7116 024e 4AD0     		beq	.L1513
 7117 0250 1906     		lsls	r1, r3, #24
 7118 0252 ECD5     		bpl	.L1510
 7119 0254 03F07F03 		and	r3, r3, #127
 7120 0258 EFE7     		b	.L1511
 7121              	.L1551:
 7122 025a 1BF00206 		ands	r6, fp, #2
 7123 025e 19D0     		beq	.L1504
 7124 0260 1A46     		mov	r2, r3
 7125 0262 1E49     		ldr	r1, .L1560+48
 7126 0264 1B48     		ldr	r0, .L1560+40
 7127 0266 FFF7FEFF 		bl	sprint
 7128 026a 0126     		movs	r6, #1
 7129 026c 84F80980 		strb	r8, [r4, #9]
 7130 0270 2EE7     		b	.L1538
 7131              	.L1506:
 7132 0272 BE61     		str	r6, [r7, #24]
 7133              	.L1508:
 7134 0274 0DF1AE02 		add	r2, sp, #174
 7135 0278 0F49     		ldr	r1, .L1560+12
 7136 027a 1048     		ldr	r0, .L1560+16
 7137 027c FFF7FEFF 		bl	handle_unsupported_ex
 7138              	.L1516:
 7139 0280 2846     		mov	r0, r5
 7140 0282 FFF7FEFF 		bl	f_close
 7141 0286 0A4B     		ldr	r3, .L1560+4
 7142 0288 4FF00052 		mov	r2, #536870912
 7143 028c 9A61     		str	r2, [r3, #24]
 7144 028e 71E7     		b	.L1544
 7145              	.L1474:
 7146 0290 BE61     		str	r6, [r7, #24]
 7147 0292 69E7     		b	.L1475
 7148              	.L1504:
 7149 0294 0DF1AE00 		add	r0, sp, #174
 7150 0298 6673     		strb	r6, [r4, #13]
 7151 029a A673     		strb	r6, [r4, #14]
 7152 029c FFF7FEFF 		bl	d64_menu_init
 7153 02a0 0F49     		ldr	r1, .L1560+52
ARM GAS  C:\Users\Jay\AppData\Local\Temp\ccrCOBv6.s 			page 123


 7154 02a2 0268     		ldr	r2, [r0]
 7155 02a4 0860     		str	r0, [r1]
 7156 02a6 9047     		blx	r2
 7157 02a8 12E7     		b	.L1538
 7158              	.L1561:
 7159 02aa 00BF     		.align	2
 7160              	.L1560:
 7161 02ac 00000000 		.word	dat_file
 7162 02b0 00080240 		.word	1073874944
 7163 02b4 00030000 		.word	dat_file+768
 7164 02b8 08000000 		.word	.LC33
 7165 02bc 2C000000 		.word	.LC34
 7166 02c0 04000000 		.word	.LC31
 7167 02c4 43363420 		.word	540292675
 7168 02c8 18010000 		.word	.LC47
 7169 02cc 3C010000 		.word	.LC48
 7170 02d0 43363446 		.word	1177826883
 7171 02d4 00000000 		.word	dat_buffer
 7172 02d8 00C00000 		.word	dat_buffer+49152
 7173 02dc B0000000 		.word	.LC41
 7174 02e0 00000000 		.word	.LANCHOR14
 7175              	.L1555:
 7176 02e4 1321     		movs	r1, #19
 7177              	.L1513:
 7178 02e6 0023     		movs	r3, #0
 7179 02e8 08F80130 		strb	r3, [r8, r1]
 7180 02ec BE4B     		ldr	r3, .L1562
 7181 02ee D8F80020 		ldr	r2, [r8]
 7182 02f2 9A42     		cmp	r2, r3
 7183 02f4 BED1     		bne	.L1508
 7184 02f6 BD4A     		ldr	r2, .L1562+4
 7185 02f8 179B     		ldr	r3, [sp, #92]
 7186 02fa 9342     		cmp	r3, r2
 7187 02fc BAD1     		bne	.L1508
 7188 02fe BC4A     		ldr	r2, .L1562+8
 7189 0300 189B     		ldr	r3, [sp, #96]
 7190 0302 9342     		cmp	r3, r2
 7191 0304 B6D1     		bne	.L1508
 7192 0306 9DF86430 		ldrb	r3, [sp, #100]	@ zero_extendqisi2
 7193 030a 682B     		cmp	r3, #104
 7194 030c B2D1     		bne	.L1508
 7195 030e B949     		ldr	r1, .L1562+12
 7196 0310 B948     		ldr	r0, .L1562+16
 7197 0312 FFF7FEFF 		bl	build_options
 7198 0316 4146     		mov	r1, r8
 7199 0318 0446     		mov	r4, r0
 7200 031a FFF7FEFF 		bl	options_add_text_block
 7201 031e 2046     		mov	r0, r4
 7202 0320 B64A     		ldr	r2, .L1562+20
 7203 0322 B749     		ldr	r1, .L1562+24
 7204 0324 FFF7FEFF 		bl	options_add_text_element
 7205 0328 0123     		movs	r3, #1
 7206 032a 80F82D90 		strb	r9, [r0, #45]
 7207 032e 80F82C30 		strb	r3, [r0, #44]
 7208 0332 B44A     		ldr	r2, .L1562+28
 7209 0334 B449     		ldr	r1, .L1562+32
 7210 0336 2046     		mov	r0, r4
ARM GAS  C:\Users\Jay\AppData\Local\Temp\ccrCOBv6.s 			page 124


 7211 0338 FFF7FEFF 		bl	options_add_text_element
 7212 033c B34A     		ldr	r2, .L1562+36
 7213 033e 2368     		ldr	r3, [r4]
 7214 0340 1460     		str	r4, [r2]
 7215 0342 2046     		mov	r0, r4
 7216 0344 9847     		blx	r3
 7217 0346 9BE7     		b	.L1516
 7218              	.L1468:
 7219 0348 BE61     		str	r6, [r7, #24]
 7220 034a 42E7     		b	.L1467
 7221              	.L1553:
 7222 034c 2846     		mov	r0, r5
 7223 034e FFF7FEFF 		bl	prg_load_file
 7224 0352 0028     		cmp	r0, #0
 7225 0354 3FF43DAF 		beq	.L1467
 7226              	.L1466:
 7227 0358 FFF7FEFF 		bl	c64_send_exit_menu
 7228 035c 0023     		movs	r3, #0
 7229 035e 0222     		movs	r2, #2
 7230 0360 6373     		strb	r3, [r4, #13]
 7231 0362 A373     		strb	r3, [r4, #14]
 7232 0364 6272     		strb	r2, [r4, #9]
 7233 0366 0126     		movs	r6, #1
 7234 0368 3AE7     		b	.L1473
 7235              	.L1546:
 7236 036a FFF7FEFF 		bl	handle_failed_to_read_sd
 7237              	.L1552:
 7238 036e 17AB     		add	r3, sp, #92
 7239 0370 A74A     		ldr	r2, .L1562+40
 7240 0372 1968     		ldr	r1, [r3]
 7241 0374 9142     		cmp	r1, r2
 7242 0376 7FF4F7AE 		bne	.L1475
 7243 037a 02F17242 		add	r2, r2, #-234881024
 7244 037e 02F57202 		add	r2, r2, #15859712
 7245 0382 53F8041F 		ldr	r1, [r3, #4]!
 7246 0386 02F60F02 		addw	r2, r2, #2063
 7247 038a 9142     		cmp	r1, r2
 7248 038c 7FF4ECAE 		bne	.L1475
 7249 0390 5A68     		ldr	r2, [r3, #4]
 7250 0392 A04B     		ldr	r3, .L1562+44
 7251 0394 9A42     		cmp	r2, r3
 7252 0396 7FF4E7AE 		bne	.L1475
 7253 039a D8F81010 		ldr	r1, [r8, #16]
 7254 039e B8F81430 		ldrh	r3, [r8, #20]
 7255 03a2 09BA     		rev	r1, r1
 7256 03a4 C8F81010 		str	r1, [r8, #16]
 7257              		.syntax unified
 7258              	@ 923 "stm32f4xx/cmsis/cmsis_gcc.h" 1
 7259 03a8 5BBA     		rev16 r3, r3
 7260              	@ 0 "" 2
 7261              		.thumb
 7262              		.syntax unified
 7263 03aa 9BB2     		uxth	r3, r3
 7264 03ac A8F81430 		strh	r3, [r8, #20]	@ movhi
 7265 03b0 B8F81620 		ldrh	r2, [r8, #22]
 7266              		.syntax unified
 7267              	@ 923 "stm32f4xx/cmsis/cmsis_gcc.h" 1
ARM GAS  C:\Users\Jay\AppData\Local\Temp\ccrCOBv6.s 			page 125


 7268 03b4 52BA     		rev16 r2, r2
 7269              	@ 0 "" 2
 7270              		.thumb
 7271              		.syntax unified
 7272 03b6 90B2     		uxth	r0, r2
 7273 03b8 4029     		cmp	r1, #64
 7274 03ba A8F81600 		strh	r0, [r8, #22]	@ movhi
 7275 03be 02D0     		beq	.L1479
 7276 03c0 2029     		cmp	r1, #32
 7277 03c2 7FF4D1AE 		bne	.L1475
 7278              	.L1479:
 7279 03c6 B3F5807F 		cmp	r3, #256
 7280 03ca 7FF4CDAE 		bne	.L1475
 7281 03ce 2028     		cmp	r0, #32
 7282 03d0 00F2FB80 		bhi	.L1481
 7283 03d4 904B     		ldr	r3, .L1562+48
 7284 03d6 53F82030 		ldr	r3, [r3, r0, lsl #2]
 7285 03da 002B     		cmp	r3, #0
 7286 03dc 00F0F580 		beq	.L1481
 7287 03e0 FFF7FEFF 		bl	c64_send_exit_menu
 7288 03e4 8D49     		ldr	r1, .L1562+52
 7289 03e6 8E48     		ldr	r0, .L1562+56
 7290 03e8 DFF84492 		ldr	r9, .L1562+72
 7291 03ec DFF850B2 		ldr	fp, .L1562+88
 7292 03f0 FFF7FEFF 		bl	c64_send_text
 7293 03f4 8B4B     		ldr	r3, .L1562+60
 7294 03f6 8C48     		ldr	r0, .L1562+64
 7295 03f8 DA68     		ldr	r2, [r3, #12]
 7296 03fa 6FF00801 		mvn	r1, #8
 7297 03fe 0A40     		ands	r2, r2, r1
 7298 0400 DA60     		str	r2, [r3, #12]
 7299 0402 0DF1100A 		add	r10, sp, #16
 7300 0406 1961     		str	r1, [r3, #16]
 7301 0408 0026     		movs	r6, #0
 7302 040a 4FF48032 		mov	r2, #65536
 7303 040e FF21     		movs	r1, #255
 7304 0410 CAE90066 		strd	r6, r6, [r10]
 7305 0414 FFF7FEFF 		bl	memset
 7306              	.L1484:
 7307 0418 6A69     		ldr	r2, [r5, #20]
 7308 041a EB68     		ldr	r3, [r5, #12]
 7309 041c 9A42     		cmp	r2, r3
 7310 041e 7DD0     		beq	.L1556
 7311              	.L1499:
 7312 0420 03AB     		add	r3, sp, #12
 7313 0422 1022     		movs	r2, #16
 7314 0424 06A9     		add	r1, sp, #24
 7315 0426 2846     		mov	r0, r5
 7316 0428 FFF7FEFF 		bl	f_read
 7317 042c 0028     		cmp	r0, #0
 7318 042e 40F09B80 		bne	.L1485
 7319 0432 039B     		ldr	r3, [sp, #12]
 7320 0434 4FF00052 		mov	r2, #536870912
 7321 0438 102B     		cmp	r3, #16
 7322 043a C9F81820 		str	r2, [r9, #24]
 7323 043e 40F09780 		bne	.L1486
 7324 0442 069B     		ldr	r3, [sp, #24]
ARM GAS  C:\Users\Jay\AppData\Local\Temp\ccrCOBv6.s 			page 126


 7325 0444 794A     		ldr	r2, .L1562+68
 7326 0446 9342     		cmp	r3, r2
 7327 0448 40F09280 		bne	.L1486
 7328 044c 079A     		ldr	r2, [sp, #28]
 7329 044e BDF82030 		ldrh	r3, [sp, #32]
 7330 0452 92FA82FC 		rev	ip, r2
 7331 0456 CDF81CC0 		str	ip, [sp, #28]
 7332              		.syntax unified
 7333              	@ 923 "stm32f4xx/cmsis/cmsis_gcc.h" 1
 7334 045a 5BBA     		rev16 r3, r3
 7335              	@ 0 "" 2
 7336              		.thumb
 7337              		.syntax unified
 7338 045c ADF82030 		strh	r3, [sp, #32]	@ movhi
 7339 0460 BDF82230 		ldrh	r3, [sp, #34]
 7340              		.syntax unified
 7341              	@ 923 "stm32f4xx/cmsis/cmsis_gcc.h" 1
 7342 0464 5BBA     		rev16 r3, r3
 7343              	@ 0 "" 2
 7344              		.thumb
 7345              		.syntax unified
 7346 0466 98B2     		uxth	r0, r3
 7347 0468 ADF82200 		strh	r0, [sp, #34]	@ movhi
 7348 046c BDF82470 		ldrh	r7, [sp, #36]
 7349              		.syntax unified
 7350              	@ 923 "stm32f4xx/cmsis/cmsis_gcc.h" 1
 7351 0470 7FBA     		rev16 r7, r7
 7352              	@ 0 "" 2
 7353              		.thumb
 7354              		.syntax unified
 7355 0472 BFB2     		uxth	r7, r7
 7356 0474 ADF82470 		strh	r7, [sp, #36]	@ movhi
 7357 0478 BDF82610 		ldrh	r1, [sp, #38]
 7358              		.syntax unified
 7359              	@ 923 "stm32f4xx/cmsis/cmsis_gcc.h" 1
 7360 047c 49BA     		rev16 r1, r1
 7361              	@ 0 "" 2
 7362              		.thumb
 7363              		.syntax unified
 7364 047e 8AB2     		uxth	r2, r1
 7365 0480 02F1100E 		add	lr, r2, #16
 7366 0484 F445     		cmp	ip, lr
 7367 0486 ADF82620 		strh	r2, [sp, #38]	@ movhi
 7368 048a 71D3     		bcc	.L1486
 7369 048c B7F5004F 		cmp	r7, #32768
 7370 0490 00F09680 		beq	.L1557
 7371 0494 27F4804C 		bic	ip, r7, #16384
 7372 0498 BCF5204F 		cmp	ip, #40960
 7373 049c 00F08880 		beq	.L1558
 7374 04a0 B7F5704F 		cmp	r7, #61440
 7375 04a4 64D1     		bne	.L1486
 7376 04a6 B2F5805F 		cmp	r2, #4096
 7377 04aa 61D1     		bne	.L1486
 7378 04ac 9FB2     		uxth	r7, r3
 7379 04ae BF03     		lsls	r7, r7, #14
 7380 04b0 07F54057 		add	r7, r7, #12288
 7381              	.L1489:
ARM GAS  C:\Users\Jay\AppData\Local\Temp\ccrCOBv6.s 			page 127


 7382 04b4 0328     		cmp	r0, #3
 7383 04b6 75D9     		bls	.L1518
 7384 04b8 5946     		mov	r1, fp
 7385              	.L1519:
 7386 04ba 03AB     		add	r3, sp, #12
 7387 04bc 2846     		mov	r0, r5
 7388 04be FFF7FEFF 		bl	f_read
 7389 04c2 0028     		cmp	r0, #0
 7390 04c4 6CD1     		bne	.L1523
 7391 04c6 039A     		ldr	r2, [sp, #12]
 7392              	.L1492:
 7393 04c8 4FF00053 		mov	r3, #536870912
 7394 04cc C9F81830 		str	r3, [r9, #24]
 7395 04d0 BDF82630 		ldrh	r3, [sp, #38]
 7396 04d4 9342     		cmp	r3, r2
 7397 04d6 4BD1     		bne	.L1486
 7398 04d8 BDF82220 		ldrh	r2, [sp, #34]
 7399 04dc 111F     		subs	r1, r2, #4
 7400 04de 3B29     		cmp	r1, #59
 7401 04e0 63D8     		bhi	.L1493
 7402 04e2 D208     		lsrs	r2, r2, #3
 7403 04e4 07F10061 		add	r1, r7, #134217728
 7404 04e8 1AF80200 		ldrb	r0, [r10, r2]	@ zero_extendqisi2
 7405 04ec 0028     		cmp	r0, #0
 7406 04ee 77D1     		bne	.L1524
 7407 04f0 0127     		movs	r7, #1
 7408 04f2 101D     		adds	r0, r2, #4
 7409 04f4 0AF80270 		strb	r7, [r10, r2]
 7410 04f8 4FF40052 		mov	r2, #8192
 7411 04fc 40B2     		sxtb	r0, r0
 7412 04fe C9F81820 		str	r2, [r9, #24]
 7413              	.L1494:
 7414 0502 5A46     		mov	r2, fp
 7415 0504 FFF7FEFF 		bl	flash_sector_program
 7416 0508 BDF82220 		ldrh	r2, [sp, #34]
 7417              	.L1495:
 7418 050c 9642     		cmp	r6, r2
 7419 050e 83D8     		bhi	.L1484
 7420 0510 0132     		adds	r2, r2, #1
 7421 0512 D6B2     		uxtb	r6, r2
 7422 0514 EB68     		ldr	r3, [r5, #12]
 7423 0516 6A69     		ldr	r2, [r5, #20]
 7424 0518 9A42     		cmp	r2, r3
 7425 051a 81D1     		bne	.L1499
 7426              	.L1556:
 7427 051c 444B     		ldr	r3, .L1562+72
 7428 051e 4FF00052 		mov	r2, #536870912
 7429 0522 9A61     		str	r2, [r3, #24]
 7430 0524 46B3     		cbz	r6, .L1498
 7431 0526 434A     		ldr	r2, .L1562+76
 7432 0528 9368     		ldr	r3, [r2, #8]
 7433 052a 042E     		cmp	r6, #4
 7434 052c 43F00103 		orr	r3, r3, #1
 7435 0530 9360     		str	r3, [r2, #8]
 7436 0532 08D9     		bls	.L1502
 7437 0534 B303     		lsls	r3, r6, #14
 7438 0536 4049     		ldr	r1, .L1562+80
ARM GAS  C:\Users\Jay\AppData\Local\Temp\ccrCOBv6.s 			page 128


 7439 0538 03F10063 		add	r3, r3, #134217728
 7440              	.L1503:
 7441 053c 0868     		ldr	r0, [r1]
 7442 053e 1060     		str	r0, [r2]
 7443 0540 0431     		adds	r1, r1, #4
 7444 0542 9942     		cmp	r1, r3
 7445 0544 FAD1     		bne	.L1503
 7446              	.L1502:
 7447 0546 3B4B     		ldr	r3, .L1562+76
 7448 0548 B8F81610 		ldrh	r1, [r8, #22]
 7449 054c 1868     		ldr	r0, [r3]
 7450 054e 98F81820 		ldrb	r2, [r8, #24]	@ zero_extendqisi2
 7451 0552 98F81930 		ldrb	r3, [r8, #25]	@ zero_extendqisi2
 7452 0556 E673     		strb	r6, [r4, #15]
 7453 0558 0126     		movs	r6, #1
 7454 055a 2061     		str	r0, [r4, #16]	@ unaligned
 7455 055c A4F80B10 		strh	r1, [r4, #11]	@ unaligned
 7456 0560 6273     		strb	r2, [r4, #13]
 7457 0562 A373     		strb	r3, [r4, #14]
 7458 0564 6672     		strb	r6, [r4, #9]
 7459 0566 B3E5     		b	.L1538
 7460              	.L1485:
 7461 0568 314B     		ldr	r3, .L1562+72
 7462 056a 4FF00052 		mov	r2, #536870912
 7463 056e 9A61     		str	r2, [r3, #24]
 7464              	.L1486:
 7465 0570 2F4B     		ldr	r3, .L1562+72
 7466 0572 4FF00052 		mov	r2, #536870912
 7467 0576 9A61     		str	r2, [r3, #24]
 7468              	.L1498:
 7469 0578 2A4B     		ldr	r3, .L1562+60
 7470 057a DB68     		ldr	r3, [r3, #12]
 7471 057c 1807     		lsls	r0, r3, #28
 7472 057e 40F18380 		bpl	.L1559
 7473              	.L1501:
 7474 0582 0DF1AE02 		add	r2, sp, #174
 7475 0586 2D49     		ldr	r1, .L1562+84
 7476 0588 2D48     		ldr	r0, .L1562+88
 7477 058a FFF7FEFF 		bl	sprint
 7478 058e 2C49     		ldr	r1, .L1562+88
 7479 0590 2C48     		ldr	r0, .L1562+92
 7480 0592 FFF7FEFF 		bl	c64_send_text
 7481 0596 2C49     		ldr	r1, .L1562+96
 7482 0598 2C48     		ldr	r0, .L1562+100
 7483 059a FFF7FEFF 		bl	c64_send_command
 7484 059e E9E5     		b	.L1544
 7485              	.L1523:
 7486 05a0 0022     		movs	r2, #0
 7487 05a2 91E7     		b	.L1492
 7488              	.L1518:
 7489 05a4 2049     		ldr	r1, .L1562+64
 7490 05a6 3944     		add	r1, r1, r7
 7491 05a8 87E7     		b	.L1519
 7492              	.L1493:
 7493 05aa 3F2A     		cmp	r2, #63
 7494 05ac AED9     		bls	.L1495
 7495 05ae 33E7     		b	.L1484
ARM GAS  C:\Users\Jay\AppData\Local\Temp\ccrCOBv6.s 			page 129


 7496              	.L1558:
 7497 05b0 B2F5005F 		cmp	r2, #8192
 7498 05b4 DCD8     		bhi	.L1486
 7499 05b6 9FB2     		uxth	r7, r3
 7500 05b8 BF03     		lsls	r7, r7, #14
 7501 05ba 07F50057 		add	r7, r7, #8192
 7502 05be 79E7     		b	.L1489
 7503              	.L1557:
 7504 05c0 B2F5804F 		cmp	r2, #16384
 7505 05c4 D4D8     		bhi	.L1486
 7506 05c6 8703     		lsls	r7, r0, #14
 7507 05c8 74E7     		b	.L1489
 7508              	.L1481:
 7509 05ca 92B2     		uxth	r2, r2
 7510 05cc 2049     		ldr	r1, .L1562+104
 7511 05ce 1C48     		ldr	r0, .L1562+88
 7512 05d0 FFF7FEFF 		bl	sprint
 7513 05d4 1F4A     		ldr	r2, .L1562+108
 7514 05d6 1A49     		ldr	r1, .L1562+88
 7515 05d8 1F48     		ldr	r0, .L1562+112
 7516 05da FFF7FEFF 		bl	handle_unsupported_ex
 7517 05de C9E5     		b	.L1544
 7518              	.L1524:
 7519 05e0 4FF0FF30 		mov	r0, #-1
 7520 05e4 8DE7     		b	.L1494
 7521              	.L1563:
 7522 05e6 00BF     		.align	2
 7523              	.L1562:
 7524 05e8 4B756E67 		.word	1735292235
 7525 05ec 20467520 		.word	544556576
 7526 05f0 466C6173 		.word	1935764550
 7527 05f4 C4000000 		.word	.LC43
 7528 05f8 E8000000 		.word	.LC44
 7529 05fc FC000000 		.word	.LC45
 7530 0600 00000000 		.word	options_prev_select
 7531 0604 00000000 		.word	.LC15
 7532 0608 00000000 		.word	options_prev_dir
 7533 060c 00000000 		.word	.LANCHOR14
 7534 0610 43415254 		.word	1414676803
 7535 0614 45202020 		.word	538976325
 7536 0618 00000000 		.word	.LANCHOR32
 7537 061c 68000000 		.word	.LC37
 7538 0620 14000000 		.word	.LC23
 7539 0624 00000140 		.word	1073807360
 7540 0628 00000000 		.word	dat_buffer
 7541 062c 43484950 		.word	1346979907
 7542 0630 00080240 		.word	1073874944
 7543 0634 00300240 		.word	1073885184
 7544 0638 00000108 		.word	134283264
 7545 063c 84000000 		.word	.LC38
 7546 0640 00000100 		.word	scratch_buf
 7547 0644 18000000 		.word	.LC21
 7548 0648 A4000000 		.word	.LC39
 7549 064c AC000000 		.word	.LC40
 7550 0650 4C000000 		.word	.LC36
 7551 0654 00030000 		.word	dat_file+768
 7552 0658 2C000000 		.word	.LC34
ARM GAS  C:\Users\Jay\AppData\Local\Temp\ccrCOBv6.s 			page 130


 7553              	.L1554:
 7554 065c 179A     		ldr	r2, [sp, #92]
 7555 065e 1F4B     		ldr	r3, .L1564
 7556 0660 9A42     		cmp	r2, r3
 7557 0662 7FF4B6AD 		bne	.L1467
 7558 0666 2846     		mov	r0, r5
 7559 0668 0027     		movs	r7, #0
 7560 066a FFF7FEFF 		bl	prg_load_file
 7561 066e 0028     		cmp	r0, #0
 7562 0670 3FF4AFAD 		beq	.L1467
 7563 0674 18AE     		add	r6, sp, #96
 7564 0676 0FCE     		ldmia	r6!, {r0, r1, r2, r3}
 7565 0678 194E     		ldr	r6, .L1564+4
 7566 067a E777     		strb	r7, [r4, #31]
 7567 067c C4F80F00 		str	r0, [r4, #15]	@ unaligned
 7568 0680 7160     		str	r1, [r6, #4]	@ unaligned
 7569 0682 B260     		str	r2, [r6, #8]	@ unaligned
 7570 0684 F360     		str	r3, [r6, #12]	@ unaligned
 7571 0686 67E6     		b	.L1466
 7572              	.L1559:
 7573 0688 FFF7FEFF 		bl	c64_interface.part.23
 7574 068c 79E7     		b	.L1501
 7575              	.L1505:
 7576 068e 0193     		str	r3, [sp, #4]
 7577 0690 FFF7FEFF 		bl	c64_send_exit_menu
 7578 0694 1349     		ldr	r1, .L1564+8
 7579 0696 1448     		ldr	r0, .L1564+12
 7580 0698 144D     		ldr	r5, .L1564+16
 7581 069a FFF7FEFF 		bl	c64_send_text
 7582 069e 144A     		ldr	r2, .L1564+20
 7583 06a0 019B     		ldr	r3, [sp, #4]
 7584 06a2 D168     		ldr	r1, [r2, #12]
 7585 06a4 6FF00800 		mvn	r0, #8
 7586 06a8 21F00801 		bic	r1, r1, #8
 7587 06ac D160     		str	r1, [r2, #12]
 7588 06ae 1E46     		mov	r6, r3
 7589 06b0 1061     		str	r0, [r2, #16]
 7590 06b2 4FF00064 		mov	r4, #134217728
 7591              	.L1517:
 7592 06b6 7B69     		ldr	r3, [r7, #20]
 7593 06b8 83F40053 		eor	r3, r3, #8192
 7594 06bc 7B61     		str	r3, [r7, #20]
 7595 06be 2A19     		adds	r2, r5, r4
 7596 06c0 4FF48043 		mov	r3, #16384
 7597 06c4 2146     		mov	r1, r4
 7598 06c6 70B2     		sxtb	r0, r6
 7599 06c8 0136     		adds	r6, r6, #1
 7600 06ca 1C44     		add	r4, r4, r3
 7601 06cc FFF7FEFF 		bl	flash_sector_program
 7602 06d0 042E     		cmp	r6, #4
 7603 06d2 F0D1     		bne	.L1517
 7604 06d4 FFF7FEFF 		bl	save_dat
 7605 06d8 FFF7FEFF 		bl	restart_to_menu
 7606              	.L1565:
 7607              		.align	2
 7608              	.L1564:
 7609 06dc 696C6500 		.word	6646889
ARM GAS  C:\Users\Jay\AppData\Local\Temp\ccrCOBv6.s 			page 131


 7610 06e0 0F000000 		.word	dat_file+15
 7611 06e4 04010000 		.word	.LC46
 7612 06e8 14000000 		.word	.LC23
 7613 06ec 000000F8 		.word	dat_buffer-134217728
 7614 06f0 00000140 		.word	1073807360
 7616              		.section	.text.d64_send_page,"ax",%progbits
 7617              		.align	1
 7618              		.p2align 2,,3
 7619              		.syntax unified
 7620              		.thumb
 7621              		.thumb_func
 7622              		.fpu fpv4-sp-d16
 7624              	d64_send_page:
 7625              		@ args = 0, pretend = 0, frame = 24
 7626              		@ frame_needed = 0, uses_anonymous_args = 0
 7627 0000 2DE9F04F 		push	{r4, r5, r6, r7, r8, r9, r10, fp, lr}
 7628 0004 87B0     		sub	sp, sp, #28
 7629 0006 4FF0000B 		mov	fp, #0
 7630 000a DFF80092 		ldr	r9, .L1612+20
 7631 000e 7A4C     		ldr	r4, .L1612
 7632 0010 7A4D     		ldr	r5, .L1612+4
 7633 0012 DFF80C82 		ldr	r8, .L1612+40
 7634 0016 0390     		str	r0, [sp, #12]
 7635 0018 0591     		str	r1, [sp, #20]
 7636 001a 5E46     		mov	r6, fp
 7637              	.L1592:
 7638 001c F3B2     		uxtb	r3, r6
 7639 001e 0193     		str	r3, [sp, #4]
 7640 0020 002E     		cmp	r6, #0
 7641 0022 00F0B180 		beq	.L1605
 7642 0026 019B     		ldr	r3, [sp, #4]
 7643 0028 012B     		cmp	r3, #1
 7644 002a 00F0B880 		beq	.L1606
 7645              	.L1568:
 7646 002e 039B     		ldr	r3, [sp, #12]
 7647 0030 03F11400 		add	r0, r3, #20
 7648 0034 FFF7FEFF 		bl	d64_read_dir
 7649 0038 8646     		mov	lr, r0
 7650 003a 0028     		cmp	r0, #0
 7651 003c 00F08C80 		beq	.L1607
 7652 0040 039A     		ldr	r2, [sp, #12]
 7653 0042 2023     		movs	r3, #32
 7654 0044 D2F84423 		ldr	r2, [r2, #836]
 7655 0048 0292     		str	r2, [sp, #8]
 7656 004a 0021     		movs	r1, #0
 7657 004c 89F80030 		strb	r3, [r9]
 7658 0050 B2F81EB0 		ldrh	fp, [r2, #30]	@ unaligned
 7659 0054 0493     		str	r3, [sp, #16]
 7660 0056 8C46     		mov	ip, r1
 7661 0058 0846     		mov	r0, r1
 7662 005a 42F21072 		movw	r2, #10000
 7663              	.L1581:
 7664 005e BBFBF2F3 		udiv	r3, fp, r2
 7665 0062 A8FB03A7 		umull	r10, r7, r8, r3
 7666 0066 FF08     		lsrs	r7, r7, #3
 7667 0068 07EB8707 		add	r7, r7, r7, lsl #2
 7668 006c A3EB4703 		sub	r3, r3, r7, lsl #1
ARM GAS  C:\Users\Jay\AppData\Local\Temp\ccrCOBv6.s 			page 132


 7669 0070 9BB2     		uxth	r3, r3
 7670 0072 DFB2     		uxtb	r7, r3
 7671 0074 0CF1010A 		add	r10, ip, #1
 7672 0078 3037     		adds	r7, r7, #48
 7673 007a 002B     		cmp	r3, #0
 7674 007c 65D1     		bne	.L1578
 7675 007e 4B42     		negs	r3, r1
 7676 0080 DBB2     		uxtb	r3, r3
 7677 0082 0028     		cmp	r0, #0
 7678 0084 61D1     		bne	.L1578
 7679 0086 042B     		cmp	r3, #4
 7680 0088 5FD0     		beq	.L1578
 7681 008a 09EB0103 		add	r3, r9, r1
 7682 008e 049F     		ldr	r7, [sp, #16]
 7683 0090 5F71     		strb	r7, [r3, #5]
 7684              	.L1580:
 7685 0092 0139     		subs	r1, r1, #1
 7686 0094 A8FB0232 		umull	r3, r2, r8, r2
 7687 0098 4F1D     		adds	r7, r1, #5
 7688 009a 4FEAD202 		lsr	r2, r2, #3
 7689 009e DED1     		bne	.L1581
 7690 00a0 574A     		ldr	r2, .L1612+8
 7691 00a2 029B     		ldr	r3, [sp, #8]
 7692 00a4 2020     		movs	r0, #32
 7693 00a6 02F11A07 		add	r7, r2, #26
 7694 00aa 89F80600 		strb	r0, [r9, #6]
 7695 00ae 591D     		adds	r1, r3, #5
 7696 00b0 0AE0     		b	.L1585
 7697              	.L1609:
 7698 00b2 0D2B     		cmp	r3, #13
 7699 00b4 01F10101 		add	r1, r1, #1
 7700 00b8 45D0     		beq	.L1595
 7701 00ba 0A2B     		cmp	r3, #10
 7702 00bc 08BF     		it	eq
 7703 00be 5F23     		moveq	r3, #95
 7704              	.L1583:
 7705 00c0 BA42     		cmp	r2, r7
 7706 00c2 02F8013C 		strb	r3, [r2, #-1]
 7707 00c6 07D0     		beq	.L1608
 7708              	.L1585:
 7709 00c8 0B78     		ldrb	r3, [r1]	@ zero_extendqisi2
 7710 00ca 0132     		adds	r2, r2, #1
 7711 00cc 002B     		cmp	r3, #0
 7712 00ce F0D1     		bne	.L1609
 7713 00d0 BA42     		cmp	r2, r7
 7714 00d2 02F8010C 		strb	r0, [r2, #-1]
 7715 00d6 F7D1     		bne	.L1585
 7716              	.L1608:
 7717 00d8 029B     		ldr	r3, [sp, #8]
 7718 00da 029F     		ldr	r7, [sp, #8]
 7719 00dc 93F90230 		ldrsb	r3, [r3, #2]
 7720 00e0 484A     		ldr	r2, .L1612+12
 7721 00e2 4948     		ldr	r0, .L1612+16
 7722 00e4 002B     		cmp	r3, #0
 7723 00e6 ACBF     		ite	ge
 7724 00e8 2A23     		movge	r3, #42
 7725 00ea 2023     		movlt	r3, #32
ARM GAS  C:\Users\Jay\AppData\Local\Temp\ccrCOBv6.s 			page 133


 7726 00ec 89F82130 		strb	r3, [r9, #33]
 7727 00f0 BB78     		ldrb	r3, [r7, #2]	@ zero_extendqisi2
 7728 00f2 03F00703 		and	r3, r3, #7
 7729 00f6 52F82310 		ldr	r1, [r2, r3, lsl #2]
 7730 00fa FFF7FEFF 		bl	strcpy
 7731 00fe BB78     		ldrb	r3, [r7, #2]	@ zero_extendqisi2
 7732 0100 5B06     		lsls	r3, r3, #25
 7733 0102 4CBF     		ite	mi
 7734 0104 3C23     		movmi	r3, #60
 7735 0106 2023     		movpl	r3, #32
 7736 0108 89F82530 		strb	r3, [r9, #37]
 7737              	.L1569:
 7738 010c 059B     		ldr	r3, [sp, #20]
 7739 010e 019A     		ldr	r2, [sp, #4]
 7740 0110 9342     		cmp	r3, r2
 7741 0112 3E4A     		ldr	r2, .L1612+20
 7742 0114 04BF     		itt	eq
 7743 0116 A023     		moveq	r3, #160
 7744 0118 89F80030 		strbeq	r3, [r9]
 7745 011c 8027     		movs	r7, #128
 7746 011e 02F12600 		add	r0, r2, #38
 7747              	.L1591:
 7748 0122 12F8011B 		ldrb	r1, [r2], #1	@ zero_extendqisi2
 7749              	.L1590:
 7750 0126 2378     		ldrb	r3, [r4]	@ zero_extendqisi2
 7751 0128 002B     		cmp	r3, #0
 7752 012a FCD1     		bne	.L1590
 7753 012c 8242     		cmp	r2, r0
 7754 012e 2970     		strb	r1, [r5]
 7755 0130 2770     		strb	r7, [r4]
 7756 0132 F6D1     		bne	.L1591
 7757 0134 0136     		adds	r6, r6, #1
 7758 0136 162E     		cmp	r6, #22
 7759 0138 7FF470AF 		bne	.L1592
 7760 013c 0196     		str	r6, [sp, #4]
 7761              	.L1576:
 7762 013e 0198     		ldr	r0, [sp, #4]
 7763 0140 07B0     		add	sp, sp, #28
 7764              		@ sp needed
 7765 0142 BDE8F08F 		pop	{r4, r5, r6, r7, r8, r9, r10, fp, pc}
 7766              	.L1595:
 7767 0146 5F23     		movs	r3, #95
 7768 0148 BAE7     		b	.L1583
 7769              	.L1578:
 7770 014a 314B     		ldr	r3, .L1612+24
 7771 014c 7046     		mov	r0, lr
 7772 014e 0CF80370 		strb	r7, [ip, r3]
 7773 0152 5FFA8AFC 		uxtb	ip, r10
 7774 0156 9CE7     		b	.L1580
 7775              	.L1607:
 7776 0158 0399     		ldr	r1, [sp, #12]
 7777 015a 2C4A     		ldr	r2, .L1612+20
 7778 015c D1F84033 		ldr	r3, [r1, #832]
 7779 0160 1870     		strb	r0, [r3]
 7780 0162 0123     		movs	r3, #1
 7781 0164 81F84933 		strb	r3, [r1, #841]
 7782 0168 02F12506 		add	r6, r2, #37
ARM GAS  C:\Users\Jay\AppData\Local\Temp\ccrCOBv6.s 			page 134


 7783 016c 0146     		mov	r1, r0
 7784 016e 89F80000 		strb	r0, [r9]
 7785 0172 8020     		movs	r0, #128
 7786              	.L1575:
 7787 0174 2378     		ldrb	r3, [r4]	@ zero_extendqisi2
 7788 0176 002B     		cmp	r3, #0
 7789 0178 FCD1     		bne	.L1575
 7790 017a B242     		cmp	r2, r6
 7791 017c 2970     		strb	r1, [r5]
 7792 017e 2070     		strb	r0, [r4]
 7793 0180 DDD0     		beq	.L1576
 7794 0182 12F8011F 		ldrb	r1, [r2, #1]!	@ zero_extendqisi2
 7795 0186 F5E7     		b	.L1575
 7796              	.L1605:
 7797 0188 039B     		ldr	r3, [sp, #12]
 7798 018a 93F84833 		ldrb	r3, [r3, #840]	@ zero_extendqisi2
 7799 018e 002B     		cmp	r3, #0
 7800 0190 7FF44DAF 		bne	.L1568
 7801 0194 1F49     		ldr	r1, .L1612+28
 7802 0196 1D48     		ldr	r0, .L1612+20
 7803 0198 FFF7FEFF 		bl	sprint
 7804 019c B6E7     		b	.L1569
 7805              	.L1606:
 7806 019e 039B     		ldr	r3, [sp, #12]
 7807 01a0 93F84833 		ldrb	r3, [r3, #840]	@ zero_extendqisi2
 7808 01a4 002B     		cmp	r3, #0
 7809 01a6 7FF442AF 		bne	.L1568
 7810 01aa 039B     		ldr	r3, [sp, #12]
 7811 01ac 1748     		ldr	r0, .L1612+20
 7812 01ae 1A49     		ldr	r1, .L1612+32
 7813 01b0 D3F840A3 		ldr	r10, [r3, #832]
 7814 01b4 FFF7FEFF 		bl	sprint
 7815 01b8 1148     		ldr	r0, .L1612+8
 7816 01ba 2022     		movs	r2, #32
 7817 01bc 00F11A07 		add	r7, r0, #26
 7818 01c0 0AE0     		b	.L1573
 7819              	.L1611:
 7820 01c2 0D2B     		cmp	r3, #13
 7821 01c4 0AF1010A 		add	r10, r10, #1
 7822 01c8 13D0     		beq	.L1593
 7823 01ca 0A2B     		cmp	r3, #10
 7824 01cc 08BF     		it	eq
 7825 01ce 5F23     		moveq	r3, #95
 7826              	.L1571:
 7827 01d0 B842     		cmp	r0, r7
 7828 01d2 00F8013C 		strb	r3, [r0, #-1]
 7829 01d6 08D0     		beq	.L1610
 7830              	.L1573:
 7831 01d8 9AF80030 		ldrb	r3, [r10]	@ zero_extendqisi2
 7832 01dc 0130     		adds	r0, r0, #1
 7833 01de 002B     		cmp	r3, #0
 7834 01e0 EFD1     		bne	.L1611
 7835 01e2 B842     		cmp	r0, r7
 7836 01e4 00F8012C 		strb	r2, [r0, #-1]
 7837 01e8 F6D1     		bne	.L1573
 7838              	.L1610:
 7839 01ea 0C49     		ldr	r1, .L1612+36
ARM GAS  C:\Users\Jay\AppData\Local\Temp\ccrCOBv6.s 			page 135


 7840 01ec FFF7FEFF 		bl	sprint
 7841 01f0 8CE7     		b	.L1569
 7842              	.L1593:
 7843 01f2 5F23     		movs	r3, #95
 7844 01f4 ECE7     		b	.L1571
 7845              	.L1613:
 7846 01f6 00BF     		.align	2
 7847              	.L1612:
 7848 01f8 00000000 		.word	.LANCHOR10
 7849 01fc 00000000 		.word	.LANCHOR11
 7850 0200 07000100 		.word	scratch_buf+7
 7851 0204 00000000 		.word	.LANCHOR33
 7852 0208 22000100 		.word	scratch_buf+34
 7853 020c 00000100 		.word	scratch_buf
 7854 0210 01000100 		.word	scratch_buf+1
 7855 0214 00000000 		.word	.LC49
 7856 0218 28000000 		.word	.LC50
 7857 021c 30000000 		.word	.LC51
 7858 0220 CDCCCCCC 		.word	-858993459
 7860              		.section	.text.d64_next_page,"ax",%progbits
 7861              		.align	1
 7862              		.p2align 2,,3
 7863              		.syntax unified
 7864              		.thumb
 7865              		.thumb_func
 7866              		.fpu fpv4-sp-d16
 7868              	d64_next_page:
 7869              		@ args = 0, pretend = 0, frame = 0
 7870              		@ frame_needed = 0, uses_anonymous_args = 0
 7871 0000 70B5     		push	{r4, r5, r6, lr}
 7872 0002 174A     		ldr	r2, .L1625
 7873              	.L1615:
 7874 0004 1178     		ldrb	r1, [r2]	@ zero_extendqisi2
 7875 0006 01F0FF03 		and	r3, r1, #255
 7876 000a 0029     		cmp	r1, #0
 7877 000c FAD1     		bne	.L1615
 7878 000e 154D     		ldr	r5, .L1625+4
 7879 0010 90F84913 		ldrb	r1, [r0, #841]	@ zero_extendqisi2
 7880 0014 0226     		movs	r6, #2
 7881 0016 8024     		movs	r4, #128
 7882 0018 2E70     		strb	r6, [r5]
 7883 001a 1470     		strb	r4, [r2]
 7884 001c 79B1     		cbz	r1, .L1624
 7885 001e 1248     		ldr	r0, .L1625+8
 7886 0020 0146     		mov	r1, r0
 7887 0022 0370     		strb	r3, [r0]
 7888 0024 01F12506 		add	r6, r1, #37
 7889 0028 1846     		mov	r0, r3
 7890              	.L1619:
 7891 002a 1378     		ldrb	r3, [r2]	@ zero_extendqisi2
 7892 002c 002B     		cmp	r3, #0
 7893 002e FCD1     		bne	.L1619
 7894 0030 8E42     		cmp	r6, r1
 7895 0032 2870     		strb	r0, [r5]
 7896 0034 1470     		strb	r4, [r2]
 7897 0036 11D0     		beq	.L1614
 7898 0038 11F8010F 		ldrb	r0, [r1, #1]!	@ zero_extendqisi2
ARM GAS  C:\Users\Jay\AppData\Local\Temp\ccrCOBv6.s 			page 136


 7899 003c F5E7     		b	.L1619
 7900              	.L1624:
 7901 003e 90F84833 		ldrb	r3, [r0, #840]	@ zero_extendqisi2
 7902 0042 0133     		adds	r3, r3, #1
 7903 0044 80F84833 		strb	r3, [r0, #840]
 7904 0048 1621     		movs	r1, #22
 7905 004a 0446     		mov	r4, r0
 7906 004c FFF7FEFF 		bl	d64_send_page
 7907 0050 20B9     		cbnz	r0, .L1614
 7908 0052 94F84833 		ldrb	r3, [r4, #840]	@ zero_extendqisi2
 7909 0056 013B     		subs	r3, r3, #1
 7910 0058 84F84833 		strb	r3, [r4, #840]
 7911              	.L1614:
 7912 005c 70BD     		pop	{r4, r5, r6, pc}
 7913              	.L1626:
 7914 005e 00BF     		.align	2
 7915              	.L1625:
 7916 0060 00000000 		.word	.LANCHOR10
 7917 0064 00000000 		.word	.LANCHOR11
 7918 0068 00000100 		.word	scratch_buf
 7920              		.section	.text.d64_prev_page,"ax",%progbits
 7921              		.align	1
 7922              		.p2align 2,,3
 7923              		.syntax unified
 7924              		.thumb
 7925              		.thumb_func
 7926              		.fpu fpv4-sp-d16
 7928              	d64_prev_page:
 7929              		@ args = 0, pretend = 0, frame = 0
 7930              		@ frame_needed = 0, uses_anonymous_args = 0
 7931 0000 70B5     		push	{r4, r5, r6, lr}
 7932 0002 1A4A     		ldr	r2, .L1639
 7933              	.L1628:
 7934 0004 1378     		ldrb	r3, [r2]	@ zero_extendqisi2
 7935 0006 03F0FF06 		and	r6, r3, #255
 7936 000a 002B     		cmp	r3, #0
 7937 000c FAD1     		bne	.L1628
 7938 000e 184D     		ldr	r5, .L1639+4
 7939 0010 90F84833 		ldrb	r3, [r0, #840]	@ zero_extendqisi2
 7940 0014 0221     		movs	r1, #2
 7941 0016 8024     		movs	r4, #128
 7942 0018 2970     		strb	r1, [r5]
 7943 001a 1470     		strb	r4, [r2]
 7944 001c 83B9     		cbnz	r3, .L1637
 7945 001e 1548     		ldr	r0, .L1639+8
 7946 0020 0146     		mov	r1, r0
 7947 0022 0370     		strb	r3, [r0]
 7948 0024 01F12506 		add	r6, r1, #37
 7949 0028 1846     		mov	r0, r3
 7950              	.L1631:
 7951 002a 1378     		ldrb	r3, [r2]	@ zero_extendqisi2
 7952 002c 002B     		cmp	r3, #0
 7953 002e FCD1     		bne	.L1631
 7954 0030 8E42     		cmp	r6, r1
 7955 0032 2870     		strb	r0, [r5]
 7956 0034 1470     		strb	r4, [r2]
 7957 0036 02D0     		beq	.L1627
ARM GAS  C:\Users\Jay\AppData\Local\Temp\ccrCOBv6.s 			page 137


 7958 0038 11F8010F 		ldrb	r0, [r1, #1]!	@ zero_extendqisi2
 7959 003c F5E7     		b	.L1631
 7960              	.L1627:
 7961 003e 70BD     		pop	{r4, r5, r6, pc}
 7962              	.L1637:
 7963 0040 0446     		mov	r4, r0
 7964 0042 1430     		adds	r0, r0, #20
 7965 0044 FFF7FEFF 		bl	d64_read_disk_header
 7966 0048 70B1     		cbz	r0, .L1638
 7967 004a 94F84813 		ldrb	r1, [r4, #840]	@ zero_extendqisi2
 7968 004e 84F84963 		strb	r6, [r4, #841]
 7969 0052 0139     		subs	r1, r1, #1
 7970 0054 C9B2     		uxtb	r1, r1
 7971 0056 2046     		mov	r0, r4
 7972 0058 FFF7FEFF 		bl	d64_skip_to_page
 7973 005c 2046     		mov	r0, r4
 7974 005e 1621     		movs	r1, #22
 7975 0060 BDE87040 		pop	{r4, r5, r6, lr}
 7976 0064 FFF7FEBF 		b	d64_send_page
 7977              	.L1638:
 7978 0068 FFF7FEFF 		bl	handle_failed_to_read_sd
 7979              	.L1640:
 7980              		.align	2
 7981              	.L1639:
 7982 006c 00000000 		.word	.LANCHOR10
 7983 0070 00000000 		.word	.LANCHOR11
 7984 0074 00000100 		.word	scratch_buf
 7986              		.section	.text.d64_dir,"ax",%progbits
 7987              		.align	1
 7988              		.p2align 2,,3
 7989              		.syntax unified
 7990              		.thumb
 7991              		.thumb_func
 7992              		.fpu fpv4-sp-d16
 7994              	d64_dir:
 7995              		@ args = 0, pretend = 0, frame = 0
 7996              		@ frame_needed = 0, uses_anonymous_args = 0
 7997 0000 2DE9F041 		push	{r4, r5, r6, r7, r8, lr}
 7998 0004 274C     		ldr	r4, .L1656
 7999 0006 8046     		mov	r8, r0
 8000              	.L1642:
 8001 0008 2378     		ldrb	r3, [r4]	@ zero_extendqisi2
 8002 000a 002B     		cmp	r3, #0
 8003 000c FCD1     		bne	.L1642
 8004 000e 264E     		ldr	r6, .L1656+4
 8005 0010 0127     		movs	r7, #1
 8006 0012 8025     		movs	r5, #128
 8007 0014 08F11400 		add	r0, r8, #20
 8008 0018 3770     		strb	r7, [r6]
 8009 001a 2570     		strb	r5, [r4]
 8010 001c FFF7FEFF 		bl	d64_read_disk_header
 8011 0020 0028     		cmp	r0, #0
 8012 0022 3DD0     		beq	.L1653
 8013 0024 3846     		mov	r0, r7
 8014 0026 FFF7FEFF 		bl	format_path.constprop.88
 8015 002a 2049     		ldr	r1, .L1656+8
 8016 002c 01F12207 		add	r7, r1, #34
ARM GAS  C:\Users\Jay\AppData\Local\Temp\ccrCOBv6.s 			page 138


 8017              	.L1645:
 8018 0030 11F8010B 		ldrb	r0, [r1], #1	@ zero_extendqisi2
 8019              	.L1644:
 8020 0034 2378     		ldrb	r3, [r4]	@ zero_extendqisi2
 8021 0036 03F0FF02 		and	r2, r3, #255
 8022 003a 002B     		cmp	r3, #0
 8023 003c FAD1     		bne	.L1644
 8024 003e B942     		cmp	r1, r7
 8025 0040 3070     		strb	r0, [r6]
 8026 0042 2570     		strb	r5, [r4]
 8027 0044 F4D1     		bne	.L1645
 8028 0046 1A4D     		ldr	r5, .L1656+12
 8029 0048 88F84923 		strb	r2, [r8, #841]
 8030 004c B5F80D60 		ldrh	r6, [r5, #13]	@ unaligned
 8031 0050 4FF6FF73 		movw	r3, #65535
 8032 0054 9E42     		cmp	r6, r3
 8033 0056 19D0     		beq	.L1654
 8034 0058 164C     		ldr	r4, .L1656+16
 8035 005a A4FB0634 		umull	r3, r4, r4, r6
 8036 005e 2409     		lsrs	r4, r4, #4
 8037 0060 E1B2     		uxtb	r1, r4
 8038 0062 4046     		mov	r0, r8
 8039 0064 FFF7FEFF 		bl	d64_skip_to_page
 8040 0068 38B9     		cbnz	r0, .L1655
 8041 006a 6873     		strb	r0, [r5, #13]
 8042 006c A873     		strb	r0, [r5, #14]
 8043 006e 1621     		movs	r1, #22
 8044 0070 4046     		mov	r0, r8
 8045 0072 BDE8F041 		pop	{r4, r5, r6, r7, r8, lr}
 8046 0076 FFF7FEBF 		b	d64_send_page
 8047              	.L1655:
 8048 007a 1621     		movs	r1, #22
 8049 007c 01FB1461 		mls	r1, r1, r4, r6
 8050 0080 4046     		mov	r0, r8
 8051 0082 C9B2     		uxtb	r1, r1
 8052 0084 BDE8F041 		pop	{r4, r5, r6, r7, r8, lr}
 8053 0088 FFF7FEBF 		b	d64_send_page
 8054              	.L1654:
 8055 008c 88F84823 		strb	r2, [r8, #840]
 8056 0090 6A73     		strb	r2, [r5, #13]
 8057 0092 AA73     		strb	r2, [r5, #14]
 8058 0094 4046     		mov	r0, r8
 8059 0096 1621     		movs	r1, #22
 8060 0098 BDE8F041 		pop	{r4, r5, r6, r7, r8, lr}
 8061 009c FFF7FEBF 		b	d64_send_page
 8062              	.L1653:
 8063 00a0 FFF7FEFF 		bl	handle_failed_to_read_sd
 8064              	.L1657:
 8065              		.align	2
 8066              	.L1656:
 8067 00a4 00000000 		.word	.LANCHOR10
 8068 00a8 00000000 		.word	.LANCHOR11
 8069 00ac 00000100 		.word	scratch_buf
 8070 00b0 00000000 		.word	dat_file
 8071 00b4 A38B2EBA 		.word	-1171354717
 8073              		.section	.text.d64_select,"ax",%progbits
 8074              		.align	1
ARM GAS  C:\Users\Jay\AppData\Local\Temp\ccrCOBv6.s 			page 139


 8075              		.p2align 2,,3
 8076              		.syntax unified
 8077              		.thumb
 8078              		.thumb_func
 8079              		.fpu fpv4-sp-d16
 8081              	d64_select:
 8082              		@ args = 0, pretend = 0, frame = 0
 8083              		@ frame_needed = 0, uses_anonymous_args = 0
 8084 0000 2DE9F04F 		push	{r4, r5, r6, r7, r8, r9, r10, fp, lr}
 8085 0004 90F84853 		ldrb	r5, [r0, #840]	@ zero_extendqisi2
 8086 0008 8C4F     		ldr	r7, .L1720
 8087 000a 05EB8503 		add	r3, r5, r5, lsl #2
 8088 000e 05EB4305 		add	r5, r5, r3, lsl #1
 8089 0012 0024     		movs	r4, #0
 8090 0014 02EB4505 		add	r5, r2, r5, lsl #1
 8091 0018 83B0     		sub	sp, sp, #12
 8092 001a 8946     		mov	r9, r1
 8093 001c A7F80D50 		strh	r5, [r7, #13]	@ unaligned
 8094 0020 7C72     		strb	r4, [r7, #9]
 8095 0022 FC73     		strb	r4, [r7, #15]
 8096 0024 4DB9     		cbnz	r5, .L1659
 8097 0026 11F04009 		ands	r9, r1, #64
 8098 002a 4ED1     		bne	.L1710
 8099 002c 4946     		mov	r1, r9
 8100 002e FFF7FEFF 		bl	d64_dir_up
 8101 0032 4846     		mov	r0, r9
 8102              	.L1705:
 8103 0034 03B0     		add	sp, sp, #12
 8104              		@ sp needed
 8105 0036 BDE8F08F 		pop	{r4, r5, r6, r7, r8, r9, r10, fp, pc}
 8106              	.L1659:
 8107 003a 012D     		cmp	r5, #1
 8108 003c 0646     		mov	r6, r0
 8109 003e 9246     		mov	r10, r2
 8110 0040 74D0     		beq	.L1711
 8111              	.L1662:
 8112 0042 96F83C32 		ldrb	r3, [r6, #572]	@ zero_extendqisi2
 8113 0046 032B     		cmp	r3, #3
 8114 0048 06F11408 		add	r8, r6, #20
 8115 004c 00F09680 		beq	.L1712
 8116 0050 1222     		movs	r2, #18
 8117 0052 0123     		movs	r3, #1
 8118 0054 86F83E22 		strb	r2, [r6, #574]
 8119 0058 86F83F32 		strb	r3, [r6, #575]
 8120              	.L1665:
 8121 005c 0022     		movs	r2, #0
 8122 005e 06F23E33 		addw	r3, r6, #830
 8123 0062 86F83D22 		strb	r2, [r6, #573]
 8124 0066 C6F84433 		str	r3, [r6, #836]
 8125 006a 0324     		movs	r4, #3
 8126 006c 4FF6FF7B 		movw	fp, #65535
 8127 0070 03E0     		b	.L1666
 8128              	.L1670:
 8129 0072 A542     		cmp	r5, r4
 8130 0074 31D3     		bcc	.L1713
 8131              	.L1671:
 8132 0076 0134     		adds	r4, r4, #1
ARM GAS  C:\Users\Jay\AppData\Local\Temp\ccrCOBv6.s 			page 140


 8133 0078 A4B2     		uxth	r4, r4
 8134              	.L1666:
 8135 007a 4046     		mov	r0, r8
 8136 007c FFF7FEFF 		bl	d64_read_dir
 8137 0080 0028     		cmp	r0, #0
 8138 0082 62D0     		beq	.L1714
 8139 0084 5D45     		cmp	r5, fp
 8140 0086 F4D1     		bne	.L1670
 8141 0088 D6F84423 		ldr	r2, [r6, #836]
 8142 008c 9378     		ldrb	r3, [r2, #2]	@ zero_extendqisi2
 8143 008e 03F00703 		and	r3, r3, #7
 8144 0092 022B     		cmp	r3, #2
 8145 0094 EFD1     		bne	.L1671
 8146 0096 D378     		ldrb	r3, [r2, #3]	@ zero_extendqisi2
 8147 0098 002B     		cmp	r3, #0
 8148 009a ECD0     		beq	.L1671
 8149 009c 5379     		ldrb	r3, [r2, #5]	@ zero_extendqisi2
 8150 009e 002B     		cmp	r3, #0
 8151 00a0 5FD0     		beq	.L1687
 8152              	.L1669:
 8153 00a2 6748     		ldr	r0, .L1720+4
 8154 00a4 0632     		adds	r2, r2, #6
 8155 00a6 0146     		mov	r1, r0
 8156 00a8 07E0     		b	.L1709
 8157              	.L1715:
 8158 00aa 0A2B     		cmp	r3, #10
 8159 00ac 08BF     		it	eq
 8160 00ae 5F23     		moveq	r3, #95
 8161              	.L1675:
 8162 00b0 01F8013C 		strb	r3, [r1, #-1]
 8163 00b4 12F8013B 		ldrb	r3, [r2], #1	@ zero_extendqisi2
 8164 00b8 E3B1     		cbz	r3, .L1676
 8165              	.L1709:
 8166 00ba A02B     		cmp	r3, #160
 8167 00bc 1AD0     		beq	.L1676
 8168 00be 0D2B     		cmp	r3, #13
 8169 00c0 01F10101 		add	r1, r1, #1
 8170 00c4 F1D1     		bne	.L1715
 8171 00c6 5F23     		movs	r3, #95
 8172 00c8 F2E7     		b	.L1675
 8173              	.L1710:
 8174 00ca 2946     		mov	r1, r5
 8175 00cc 5D48     		ldr	r0, .L1720+8
 8176 00ce FFF7FEFF 		bl	handle_file_options
 8177 00d2 2846     		mov	r0, r5
 8178 00d4 03B0     		add	sp, sp, #12
 8179              		@ sp needed
 8180 00d6 BDE8F08F 		pop	{r4, r5, r6, r7, r8, r9, r10, fp, pc}
 8181              	.L1713:
 8182 00da D6F84423 		ldr	r2, [r6, #836]
 8183 00de 5379     		ldrb	r3, [r2, #5]	@ zero_extendqisi2
 8184 00e0 002B     		cmp	r3, #0
 8185 00e2 DED1     		bne	.L1669
 8186              	.L1674:
 8187 00e4 0025     		movs	r5, #0
 8188 00e6 3046     		mov	r0, r6
 8189 00e8 7D73     		strb	r5, [r7, #13]
ARM GAS  C:\Users\Jay\AppData\Local\Temp\ccrCOBv6.s 			page 141


 8190 00ea BD73     		strb	r5, [r7, #14]
 8191 00ec FFF7FEFF 		bl	d64_dir
 8192 00f0 2846     		mov	r0, r5
 8193 00f2 9FE7     		b	.L1705
 8194              	.L1676:
 8195 00f4 0025     		movs	r5, #0
 8196 00f6 19F04004 		ands	r4, r9, #64
 8197 00fa 0D70     		strb	r5, [r1]
 8198 00fc FD77     		strb	r5, [r7, #31]
 8199 00fe 1ED1     		bne	.L1716
 8200 0100 D6F84413 		ldr	r1, [r6, #836]
 8201 0104 8B78     		ldrb	r3, [r1, #2]	@ zero_extendqisi2
 8202 0106 03F00702 		and	r2, r3, #7
 8203 010a 19F00203 		ands	r3, r9, #2
 8204 010e 52D1     		bne	.L1679
 8205 0110 022A     		cmp	r2, #2
 8206 0112 02D1     		bne	.L1681
 8207 0114 CA78     		ldrb	r2, [r1, #3]	@ zero_extendqisi2
 8208 0116 002A     		cmp	r2, #0
 8209 0118 3CD1     		bne	.L1682
 8210              	.L1681:
 8211 011a 494A     		ldr	r2, .L1720+4
 8212 011c 4A49     		ldr	r1, .L1720+12
 8213 011e 4B48     		ldr	r0, .L1720+16
 8214 0120 FFF7FEFF 		bl	handle_unsupported_ex
 8215 0124 0020     		movs	r0, #0
 8216 0126 03B0     		add	sp, sp, #12
 8217              		@ sp needed
 8218 0128 BDE8F08F 		pop	{r4, r5, r6, r7, r8, r9, r10, fp, pc}
 8219              	.L1711:
 8220 012c 11F0400F 		tst	r1, #64
 8221 0130 2AD1     		bne	.L1717
 8222 0132 11F00203 		ands	r3, r1, #2
 8223 0136 44D0     		beq	.L1718
 8224 0138 4FF6FF75 		movw	r5, #65535
 8225 013c 81E7     		b	.L1662
 8226              	.L1716:
 8227 013e 5246     		mov	r2, r10
 8228 0140 0521     		movs	r1, #5
 8229 0142 FFF7FEFF 		bl	handle_file_options
 8230 0146 2846     		mov	r0, r5
 8231 0148 74E7     		b	.L1705
 8232              	.L1714:
 8233 014a D6F84433 		ldr	r3, [r6, #836]
 8234 014e 5871     		strb	r0, [r3, #5]
 8235 0150 D6F84423 		ldr	r2, [r6, #836]
 8236 0154 5379     		ldrb	r3, [r2, #5]	@ zero_extendqisi2
 8237 0156 002B     		cmp	r3, #0
 8238 0158 A3D1     		bne	.L1669
 8239 015a 4FF6FF73 		movw	r3, #65535
 8240 015e 9D42     		cmp	r5, r3
 8241 0160 C0D1     		bne	.L1674
 8242              	.L1687:
 8243 0162 0025     		movs	r5, #0
 8244 0164 0123     		movs	r3, #1
 8245 0166 3A4A     		ldr	r2, .L1720+20
 8246 0168 3A49     		ldr	r1, .L1720+24
ARM GAS  C:\Users\Jay\AppData\Local\Temp\ccrCOBv6.s 			page 142


 8247 016a 3B48     		ldr	r0, .L1720+28
 8248 016c BD73     		strb	r5, [r7, #14]
 8249 016e 7B73     		strb	r3, [r7, #13]
 8250 0170 FFF7FEFF 		bl	handle_unsupported_ex
 8251 0174 2846     		mov	r0, r5
 8252 0176 03B0     		add	sp, sp, #12
 8253              		@ sp needed
 8254 0178 BDE8F08F 		pop	{r4, r5, r6, r7, r8, r9, r10, fp, pc}
 8255              	.L1712:
 8256 017c 2822     		movs	r2, #40
 8257 017e 86F83F32 		strb	r3, [r6, #575]
 8258 0182 86F83E22 		strb	r2, [r6, #574]
 8259 0186 69E7     		b	.L1665
 8260              	.L1717:
 8261 0188 3448     		ldr	r0, .L1720+32
 8262 018a 0521     		movs	r1, #5
 8263 018c FFF7FEFF 		bl	handle_file_options
 8264 0190 2046     		mov	r0, r4
 8265 0192 4FE7     		b	.L1705
 8266              	.L1682:
 8267 0194 0093     		str	r3, [sp]
 8268 0196 0246     		mov	r2, r0
 8269 0198 3149     		ldr	r1, .L1720+36
 8270 019a 3248     		ldr	r0, .L1720+40
 8271 019c FFF7FEFF 		bl	sprint
 8272 01a0 0423     		movs	r3, #4
 8273              	.L1708:
 8274 01a2 3148     		ldr	r0, .L1720+44
 8275 01a4 7B72     		strb	r3, [r7, #9]
 8276 01a6 FFF7FEFF 		bl	f_close
 8277 01aa 304B     		ldr	r3, .L1720+48
 8278 01ac 4FF00052 		mov	r2, #536870912
 8279 01b0 9A61     		str	r2, [r3, #24]
 8280 01b2 0120     		movs	r0, #1
 8281 01b4 3EE7     		b	.L1705
 8282              	.L1679:
 8283 01b6 022A     		cmp	r2, #2
 8284 01b8 14D0     		beq	.L1719
 8285              	.L1684:
 8286 01ba 0023     		movs	r3, #0
 8287 01bc FB72     		strb	r3, [r7, #11]
 8288 01be 3B73     		strb	r3, [r7, #12]
 8289 01c0 ABE7     		b	.L1681
 8290              	.L1718:
 8291 01c2 264A     		ldr	r2, .L1720+32
 8292 01c4 0093     		str	r3, [sp]
 8293 01c6 2649     		ldr	r1, .L1720+36
 8294 01c8 2648     		ldr	r0, .L1720+40
 8295 01ca FFF7FEFF 		bl	sprint
 8296 01ce 0423     		movs	r3, #4
 8297 01d0 2548     		ldr	r0, .L1720+44
 8298 01d2 7B72     		strb	r3, [r7, #9]
 8299 01d4 FFF7FEFF 		bl	f_close
 8300 01d8 244B     		ldr	r3, .L1720+48
 8301 01da 4FF00052 		mov	r2, #536870912
 8302 01de 2846     		mov	r0, r5
 8303 01e0 9A61     		str	r2, [r3, #24]
ARM GAS  C:\Users\Jay\AppData\Local\Temp\ccrCOBv6.s 			page 143


 8304 01e2 27E7     		b	.L1705
 8305              	.L1719:
 8306 01e4 CB78     		ldrb	r3, [r1, #3]	@ zero_extendqisi2
 8307 01e6 002B     		cmp	r3, #0
 8308 01e8 E7D0     		beq	.L1684
 8309 01ea 86F83E32 		strb	r3, [r6, #574]
 8310 01ee 0B79     		ldrb	r3, [r1, #4]	@ zero_extendqisi2
 8311 01f0 86F83F32 		strb	r3, [r6, #575]
 8312 01f4 06F23E29 		addw	r9, r6, #574
 8313 01f8 06F5107A 		add	r10, r6, #576
 8314 01fc 2546     		mov	r5, r4
 8315 01fe 194E     		ldr	r6, .L1720+40
 8316 0200 09E0     		b	.L1685
 8317              	.L1686:
 8318 0202 3046     		mov	r0, r6
 8319 0204 2544     		add	r5, r5, r4
 8320 0206 FFF7FEFF 		bl	memcpy
 8321 020a 05F1FE03 		add	r3, r5, #254
 8322 020e B3F5803F 		cmp	r3, #65536
 8323 0212 2644     		add	r6, r6, r4
 8324 0214 D1D8     		bhi	.L1684
 8325              	.L1685:
 8326 0216 4946     		mov	r1, r9
 8327 0218 4046     		mov	r0, r8
 8328 021a FFF7FEFF 		bl	d64_read_file_sector
 8329 021e 5146     		mov	r1, r10
 8330 0220 0446     		mov	r4, r0
 8331 0222 0246     		mov	r2, r0
 8332 0224 0028     		cmp	r0, #0
 8333 0226 ECD1     		bne	.L1686
 8334 0228 ACB2     		uxth	r4, r5
 8335 022a 022C     		cmp	r4, #2
 8336 022c A7F80B40 		strh	r4, [r7, #11]	@ unaligned
 8337 0230 7FF673AF 		bls	.L1681
 8338 0234 FFF7FEFF 		bl	c64_send_exit_menu
 8339 0238 0223     		movs	r3, #2
 8340 023a B2E7     		b	.L1708
 8341              	.L1721:
 8342              		.align	2
 8343              	.L1720:
 8344 023c 00000000 		.word	dat_file
 8345 0240 0F000000 		.word	dat_file+15
 8346 0244 04000000 		.word	.LC31
 8347 0248 08000000 		.word	.LC33
 8348 024c 2C000000 		.word	.LC34
 8349 0250 00030000 		.word	dat_file+768
 8350 0254 18000000 		.word	.LC54
 8351 0258 38000000 		.word	.LC55
 8352 025c 00000000 		.word	.LC52
 8353 0260 04000000 		.word	.LC53
 8354 0264 00000000 		.word	dat_buffer
 8355 0268 14000000 		.word	.LANCHOR28+20
 8356 026c 00080240 		.word	1073874944
 8358              		.section	.text.fc3_handler,"ax",%progbits
 8359              		.align	1
 8360              		.p2align 2,,3
 8361              		.global	fc3_handler
ARM GAS  C:\Users\Jay\AppData\Local\Temp\ccrCOBv6.s 			page 144


 8362              		.syntax unified
 8363              		.thumb
 8364              		.thumb_func
 8365              		.fpu fpv4-sp-d16
 8367              	fc3_handler:
 8368              		@ args = 0, pretend = 0, frame = 0
 8369              		@ frame_needed = 0, uses_anonymous_args = 0
 8370 0000 804B     		ldr	r3, .L1780
 8371 0002 1B69     		ldr	r3, [r3, #16]
 8372 0004 1A07     		lsls	r2, r3, #28
 8373 0006 40F1E580 		bpl	.L1770
 8374 000a 7F4A     		ldr	r2, .L1780+4
 8375 000c 7F48     		ldr	r0, .L1780+8
 8376 000e 8049     		ldr	r1, .L1780+12
 8377 0010 DFF814C2 		ldr	ip, .L1780+36
 8378 0014 2DE9F04F 		push	{r4, r5, r6, r7, r8, r9, r10, fp, lr}
 8379 0018 4FF00043 		mov	r3, #-2147483648
 8380 001c 7D4C     		ldr	r4, .L1780+16
 8381 001e 7E4F     		ldr	r7, .L1780+20
 8382 0020 7E4D     		ldr	r5, .L1780+24
 8383 0022 DFF808E2 		ldr	lr, .L1780+40
 8384 0026 7E4E     		ldr	r6, .L1780+28
 8385 0028 9361     		str	r3, [r2, #24]
 8386              	.L1744:
 8387 002a 0369     		ldr	r3, [r0, #16]
 8388 002c 9BB2     		uxth	r3, r3
 8389 002e D2F81080 		ldr	r8, [r2, #16]
 8390 0032 5FFA88F8 		uxtb	r8, r8
 8391 0036 08F00909 		and	r9, r8, #9
 8392 003a B9F1010F 		cmp	r9, #1
 8393 003e 00F09D80 		beq	.L1774
 8394 0042 18F0010A 		ands	r10, r8, #1
 8395 0046 76D1     		bne	.L1775
 8396 0048 94F80090 		ldrb	r9, [r4]	@ zero_extendqisi2
 8397 004c B9F1000F 		cmp	r9, #0
 8398 0050 12D0     		beq	.L1734
 8399 0052 09F10109 		add	r9, r9, #1
 8400 0056 5FFA89F9 		uxtb	r9, r9
 8401 005a B9F1040F 		cmp	r9, #4
 8402 005e 84F80090 		strb	r9, [r4]
 8403 0062 09D1     		bne	.L1734
 8404 0064 4FF0C04B 		mov	fp, #1610612736
 8405 0068 4DF6FF79 		movw	r9, #57343
 8406 006c C1F818B0 		str	fp, [r1, #24]
 8407 0070 84F800A0 		strb	r10, [r4]
 8408 0074 A7F80090 		strh	r9, [r7]	@ movhi
 8409              	.L1734:
 8410 0078 18F0040F 		tst	r8, #4
 8411 007c D1F81090 		ldr	r9, [r1, #16]
 8412 0080 21D1     		bne	.L1728
 8413 0082 B7F800A0 		ldrh	r10, [r7]
 8414 0086 9A45     		cmp	r10, r3
 8415 0088 1DD1     		bne	.L1728
 8416 008a 5FFA89FA 		uxtb	r10, r9
 8417 008e 0AF00F03 		and	r3, r10, #15
 8418 0092 1AF0400F 		tst	r10, #64
 8419 0096 5EF82330 		ldr	r3, [lr, r3, lsl #2]
ARM GAS  C:\Users\Jay\AppData\Local\Temp\ccrCOBv6.s 			page 145


 8420 009a 2B60     		str	r3, [r5]
 8421 009c 4FEA5A19 		lsr	r9, r10, #5
 8422 00a0 14BF     		ite	ne
 8423 00a2 4FF48063 		movne	r3, #1024
 8424 00a6 4FF08063 		moveq	r3, #67108864
 8425 00aa 9361     		str	r3, [r2, #24]
 8426 00ac 09F00409 		and	r9, r9, #4
 8427 00b0 CAF30113 		ubfx	r3, r10, #4, #2
 8428 00b4 49EA0303 		orr	r3, r9, r3
 8429 00b8 5CF82330 		ldr	r3, [ip, r3, lsl #2]
 8430 00bc 8B61     		str	r3, [r1, #24]
 8431 00be 9B04     		lsls	r3, r3, #18
 8432 00c0 44BF     		itt	mi
 8433 00c2 0023     		movmi	r3, #0
 8434 00c4 3B80     		strhmi	r3, [r7]	@ movhi
 8435              	.L1728:
 8436 00c6 18F0100F 		tst	r8, #16
 8437 00ca 4DD1     		bne	.L1768
 8438              	.L1776:
 8439 00cc DFF83481 		ldr	r8, .L1780
 8440              	.L1738:
 8441 00d0 D8F82430 		ldr	r3, [r8, #36]
 8442 00d4 532B     		cmp	r3, #83
 8443 00d6 FBD8     		bhi	.L1738
 8444 00d8 524B     		ldr	r3, .L1780+32
 8445 00da D8F82480 		ldr	r8, [r8, #36]
 8446 00de C3F80480 		str	r8, [r3, #4]
 8447 00e2 9846     		mov	r8, r3
 8448              	.L1739:
 8449 00e4 D8F80430 		ldr	r3, [r8, #4]
 8450 00e8 112B     		cmp	r3, #17
 8451 00ea FBD9     		bls	.L1739
 8452 00ec D0F81090 		ldr	r9, [r0, #16]
 8453 00f0 DFF83081 		ldr	r8, .L1780+32
 8454              	.L1740:
 8455 00f4 D8F80430 		ldr	r3, [r8, #4]
 8456 00f8 202B     		cmp	r3, #32
 8457 00fa FBD9     		bls	.L1740
 8458 00fc 1369     		ldr	r3, [r2, #16]
 8459 00fe 03F0C603 		and	r3, r3, #198
 8460 0102 C62B     		cmp	r3, #198
 8461 0104 10D0     		beq	.L1741
 8462 0106 2B68     		ldr	r3, [r5]
 8463 0108 DFF81881 		ldr	r8, .L1780+32
 8464 010c C9F30D09 		ubfx	r9, r9, #0, #14
 8465 0110 13F80930 		ldrb	r3, [r3, r9]	@ zero_extendqisi2
 8466 0114 3370     		strb	r3, [r6]
 8467 0116 45F25553 		movw	r3, #21845
 8468 011a 0B80     		strh	r3, [r1]	@ movhi
 8469              	.L1742:
 8470 011c D8F80430 		ldr	r3, [r8, #4]
 8471 0120 3C2B     		cmp	r3, #60
 8472 0122 FBD9     		bls	.L1742
 8473 0124 0023     		movs	r3, #0
 8474 0126 0B80     		strh	r3, [r1]	@ movhi
 8475              	.L1741:
 8476 0128 DFF8F880 		ldr	r8, .L1780+32
ARM GAS  C:\Users\Jay\AppData\Local\Temp\ccrCOBv6.s 			page 146


 8477              	.L1743:
 8478 012c D8F80430 		ldr	r3, [r8, #4]
 8479 0130 602B     		cmp	r3, #96
 8480 0132 FBD9     		bls	.L1743
 8481 0134 79E7     		b	.L1744
 8482              	.L1775:
 8483 0136 08F0C609 		and	r9, r8, #198
 8484 013a B9F1C60F 		cmp	r9, #198
 8485 013e 4AD0     		beq	.L1730
 8486 0140 C3F30D0A 		ubfx	r10, r3, #0, #14
 8487 0144 2B68     		ldr	r3, [r5]
 8488 0146 DFF8BC90 		ldr	r9, .L1780
 8489 014a 13F80A30 		ldrb	r3, [r3, r10]	@ zero_extendqisi2
 8490 014e 3370     		strb	r3, [r6]
 8491 0150 45F25553 		movw	r3, #21845
 8492 0154 0B80     		strh	r3, [r1]	@ movhi
 8493              	.L1731:
 8494 0156 D9F82430 		ldr	r3, [r9, #36]
 8495 015a 932B     		cmp	r3, #147
 8496 015c FBD9     		bls	.L1731
 8497 015e 0023     		movs	r3, #0
 8498 0160 0B80     		strh	r3, [r1]	@ movhi
 8499              	.L1777:
 8500 0162 18F0100F 		tst	r8, #16
 8501 0166 B1D0     		beq	.L1776
 8502              	.L1768:
 8503 0168 264B     		ldr	r3, .L1780
 8504 016a DA68     		ldr	r2, [r3, #12]
 8505 016c 6FF00801 		mvn	r1, #8
 8506 0170 0A40     		ands	r2, r2, r1
 8507 0172 DA60     		str	r2, [r3, #12]
 8508 0174 1961     		str	r1, [r3, #16]
 8509 0176 1961     		str	r1, [r3, #16]
 8510 0178 BDE8F08F 		pop	{r4, r5, r6, r7, r8, r9, r10, fp, pc}
 8511              	.L1774:
 8512              		.syntax unified
 8513              	@ 136 "cartridges/final_cartridge_3.c" 1
 8514 017c 00BF     		nop
 8515              	@ 0 "" 2
 8516              	@ 136 "cartridges/final_cartridge_3.c" 1
 8517 017e 00BF     		nop
 8518              	@ 0 "" 2
 8519              	@ 136 "cartridges/final_cartridge_3.c" 1
 8520 0180 00BF     		nop
 8521              	@ 0 "" 2
 8522              	@ 136 "cartridges/final_cartridge_3.c" 1
 8523 0182 00BF     		nop
 8524              	@ 0 "" 2
 8525              	@ 136 "cartridges/final_cartridge_3.c" 1
 8526 0184 00BF     		nop
 8527              	@ 0 "" 2
 8528              	@ 136 "cartridges/final_cartridge_3.c" 1
 8529 0186 00BF     		nop
 8530              	@ 0 "" 2
 8531              	@ 136 "cartridges/final_cartridge_3.c" 1
 8532 0188 00BF     		nop
 8533              	@ 0 "" 2
ARM GAS  C:\Users\Jay\AppData\Local\Temp\ccrCOBv6.s 			page 147


 8534              		.thumb
 8535              		.syntax unified
 8536 018a D2F81080 		ldr	r8, [r2, #16]
 8537 018e 5FFA88F8 		uxtb	r8, r8
 8538 0192 08F0C60A 		and	r10, r8, #198
 8539 0196 BAF1C60F 		cmp	r10, #198
 8540 019a 11D0     		beq	.L1725
 8541 019c C3F30D0A 		ubfx	r10, r3, #0, #14
 8542 01a0 2B68     		ldr	r3, [r5]
 8543 01a2 DFF86090 		ldr	r9, .L1780
 8544 01a6 13F80A30 		ldrb	r3, [r3, r10]	@ zero_extendqisi2
 8545 01aa 3370     		strb	r3, [r6]
 8546 01ac 45F25553 		movw	r3, #21845
 8547 01b0 0B80     		strh	r3, [r1]	@ movhi
 8548              	.L1726:
 8549 01b2 D9F82430 		ldr	r3, [r9, #36]
 8550 01b6 932B     		cmp	r3, #147
 8551 01b8 FBD9     		bls	.L1726
 8552 01ba 0023     		movs	r3, #0
 8553 01bc 0B80     		strh	r3, [r1]	@ movhi
 8554 01be D0E7     		b	.L1777
 8555              	.L1725:
 8556 01c0 18F0200F 		tst	r8, #32
 8557 01c4 18D1     		bne	.L1778
 8558 01c6 2378     		ldrb	r3, [r4]	@ zero_extendqisi2
 8559 01c8 002B     		cmp	r3, #0
 8560 01ca 3FF47CAF 		beq	.L1728
 8561 01ce 84F80090 		strb	r9, [r4]
 8562 01d2 78E7     		b	.L1728
 8563              	.L1770:
 8564 01d4 7047     		bx	lr
 8565              	.L1730:
 8566 01d6 18F0200F 		tst	r8, #32
 8567 01da 06D1     		bne	.L1779
 8568 01dc 2378     		ldrb	r3, [r4]	@ zero_extendqisi2
 8569 01de 002B     		cmp	r3, #0
 8570 01e0 3FF471AF 		beq	.L1728
 8571 01e4 0123     		movs	r3, #1
 8572 01e6 2370     		strb	r3, [r4]
 8573 01e8 6DE7     		b	.L1728
 8574              	.L1779:
 8575 01ea 4FF08069 		mov	r9, #67108864
 8576 01ee 0123     		movs	r3, #1
 8577 01f0 C2F81890 		str	r9, [r2, #24]
 8578 01f4 2370     		strb	r3, [r4]
 8579 01f6 66E7     		b	.L1728
 8580              	.L1778:
 8581 01f8 4FF08063 		mov	r3, #67108864
 8582 01fc 9361     		str	r3, [r2, #24]
 8583 01fe 84F80090 		strb	r9, [r4]
 8584 0202 60E7     		b	.L1728
 8585              	.L1781:
 8586              		.align	2
 8587              	.L1780:
 8588 0204 00000140 		.word	1073807360
 8589 0208 00000240 		.word	1073872896
 8590 020c 00040240 		.word	1073873920
ARM GAS  C:\Users\Jay\AppData\Local\Temp\ccrCOBv6.s 			page 148


 8591 0210 00080240 		.word	1073874944
 8592 0214 00000000 		.word	.LANCHOR34
 8593 0218 00000000 		.word	.LANCHOR9
 8594 021c 00000000 		.word	.LANCHOR7
 8595 0220 14080240 		.word	1073874964
 8596 0224 001000E0 		.word	-536866816
 8597 0228 00000000 		.word	.LANCHOR35
 8598 022c 00000000 		.word	.LANCHOR18
 8600              		.section	.text.ss5_handler,"ax",%progbits
 8601              		.align	1
 8602              		.p2align 2,,3
 8603              		.global	ss5_handler
 8604              		.syntax unified
 8605              		.thumb
 8606              		.thumb_func
 8607              		.fpu fpv4-sp-d16
 8609              	ss5_handler:
 8610              		@ args = 0, pretend = 0, frame = 0
 8611              		@ frame_needed = 0, uses_anonymous_args = 0
 8612 0000 7E4B     		ldr	r3, .L1865
 8613 0002 1B69     		ldr	r3, [r3, #16]
 8614 0004 1B07     		lsls	r3, r3, #28
 8615 0006 40F1DE80 		bpl	.L1847
 8616 000a 7D48     		ldr	r0, .L1865+4
 8617 000c DFF818C2 		ldr	ip, .L1865+44
 8618 0010 2DE9F04F 		push	{r4, r5, r6, r7, r8, r9, r10, fp, lr}
 8619 0014 4FF00043 		mov	r3, #-2147483648
 8620 0018 7A4E     		ldr	r6, .L1865+8
 8621 001a 7B4C     		ldr	r4, .L1865+12
 8622 001c DFF80CE2 		ldr	lr, .L1865+48
 8623 0020 DFF80C92 		ldr	r9, .L1865+52
 8624 0024 794D     		ldr	r5, .L1865+16
 8625 0026 DFF80C82 		ldr	r8, .L1865+56
 8626 002a 8361     		str	r3, [r0, #24]
 8627              	.L1807:
 8628 002c 2269     		ldr	r2, [r4, #16]
 8629 002e 92B2     		uxth	r2, r2
 8630 0030 0369     		ldr	r3, [r0, #16]
 8631 0032 DBB2     		uxtb	r3, r3
 8632 0034 03F00901 		and	r1, r3, #9
 8633 0038 0129     		cmp	r1, #1
 8634 003a 7BD0     		beq	.L1855
 8635 003c 13F00107 		ands	r7, r3, #1
 8636 0040 53D1     		bne	.L1856
 8637 0042 9CF80010 		ldrb	r1, [ip]	@ zero_extendqisi2
 8638 0046 31B1     		cbz	r1, .L1797
 8639 0048 0131     		adds	r1, r1, #1
 8640 004a C9B2     		uxtb	r1, r1
 8641 004c 0429     		cmp	r1, #4
 8642 004e 8CF80010 		strb	r1, [ip]
 8643 0052 00F0B980 		beq	.L1857
 8644              	.L1797:
 8645 0056 D6F800A0 		ldr	r10, [r6]
 8646 005a 2969     		ldr	r1, [r5, #16]
 8647 005c BAF1000F 		cmp	r10, #0
 8648 0060 2CD0     		beq	.L1790
 8649 0062 C9B2     		uxtb	r1, r1
ARM GAS  C:\Users\Jay\AppData\Local\Temp\ccrCOBv6.s 			page 149


 8650              	.L1798:
 8651 0064 13F00207 		ands	r7, r3, #2
 8652 0068 40F08580 		bne	.L1799
 8653 006c 4FEA510B 		lsr	fp, r1, #1
 8654 0070 01F00302 		and	r2, r1, #3
 8655 0074 0BF0040B 		and	fp, fp, #4
 8656 0078 4FEAD10A 		lsr	r10, r1, #3
 8657 007c 4BEA020B 		orr	fp, fp, r2
 8658 0080 634A     		ldr	r2, .L1865+20
 8659 0082 0AF0020A 		and	r10, r10, #2
 8660 0086 C1F38001 		ubfx	r1, r1, #2, #1
 8661 008a 52F82B20 		ldr	r2, [r2, fp, lsl #2]
 8662 008e 4AEA0101 		orr	r1, r10, r1
 8663 0092 12F4005F 		tst	r2, #8192
 8664 0096 59F821A0 		ldr	r10, [r9, r1, lsl #2]
 8665 009a CEF800A0 		str	r10, [lr]
 8666 009e AA61     		str	r2, [r5, #24]
 8667 00a0 74D1     		bne	.L1858
 8668 00a2 002A     		cmp	r2, #0
 8669 00a4 A9BF     		itett	ge
 8670 00a6 5B4F     		ldrge	r7, .L1865+24
 8671 00a8 C6F800A0 		strlt	r10, [r6]
 8672 00ac 57F82110 		ldrge	r1, [r7, r1, lsl #2]
 8673 00b0 3160     		strge	r1, [r6]
 8674              	.L1801:
 8675 00b2 5204     		lsls	r2, r2, #17
 8676 00b4 02D5     		bpl	.L1790
 8677 00b6 4FF4C062 		mov	r2, #1536
 8678 00ba 8261     		str	r2, [r0, #24]
 8679              	.L1790:
 8680 00bc DB06     		lsls	r3, r3, #27
 8681 00be 2FD4     		bmi	.L1845
 8682              	.L1860:
 8683 00c0 4E49     		ldr	r1, .L1865
 8684              	.L1803:
 8685 00c2 4B6A     		ldr	r3, [r1, #36]
 8686 00c4 532B     		cmp	r3, #83
 8687 00c6 FCD8     		bhi	.L1803
 8688 00c8 534A     		ldr	r2, .L1865+28
 8689 00ca 4B6A     		ldr	r3, [r1, #36]
 8690 00cc 5360     		str	r3, [r2, #4]
 8691              	.L1804:
 8692 00ce 5368     		ldr	r3, [r2, #4]
 8693 00d0 112B     		cmp	r3, #17
 8694 00d2 FCD9     		bls	.L1804
 8695 00d4 2369     		ldr	r3, [r4, #16]
 8696 00d6 504A     		ldr	r2, .L1865+28
 8697              	.L1805:
 8698 00d8 5368     		ldr	r3, [r2, #4]
 8699 00da 202B     		cmp	r3, #32
 8700 00dc FCD9     		bls	.L1805
 8701 00de 0369     		ldr	r3, [r0, #16]
 8702 00e0 4D4A     		ldr	r2, .L1865+28
 8703              	.L1806:
 8704 00e2 5368     		ldr	r3, [r2, #4]
 8705 00e4 602B     		cmp	r3, #96
 8706 00e6 FCD9     		bls	.L1806
ARM GAS  C:\Users\Jay\AppData\Local\Temp\ccrCOBv6.s 			page 150


 8707 00e8 A0E7     		b	.L1807
 8708              	.L1856:
 8709 00ea 3168     		ldr	r1, [r6]
 8710 00ec 0029     		cmp	r1, #0
 8711 00ee 32D0     		beq	.L1792
 8712 00f0 5F06     		lsls	r7, r3, #25
 8713 00f2 50D5     		bpl	.L1859
 8714 00f4 03F08201 		and	r1, r3, #130
 8715 00f8 8229     		cmp	r1, #130
 8716 00fa 2CD0     		beq	.L1792
 8717 00fc DEF80010 		ldr	r1, [lr]
 8718 0100 C2F30D02 		ubfx	r2, r2, #0, #14
 8719 0104 8A5C     		ldrb	r2, [r1, r2]	@ zero_extendqisi2
 8720 0106 88F80020 		strb	r2, [r8]
 8721 010a 45F25552 		movw	r2, #21845
 8722 010e 2A80     		strh	r2, [r5]	@ movhi
 8723              	.L1794:
 8724 0110 3A49     		ldr	r1, .L1865
 8725              	.L1795:
 8726 0112 4A6A     		ldr	r2, [r1, #36]
 8727 0114 932A     		cmp	r2, #147
 8728 0116 FCD9     		bls	.L1795
 8729 0118 0022     		movs	r2, #0
 8730 011a 2A80     		strh	r2, [r5]	@ movhi
 8731              	.L1864:
 8732 011c DB06     		lsls	r3, r3, #27
 8733 011e CFD5     		bpl	.L1860
 8734              	.L1845:
 8735 0120 364B     		ldr	r3, .L1865
 8736 0122 DA68     		ldr	r2, [r3, #12]
 8737 0124 6FF00801 		mvn	r1, #8
 8738 0128 0A40     		ands	r2, r2, r1
 8739 012a DA60     		str	r2, [r3, #12]
 8740 012c 1961     		str	r1, [r3, #16]
 8741 012e 1961     		str	r1, [r3, #16]
 8742 0130 BDE8F08F 		pop	{r4, r5, r6, r7, r8, r9, r10, fp, pc}
 8743              	.L1855:
 8744              		.syntax unified
 8745              	@ 152 "cartridges/super_snapshot_5.c" 1
 8746 0134 00BF     		nop
 8747              	@ 0 "" 2
 8748              	@ 152 "cartridges/super_snapshot_5.c" 1
 8749 0136 00BF     		nop
 8750              	@ 0 "" 2
 8751              	@ 152 "cartridges/super_snapshot_5.c" 1
 8752 0138 00BF     		nop
 8753              	@ 0 "" 2
 8754              	@ 152 "cartridges/super_snapshot_5.c" 1
 8755 013a 00BF     		nop
 8756              	@ 0 "" 2
 8757              	@ 152 "cartridges/super_snapshot_5.c" 1
 8758 013c 00BF     		nop
 8759              	@ 0 "" 2
 8760              	@ 152 "cartridges/super_snapshot_5.c" 1
 8761 013e 00BF     		nop
 8762              	@ 0 "" 2
 8763              	@ 152 "cartridges/super_snapshot_5.c" 1
ARM GAS  C:\Users\Jay\AppData\Local\Temp\ccrCOBv6.s 			page 151


 8764 0140 00BF     		nop
 8765              	@ 0 "" 2
 8766              		.thumb
 8767              		.syntax unified
 8768 0142 0369     		ldr	r3, [r0, #16]
 8769 0144 3168     		ldr	r1, [r6]
 8770 0146 DBB2     		uxtb	r3, r3
 8771 0148 29B1     		cbz	r1, .L1792
 8772 014a 5F06     		lsls	r7, r3, #25
 8773 014c 2CD5     		bpl	.L1861
 8774 014e 03F08201 		and	r1, r3, #130
 8775 0152 8229     		cmp	r1, #130
 8776 0154 47D1     		bne	.L1862
 8777              	.L1792:
 8778 0156 13F02001 		ands	r1, r3, #32
 8779 015a 304A     		ldr	r2, .L1865+32
 8780 015c 18D1     		bne	.L1863
 8781 015e 1778     		ldrb	r7, [r2]	@ zero_extendqisi2
 8782 0160 002F     		cmp	r7, #0
 8783 0162 ABD0     		beq	.L1790
 8784 0164 4FF0C06A 		mov	r10, #100663296
 8785 0168 0127     		movs	r7, #1
 8786 016a C0F818A0 		str	r10, [r0, #24]
 8787 016e 1170     		strb	r1, [r2]
 8788 0170 8CF80070 		strb	r7, [ip]
 8789 0174 A2E7     		b	.L1790
 8790              	.L1799:
 8791 0176 5F06     		lsls	r7, r3, #25
 8792 0178 A0D4     		bmi	.L1790
 8793 017a DEF80070 		ldr	r7, [lr]
 8794 017e BA45     		cmp	r10, r7
 8795 0180 1CBF     		itt	ne
 8796 0182 C2F30C02 		ubfxne	r2, r2, #0, #13
 8797 0186 0AF80210 		strbne	r1, [r10, r2]
 8798 018a 97E7     		b	.L1790
 8799              	.L1858:
 8800 018c 3760     		str	r7, [r6]
 8801 018e 90E7     		b	.L1801
 8802              	.L1863:
 8803 0190 0121     		movs	r1, #1
 8804 0192 1170     		strb	r1, [r2]
 8805 0194 92E7     		b	.L1790
 8806              	.L1859:
 8807 0196 C2F30D02 		ubfx	r2, r2, #0, #14
 8808 019a 45F25557 		movw	r7, #21845
 8809 019e 8A5C     		ldrb	r2, [r1, r2]	@ zero_extendqisi2
 8810 01a0 88F80020 		strb	r2, [r8]
 8811 01a4 2F80     		strh	r7, [r5]	@ movhi
 8812 01a6 B3E7     		b	.L1794
 8813              	.L1861:
 8814 01a8 C2F30D02 		ubfx	r2, r2, #0, #14
 8815 01ac 45F25557 		movw	r7, #21845
 8816 01b0 8A5C     		ldrb	r2, [r1, r2]	@ zero_extendqisi2
 8817 01b2 88F80020 		strb	r2, [r8]
 8818 01b6 2F80     		strh	r7, [r5]	@ movhi
 8819              	.L1788:
 8820 01b8 1049     		ldr	r1, .L1865
ARM GAS  C:\Users\Jay\AppData\Local\Temp\ccrCOBv6.s 			page 152


 8821              	.L1787:
 8822 01ba 4A6A     		ldr	r2, [r1, #36]
 8823 01bc 932A     		cmp	r2, #147
 8824 01be FCD9     		bls	.L1787
 8825 01c0 0022     		movs	r2, #0
 8826 01c2 2A80     		strh	r2, [r5]	@ movhi
 8827 01c4 AAE7     		b	.L1864
 8828              	.L1847:
 8829 01c6 7047     		bx	lr
 8830              	.L1857:
 8831 01c8 DFF86CA0 		ldr	r10, .L1865+60
 8832 01cc C5F818A0 		str	r10, [r5, #24]
 8833 01d0 1349     		ldr	r1, .L1865+36
 8834 01d2 8CF80070 		strb	r7, [ip]
 8835 01d6 CEF80010 		str	r1, [lr]
 8836 01da 124F     		ldr	r7, .L1865+40
 8837 01dc 2969     		ldr	r1, [r5, #16]
 8838 01de 3760     		str	r7, [r6]
 8839 01e0 BA46     		mov	r10, r7
 8840 01e2 C9B2     		uxtb	r1, r1
 8841 01e4 3EE7     		b	.L1798
 8842              	.L1862:
 8843 01e6 DEF80010 		ldr	r1, [lr]
 8844 01ea C2F30D02 		ubfx	r2, r2, #0, #14
 8845 01ee 8A5C     		ldrb	r2, [r1, r2]	@ zero_extendqisi2
 8846 01f0 88F80020 		strb	r2, [r8]
 8847 01f4 45F25552 		movw	r2, #21845
 8848 01f8 2A80     		strh	r2, [r5]	@ movhi
 8849 01fa DDE7     		b	.L1788
 8850              	.L1866:
 8851              		.align	2
 8852              	.L1865:
 8853 01fc 00000140 		.word	1073807360
 8854 0200 00000240 		.word	1073872896
 8855 0204 00000000 		.word	.LANCHOR7
 8856 0208 00040240 		.word	1073873920
 8857 020c 00080240 		.word	1073874944
 8858 0210 00000000 		.word	.LANCHOR37
 8859 0214 00000000 		.word	.LANCHOR38
 8860 0218 001000E0 		.word	-536866816
 8861 021c 00000000 		.word	.LANCHOR36
 8862 0220 00000000 		.word	dat_buffer
 8863 0224 00000000 		.word	crt_ram_buf
 8864 0228 00000000 		.word	.LANCHOR34
 8865 022c 00000000 		.word	.LANCHOR6
 8866 0230 00000000 		.word	.LANCHOR18
 8867 0234 14080240 		.word	1073874964
 8868 0238 00800060 		.word	1610645504
 8870              		.section	.text.ar4x_handler,"ax",%progbits
 8871              		.align	1
 8872              		.p2align 2,,3
 8873              		.global	ar4x_handler
 8874              		.syntax unified
 8875              		.thumb
 8876              		.thumb_func
 8877              		.fpu fpv4-sp-d16
 8879              	ar4x_handler:
ARM GAS  C:\Users\Jay\AppData\Local\Temp\ccrCOBv6.s 			page 153


 8880              		@ args = 0, pretend = 0, frame = 0
 8881              		@ frame_needed = 0, uses_anonymous_args = 0
 8882 0000 914B     		ldr	r3, .L1948
 8883 0002 1B69     		ldr	r3, [r3, #16]
 8884 0004 1A07     		lsls	r2, r3, #28
 8885 0006 40F1D980 		bpl	.L1935
 8886 000a 904A     		ldr	r2, .L1948+4
 8887 000c 9049     		ldr	r1, .L1948+8
 8888 000e 9148     		ldr	r0, .L1948+12
 8889 0010 DFF86CC2 		ldr	ip, .L1948+56
 8890 0014 2DE9F04F 		push	{r4, r5, r6, r7, r8, r9, r10, fp, lr}
 8891 0018 4FF00043 		mov	r3, #-2147483648
 8892 001c 8E4C     		ldr	r4, .L1948+16
 8893 001e 8F4D     		ldr	r5, .L1948+20
 8894 0020 8F4F     		ldr	r7, .L1948+24
 8895 0022 904E     		ldr	r6, .L1948+28
 8896 0024 9361     		str	r3, [r2, #24]
 8897              	.L1892:
 8898 0026 0B69     		ldr	r3, [r1, #16]
 8899 0028 1FFA83F8 		uxth	r8, r3
 8900 002c 1369     		ldr	r3, [r2, #16]
 8901 002e 5FFA83FE 		uxtb	lr, r3
 8902 0032 0EF00909 		and	r9, lr, #9
 8903 0036 B9F1010F 		cmp	r9, #1
 8904 003a 7FD0     		beq	.L1941
 8905 003c 1EF00109 		ands	r9, lr, #1
 8906 0040 55D1     		bne	.L1942
 8907 0042 2378     		ldrb	r3, [r4]	@ zero_extendqisi2
 8908 0044 2BB1     		cbz	r3, .L1882
 8909 0046 0133     		adds	r3, r3, #1
 8910 0048 DBB2     		uxtb	r3, r3
 8911 004a 042B     		cmp	r3, #4
 8912 004c 2370     		strb	r3, [r4]
 8913 004e 00F0B680 		beq	.L1943
 8914              	.L1882:
 8915 0052 DFF820B2 		ldr	fp, .L1948+44
 8916 0056 0369     		ldr	r3, [r0, #16]
 8917 0058 DBF800A0 		ldr	r10, [fp]
 8918 005c BAF1000F 		cmp	r10, #0
 8919 0060 23D0     		beq	.L1871
 8920 0062 5FFA83F9 		uxtb	r9, r3
 8921              	.L1883:
 8922 0066 1EF0020F 		tst	lr, #2
 8923 006a 40F08C80 		bne	.L1884
 8924 006e 19F0400F 		tst	r9, #64
 8925 0072 1CBF     		itt	ne
 8926 0074 4FF4C063 		movne	r3, #1536
 8927 0078 9361     		strne	r3, [r2, #24]
 8928 007a 19F0040F 		tst	r9, #4
 8929 007e 40F08E80 		bne	.L1886
 8930 0082 C9F3C108 		ubfx	r8, r9, #3, #2
 8931 0086 09F0030A 		and	r10, r9, #3
 8932 008a 774B     		ldr	r3, .L1948+32
 8933 008c 5CF82AA0 		ldr	r10, [ip, r10, lsl #2]
 8934 0090 53F82830 		ldr	r3, [r3, r8, lsl #2]
 8935 0094 C0F818A0 		str	r10, [r0, #24]
 8936 0098 19F0200F 		tst	r9, #32
ARM GAS  C:\Users\Jay\AppData\Local\Temp\ccrCOBv6.s 			page 154


 8937 009c 2B60     		str	r3, [r5]
 8938 009e 1CBF     		itt	ne
 8939 00a0 724B     		ldrne	r3, .L1948+36
 8940 00a2 53F82830 		ldrne	r3, [r3, r8, lsl #2]
 8941 00a6 CBF80030 		str	r3, [fp]
 8942              	.L1871:
 8943 00aa 1EF0100F 		tst	lr, #16
 8944 00ae 3BD1     		bne	.L1933
 8945              	.L1944:
 8946 00b0 DFF894E1 		ldr	lr, .L1948
 8947              	.L1888:
 8948 00b4 DEF82430 		ldr	r3, [lr, #36]
 8949 00b8 532B     		cmp	r3, #83
 8950 00ba FBD8     		bhi	.L1888
 8951 00bc 6C4B     		ldr	r3, .L1948+40
 8952 00be DEF824E0 		ldr	lr, [lr, #36]
 8953 00c2 C3F804E0 		str	lr, [r3, #4]
 8954 00c6 9E46     		mov	lr, r3
 8955              	.L1889:
 8956 00c8 DEF80430 		ldr	r3, [lr, #4]
 8957 00cc 112B     		cmp	r3, #17
 8958 00ce FBD9     		bls	.L1889
 8959 00d0 0B69     		ldr	r3, [r1, #16]
 8960 00d2 DFF89CE1 		ldr	lr, .L1948+40
 8961              	.L1890:
 8962 00d6 DEF80430 		ldr	r3, [lr, #4]
 8963 00da 202B     		cmp	r3, #32
 8964 00dc FBD9     		bls	.L1890
 8965 00de 1369     		ldr	r3, [r2, #16]
 8966 00e0 DFF88CE1 		ldr	lr, .L1948+40
 8967              	.L1891:
 8968 00e4 DEF80430 		ldr	r3, [lr, #4]
 8969 00e8 602B     		cmp	r3, #96
 8970 00ea FBD9     		bls	.L1891
 8971 00ec 9BE7     		b	.L1892
 8972              	.L1942:
 8973 00ee 0EF04409 		and	r9, lr, #68
 8974 00f2 B9F1440F 		cmp	r9, #68
 8975 00f6 70D0     		beq	.L1877
 8976 00f8 5E4B     		ldr	r3, .L1948+44
 8977 00fa 1B68     		ldr	r3, [r3]
 8978 00fc 002B     		cmp	r3, #0
 8979 00fe D4D0     		beq	.L1871
 8980              	.L1939:
 8981 0100 C8F30C08 		ubfx	r8, r8, #0, #13
 8982 0104 45F25559 		movw	r9, #21845
 8983 0108 13F80830 		ldrb	r3, [r3, r8]	@ zero_extendqisi2
 8984 010c DFF83881 		ldr	r8, .L1948
 8985 0110 3370     		strb	r3, [r6]
 8986 0112 A0F80090 		strh	r9, [r0]	@ movhi
 8987              	.L1880:
 8988 0116 D8F82430 		ldr	r3, [r8, #36]
 8989 011a 932B     		cmp	r3, #147
 8990 011c FBD9     		bls	.L1880
 8991 011e 0023     		movs	r3, #0
 8992 0120 0380     		strh	r3, [r0]	@ movhi
 8993              	.L1945:
ARM GAS  C:\Users\Jay\AppData\Local\Temp\ccrCOBv6.s 			page 155


 8994 0122 1EF0100F 		tst	lr, #16
 8995 0126 C3D0     		beq	.L1944
 8996              	.L1933:
 8997 0128 474B     		ldr	r3, .L1948
 8998 012a DA68     		ldr	r2, [r3, #12]
 8999 012c 6FF00801 		mvn	r1, #8
 9000 0130 0A40     		ands	r2, r2, r1
 9001 0132 DA60     		str	r2, [r3, #12]
 9002 0134 1961     		str	r1, [r3, #16]
 9003 0136 1961     		str	r1, [r3, #16]
 9004 0138 BDE8F08F 		pop	{r4, r5, r6, r7, r8, r9, r10, fp, pc}
 9005              	.L1941:
 9006              		.syntax unified
 9007              	@ 162 "cartridges/action_replay_4x.c" 1
 9008 013c 00BF     		nop
 9009              	@ 0 "" 2
 9010              	@ 162 "cartridges/action_replay_4x.c" 1
 9011 013e 00BF     		nop
 9012              	@ 0 "" 2
 9013              	@ 162 "cartridges/action_replay_4x.c" 1
 9014 0140 00BF     		nop
 9015              	@ 0 "" 2
 9016              	@ 162 "cartridges/action_replay_4x.c" 1
 9017 0142 00BF     		nop
 9018              	@ 0 "" 2
 9019              	@ 162 "cartridges/action_replay_4x.c" 1
 9020 0144 00BF     		nop
 9021              	@ 0 "" 2
 9022              	@ 162 "cartridges/action_replay_4x.c" 1
 9023 0146 00BF     		nop
 9024              	@ 0 "" 2
 9025              	@ 162 "cartridges/action_replay_4x.c" 1
 9026 0148 00BF     		nop
 9027              	@ 0 "" 2
 9028              		.thumb
 9029              		.syntax unified
 9030 014a 1369     		ldr	r3, [r2, #16]
 9031 014c 5FFA83FE 		uxtb	lr, r3
 9032 0150 0EF0440A 		and	r10, lr, #68
 9033 0154 BAF1440F 		cmp	r10, #68
 9034 0158 2AD0     		beq	.L1870
 9035 015a 464B     		ldr	r3, .L1948+44
 9036 015c 1B68     		ldr	r3, [r3]
 9037 015e 002B     		cmp	r3, #0
 9038 0160 A3D0     		beq	.L1871
 9039              	.L1938:
 9040 0162 C8F30C08 		ubfx	r8, r8, #0, #13
 9041 0166 45F25559 		movw	r9, #21845
 9042 016a 13F80830 		ldrb	r3, [r3, r8]	@ zero_extendqisi2
 9043 016e DFF8D880 		ldr	r8, .L1948
 9044 0172 3370     		strb	r3, [r6]
 9045 0174 A0F80090 		strh	r9, [r0]	@ movhi
 9046              	.L1874:
 9047 0178 D8F82430 		ldr	r3, [r8, #36]
 9048 017c 932B     		cmp	r3, #147
 9049 017e FBD9     		bls	.L1874
 9050 0180 0023     		movs	r3, #0
ARM GAS  C:\Users\Jay\AppData\Local\Temp\ccrCOBv6.s 			page 156


 9051 0182 0380     		strh	r3, [r0]	@ movhi
 9052 0184 CDE7     		b	.L1945
 9053              	.L1884:
 9054 0186 0EF04403 		and	r3, lr, #68
 9055 018a 442B     		cmp	r3, #68
 9056 018c 8DD0     		beq	.L1871
 9057 018e 2B68     		ldr	r3, [r5]
 9058 0190 9A45     		cmp	r10, r3
 9059 0192 1CBF     		itt	ne
 9060 0194 C8F30C08 		ubfxne	r8, r8, #0, #13
 9061 0198 0AF80890 		strbne	r9, [r10, r8]
 9062 019c 85E7     		b	.L1871
 9063              	.L1886:
 9064 019e 0023     		movs	r3, #0
 9065 01a0 4FF46048 		mov	r8, #57344
 9066 01a4 C0F81880 		str	r8, [r0, #24]
 9067 01a8 CBF80030 		str	r3, [fp]
 9068 01ac 2B60     		str	r3, [r5]
 9069 01ae 7CE7     		b	.L1871
 9070              	.L1870:
 9071 01b0 1B06     		lsls	r3, r3, #24
 9072 01b2 18D4     		bmi	.L1873
 9073 01b4 2B68     		ldr	r3, [r5]
 9074 01b6 002B     		cmp	r3, #0
 9075 01b8 D3D1     		bne	.L1938
 9076 01ba 76E7     		b	.L1871
 9077              	.L1935:
 9078 01bc 7047     		bx	lr
 9079              	.L1943:
 9080 01be 2E4B     		ldr	r3, .L1948+48
 9081 01c0 8361     		str	r3, [r0, #24]
 9082 01c2 84F80090 		strb	r9, [r4]
 9083 01c6 0369     		ldr	r3, [r0, #16]
 9084 01c8 DFF8A8B0 		ldr	fp, .L1948+44
 9085 01cc 2F60     		str	r7, [r5]
 9086 01ce 5FFA83F9 		uxtb	r9, r3
 9087 01d2 CBF80070 		str	r7, [fp]
 9088 01d6 BA46     		mov	r10, r7
 9089 01d8 45E7     		b	.L1883
 9090              	.L1877:
 9091 01da 1B06     		lsls	r3, r3, #24
 9092 01dc 16D4     		bmi	.L1879
 9093 01de 2B68     		ldr	r3, [r5]
 9094 01e0 002B     		cmp	r3, #0
 9095 01e2 8DD1     		bne	.L1939
 9096 01e4 61E7     		b	.L1871
 9097              	.L1873:
 9098 01e6 1EF02008 		ands	r8, lr, #32
 9099 01ea 244B     		ldr	r3, .L1948+52
 9100 01ec 28D1     		bne	.L1946
 9101 01ee 93F800A0 		ldrb	r10, [r3]	@ zero_extendqisi2
 9102 01f2 BAF1000F 		cmp	r10, #0
 9103 01f6 3FF458AF 		beq	.L1871
 9104 01fa 4FF0C06A 		mov	r10, #100663296
 9105 01fe C2F818A0 		str	r10, [r2, #24]
 9106 0202 83F80080 		strb	r8, [r3]
 9107 0206 84F80090 		strb	r9, [r4]
ARM GAS  C:\Users\Jay\AppData\Local\Temp\ccrCOBv6.s 			page 157


 9108 020a 4EE7     		b	.L1871
 9109              	.L1879:
 9110 020c 1EF02008 		ands	r8, lr, #32
 9111 0210 1A4B     		ldr	r3, .L1948+52
 9112 0212 10D1     		bne	.L1947
 9113 0214 93F80090 		ldrb	r9, [r3]	@ zero_extendqisi2
 9114 0218 B9F1000F 		cmp	r9, #0
 9115 021c 3FF445AF 		beq	.L1871
 9116 0220 4FF0C06A 		mov	r10, #100663296
 9117 0224 4FF00109 		mov	r9, #1
 9118 0228 C2F818A0 		str	r10, [r2, #24]
 9119 022c 83F80080 		strb	r8, [r3]
 9120 0230 84F80090 		strb	r9, [r4]
 9121 0234 39E7     		b	.L1871
 9122              	.L1947:
 9123 0236 4FF00108 		mov	r8, #1
 9124 023a 83F80080 		strb	r8, [r3]
 9125 023e 34E7     		b	.L1871
 9126              	.L1946:
 9127 0240 83F80090 		strb	r9, [r3]
 9128 0244 31E7     		b	.L1871
 9129              	.L1949:
 9130 0246 00BF     		.align	2
 9131              	.L1948:
 9132 0248 00000140 		.word	1073807360
 9133 024c 00000240 		.word	1073872896
 9134 0250 00040240 		.word	1073873920
 9135 0254 00080240 		.word	1073874944
 9136 0258 00000000 		.word	.LANCHOR34
 9137 025c 00000000 		.word	.LANCHOR6
 9138 0260 00000000 		.word	dat_buffer
 9139 0264 14080240 		.word	1073874964
 9140 0268 00000000 		.word	.LANCHOR18
 9141 026c 00000000 		.word	.LANCHOR38
 9142 0270 001000E0 		.word	-536866816
 9143 0274 00000000 		.word	.LANCHOR7
 9144 0278 00800060 		.word	1610645504
 9145 027c 00000000 		.word	.LANCHOR36
 9146 0280 00000000 		.word	.LANCHOR39
 9148              		.section	.text.kcs_handler,"ax",%progbits
 9149              		.align	1
 9150              		.p2align 2,,3
 9151              		.global	kcs_handler
 9152              		.syntax unified
 9153              		.thumb
 9154              		.thumb_func
 9155              		.fpu fpv4-sp-d16
 9157              	kcs_handler:
 9158              		@ args = 0, pretend = 0, frame = 0
 9159              		@ frame_needed = 0, uses_anonymous_args = 0
 9160 0000 A24B     		ldr	r3, .L2011
 9161 0002 1B69     		ldr	r3, [r3, #16]
 9162 0004 1B07     		lsls	r3, r3, #28
 9163 0006 40F1F180 		bpl	.L2001
 9164 000a A149     		ldr	r1, .L2011+4
 9165 000c A148     		ldr	r0, .L2011+8
 9166 000e DFF8A4C2 		ldr	ip, .L2011+40
ARM GAS  C:\Users\Jay\AppData\Local\Temp\ccrCOBv6.s 			page 158


 9167 0012 2DE9F04F 		push	{r4, r5, r6, r7, r8, r9, r10, fp, lr}
 9168 0016 4FF00043 		mov	r3, #-2147483648
 9169 001a 9F4C     		ldr	r4, .L2011+12
 9170 001c 9F4D     		ldr	r5, .L2011+16
 9171 001e DFF898E2 		ldr	lr, .L2011+44
 9172 0022 9F4F     		ldr	r7, .L2011+20
 9173 0024 DFF89482 		ldr	r8, .L2011+48
 9174 0028 9E4E     		ldr	r6, .L2011+24
 9175 002a 8B61     		str	r3, [r1, #24]
 9176              	.L1978:
 9177 002c 2269     		ldr	r2, [r4, #16]
 9178 002e 1FFA82FA 		uxth	r10, r2
 9179 0032 0B69     		ldr	r3, [r1, #16]
 9180 0034 DBB2     		uxtb	r3, r3
 9181 0036 03F00909 		and	r9, r3, #9
 9182 003a B9F1010F 		cmp	r9, #1
 9183 003e 00F08B80 		beq	.L2006
 9184 0042 13F0010B 		ands	fp, r3, #1
 9185 0046 68D1     		bne	.L2007
 9186 0048 95F80090 		ldrb	r9, [r5]	@ zero_extendqisi2
 9187 004c B9F1000F 		cmp	r9, #0
 9188 0050 10D0     		beq	.L1968
 9189 0052 09F10109 		add	r9, r9, #1
 9190 0056 5FFA89F9 		uxtb	r9, r9
 9191 005a B9F1040F 		cmp	r9, #4
 9192 005e 85F80090 		strb	r9, [r5]
 9193 0062 07D1     		bne	.L1968
 9194 0064 4FF00209 		mov	r9, #2
 9195 0068 87F80090 		strb	r9, [r7]
 9196 006c C0F81880 		str	r8, [r0, #24]
 9197 0070 85F800B0 		strb	fp, [r5]
 9198              	.L1968:
 9199 0074 13F0020F 		tst	r3, #2
 9200 0078 D0F81090 		ldr	r9, [r0, #16]
 9201 007c 34D1     		bne	.L1970
 9202 007e 02F00202 		and	r2, r2, #2
 9203 0082 3A70     		strb	r2, [r7]
 9204 0084 5CF82220 		ldr	r2, [ip, r2, lsl #2]
 9205 0088 8261     		str	r2, [r0, #24]
 9206              	.L1959:
 9207 008a DB06     		lsls	r3, r3, #27
 9208 008c 3BD4     		bmi	.L1999
 9209              	.L2008:
 9210 008e DFF8FC91 		ldr	r9, .L2011
 9211              	.L1972:
 9212 0092 D9F82430 		ldr	r3, [r9, #36]
 9213 0096 532B     		cmp	r3, #83
 9214 0098 FBD8     		bhi	.L1972
 9215 009a 834A     		ldr	r2, .L2011+28
 9216 009c D9F82430 		ldr	r3, [r9, #36]
 9217 00a0 5360     		str	r3, [r2, #4]
 9218              	.L1973:
 9219 00a2 5368     		ldr	r3, [r2, #4]
 9220 00a4 112B     		cmp	r3, #17
 9221 00a6 FCD9     		bls	.L1973
 9222 00a8 D4F81090 		ldr	r9, [r4, #16]
 9223 00ac 7E4A     		ldr	r2, .L2011+28
ARM GAS  C:\Users\Jay\AppData\Local\Temp\ccrCOBv6.s 			page 159


 9224              	.L1974:
 9225 00ae 5368     		ldr	r3, [r2, #4]
 9226 00b0 202B     		cmp	r3, #32
 9227 00b2 FCD9     		bls	.L1974
 9228 00b4 0B69     		ldr	r3, [r1, #16]
 9229 00b6 03F0C003 		and	r3, r3, #192
 9230 00ba C02B     		cmp	r3, #192
 9231 00bc 0FD0     		beq	.L1975
 9232 00be 7B4B     		ldr	r3, .L2011+32
 9233 00c0 794A     		ldr	r2, .L2011+28
 9234 00c2 1B68     		ldr	r3, [r3]
 9235 00c4 C9F30D09 		ubfx	r9, r9, #0, #14
 9236 00c8 13F80930 		ldrb	r3, [r3, r9]	@ zero_extendqisi2
 9237 00cc 3370     		strb	r3, [r6]
 9238 00ce 45F25553 		movw	r3, #21845
 9239 00d2 0380     		strh	r3, [r0]	@ movhi
 9240              	.L1976:
 9241 00d4 5368     		ldr	r3, [r2, #4]
 9242 00d6 3C2B     		cmp	r3, #60
 9243 00d8 FCD9     		bls	.L1976
 9244 00da 0023     		movs	r3, #0
 9245 00dc 0380     		strh	r3, [r0]	@ movhi
 9246              	.L1975:
 9247 00de 724A     		ldr	r2, .L2011+28
 9248              	.L1977:
 9249 00e0 5368     		ldr	r3, [r2, #4]
 9250 00e2 602B     		cmp	r3, #96
 9251 00e4 FCD9     		bls	.L1977
 9252 00e6 A1E7     		b	.L1978
 9253              	.L1970:
 9254 00e8 5A07     		lsls	r2, r3, #29
 9255 00ea CED4     		bmi	.L1959
 9256 00ec 1AF0800F 		tst	r10, #128
 9257 00f0 08BF     		it	eq
 9258 00f2 0AF07F0A 		andeq	r10, r10, #127
 9259 00f6 4FF4C062 		mov	r2, #1536
 9260 00fa 08BF     		it	eq
 9261 00fc 0EF80A90 		strbeq	r9, [lr, r10]
 9262 0100 DB06     		lsls	r3, r3, #27
 9263 0102 8A61     		str	r2, [r1, #24]
 9264 0104 C3D5     		bpl	.L2008
 9265              	.L1999:
 9266 0106 614B     		ldr	r3, .L2011
 9267 0108 DA68     		ldr	r2, [r3, #12]
 9268 010a 6FF00801 		mvn	r1, #8
 9269 010e 0A40     		ands	r2, r2, r1
 9270 0110 DA60     		str	r2, [r3, #12]
 9271 0112 1961     		str	r1, [r3, #16]
 9272 0114 1961     		str	r1, [r3, #16]
 9273 0116 BDE8F08F 		pop	{r4, r5, r6, r7, r8, r9, r10, fp, pc}
 9274              	.L2007:
 9275 011a 03F0C209 		and	r9, r3, #194
 9276 011e B9F1C20F 		cmp	r9, #194
 9277 0122 64D0     		beq	.L1961
 9278 0124 DFF88491 		ldr	r9, .L2011+32
 9279 0128 CAF30D0A 		ubfx	r10, r10, #0, #14
 9280 012c D9F80090 		ldr	r9, [r9]
ARM GAS  C:\Users\Jay\AppData\Local\Temp\ccrCOBv6.s 			page 160


 9281 0130 19F80A90 		ldrb	r9, [r9, r10]	@ zero_extendqisi2
 9282 0134 86F80090 		strb	r9, [r6]
 9283 0138 13F0020F 		tst	r3, #2
 9284 013c 45F25559 		movw	r9, #21845
 9285 0140 A0F80090 		strh	r9, [r0]	@ movhi
 9286 0144 39D0     		beq	.L2009
 9287              	.L1962:
 9288 0146 DFF84491 		ldr	r9, .L2011
 9289              	.L1963:
 9290 014a D9F82420 		ldr	r2, [r9, #36]
 9291 014e 932A     		cmp	r2, #147
 9292 0150 FBD9     		bls	.L1963
 9293 0152 0022     		movs	r2, #0
 9294 0154 0280     		strh	r2, [r0]	@ movhi
 9295 0156 98E7     		b	.L1959
 9296              	.L2006:
 9297              		.syntax unified
 9298              	@ 136 "cartridges/kcs_power_cartridge.c" 1
 9299 0158 00BF     		nop
 9300              	@ 0 "" 2
 9301              	@ 136 "cartridges/kcs_power_cartridge.c" 1
 9302 015a 00BF     		nop
 9303              	@ 0 "" 2
 9304              	@ 136 "cartridges/kcs_power_cartridge.c" 1
 9305 015c 00BF     		nop
 9306              	@ 0 "" 2
 9307              	@ 136 "cartridges/kcs_power_cartridge.c" 1
 9308 015e 00BF     		nop
 9309              	@ 0 "" 2
 9310              	@ 136 "cartridges/kcs_power_cartridge.c" 1
 9311 0160 00BF     		nop
 9312              	@ 0 "" 2
 9313              	@ 136 "cartridges/kcs_power_cartridge.c" 1
 9314 0162 00BF     		nop
 9315              	@ 0 "" 2
 9316              	@ 136 "cartridges/kcs_power_cartridge.c" 1
 9317 0164 00BF     		nop
 9318              	@ 0 "" 2
 9319              		.thumb
 9320              		.syntax unified
 9321 0166 0B69     		ldr	r3, [r1, #16]
 9322 0168 DBB2     		uxtb	r3, r3
 9323 016a 03F0C20B 		and	fp, r3, #194
 9324 016e BBF1C20F 		cmp	fp, #194
 9325 0172 2CD0     		beq	.L1953
 9326 0174 DFF83491 		ldr	r9, .L2011+32
 9327 0178 CAF30D0A 		ubfx	r10, r10, #0, #14
 9328 017c D9F80090 		ldr	r9, [r9]
 9329 0180 19F80A90 		ldrb	r9, [r9, r10]	@ zero_extendqisi2
 9330 0184 86F80090 		strb	r9, [r6]
 9331 0188 13F0020F 		tst	r3, #2
 9332 018c 45F25559 		movw	r9, #21845
 9333 0190 A0F80090 		strh	r9, [r0]	@ movhi
 9334 0194 08D1     		bne	.L1954
 9335 0196 02F00202 		and	r2, r2, #2
 9336 019a 42F00102 		orr	r2, r2, #1
 9337 019e 52B2     		sxtb	r2, r2
ARM GAS  C:\Users\Jay\AppData\Local\Temp\ccrCOBv6.s 			page 161


 9338 01a0 3A70     		strb	r2, [r7]
 9339 01a2 5CF82220 		ldr	r2, [ip, r2, lsl #2]
 9340 01a6 8261     		str	r2, [r0, #24]
 9341              	.L1954:
 9342 01a8 DFF8E090 		ldr	r9, .L2011
 9343              	.L1955:
 9344 01ac D9F82420 		ldr	r2, [r9, #36]
 9345 01b0 932A     		cmp	r2, #147
 9346 01b2 FBD9     		bls	.L1955
 9347 01b4 0022     		movs	r2, #0
 9348 01b6 0280     		strh	r2, [r0]	@ movhi
 9349 01b8 67E7     		b	.L1959
 9350              	.L2009:
 9351 01ba 02F00202 		and	r2, r2, #2
 9352 01be 42F00102 		orr	r2, r2, #1
 9353 01c2 52B2     		sxtb	r2, r2
 9354 01c4 3A70     		strb	r2, [r7]
 9355 01c6 5CF82220 		ldr	r2, [ip, r2, lsl #2]
 9356 01ca 8261     		str	r2, [r0, #24]
 9357 01cc BBE7     		b	.L1962
 9358              	.L1953:
 9359 01ce 5A07     		lsls	r2, r3, #29
 9360 01d0 31D4     		bmi	.L1956
 9361 01d2 1AF0800F 		tst	r10, #128
 9362 01d6 4FD1     		bne	.L1957
 9363 01d8 0AF07F0A 		and	r10, r10, #127
 9364 01dc 45F25552 		movw	r2, #21845
 9365 01e0 1EF80A90 		ldrb	r9, [lr, r10]	@ zero_extendqisi2
 9366 01e4 86F80090 		strb	r9, [r6]
 9367 01e8 0280     		strh	r2, [r0]	@ movhi
 9368 01ea DDE7     		b	.L1954
 9369              	.L2001:
 9370 01ec 7047     		bx	lr
 9371              	.L1961:
 9372 01ee 5A07     		lsls	r2, r3, #29
 9373 01f0 0CD4     		bmi	.L1964
 9374 01f2 1AF0800F 		tst	r10, #128
 9375 01f6 36D1     		bne	.L1965
 9376 01f8 0AF07F0A 		and	r10, r10, #127
 9377 01fc 45F25552 		movw	r2, #21845
 9378 0200 1EF80A90 		ldrb	r9, [lr, r10]	@ zero_extendqisi2
 9379 0204 86F80090 		strb	r9, [r6]
 9380 0208 0280     		strh	r2, [r0]	@ movhi
 9381 020a 9CE7     		b	.L1962
 9382              	.L1964:
 9383 020c 13F02009 		ands	r9, r3, #32
 9384 0210 274A     		ldr	r2, .L2011+36
 9385 0212 23D1     		bne	.L2010
 9386 0214 92F800A0 		ldrb	r10, [r2]	@ zero_extendqisi2
 9387 0218 BAF1000F 		cmp	r10, #0
 9388 021c 3FF435AF 		beq	.L1959
 9389 0220 4FF0C06B 		mov	fp, #100663296
 9390 0224 4FF0010A 		mov	r10, #1
 9391 0228 C1F818B0 		str	fp, [r1, #24]
 9392 022c 82F80090 		strb	r9, [r2]
 9393 0230 85F800A0 		strb	r10, [r5]
 9394 0234 29E7     		b	.L1959
ARM GAS  C:\Users\Jay\AppData\Local\Temp\ccrCOBv6.s 			page 162


 9395              	.L1956:
 9396 0236 13F0200A 		ands	r10, r3, #32
 9397 023a 1D4A     		ldr	r2, .L2011+36
 9398 023c 10D1     		bne	.L2004
 9399 023e 92F800B0 		ldrb	fp, [r2]	@ zero_extendqisi2
 9400 0242 BBF1000F 		cmp	fp, #0
 9401 0246 3FF420AF 		beq	.L1959
 9402 024a 4FF0C06B 		mov	fp, #100663296
 9403 024e C1F818B0 		str	fp, [r1, #24]
 9404 0252 82F800A0 		strb	r10, [r2]
 9405 0256 85F80090 		strb	r9, [r5]
 9406 025a 16E7     		b	.L1959
 9407              	.L2010:
 9408 025c 4FF00109 		mov	r9, #1
 9409              	.L2004:
 9410 0260 82F80090 		strb	r9, [r2]
 9411 0264 11E7     		b	.L1959
 9412              	.L1965:
 9413 0266 3A78     		ldrb	r2, [r7]	@ zero_extendqisi2
 9414 0268 9201     		lsls	r2, r2, #6
 9415 026a D2B2     		uxtb	r2, r2
 9416 026c 45F25559 		movw	r9, #21845
 9417 0270 3270     		strb	r2, [r6]
 9418 0272 A0F80090 		strh	r9, [r0]	@ movhi
 9419 0276 66E7     		b	.L1962
 9420              	.L1957:
 9421 0278 3A78     		ldrb	r2, [r7]	@ zero_extendqisi2
 9422 027a 9201     		lsls	r2, r2, #6
 9423 027c D2B2     		uxtb	r2, r2
 9424 027e 45F25559 		movw	r9, #21845
 9425 0282 3270     		strb	r2, [r6]
 9426 0284 A0F80090 		strh	r9, [r0]	@ movhi
 9427 0288 8EE7     		b	.L1954
 9428              	.L2012:
 9429 028a 00BF     		.align	2
 9430              	.L2011:
 9431 028c 00000140 		.word	1073807360
 9432 0290 00000240 		.word	1073872896
 9433 0294 00080240 		.word	1073874944
 9434 0298 00040240 		.word	1073873920
 9435 029c 00000000 		.word	.LANCHOR34
 9436 02a0 00000000 		.word	.LANCHOR8
 9437 02a4 14080240 		.word	1073874964
 9438 02a8 001000E0 		.word	-536866816
 9439 02ac 00000000 		.word	.LANCHOR7
 9440 02b0 00000000 		.word	.LANCHOR36
 9441 02b4 00000000 		.word	.LANCHOR40
 9442 02b8 00000000 		.word	crt_ram_buf
 9443 02bc 00800060 		.word	1610645504
 9445              		.section	.text.ef_handler,"ax",%progbits
 9446              		.align	1
 9447              		.p2align 2,,3
 9448              		.global	ef_handler
 9449              		.syntax unified
 9450              		.thumb
 9451              		.thumb_func
 9452              		.fpu fpv4-sp-d16
ARM GAS  C:\Users\Jay\AppData\Local\Temp\ccrCOBv6.s 			page 163


 9454              	ef_handler:
 9455              		@ args = 0, pretend = 0, frame = 0
 9456              		@ frame_needed = 0, uses_anonymous_args = 0
 9457 0000 AB4B     		ldr	r3, .L2064
 9458 0002 1A69     		ldr	r2, [r3, #16]
 9459 0004 1107     		lsls	r1, r2, #28
 9460 0006 40F10D81 		bpl	.L2058
 9461 000a AA48     		ldr	r0, .L2064+4
 9462 000c DFF8CCC2 		ldr	ip, .L2064+44
 9463 0010 2DE9F04F 		push	{r4, r5, r6, r7, r8, r9, r10, fp, lr}
 9464 0014 4FF00042 		mov	r2, #-2147483648
 9465 0018 A74D     		ldr	r5, .L2064+8
 9466 001a A84C     		ldr	r4, .L2064+12
 9467 001c A84F     		ldr	r7, .L2064+16
 9468 001e DFF8C082 		ldr	r8, .L2064+48
 9469 0022 DFF8C0E2 		ldr	lr, .L2064+52
 9470 0026 A74E     		ldr	r6, .L2064+20
 9471 0028 8261     		str	r2, [r0, #24]
 9472              	.L2045:
 9473 002a 2A69     		ldr	r2, [r5, #16]
 9474 002c 1FFA82FA 		uxth	r10, r2
 9475 0030 0169     		ldr	r1, [r0, #16]
 9476 0032 C9B2     		uxtb	r1, r1
 9477 0034 01F00909 		and	r9, r1, #9
 9478 0038 B9F1010F 		cmp	r9, #1
 9479 003c 00F08680 		beq	.L2062
 9480 0040 CA07     		lsls	r2, r1, #31
 9481 0042 3DD5     		bpl	.L2023
 9482 0044 01F0C002 		and	r2, r1, #192
 9483 0048 C02A     		cmp	r2, #192
 9484 004a 00F0A580 		beq	.L2024
 9485 004e DFF87C92 		ldr	r9, .L2064+28
 9486 0052 CAF30D02 		ubfx	r2, r10, #0, #14
 9487 0056 D9F80090 		ldr	r9, [r9]
 9488 005a 19F80220 		ldrb	r2, [r9, r2]	@ zero_extendqisi2
 9489 005e 3270     		strb	r2, [r6]
 9490 0060 45F25552 		movw	r2, #21845
 9491 0064 2280     		strh	r2, [r4]	@ movhi
 9492              	.L2025:
 9493 0066 5A6A     		ldr	r2, [r3, #36]
 9494 0068 932A     		cmp	r2, #147
 9495 006a FCD9     		bls	.L2025
 9496              	.L2061:
 9497 006c 0022     		movs	r2, #0
 9498 006e 2280     		strh	r2, [r4]	@ movhi
 9499              	.L2019:
 9500 0070 CA06     		lsls	r2, r1, #27
 9501 0072 43D4     		bmi	.L2063
 9502              	.L2035:
 9503 0074 5A6A     		ldr	r2, [r3, #36]
 9504 0076 532A     		cmp	r2, #83
 9505 0078 FCD8     		bhi	.L2035
 9506 007a 9349     		ldr	r1, .L2064+24
 9507 007c 5A6A     		ldr	r2, [r3, #36]
 9508 007e 4A60     		str	r2, [r1, #4]
 9509              	.L2036:
 9510 0080 4A68     		ldr	r2, [r1, #4]
ARM GAS  C:\Users\Jay\AppData\Local\Temp\ccrCOBv6.s 			page 164


 9511 0082 112A     		cmp	r2, #17
 9512 0084 FCD9     		bls	.L2036
 9513 0086 2A69     		ldr	r2, [r5, #16]
 9514 0088 92B2     		uxth	r2, r2
 9515 008a 0169     		ldr	r1, [r0, #16]
 9516 008c C9B2     		uxtb	r1, r1
 9517 008e 01F0C009 		and	r9, r1, #192
 9518 0092 B9F1C00F 		cmp	r9, #192
 9519 0096 3BD0     		beq	.L2037
 9520 0098 8C49     		ldr	r1, .L2064+28
 9521 009a C2F30D02 		ubfx	r2, r2, #0, #14
 9522 009e 0968     		ldr	r1, [r1]
 9523 00a0 8A5C     		ldrb	r2, [r1, r2]	@ zero_extendqisi2
 9524 00a2 3270     		strb	r2, [r6]
 9525 00a4 45F25552 		movw	r2, #21845
 9526 00a8 2280     		strh	r2, [r4]	@ movhi
 9527              	.L2043:
 9528 00aa 8749     		ldr	r1, .L2064+24
 9529              	.L2038:
 9530 00ac 4A68     		ldr	r2, [r1, #4]
 9531 00ae 3C2A     		cmp	r2, #60
 9532 00b0 FCD9     		bls	.L2038
 9533 00b2 0022     		movs	r2, #0
 9534 00b4 2280     		strh	r2, [r4]	@ movhi
 9535              	.L2040:
 9536 00b6 8449     		ldr	r1, .L2064+24
 9537              	.L2044:
 9538 00b8 4A68     		ldr	r2, [r1, #4]
 9539 00ba 602A     		cmp	r2, #96
 9540 00bc FCD9     		bls	.L2044
 9541 00be B4E7     		b	.L2045
 9542              	.L2023:
 9543              	.L2030:
 9544 00c0 5A6A     		ldr	r2, [r3, #36]
 9545 00c2 812A     		cmp	r2, #129
 9546 00c4 FCD9     		bls	.L2030
 9547 00c6 2269     		ldr	r2, [r4, #16]
 9548 00c8 11F0020B 		ands	fp, r1, #2
 9549 00cc 5FFA82F9 		uxtb	r9, r2
 9550 00d0 35D1     		bne	.L2031
 9551 00d2 5FFA8AF2 		uxtb	r2, r10
 9552 00d6 022A     		cmp	r2, #2
 9553 00d8 00F0CC80 		beq	.L2032
 9554 00dc 0A2A     		cmp	r2, #10
 9555 00de 00F0AC80 		beq	.L2033
 9556 00e2 002A     		cmp	r2, #0
 9557 00e4 C4D1     		bne	.L2019
 9558 00e6 09F03F09 		and	r9, r9, #63
 9559 00ea 794A     		ldr	r2, .L2064+32
 9560 00ec DFF8DCA1 		ldr	r10, .L2064+28
 9561 00f0 52F82920 		ldr	r2, [r2, r9, lsl #2]
 9562 00f4 CAF80020 		str	r2, [r10]
 9563 00f8 CA06     		lsls	r2, r1, #27
 9564 00fa BBD5     		bpl	.L2035
 9565              	.L2063:
 9566 00fc 6C4B     		ldr	r3, .L2064
 9567 00fe DA68     		ldr	r2, [r3, #12]
ARM GAS  C:\Users\Jay\AppData\Local\Temp\ccrCOBv6.s 			page 165


 9568 0100 6FF00801 		mvn	r1, #8
 9569 0104 0A40     		ands	r2, r2, r1
 9570 0106 DA60     		str	r2, [r3, #12]
 9571 0108 1961     		str	r1, [r3, #16]
 9572 010a 1961     		str	r1, [r3, #16]
 9573 010c BDE8F08F 		pop	{r4, r5, r6, r7, r8, r9, r10, fp, pc}
 9574              	.L2037:
 9575 0110 11F00209 		ands	r9, r1, #2
 9576 0114 37D1     		bne	.L2039
 9577 0116 4DF60961 		movw	r1, #56841
 9578 011a 8A42     		cmp	r2, r1
 9579 011c 00F08380 		beq	.L2041
 9580 0120 4DF60A61 		movw	r1, #56842
 9581 0124 8A42     		cmp	r2, r1
 9582 0126 C6D1     		bne	.L2040
 9583 0128 6A4A     		ldr	r2, .L2064+36
 9584 012a 6B49     		ldr	r1, .L2064+40
 9585 012c 1278     		ldrb	r2, [r2]	@ zero_extendqisi2
 9586 012e D2B2     		uxtb	r2, r2
 9587 0130 3270     		strb	r2, [r6]
 9588 0132 45F25552 		movw	r2, #21845
 9589 0136 2280     		strh	r2, [r4]	@ movhi
 9590 0138 81F80090 		strb	r9, [r1]
 9591 013c B5E7     		b	.L2043
 9592              	.L2031:
 9593 013e 4A07     		lsls	r2, r1, #29
 9594 0140 5CBF     		itt	pl
 9595 0142 5FFA8AF2 		uxtbpl	r2, r10
 9596 0146 07F80290 		strbpl	r9, [r7, r2]
 9597 014a 91E7     		b	.L2019
 9598              	.L2062:
 9599              		.syntax unified
 9600              	@ 182 "cartridges/easyflash.c" 1
 9601 014c 00BF     		nop
 9602              	@ 0 "" 2
 9603              	@ 182 "cartridges/easyflash.c" 1
 9604 014e 00BF     		nop
 9605              	@ 0 "" 2
 9606              	@ 182 "cartridges/easyflash.c" 1
 9607 0150 00BF     		nop
 9608              	@ 0 "" 2
 9609              	@ 182 "cartridges/easyflash.c" 1
 9610 0152 00BF     		nop
 9611              	@ 0 "" 2
 9612              	@ 182 "cartridges/easyflash.c" 1
 9613 0154 00BF     		nop
 9614              	@ 0 "" 2
 9615              	@ 182 "cartridges/easyflash.c" 1
 9616 0156 00BF     		nop
 9617              	@ 0 "" 2
 9618              	@ 182 "cartridges/easyflash.c" 1
 9619 0158 00BF     		nop
 9620              	@ 0 "" 2
 9621              		.thumb
 9622              		.syntax unified
 9623 015a 0169     		ldr	r1, [r0, #16]
 9624 015c C9B2     		uxtb	r1, r1
ARM GAS  C:\Users\Jay\AppData\Local\Temp\ccrCOBv6.s 			page 166


 9625 015e 01F0C002 		and	r2, r1, #192
 9626 0162 C02A     		cmp	r2, #192
 9627 0164 35D0     		beq	.L2016
 9628 0166 DFF86491 		ldr	r9, .L2064+28
 9629 016a CAF30D02 		ubfx	r2, r10, #0, #14
 9630 016e D9F80090 		ldr	r9, [r9]
 9631 0172 19F80220 		ldrb	r2, [r9, r2]	@ zero_extendqisi2
 9632 0176 3270     		strb	r2, [r6]
 9633 0178 45F25552 		movw	r2, #21845
 9634 017c 2280     		strh	r2, [r4]	@ movhi
 9635              	.L2022:
 9636 017e 5A6A     		ldr	r2, [r3, #36]
 9637 0180 932A     		cmp	r2, #147
 9638 0182 FCD9     		bls	.L2022
 9639 0184 72E7     		b	.L2061
 9640              	.L2039:
 9641 0186 4907     		lsls	r1, r1, #29
 9642 0188 95D4     		bmi	.L2040
 9643 018a D2B2     		uxtb	r2, r2
 9644 018c 45F25551 		movw	r1, #21845
 9645 0190 BA5C     		ldrb	r2, [r7, r2]	@ zero_extendqisi2
 9646 0192 3270     		strb	r2, [r6]
 9647 0194 2180     		strh	r1, [r4]	@ movhi
 9648 0196 88E7     		b	.L2043
 9649              	.L2024:
 9650 0198 11F00202 		ands	r2, r1, #2
 9651 019c 36D1     		bne	.L2026
 9652 019e 4DF60969 		movw	r9, #56841
 9653 01a2 CA45     		cmp	r10, r9
 9654 01a4 5AD0     		beq	.L2027
 9655 01a6 4DF60A69 		movw	r9, #56842
 9656 01aa CA45     		cmp	r10, r9
 9657 01ac 7FF460AF 		bne	.L2019
 9658 01b0 DFF82091 		ldr	r9, .L2064+36
 9659 01b4 DFF820A1 		ldr	r10, .L2064+40
 9660 01b8 99F80090 		ldrb	r9, [r9]	@ zero_extendqisi2
 9661 01bc 5FFA89F9 		uxtb	r9, r9
 9662 01c0 86F80090 		strb	r9, [r6]
 9663 01c4 45F25559 		movw	r9, #21845
 9664 01c8 A4F80090 		strh	r9, [r4]	@ movhi
 9665 01cc 8AF80020 		strb	r2, [r10]
 9666 01d0 49E7     		b	.L2025
 9667              	.L2016:
 9668 01d2 11F00202 		ands	r2, r1, #2
 9669 01d6 35D1     		bne	.L2018
 9670 01d8 4DF60969 		movw	r9, #56841
 9671 01dc CA45     		cmp	r10, r9
 9672 01de 5BD0     		beq	.L2020
 9673 01e0 4DF60A69 		movw	r9, #56842
 9674 01e4 CA45     		cmp	r10, r9
 9675 01e6 7FF443AF 		bne	.L2019
 9676 01ea DFF8E890 		ldr	r9, .L2064+36
 9677 01ee DFF8E8A0 		ldr	r10, .L2064+40
 9678 01f2 99F80090 		ldrb	r9, [r9]	@ zero_extendqisi2
 9679 01f6 5FFA89F9 		uxtb	r9, r9
 9680 01fa 86F80090 		strb	r9, [r6]
 9681 01fe 45F25559 		movw	r9, #21845
ARM GAS  C:\Users\Jay\AppData\Local\Temp\ccrCOBv6.s 			page 167


 9682 0202 A4F80090 		strh	r9, [r4]	@ movhi
 9683 0206 8AF80020 		strb	r2, [r10]
 9684 020a B8E7     		b	.L2022
 9685              	.L2026:
 9686 020c 4A07     		lsls	r2, r1, #29
 9687 020e 3FF52FAF 		bmi	.L2019
 9688 0212 5FFA8AF2 		uxtb	r2, r10
 9689 0216 45F25559 		movw	r9, #21845
 9690 021a BA5C     		ldrb	r2, [r7, r2]	@ zero_extendqisi2
 9691 021c 3270     		strb	r2, [r6]
 9692 021e A4F80090 		strh	r9, [r4]	@ movhi
 9693 0222 20E7     		b	.L2025
 9694              	.L2058:
 9695 0224 7047     		bx	lr
 9696              	.L2041:
 9697 0226 2C4A     		ldr	r2, .L2064+40
 9698 0228 1278     		ldrb	r2, [r2]	@ zero_extendqisi2
 9699 022a 9CF80010 		ldrb	r1, [ip]	@ zero_extendqisi2
 9700 022e 0A43     		orrs	r2, r2, r1
 9701 0230 45F25551 		movw	r1, #21845
 9702 0234 3270     		strb	r2, [r6]
 9703 0236 2180     		strh	r1, [r4]	@ movhi
 9704 0238 37E7     		b	.L2043
 9705              	.L2033:
 9706 023a 8EF80090 		strb	r9, [lr]
 9707 023e 8CF800B0 		strb	fp, [ip]
 9708 0242 15E7     		b	.L2019
 9709              	.L2018:
 9710 0244 4A07     		lsls	r2, r1, #29
 9711 0246 3FF513AF 		bmi	.L2019
 9712 024a 5FFA8AF2 		uxtb	r2, r10
 9713 024e 45F25559 		movw	r9, #21845
 9714 0252 BA5C     		ldrb	r2, [r7, r2]	@ zero_extendqisi2
 9715 0254 3270     		strb	r2, [r6]
 9716 0256 A4F80090 		strh	r9, [r4]	@ movhi
 9717 025a 90E7     		b	.L2022
 9718              	.L2027:
 9719 025c 1E4A     		ldr	r2, .L2064+40
 9720 025e 1278     		ldrb	r2, [r2]	@ zero_extendqisi2
 9721 0260 9CF80090 		ldrb	r9, [ip]	@ zero_extendqisi2
 9722 0264 42EA0902 		orr	r2, r2, r9
 9723 0268 45F25559 		movw	r9, #21845
 9724 026c 3270     		strb	r2, [r6]
 9725 026e A4F80090 		strh	r9, [r4]	@ movhi
 9726 0272 F8E6     		b	.L2025
 9727              	.L2032:
 9728 0274 4FEA591A 		lsr	r10, r9, #5
 9729 0278 0AF0040A 		and	r10, r10, #4
 9730 027c 09F0020B 		and	fp, r9, #2
 9731 0280 C9F38002 		ubfx	r2, r9, #2, #1
 9732 0284 4AEA0B0A 		orr	r10, r10, fp
 9733 0288 22EA0902 		bic	r2, r2, r9
 9734 028c 42EA0A02 		orr	r2, r2, r10
 9735 0290 58F82220 		ldr	r2, [r8, r2, lsl #2]
 9736 0294 A261     		str	r2, [r4, #24]
 9737 0296 EBE6     		b	.L2019
 9738              	.L2020:
ARM GAS  C:\Users\Jay\AppData\Local\Temp\ccrCOBv6.s 			page 168


 9739 0298 0F4A     		ldr	r2, .L2064+40
 9740 029a 1278     		ldrb	r2, [r2]	@ zero_extendqisi2
 9741 029c 9CF80090 		ldrb	r9, [ip]	@ zero_extendqisi2
 9742 02a0 42EA0902 		orr	r2, r2, r9
 9743 02a4 45F25559 		movw	r9, #21845
 9744 02a8 3270     		strb	r2, [r6]
 9745 02aa A4F80090 		strh	r9, [r4]	@ movhi
 9746 02ae 66E7     		b	.L2022
 9747              	.L2065:
 9748              		.align	2
 9749              	.L2064:
 9750 02b0 00000140 		.word	1073807360
 9751 02b4 00000240 		.word	1073872896
 9752 02b8 00040240 		.word	1073873920
 9753 02bc 00080240 		.word	1073874944
 9754 02c0 00000000 		.word	crt_ram_buf
 9755 02c4 14080240 		.word	1073874964
 9756 02c8 001000E0 		.word	-536866816
 9757 02cc 00000000 		.word	.LANCHOR7
 9758 02d0 00000000 		.word	.LANCHOR18
 9759 02d4 00000000 		.word	.LANCHOR11
 9760 02d8 00000000 		.word	.LANCHOR10
 9761 02dc 00000000 		.word	.LANCHOR12
 9762 02e0 00000000 		.word	.LANCHOR19
 9763 02e4 00000000 		.word	.LANCHOR13
 9765              		.section	.text.SystemInit,"ax",%progbits
 9766              		.align	1
 9767              		.p2align 2,,3
 9768              		.global	SystemInit
 9769              		.syntax unified
 9770              		.thumb
 9771              		.thumb_func
 9772              		.fpu fpv4-sp-d16
 9774              	SystemInit:
 9775              		@ args = 0, pretend = 0, frame = 0
 9776              		@ frame_needed = 0, uses_anonymous_args = 0
 9777              		@ link register save eliminated.
 9778 0000 1049     		ldr	r1, .L2068
 9779 0002 114B     		ldr	r3, .L2068+4
 9780 0004 D1F88820 		ldr	r2, [r1, #136]
 9781 0008 42F47002 		orr	r2, r2, #15728640
 9782 000c 10B4     		push	{r4}
 9783 000e C1F88820 		str	r2, [r1, #136]
 9784 0012 1A68     		ldr	r2, [r3]
 9785 0014 0D4C     		ldr	r4, .L2068+8
 9786 0016 0020     		movs	r0, #0
 9787 0018 42F00102 		orr	r2, r2, #1
 9788 001c 1A60     		str	r2, [r3]
 9789 001e 9860     		str	r0, [r3, #8]
 9790 0020 1A68     		ldr	r2, [r3]
 9791 0022 22F08472 		bic	r2, r2, #17301504
 9792 0026 22F48032 		bic	r2, r2, #65536
 9793 002a 1A60     		str	r2, [r3]
 9794 002c 5C60     		str	r4, [r3, #4]
 9795 002e 1A68     		ldr	r2, [r3]
 9796 0030 4FF00054 		mov	r4, #536870912
 9797 0034 22F48022 		bic	r2, r2, #262144
ARM GAS  C:\Users\Jay\AppData\Local\Temp\ccrCOBv6.s 			page 169


 9798 0038 1A60     		str	r2, [r3]
 9799 003a D860     		str	r0, [r3, #12]
 9800 003c 8C60     		str	r4, [r1, #8]
 9801 003e 5DF8044B 		ldr	r4, [sp], #4
 9802 0042 7047     		bx	lr
 9803              	.L2069:
 9804              		.align	2
 9805              	.L2068:
 9806 0044 00ED00E0 		.word	-536810240
 9807 0048 00380240 		.word	1073887232
 9808 004c 10300024 		.word	603992080
 9810              		.section	.text.SystemCoreClockUpdate,"ax",%progbits
 9811              		.align	1
 9812              		.p2align 2,,3
 9813              		.global	SystemCoreClockUpdate
 9814              		.syntax unified
 9815              		.thumb
 9816              		.thumb_func
 9817              		.fpu fpv4-sp-d16
 9819              	SystemCoreClockUpdate:
 9820              		@ args = 0, pretend = 0, frame = 0
 9821              		@ frame_needed = 0, uses_anonymous_args = 0
 9822              		@ link register save eliminated.
 9823 0000 164A     		ldr	r2, .L2077
 9824 0002 9368     		ldr	r3, [r2, #8]
 9825 0004 03F00C03 		and	r3, r3, #12
 9826 0008 042B     		cmp	r3, #4
 9827 000a 24D0     		beq	.L2076
 9828 000c 082B     		cmp	r3, #8
 9829 000e 0AD0     		beq	.L2073
 9830 0010 134B     		ldr	r3, .L2077+4
 9831              	.L2072:
 9832 0012 124A     		ldr	r2, .L2077
 9833 0014 1348     		ldr	r0, .L2077+8
 9834 0016 9268     		ldr	r2, [r2, #8]
 9835 0018 1349     		ldr	r1, .L2077+12
 9836 001a C2F30312 		ubfx	r2, r2, #4, #4
 9837 001e 825C     		ldrb	r2, [r0, r2]	@ zero_extendqisi2
 9838 0020 D340     		lsrs	r3, r3, r2
 9839 0022 0B60     		str	r3, [r1]
 9840 0024 7047     		bx	lr
 9841              	.L2073:
 9842 0026 5068     		ldr	r0, [r2, #4]
 9843 0028 5168     		ldr	r1, [r2, #4]
 9844 002a 5268     		ldr	r2, [r2, #4]
 9845 002c 4302     		lsls	r3, r0, #9
 9846 002e C2F38812 		ubfx	r2, r2, #6, #9
 9847 0032 01F03F01 		and	r1, r1, #63
 9848 0036 4CBF     		ite	mi
 9849 0038 0C4B     		ldrmi	r3, .L2077+16
 9850 003a 094B     		ldrpl	r3, .L2077+4
 9851 003c B3FBF1F3 		udiv	r3, r3, r1
 9852 0040 03FB02F3 		mul	r3, r3, r2
 9853 0044 054A     		ldr	r2, .L2077
 9854 0046 5268     		ldr	r2, [r2, #4]
 9855 0048 C2F30142 		ubfx	r2, r2, #16, #2
 9856 004c 0132     		adds	r2, r2, #1
ARM GAS  C:\Users\Jay\AppData\Local\Temp\ccrCOBv6.s 			page 170


 9857 004e 5200     		lsls	r2, r2, #1
 9858 0050 B3FBF2F3 		udiv	r3, r3, r2
 9859 0054 DDE7     		b	.L2072
 9860              	.L2076:
 9861 0056 054B     		ldr	r3, .L2077+16
 9862 0058 DBE7     		b	.L2072
 9863              	.L2078:
 9864 005a 00BF     		.align	2
 9865              	.L2077:
 9866 005c 00380240 		.word	1073887232
 9867 0060 0024F400 		.word	16000000
 9868 0064 00000000 		.word	.LANCHOR42
 9869 0068 00000000 		.word	.LANCHOR41
 9870 006c 40787D01 		.word	25000000
 9872              		.section	.text.EXTI4_IRQHandler,"ax",%progbits
 9873              		.align	1
 9874              		.p2align 2,,3
 9875              		.global	EXTI4_IRQHandler
 9876              		.syntax unified
 9877              		.thumb
 9878              		.thumb_func
 9879              		.fpu fpv4-sp-d16
 9881              	EXTI4_IRQHandler:
 9882              		@ args = 0, pretend = 0, frame = 0
 9883              		@ frame_needed = 0, uses_anonymous_args = 0
 9884 0000 08B5     		push	{r3, lr}
 9885 0002 084B     		ldr	r3, .L2083
 9886 0004 5B69     		ldr	r3, [r3, #20]
 9887 0006 DB06     		lsls	r3, r3, #27
 9888 0008 00D4     		bmi	.L2082
 9889 000a 08BD     		pop	{r3, pc}
 9890              	.L2082:
 9891 000c 064B     		ldr	r3, .L2083+4
 9892 000e DA68     		ldr	r2, [r3, #12]
 9893 0010 6FF00801 		mvn	r1, #8
 9894 0014 0A40     		ands	r2, r2, r1
 9895 0016 DA60     		str	r2, [r3, #12]
 9896 0018 1961     		str	r1, [r3, #16]
 9897 001a FFF7FEFF 		bl	c64_reset.part.24
 9898 001e FFF7FEFF 		bl	restart_to_menu
 9899              	.L2084:
 9900 0022 00BF     		.align	2
 9901              	.L2083:
 9902 0024 003C0140 		.word	1073822720
 9903 0028 00000140 		.word	1073807360
 9905              		.section	.text.disk_initialize,"ax",%progbits
 9906              		.align	1
 9907              		.p2align 2,,3
 9908              		.global	disk_initialize
 9909              		.syntax unified
 9910              		.thumb
 9911              		.thumb_func
 9912              		.fpu fpv4-sp-d16
 9914              	disk_initialize:
 9915              		@ args = 0, pretend = 0, frame = 16
 9916              		@ frame_needed = 0, uses_anonymous_args = 0
 9917 0000 2DE9F047 		push	{r4, r5, r6, r7, r8, r9, r10, lr}
ARM GAS  C:\Users\Jay\AppData\Local\Temp\ccrCOBv6.s 			page 171


 9918 0004 AD4D     		ldr	r5, .L2164
 9919 0006 AE4A     		ldr	r2, .L2164+4
 9920 0008 DFF8D8E2 		ldr	lr, .L2164+40
 9921 000c AD4E     		ldr	r6, .L2164+8
 9922 000e AE4B     		ldr	r3, .L2164+12
 9923 0010 DFF8D8C2 		ldr	ip, .L2164+48
 9924 0014 AD48     		ldr	r0, .L2164+16
 9925 0016 AE49     		ldr	r1, .L2164+20
 9926 0018 0127     		movs	r7, #1
 9927 001a 2F70     		strb	r7, [r5]
 9928 001c D768     		ldr	r7, [r2, #12]
 9929 001e 07EA0E07 		and	r7, r7, lr
 9930 0022 0024     		movs	r4, #0
 9931 0024 47F4AA07 		orr	r7, r7, #5570560
 9932 0028 3480     		strh	r4, [r6]	@ movhi
 9933 002a D760     		str	r7, [r2, #12]
 9934 002c DF68     		ldr	r7, [r3, #12]
 9935 002e 27F03007 		bic	r7, r7, #48
 9936 0032 47F01007 		orr	r7, r7, #16
 9937 0036 DF60     		str	r7, [r3, #12]
 9938 0038 9768     		ldr	r7, [r2, #8]
 9939 003a 07EA0E07 		and	r7, r7, lr
 9940 003e 47EA0C07 		orr	r7, r7, ip
 9941 0042 9760     		str	r7, [r2, #8]
 9942 0044 9F68     		ldr	r7, [r3, #8]
 9943 0046 27F03007 		bic	r7, r7, #48
 9944 004a 47F02007 		orr	r7, r7, #32
 9945 004e 9F60     		str	r7, [r3, #8]
 9946 0050 576A     		ldr	r7, [r2, #36]
 9947 0052 3F0D     		lsrs	r7, r7, #20
 9948 0054 3F05     		lsls	r7, r7, #20
 9949 0056 3843     		orrs	r0, r0, r7
 9950 0058 5062     		str	r0, [r2, #36]
 9951 005a 1068     		ldr	r0, [r2]
 9952 005c 00EA0E00 		and	r0, r0, lr
 9953 0060 40EA0C00 		orr	r0, r0, ip
 9954 0064 1060     		str	r0, [r2]
 9955 0066 1A6A     		ldr	r2, [r3, #32]
 9956 0068 22F47062 		bic	r2, r2, #3840
 9957 006c 42F44062 		orr	r2, r2, #3072
 9958 0070 1A62     		str	r2, [r3, #32]
 9959 0072 1A68     		ldr	r2, [r3]
 9960 0074 22F03002 		bic	r2, r2, #48
 9961 0078 42F02002 		orr	r2, r2, #32
 9962 007c 1A60     		str	r2, [r3]
 9963 007e 4B6C     		ldr	r3, [r1, #68]
 9964 0080 43F40063 		orr	r3, r3, #2048
 9965 0084 84B0     		sub	sp, sp, #16
 9966 0086 4B64     		str	r3, [r1, #68]
 9967              		.syntax unified
 9968              	@ 879 "stm32f4xx/cmsis/cmsis_gcc.h" 1
 9969 0088 BFF34F8F 		dsb 0xF
 9970              	@ 0 "" 2
 9971              		.thumb
 9972              		.syntax unified
 9973 008c 4A6A     		ldr	r2, [r1, #36]
 9974 008e 9148     		ldr	r0, .L2164+24
ARM GAS  C:\Users\Jay\AppData\Local\Temp\ccrCOBv6.s 			page 172


 9975 0090 914B     		ldr	r3, .L2164+28
 9976 0092 42F40062 		orr	r2, r2, #2048
 9977 0096 4A62     		str	r2, [r1, #36]
 9978 0098 4A6A     		ldr	r2, [r1, #36]
 9979 009a 22F40062 		bic	r2, r2, #2048
 9980 009e 4A62     		str	r2, [r1, #36]
 9981 00a0 0268     		ldr	r2, [r0]
 9982 00a2 D221     		movs	r1, #210
 9983 00a4 42F00302 		orr	r2, r2, #3
 9984 00a8 0260     		str	r2, [r0]
 9985 00aa 5960     		str	r1, [r3, #4]
 9986 00ac 1A46     		mov	r2, r3
 9987 00ae 9C60     		str	r4, [r3, #8]
 9988              	.L2086:
 9989 00b0 1368     		ldr	r3, [r2]
 9990 00b2 DB03     		lsls	r3, r3, #15
 9991 00b4 FCD5     		bpl	.L2086
 9992 00b6 874B     		ldr	r3, .L2164+24
 9993 00b8 874C     		ldr	r4, .L2164+28
 9994 00ba 4FF4BB71 		mov	r1, #374
 9995 00be 5960     		str	r1, [r3, #4]
 9996 00c0 41F26801 		movw	r1, #4200
 9997 00c4 0023     		movs	r3, #0
 9998 00c6 5160     		str	r1, [r2, #4]
 9999 00c8 9360     		str	r3, [r2, #8]
 10000              	.L2087:
 10001 00ca 2368     		ldr	r3, [r4]
 10002 00cc DF03     		lsls	r7, r3, #15
 10003 00ce FCD5     		bpl	.L2087
 10004 00d0 0023     		movs	r3, #0
 10005 00d2 1A46     		mov	r2, r3
 10006 00d4 1946     		mov	r1, r3
 10007 00d6 1846     		mov	r0, r3
 10008 00d8 FFF7FEFF 		bl	sdio_cmd_send
 10009 00dc 90B3     		cbz	r0, .L2088
 10010 00de 7F4B     		ldr	r3, .L2164+32
 10011 00e0 6360     		str	r3, [r4, #4]
 10012 00e2 4FF0000A 		mov	r10, #0
 10013 00e6 C4F808A0 		str	r10, [r4, #8]
 10014 00ea 6B46     		mov	r3, sp
 10015 00ec 0122     		movs	r2, #1
 10016 00ee 4FF4D571 		mov	r1, #426
 10017 00f2 0820     		movs	r0, #8
 10018 00f4 FFF7FEFF 		bl	sdio_cmd_send
 10019 00f8 30B1     		cbz	r0, .L2089
 10020 00fa 009B     		ldr	r3, [sp]
 10021 00fc C3F30B03 		ubfx	r3, r3, #0, #12
 10022 0100 B3F5D57F 		cmp	r3, #426
 10023 0104 00F0F680 		beq	.L2159
 10024              	.L2089:
 10025 0108 6B46     		mov	r3, sp
 10026 010a 0122     		movs	r2, #1
 10027 010c 7449     		ldr	r1, .L2164+36
 10028 010e DFF8E081 		ldr	r8, .L2164+52
 10029 0112 A920     		movs	r0, #169
 10030 0114 FFF7FEFF 		bl	sdio_cmd_send
 10031 0118 0028     		cmp	r0, #0
ARM GAS  C:\Users\Jay\AppData\Local\Temp\ccrCOBv6.s 			page 173


 10032 011a 4FD1     		bne	.L2160
 10033 011c 0124     		movs	r4, #1
 10034 011e 88F80040 		strb	r4, [r8]
 10035              	.L2096:
 10036 0122 6F4F     		ldr	r7, .L2164+36
 10037 0124 DFF8B091 		ldr	r9, .L2164+28
 10038              	.L2098:
 10039 0128 6B46     		mov	r3, sp
 10040 012a 0122     		movs	r2, #1
 10041 012c 3946     		mov	r1, r7
 10042 012e 2046     		mov	r0, r4
 10043 0130 FFF7FEFF 		bl	sdio_cmd_send
 10044 0134 10B1     		cbz	r0, .L2097
 10045 0136 009B     		ldr	r3, [sp]
 10046 0138 002B     		cmp	r3, #0
 10047 013a 4ADB     		blt	.L2093
 10048              	.L2097:
 10049 013c D9F80030 		ldr	r3, [r9]
 10050 0140 DB03     		lsls	r3, r3, #15
 10051 0142 F1D5     		bpl	.L2098
 10052              	.L2088:
 10053 0144 0123     		movs	r3, #1
 10054 0146 634A     		ldr	r2, .L2164+24
 10055 0148 2B70     		strb	r3, [r5]
 10056 014a 5368     		ldr	r3, [r2, #4]
 10057 014c 23F48073 		bic	r3, r3, #256
 10058 0150 5360     		str	r3, [r2, #4]
 10059              	.L2109:
 10060 0152 536B     		ldr	r3, [r2, #52]
 10061 0154 13F40063 		ands	r3, r3, #2048
 10062 0158 FBD1     		bne	.L2109
 10063 015a 1068     		ldr	r0, [r2]
 10064 015c 5E49     		ldr	r1, .L2164+28
 10065 015e 20F00300 		bic	r0, r0, #3
 10066 0162 D224     		movs	r4, #210
 10067 0164 1060     		str	r0, [r2]
 10068 0166 4C60     		str	r4, [r1, #4]
 10069 0168 0A46     		mov	r2, r1
 10070 016a 8B60     		str	r3, [r1, #8]
 10071              	.L2110:
 10072 016c 1368     		ldr	r3, [r2]
 10073 016e DB03     		lsls	r3, r3, #15
 10074 0170 FCD5     		bpl	.L2110
 10075 0172 574A     		ldr	r2, .L2164+20
 10076 0174 536C     		ldr	r3, [r2, #68]
 10077 0176 23F40063 		bic	r3, r3, #2048
 10078 017a 5364     		str	r3, [r2, #68]
 10079              		.syntax unified
 10080              	@ 879 "stm32f4xx/cmsis/cmsis_gcc.h" 1
 10081 017c BFF34F8F 		dsb 0xF
 10082              	@ 0 "" 2
 10083              		.thumb
 10084              		.syntax unified
 10085 0180 A2F54052 		sub	r2, r2, #12288
 10086 0184 574C     		ldr	r4, .L2164+40
 10087 0186 1068     		ldr	r0, [r2]
 10088 0188 4F4B     		ldr	r3, .L2164+12
ARM GAS  C:\Users\Jay\AppData\Local\Temp\ccrCOBv6.s 			page 174


 10089 018a 2040     		ands	r0, r0, r4
 10090 018c 1060     		str	r0, [r2]
 10091 018e 516A     		ldr	r1, [r2, #36]
 10092 0190 090D     		lsrs	r1, r1, #20
 10093 0192 0905     		lsls	r1, r1, #20
 10094 0194 5162     		str	r1, [r2, #36]
 10095 0196 1868     		ldr	r0, [r3]
 10096 0198 20F03000 		bic	r0, r0, #48
 10097 019c 1860     		str	r0, [r3]
 10098 019e 186A     		ldr	r0, [r3, #32]
 10099 01a0 20F47060 		bic	r0, r0, #3840
 10100 01a4 1862     		str	r0, [r3, #32]
 10101 01a6 D168     		ldr	r1, [r2, #12]
 10102 01a8 2140     		ands	r1, r1, r4
 10103 01aa D160     		str	r1, [r2, #12]
 10104 01ac DA68     		ldr	r2, [r3, #12]
 10105 01ae 22F03002 		bic	r2, r2, #48
 10106 01b2 DA60     		str	r2, [r3, #12]
 10107 01b4 0120     		movs	r0, #1
 10108              	.L2108:
 10109 01b6 04B0     		add	sp, sp, #16
 10110              		@ sp needed
 10111 01b8 BDE8F087 		pop	{r4, r5, r6, r7, r8, r9, r10, pc}
 10112              	.L2160:
 10113 01bc 0223     		movs	r3, #2
 10114 01be 88F80030 		strb	r3, [r8]
 10115 01c2 A924     		movs	r4, #169
 10116 01c4 ADE7     		b	.L2096
 10117              	.L2163:
 10118 01c6 5800     		lsls	r0, r3, #1
 10119 01c8 4CBF     		ite	mi
 10120 01ca 0C22     		movmi	r2, #12
 10121 01cc 0422     		movpl	r2, #4
 10122 01ce 88F80020 		strb	r2, [r8]
 10123              	.L2093:
 10124 01d2 454C     		ldr	r4, .L2164+44
 10125 01d4 190C     		lsrs	r1, r3, #16
 10126 01d6 4FEA136C 		lsr	ip, r3, #24
 10127 01da 1F0A     		lsrs	r7, r3, #8
 10128 01dc 0222     		movs	r2, #2
 10129 01de 84F82330 		strb	r3, [r4, #35]
 10130 01e2 84F82110 		strb	r1, [r4, #33]
 10131 01e6 1046     		mov	r0, r2
 10132 01e8 84F820C0 		strb	ip, [r4, #32]
 10133 01ec 6B46     		mov	r3, sp
 10134 01ee 0021     		movs	r1, #0
 10135 01f0 84F82270 		strb	r7, [r4, #34]
 10136 01f4 FFF7FEFF 		bl	sdio_cmd_send
 10137 01f8 0028     		cmp	r0, #0
 10138 01fa A3D0     		beq	.L2088
 10139 01fc 2746     		mov	r7, r4
 10140 01fe 04F1100C 		add	ip, r4, #16
 10141 0202 E946     		mov	r9, sp
 10142 0204 6A46     		mov	r2, sp
 10143              	.L2099:
 10144 0206 52F8043B 		ldr	r3, [r2], #4
 10145 020a E374     		strb	r3, [r4, #19]
ARM GAS  C:\Users\Jay\AppData\Local\Temp\ccrCOBv6.s 			page 175


 10146 020c 180E     		lsrs	r0, r3, #24
 10147 020e 190C     		lsrs	r1, r3, #16
 10148 0210 1B0A     		lsrs	r3, r3, #8
 10149 0212 2074     		strb	r0, [r4, #16]
 10150 0214 6174     		strb	r1, [r4, #17]
 10151 0216 A374     		strb	r3, [r4, #18]
 10152 0218 0434     		adds	r4, r4, #4
 10153 021a A445     		cmp	ip, r4
 10154 021c F3D1     		bne	.L2099
 10155 021e 98F80030 		ldrb	r3, [r8]	@ zero_extendqisi2
 10156 0222 13F0060F 		tst	r3, #6
 10157 0226 4FF00102 		mov	r2, #1
 10158 022a 6B46     		mov	r3, sp
 10159 022c 7ED1     		bne	.L2161
 10160 022e 4FF48031 		mov	r1, #65536
 10161 0232 0320     		movs	r0, #3
 10162 0234 FFF7FEFF 		bl	sdio_cmd_send
 10163 0238 0028     		cmp	r0, #0
 10164 023a 83D0     		beq	.L2088
 10165 023c 0123     		movs	r3, #1
 10166 023e 3380     		strh	r3, [r6]	@ movhi
 10167 0240 4FF4803A 		mov	r10, #65536
 10168              	.L2101:
 10169 0244 6B46     		mov	r3, sp
 10170 0246 0222     		movs	r2, #2
 10171 0248 5146     		mov	r1, r10
 10172 024a 0920     		movs	r0, #9
 10173 024c FFF7FEFF 		bl	sdio_cmd_send
 10174 0250 0028     		cmp	r0, #0
 10175 0252 3FF477AF 		beq	.L2088
 10176              	.L2102:
 10177 0256 59F8043B 		ldr	r3, [r9], #4
 10178 025a FB70     		strb	r3, [r7, #3]
 10179 025c 190E     		lsrs	r1, r3, #24
 10180 025e 1A0C     		lsrs	r2, r3, #16
 10181 0260 1B0A     		lsrs	r3, r3, #8
 10182 0262 3970     		strb	r1, [r7]
 10183 0264 7A70     		strb	r2, [r7, #1]
 10184 0266 BB70     		strb	r3, [r7, #2]
 10185 0268 0437     		adds	r7, r7, #4
 10186 026a BC42     		cmp	r4, r7
 10187 026c F3D1     		bne	.L2102
 10188 026e 5146     		mov	r1, r10
 10189 0270 6B46     		mov	r3, sp
 10190 0272 0122     		movs	r2, #1
 10191 0274 0720     		movs	r0, #7
 10192 0276 FFF7FEFF 		bl	sdio_cmd_send
 10193 027a 0028     		cmp	r0, #0
 10194 027c 3FF462AF 		beq	.L2088
 10195 0280 98F80060 		ldrb	r6, [r8]	@ zero_extendqisi2
 10196 0284 3007     		lsls	r0, r6, #28
 10197 0286 5ED5     		bpl	.L2103
 10198              	.L2106:
 10199 0288 124B     		ldr	r3, .L2164+24
 10200 028a 16F0060F 		tst	r6, #6
 10201 028e 5C68     		ldr	r4, [r3, #4]
 10202 0290 69D1     		bne	.L2162
ARM GAS  C:\Users\Jay\AppData\Local\Temp\ccrCOBv6.s 			page 176


 10203              	.L2105:
 10204 0292 1149     		ldr	r1, .L2164+28
 10205 0294 0F4A     		ldr	r2, .L2164+24
 10206 0296 24F0FF03 		bic	r3, r4, #255
 10207 029a 43F00303 		orr	r3, r3, #3
 10208 029e BD24     		movs	r4, #189
 10209 02a0 0020     		movs	r0, #0
 10210 02a2 5360     		str	r3, [r2, #4]
 10211 02a4 4C60     		str	r4, [r1, #4]
 10212 02a6 0A46     		mov	r2, r1
 10213 02a8 8860     		str	r0, [r1, #8]
 10214              	.L2107:
 10215 02aa 1368     		ldr	r3, [r2]
 10216 02ac D903     		lsls	r1, r3, #15
 10217 02ae FCD5     		bpl	.L2107
 10218 02b0 2B78     		ldrb	r3, [r5]	@ zero_extendqisi2
 10219 02b2 23F00103 		bic	r3, r3, #1
 10220 02b6 2B70     		strb	r3, [r5]
 10221 02b8 0020     		movs	r0, #0
 10222 02ba 7CE7     		b	.L2108
 10223              	.L2165:
 10224              		.align	2
 10225              	.L2164:
 10226 02bc 00000000 		.word	.LANCHOR43
 10227 02c0 00080240 		.word	1073874944
 10228 02c4 00000000 		.word	.LANCHOR0
 10229 02c8 000C0240 		.word	1073875968
 10230 02cc CCCC0C00 		.word	838860
 10231 02d0 00380240 		.word	1073887232
 10232 02d4 002C0140 		.word	1073818624
 10233 02d8 10E000E0 		.word	-536813552
 10234 02dc D01B5000 		.word	5250000
 10235 02e0 0080FF00 		.word	16744448
 10236 02e4 FFFF00FC 		.word	-67043329
 10237 02e8 00000000 		.word	.LANCHOR45
 10238 02ec 0000AA02 		.word	44695552
 10239 02f0 00000000 		.word	.LANCHOR44
 10240              	.L2159:
 10241 02f4 DFF89C80 		ldr	r8, .L2166+8
 10242 02f8 244F     		ldr	r7, .L2166
 10243 02fa DFF89C90 		ldr	r9, .L2166+12
 10244 02fe 88F800A0 		strb	r10, [r8]
 10245 0302 0424     		movs	r4, #4
 10246              	.L2090:
 10247 0304 0122     		movs	r2, #1
 10248 0306 6B46     		mov	r3, sp
 10249 0308 3946     		mov	r1, r7
 10250 030a A920     		movs	r0, #169
 10251 030c FFF7FEFF 		bl	sdio_cmd_send
 10252 0310 621E     		subs	r2, r4, #1
 10253 0312 18B1     		cbz	r0, .L2091
 10254 0314 009B     		ldr	r3, [sp]
 10255 0316 002B     		cmp	r3, #0
 10256 0318 FFF655AF 		blt	.L2163
 10257              	.L2091:
 10258 031c D9F80030 		ldr	r3, [r9]
 10259 0320 D903     		lsls	r1, r3, #15
ARM GAS  C:\Users\Jay\AppData\Local\Temp\ccrCOBv6.s 			page 177


 10260 0322 EFD5     		bpl	.L2090
 10261 0324 12F0FF04 		ands	r4, r2, #255
 10262 0328 ECD1     		bne	.L2090
 10263 032a 0BE7     		b	.L2088
 10264              	.L2161:
 10265 032c 0021     		movs	r1, #0
 10266 032e 0320     		movs	r0, #3
 10267 0330 FFF7FEFF 		bl	sdio_cmd_send
 10268 0334 0028     		cmp	r0, #0
 10269 0336 3FF405AF 		beq	.L2088
 10270 033a 009B     		ldr	r3, [sp]
 10271 033c 1A0C     		lsrs	r2, r3, #16
 10272 033e 3280     		strh	r2, [r6]	@ movhi
 10273 0340 4FEA024A 		lsl	r10, r2, #16
 10274 0344 7EE7     		b	.L2101
 10275              	.L2103:
 10276 0346 6B46     		mov	r3, sp
 10277 0348 0122     		movs	r2, #1
 10278 034a 4FF40071 		mov	r1, #512
 10279 034e 1020     		movs	r0, #16
 10280 0350 FFF7FEFF 		bl	sdio_cmd_send
 10281 0354 0028     		cmp	r0, #0
 10282 0356 3FF4F5AE 		beq	.L2088
 10283 035a 0D4A     		ldr	r2, .L2166+4
 10284 035c 009B     		ldr	r3, [sp]
 10285 035e 1A42     		tst	r2, r3
 10286 0360 7FF4F0AE 		bne	.L2088
 10287 0364 90E7     		b	.L2106
 10288              	.L2162:
 10289 0366 6B46     		mov	r3, sp
 10290 0368 0122     		movs	r2, #1
 10291 036a 0221     		movs	r1, #2
 10292 036c 8620     		movs	r0, #134
 10293 036e FFF7FEFF 		bl	sdio_cmd_send
 10294 0372 0028     		cmp	r0, #0
 10295 0374 3FF4E6AE 		beq	.L2088
 10296 0378 054A     		ldr	r2, .L2166+4
 10297 037a 009B     		ldr	r3, [sp]
 10298 037c 1A42     		tst	r2, r3
 10299 037e 7FF4E1AE 		bne	.L2088
 10300 0382 24F4C054 		bic	r4, r4, #6144
 10301 0386 44F40064 		orr	r4, r4, #2048
 10302 038a 82E7     		b	.L2105
 10303              	.L2167:
 10304              		.align	2
 10305              	.L2166:
 10306 038c 0080FF40 		.word	1090486272
 10307 0390 0000F9FD 		.word	-34013184
 10308 0394 00000000 		.word	.LANCHOR44
 10309 0398 10E000E0 		.word	-536813552
 10311              		.section	.text.disk_status,"ax",%progbits
 10312              		.align	1
 10313              		.p2align 2,,3
 10314              		.global	disk_status
 10315              		.syntax unified
 10316              		.thumb
 10317              		.thumb_func
ARM GAS  C:\Users\Jay\AppData\Local\Temp\ccrCOBv6.s 			page 178


 10318              		.fpu fpv4-sp-d16
 10320              	disk_status:
 10321              		@ args = 0, pretend = 0, frame = 0
 10322              		@ frame_needed = 0, uses_anonymous_args = 0
 10323              		@ link register save eliminated.
 10324 0000 014B     		ldr	r3, .L2169
 10325 0002 1878     		ldrb	r0, [r3]	@ zero_extendqisi2
 10326 0004 7047     		bx	lr
 10327              	.L2170:
 10328 0006 00BF     		.align	2
 10329              	.L2169:
 10330 0008 00000000 		.word	.LANCHOR43
 10332              		.section	.text.disk_read,"ax",%progbits
 10333              		.align	1
 10334              		.p2align 2,,3
 10335              		.global	disk_read
 10336              		.syntax unified
 10337              		.thumb
 10338              		.thumb_func
 10339              		.fpu fpv4-sp-d16
 10341              	disk_read:
 10342              		@ args = 0, pretend = 0, frame = 8
 10343              		@ frame_needed = 0, uses_anonymous_args = 0
 10344 0000 F0B5     		push	{r4, r5, r6, r7, lr}
 10345 0002 374C     		ldr	r4, .L2202
 10346 0004 6069     		ldr	r0, [r4, #20]
 10347 0006 1D46     		mov	r5, r3
 10348 0008 013B     		subs	r3, r3, #1
 10349 000a 80F40050 		eor	r0, r0, #8192
 10350 000e 7E2B     		cmp	r3, #126
 10351 0010 83B0     		sub	sp, sp, #12
 10352 0012 6061     		str	r0, [r4, #20]
 10353 0014 55D8     		bhi	.L2185
 10354 0016 334B     		ldr	r3, .L2202+4
 10355 0018 1B78     		ldrb	r3, [r3]	@ zero_extendqisi2
 10356 001a D807     		lsls	r0, r3, #31
 10357 001c 4BD4     		bmi	.L2186
 10358 001e 324B     		ldr	r3, .L2202+8
 10359 0020 1B78     		ldrb	r3, [r3]	@ zero_extendqisi2
 10360 0022 1B07     		lsls	r3, r3, #28
 10361 0024 1646     		mov	r6, r2
 10362 0026 0F46     		mov	r7, r1
 10363 0028 58BF     		it	pl
 10364 002a 5602     		lslpl	r6, r2, #9
 10365 002c FFF7FEFF 		bl	sdio_check_tran.constprop.96
 10366 0030 0028     		cmp	r0, #0
 10367 0032 43D0     		beq	.L2176
 10368 0034 2D4B     		ldr	r3, .L2202+12
 10369 0036 2E4A     		ldr	r2, .L2202+16
 10370 0038 012D     		cmp	r5, #1
 10371 003a 4FF09201 		mov	r1, #146
 10372 003e 4FEA4524 		lsl	r4, r5, #9
 10373 0042 D962     		str	r1, [r3, #44]
 10374 0044 18BF     		it	ne
 10375 0046 1220     		movne	r0, #18
 10376 0048 5A62     		str	r2, [r3, #36]
 10377 004a 08BF     		it	eq
ARM GAS  C:\Users\Jay\AppData\Local\Temp\ccrCOBv6.s 			page 179


 10378 004c 1120     		moveq	r0, #17
 10379 004e 9C62     		str	r4, [r3, #40]
 10380 0050 3146     		mov	r1, r6
 10381 0052 01AB     		add	r3, sp, #4
 10382 0054 0122     		movs	r2, #1
 10383 0056 0546     		mov	r5, r0
 10384 0058 FFF7FEFF 		bl	sdio_cmd_send
 10385 005c 0028     		cmp	r0, #0
 10386 005e 2DD0     		beq	.L2176
 10387 0060 244B     		ldr	r3, .L2202+20
 10388 0062 0198     		ldr	r0, [sp, #4]
 10389 0064 1840     		ands	r0, r3, r0
 10390 0066 29D1     		bne	.L2176
 10391 0068 204A     		ldr	r2, .L2202+12
 10392 006a 40F23A73 		movw	r3, #1850
 10393 006e 9363     		str	r3, [r2, #56]
 10394 0070 D36A     		ldr	r3, [r2, #44]
 10395 0072 43F00103 		orr	r3, r3, #1
 10396 0076 D362     		str	r3, [r2, #44]
 10397 0078 40F22A21 		movw	r1, #554
 10398 007c 01E0     		b	.L2178
 10399              	.L2201:
 10400 007e 9E02     		lsls	r6, r3, #10
 10401 0080 22D4     		bmi	.L2200
 10402              	.L2178:
 10403 0082 536B     		ldr	r3, [r2, #52]
 10404 0084 0B42     		tst	r3, r1
 10405 0086 FAD0     		beq	.L2201
 10406 0088 8442     		cmp	r4, r0
 10407 008a 0646     		mov	r6, r0
 10408 008c 24D9     		bls	.L2179
 10409              	.L2183:
 10410 008e 174B     		ldr	r3, .L2202+12
 10411 0090 5A6B     		ldr	r2, [r3, #52]
 10412 0092 9102     		lsls	r1, r2, #10
 10413 0094 04D5     		bpl	.L2182
 10414              	.L2181:
 10415 0096 D3F88020 		ldr	r2, [r3, #128]
 10416 009a 5A6B     		ldr	r2, [r3, #52]
 10417 009c 9202     		lsls	r2, r2, #10
 10418 009e FAD4     		bmi	.L2181
 10419              	.L2182:
 10420 00a0 01AB     		add	r3, sp, #4
 10421 00a2 0122     		movs	r2, #1
 10422 00a4 0021     		movs	r1, #0
 10423 00a6 0C20     		movs	r0, #12
 10424 00a8 FFF7FEFF 		bl	sdio_cmd_send
 10425              	.L2184:
 10426 00ac B442     		cmp	r4, r6
 10427 00ae 94BF     		ite	ls
 10428 00b0 0020     		movls	r0, #0
 10429 00b2 0120     		movhi	r0, #1
 10430 00b4 00E0     		b	.L2172
 10431              	.L2186:
 10432 00b6 0320     		movs	r0, #3
 10433              	.L2172:
 10434 00b8 03B0     		add	sp, sp, #12
ARM GAS  C:\Users\Jay\AppData\Local\Temp\ccrCOBv6.s 			page 180


 10435              		@ sp needed
 10436 00ba F0BD     		pop	{r4, r5, r6, r7, pc}
 10437              	.L2176:
 10438 00bc 0120     		movs	r0, #1
 10439 00be 03B0     		add	sp, sp, #12
 10440              		@ sp needed
 10441 00c0 F0BD     		pop	{r4, r5, r6, r7, pc}
 10442              	.L2185:
 10443 00c2 0420     		movs	r0, #4
 10444 00c4 03B0     		add	sp, sp, #12
 10445              		@ sp needed
 10446 00c6 F0BD     		pop	{r4, r5, r6, r7, pc}
 10447              	.L2200:
 10448 00c8 0430     		adds	r0, r0, #4
 10449 00ca D2F88030 		ldr	r3, [r2, #128]
 10450 00ce 47F8043B 		str	r3, [r7], #4
 10451 00d2 8442     		cmp	r4, r0
 10452 00d4 D5D1     		bne	.L2178
 10453 00d6 2646     		mov	r6, r4
 10454              	.L2179:
 10455 00d8 122D     		cmp	r5, #18
 10456 00da E7D1     		bne	.L2184
 10457 00dc D7E7     		b	.L2183
 10458              	.L2203:
 10459 00de 00BF     		.align	2
 10460              	.L2202:
 10461 00e0 00080240 		.word	1073874944
 10462 00e4 00000000 		.word	.LANCHOR43
 10463 00e8 00000000 		.word	.LANCHOR44
 10464 00ec 002C0140 		.word	1073818624
 10465 00f0 00366E01 		.word	24000000
 10466 00f4 000058C0 		.word	-1067974656
 10468              		.section	.text.disk_write,"ax",%progbits
 10469              		.align	1
 10470              		.p2align 2,,3
 10471              		.global	disk_write
 10472              		.syntax unified
 10473              		.thumb
 10474              		.thumb_func
 10475              		.fpu fpv4-sp-d16
 10477              	disk_write:
 10478              		@ args = 0, pretend = 0, frame = 8
 10479              		@ frame_needed = 0, uses_anonymous_args = 0
 10480 0000 2DE9F047 		push	{r4, r5, r6, r7, r8, r9, r10, lr}
 10481 0004 4F4D     		ldr	r5, .L2238
 10482 0006 6869     		ldr	r0, [r5, #20]
 10483 0008 1C46     		mov	r4, r3
 10484 000a 013B     		subs	r3, r3, #1
 10485 000c 80F40050 		eor	r0, r0, #8192
 10486 0010 7E2B     		cmp	r3, #126
 10487 0012 82B0     		sub	sp, sp, #8
 10488 0014 6861     		str	r0, [r5, #20]
 10489 0016 7AD8     		bhi	.L2220
 10490 0018 4B4B     		ldr	r3, .L2238+4
 10491 001a 1B78     		ldrb	r3, [r3]	@ zero_extendqisi2
 10492 001c D807     		lsls	r0, r3, #31
 10493 001e 6ED4     		bmi	.L2221
ARM GAS  C:\Users\Jay\AppData\Local\Temp\ccrCOBv6.s 			page 181


 10494 0020 4A4D     		ldr	r5, .L2238+8
 10495 0022 95F80080 		ldrb	r8, [r5]	@ zero_extendqisi2
 10496 0026 18F0080F 		tst	r8, #8
 10497 002a 1746     		mov	r7, r2
 10498 002c 0E46     		mov	r6, r1
 10499 002e 08BF     		it	eq
 10500 0030 5702     		lsleq	r7, r2, #9
 10501 0032 FFF7FEFF 		bl	sdio_check_tran.constprop.96
 10502 0036 0028     		cmp	r0, #0
 10503 0038 65D0     		beq	.L2210
 10504 003a 012C     		cmp	r4, #1
 10505 003c 6BD0     		beq	.L2222
 10506 003e 18F0060F 		tst	r8, #6
 10507 0042 0DF10409 		add	r9, sp, #4
 10508 0046 0CBF     		ite	eq
 10509 0048 1720     		moveq	r0, #23
 10510 004a 9720     		movne	r0, #151
 10511 004c 4B46     		mov	r3, r9
 10512 004e 0122     		movs	r2, #1
 10513 0050 2146     		mov	r1, r4
 10514 0052 FFF7FEFF 		bl	sdio_cmd_send
 10515 0056 0028     		cmp	r0, #0
 10516 0058 55D0     		beq	.L2210
 10517 005a 3D4A     		ldr	r2, .L2238+12
 10518 005c 019B     		ldr	r3, [sp, #4]
 10519 005e 1A42     		tst	r2, r3
 10520 0060 51D1     		bne	.L2210
 10521 0062 1920     		movs	r0, #25
 10522 0064 8246     		mov	r10, r0
 10523              	.L2208:
 10524 0066 DFF8F080 		ldr	r8, .L2238+20
 10525 006a 3A4A     		ldr	r2, .L2238+16
 10526 006c 9023     		movs	r3, #144
 10527 006e 6402     		lsls	r4, r4, #9
 10528 0070 C8F82C30 		str	r3, [r8, #44]
 10529 0074 3946     		mov	r1, r7
 10530 0076 C8F82420 		str	r2, [r8, #36]
 10531 007a 4B46     		mov	r3, r9
 10532 007c 0122     		movs	r2, #1
 10533 007e C8F82840 		str	r4, [r8, #40]
 10534 0082 FFF7FEFF 		bl	sdio_cmd_send
 10535 0086 0028     		cmp	r0, #0
 10536 0088 3DD0     		beq	.L2210
 10537 008a 314A     		ldr	r2, .L2238+12
 10538 008c 019B     		ldr	r3, [sp, #4]
 10539 008e 1A42     		tst	r2, r3
 10540 0090 39D1     		bne	.L2210
 10541 0092 40F23A73 		movw	r3, #1850
 10542 0096 C8F83830 		str	r3, [r8, #56]
 10543              		.syntax unified
 10544              	@ 142 "stm32f4xx/cmsis/cmsis_gcc.h" 1
 10545 009a 72B6     		cpsid i
 10546              	@ 0 "" 2
 10547              		.thumb
 10548              		.syntax unified
 10549 009c 3346     		mov	r3, r6
 10550 009e 0436     		adds	r6, r6, #4
ARM GAS  C:\Users\Jay\AppData\Local\Temp\ccrCOBv6.s 			page 182


 10551 00a0 53F8200B 		ldr	r0, [r3], #32
 10552              		.syntax unified
 10553              	@ 879 "stm32f4xx/cmsis/cmsis_gcc.h" 1
 10554 00a4 BFF34F8F 		dsb 0xF
 10555              	@ 0 "" 2
 10556              		.thumb
 10557              		.syntax unified
 10558 00a8 D8F82C20 		ldr	r2, [r8, #44]
 10559 00ac 42F00102 		orr	r2, r2, #1
 10560 00b0 C8F82C20 		str	r2, [r8, #44]
 10561 00b4 4146     		mov	r1, r8
 10562 00b6 C8F88000 		str	r0, [r8, #128]
 10563              	.L2211:
 10564 00ba 56F8042B 		ldr	r2, [r6], #4
 10565 00be C1F88020 		str	r2, [r1, #128]
 10566 00c2 B342     		cmp	r3, r6
 10567 00c4 F9D1     		bne	.L2211
 10568 00c6 2448     		ldr	r0, .L2238+20
 10569 00c8 1A46     		mov	r2, r3
 10570 00ca 2026     		movs	r6, #32
 10571 00cc 40F21A27 		movw	r7, #538
 10572              	.L2215:
 10573 00d0 436B     		ldr	r3, [r0, #52]
 10574 00d2 3B42     		tst	r3, r7
 10575 00d4 03F48851 		and	r1, r3, #4352
 10576 00d8 06D1     		bne	.L2214
 10577 00da DB03     		lsls	r3, r3, #15
 10578 00dc F8D4     		bmi	.L2215
 10579 00de B442     		cmp	r4, r6
 10580 00e0 1ED8     		bhi	.L2236
 10581 00e2 B1F5807F 		cmp	r1, #256
 10582 00e6 F3D1     		bne	.L2215
 10583              	.L2214:
 10584              		.syntax unified
 10585              	@ 131 "stm32f4xx/cmsis/cmsis_gcc.h" 1
 10586 00e8 62B6     		cpsie i
 10587              	@ 0 "" 2
 10588              		.thumb
 10589              		.syntax unified
 10590 00ea B442     		cmp	r4, r6
 10591 00ec 22D8     		bhi	.L2218
 10592 00ee BAF1190F 		cmp	r10, #25
 10593 00f2 1BD0     		beq	.L2237
 10594              	.L2219:
 10595 00f4 B442     		cmp	r4, r6
 10596 00f6 94BF     		ite	ls
 10597 00f8 0020     		movls	r0, #0
 10598 00fa 0120     		movhi	r0, #1
 10599 00fc 00E0     		b	.L2205
 10600              	.L2221:
 10601 00fe 0320     		movs	r0, #3
 10602              	.L2205:
 10603 0100 02B0     		add	sp, sp, #8
 10604              		@ sp needed
 10605 0102 BDE8F087 		pop	{r4, r5, r6, r7, r8, r9, r10, pc}
 10606              	.L2210:
 10607 0106 0120     		movs	r0, #1
ARM GAS  C:\Users\Jay\AppData\Local\Temp\ccrCOBv6.s 			page 183


 10608 0108 02B0     		add	sp, sp, #8
 10609              		@ sp needed
 10610 010a BDE8F087 		pop	{r4, r5, r6, r7, r8, r9, r10, pc}
 10611              	.L2220:
 10612 010e 0420     		movs	r0, #4
 10613 0110 02B0     		add	sp, sp, #8
 10614              		@ sp needed
 10615 0112 BDE8F087 		pop	{r4, r5, r6, r7, r8, r9, r10, pc}
 10616              	.L2222:
 10617 0116 1820     		movs	r0, #24
 10618 0118 8246     		mov	r10, r0
 10619 011a 0DF10409 		add	r9, sp, #4
 10620 011e A2E7     		b	.L2208
 10621              	.L2236:
 10622 0120 1368     		ldr	r3, [r2]
 10623 0122 C0F88030 		str	r3, [r0, #128]
 10624 0126 0436     		adds	r6, r6, #4
 10625 0128 0432     		adds	r2, r2, #4
 10626 012a D1E7     		b	.L2215
 10627              	.L2237:
 10628 012c 2B78     		ldrb	r3, [r5]	@ zero_extendqisi2
 10629 012e 13F0060F 		tst	r3, #6
 10630 0132 DFD0     		beq	.L2219
 10631              	.L2218:
 10632 0134 4B46     		mov	r3, r9
 10633 0136 0122     		movs	r2, #1
 10634 0138 0021     		movs	r1, #0
 10635 013a 0C20     		movs	r0, #12
 10636 013c FFF7FEFF 		bl	sdio_cmd_send
 10637 0140 D8E7     		b	.L2219
 10638              	.L2239:
 10639 0142 00BF     		.align	2
 10640              	.L2238:
 10641 0144 00080240 		.word	1073874944
 10642 0148 00000000 		.word	.LANCHOR43
 10643 014c 00000000 		.word	.LANCHOR44
 10644 0150 000058C0 		.word	-1067974656
 10645 0154 00366E01 		.word	24000000
 10646 0158 002C0140 		.word	1073818624
 10648              		.section	.text.disk_ioctl,"ax",%progbits
 10649              		.align	1
 10650              		.p2align 2,,3
 10651              		.global	disk_ioctl
 10652              		.syntax unified
 10653              		.thumb
 10654              		.thumb_func
 10655              		.fpu fpv4-sp-d16
 10657              	disk_ioctl:
 10658              		@ args = 0, pretend = 0, frame = 0
 10659              		@ frame_needed = 0, uses_anonymous_args = 0
 10660              		@ link register save eliminated.
 10661 0000 044B     		ldr	r3, .L2243
 10662 0002 1B78     		ldrb	r3, [r3]	@ zero_extendqisi2
 10663 0004 DB07     		lsls	r3, r3, #31
 10664 0006 03D4     		bmi	.L2242
 10665 0008 081C     		adds	r0, r1, #0
 10666 000a 18BF     		it	ne
ARM GAS  C:\Users\Jay\AppData\Local\Temp\ccrCOBv6.s 			page 184


 10667 000c 0120     		movne	r0, #1
 10668 000e 7047     		bx	lr
 10669              	.L2242:
 10670 0010 0320     		movs	r0, #3
 10671 0012 7047     		bx	lr
 10672              	.L2244:
 10673              		.align	2
 10674              	.L2243:
 10675 0014 00000000 		.word	.LANCHOR43
 10677              		.section	.text.usbd_poll,"ax",%progbits
 10678              		.align	1
 10679              		.p2align 2,,3
 10680              		.global	usbd_poll
 10681              		.syntax unified
 10682              		.thumb
 10683              		.thumb_func
 10684              		.fpu fpv4-sp-d16
 10686              	usbd_poll:
 10687              		@ args = 0, pretend = 0, frame = 0
 10688              		@ frame_needed = 0, uses_anonymous_args = 0
 10689              		@ link register save eliminated.
 10690 0000 0368     		ldr	r3, [r0]
 10691 0002 0149     		ldr	r1, .L2246
 10692 0004 9B6A     		ldr	r3, [r3, #40]
 10693 0006 1847     		bx	r3	@ indirect register sibling call
 10694              	.L2247:
 10695              		.align	2
 10696              	.L2246:
 10697 0008 00000000 		.word	usbd_process_evt
 10699              		.section	.text.OTG_FS_IRQHandler,"ax",%progbits
 10700              		.align	1
 10701              		.p2align 2,,3
 10702              		.global	OTG_FS_IRQHandler
 10703              		.syntax unified
 10704              		.thumb
 10705              		.thumb_func
 10706              		.fpu fpv4-sp-d16
 10708              	OTG_FS_IRQHandler:
 10709              		@ args = 0, pretend = 0, frame = 0
 10710              		@ frame_needed = 0, uses_anonymous_args = 0
 10711              		@ link register save eliminated.
 10712 0000 0248     		ldr	r0, .L2249
 10713 0002 0349     		ldr	r1, .L2249+4
 10714 0004 0368     		ldr	r3, [r0]
 10715 0006 9B6A     		ldr	r3, [r3, #40]
 10716 0008 1847     		bx	r3	@ indirect register sibling call
 10717              	.L2250:
 10718 000a 00BF     		.align	2
 10719              	.L2249:
 10720 000c 00000000 		.word	.LANCHOR46
 10721 0010 00000000 		.word	usbd_process_evt
 10723              		.section	.text.startup.main,"ax",%progbits
 10724              		.align	1
 10725              		.p2align 2,,3
 10726              		.global	main
 10727              		.syntax unified
 10728              		.thumb
ARM GAS  C:\Users\Jay\AppData\Local\Temp\ccrCOBv6.s 			page 185


 10729              		.thumb_func
 10730              		.fpu fpv4-sp-d16
 10732              	main:
 10733              		@ args = 0, pretend = 0, frame = 72
 10734              		@ frame_needed = 0, uses_anonymous_args = 0
 10735 0000 2DE9F04F 		push	{r4, r5, r6, r7, r8, r9, r10, fp, lr}
 10736 0004 B34B     		ldr	r3, .L2719
 10737 0006 1A68     		ldr	r2, [r3]
 10738 0008 42F48032 		orr	r2, r2, #65536
 10739 000c 93B0     		sub	sp, sp, #76
 10740 000e 1A60     		str	r2, [r3]
 10741              	.L2252:
 10742 0010 1A68     		ldr	r2, [r3]
 10743 0012 9503     		lsls	r5, r2, #14
 10744 0014 FCD5     		bpl	.L2252
 10745 0016 1A6C     		ldr	r2, [r3, #64]
 10746 0018 42F08052 		orr	r2, r2, #268435456
 10747 001c 1A64     		str	r2, [r3, #64]
 10748              		.syntax unified
 10749              	@ 879 "stm32f4xx/cmsis/cmsis_gcc.h" 1
 10750 001e BFF34F8F 		dsb 0xF
 10751              	@ 0 "" 2
 10752              		.thumb
 10753              		.syntax unified
 10754 0022 AD49     		ldr	r1, .L2719+4
 10755 0024 AD4C     		ldr	r4, .L2719+8
 10756 0026 0A68     		ldr	r2, [r1]
 10757 0028 AA48     		ldr	r0, .L2719
 10758 002a 42F48042 		orr	r2, r2, #16384
 10759 002e 0A60     		str	r2, [r1]
 10760 0030 9A68     		ldr	r2, [r3, #8]
 10761 0032 42F41442 		orr	r2, r2, #37888
 10762 0036 9A60     		str	r2, [r3, #8]
 10763 0038 5C60     		str	r4, [r3, #4]
 10764 003a 1A68     		ldr	r2, [r3]
 10765 003c 42F08072 		orr	r2, r2, #16777216
 10766 0040 1A60     		str	r2, [r3]
 10767              	.L2253:
 10768 0042 0368     		ldr	r3, [r0]
 10769 0044 9C01     		lsls	r4, r3, #6
 10770 0046 FCD5     		bpl	.L2253
 10771 0048 A54B     		ldr	r3, .L2719+12
 10772 004a A24E     		ldr	r6, .L2719
 10773 004c 40F20572 		movw	r2, #1797
 10774 0050 1A60     		str	r2, [r3]
 10775 0052 8368     		ldr	r3, [r0, #8]
 10776 0054 23F00E03 		bic	r3, r3, #14
 10777 0058 43F00203 		orr	r3, r3, #2
 10778 005c 8360     		str	r3, [r0, #8]
 10779              	.L2254:
 10780 005e B368     		ldr	r3, [r6, #8]
 10781 0060 1907     		lsls	r1, r3, #28
 10782 0062 FCD5     		bpl	.L2254
 10783 0064 9F49     		ldr	r1, .L2719+16
 10784 0066 A04B     		ldr	r3, .L2719+20
 10785 0068 CA68     		ldr	r2, [r1, #12]
 10786 006a A04C     		ldr	r4, .L2719+24
ARM GAS  C:\Users\Jay\AppData\Local\Temp\ccrCOBv6.s 			page 186


 10787 006c 4FF00008 		mov	r8, #0
 10788 0070 42F08072 		orr	r2, r2, #16777216
 10789 0074 CA60     		str	r2, [r1, #12]
 10790 0076 C3F80480 		str	r8, [r3, #4]
 10791 007a 1A68     		ldr	r2, [r3]
 10792 007c 4FF0010B 		mov	fp, #1
 10793 0080 42EA0B02 		orr	r2, r2, fp
 10794 0084 1A60     		str	r2, [r3]
 10795 0086 C4F80480 		str	r8, [r4, #4]
 10796 008a C4F80880 		str	r8, [r4, #8]
 10797 008e C4F800B0 		str	fp, [r4]
 10798 0092 736C     		ldr	r3, [r6, #68]
 10799 0094 43F48043 		orr	r3, r3, #16384
 10800 0098 7364     		str	r3, [r6, #68]
 10801              		.syntax unified
 10802              	@ 879 "stm32f4xx/cmsis/cmsis_gcc.h" 1
 10803 009a BFF34F8F 		dsb 0xF
 10804              	@ 0 "" 2
 10805              		.thumb
 10806              		.syntax unified
 10807 009e 336B     		ldr	r3, [r6, #48]
 10808 00a0 43F00F03 		orr	r3, r3, #15
 10809 00a4 3363     		str	r3, [r6, #48]
 10810              		.syntax unified
 10811              	@ 879 "stm32f4xx/cmsis/cmsis_gcc.h" 1
 10812 00a6 BFF34F8F 		dsb 0xF
 10813              	@ 0 "" 2
 10814              		.thumb
 10815              		.syntax unified
 10816 00aa 336B     		ldr	r3, [r6, #48]
 10817 00ac 43F48053 		orr	r3, r3, #4096
 10818 00b0 3363     		str	r3, [r6, #48]
 10819              		.syntax unified
 10820              	@ 879 "stm32f4xx/cmsis/cmsis_gcc.h" 1
 10821 00b2 BFF34F8F 		dsb 0xF
 10822              	@ 0 "" 2
 10823              		.thumb
 10824              		.syntax unified
 10825 00b6 8E49     		ldr	r1, .L2719+28
 10826 00b8 8E4D     		ldr	r5, .L2719+32
 10827 00ba 8B68     		ldr	r3, [r1, #8]
 10828 00bc 8E4F     		ldr	r7, .L2719+36
 10829 00be DFF87CA2 		ldr	r10, .L2719+104
 10830 00c2 8E4A     		ldr	r2, .L2719+40
 10831 00c4 DFF87892 		ldr	r9, .L2719+108
 10832 00c8 43EA0B03 		orr	r3, r3, fp
 10833 00cc 8B60     		str	r3, [r1, #8]
 10834 00ce AB68     		ldr	r3, [r5, #8]
 10835 00d0 8B49     		ldr	r1, .L2719+44
 10836 00d2 F960     		str	r1, [r7, #12]
 10837 00d4 43F07073 		orr	r3, r3, #62914560
 10838 00d8 AB60     		str	r3, [r5, #8]
 10839 00da 6B6A     		ldr	r3, [r5, #36]
 10840 00dc 8949     		ldr	r1, .L2719+48
 10841 00de 7960     		str	r1, [r7, #4]
 10842 00e0 23F47F23 		bic	r3, r3, #1044480
 10843 00e4 43F42A23 		orr	r3, r3, #696320
ARM GAS  C:\Users\Jay\AppData\Local\Temp\ccrCOBv6.s 			page 187


 10844 00e8 6B62     		str	r3, [r5, #36]
 10845 00ea 2B68     		ldr	r3, [r5]
 10846 00ec 8649     		ldr	r1, .L2719+52
 10847 00ee 3961     		str	r1, [r7, #16]
 10848 00f0 23F07073 		bic	r3, r3, #62914560
 10849 00f4 43F02073 		orr	r3, r3, #41943040
 10850 00f8 2B60     		str	r3, [r5]
 10851 00fa 7021     		movs	r1, #112
 10852 00fc 3A60     		str	r2, [r7]
 10853 00fe 7823     		movs	r3, #120
 10854 0100 0822     		movs	r2, #8
 10855 0102 8AF84313 		strb	r1, [r10, #835]
 10856 0106 CAF80820 		str	r2, [r10, #8]
 10857 010a A7F85E30 		strh	r3, [r7, #94]	@ movhi
 10858 010e 7F4B     		ldr	r3, .L2719+56
 10859 0110 87F86020 		strb	r2, [r7, #96]
 10860 0114 5846     		mov	r0, fp
 10861 0116 C7E91533 		strd	r3, r3, [r7, #84]
 10862 011a FFF7FEFF 		bl	enable
 10863 011e 3B68     		ldr	r3, [r7]
 10864 0120 5846     		mov	r0, fp
 10865 0122 9B68     		ldr	r3, [r3, #8]
 10866 0124 9847     		blx	r3
 10867 0126 7A4B     		ldr	r3, .L2719+60
 10868 0128 4FF46042 		mov	r2, #57344
 10869 012c C3F80080 		str	r8, [r3]
 10870 0130 C3F81480 		str	r8, [r3, #20]
 10871 0134 C3F80880 		str	r8, [r3, #8]
 10872 0138 C3F80C80 		str	r8, [r3, #12]
 10873 013c A9F80080 		strh	r8, [r9]	@ movhi
 10874 0140 C9F81820 		str	r2, [r9, #24]
 10875 0144 D9F80430 		ldr	r3, [r9, #4]
 10876 0148 43F44043 		orr	r3, r3, #49152
 10877 014c C9F80430 		str	r3, [r9, #4]
 10878 0150 D9F80030 		ldr	r3, [r9]
 10879 0154 23F07C43 		bic	r3, r3, #-67108864
 10880 0158 4FF4C062 		mov	r2, #1536
 10881 015c 43F0A843 		orr	r3, r3, #1409286144
 10882 0160 C9F80030 		str	r3, [r9]
 10883 0164 AA61     		str	r2, [r5, #24]
 10884 0166 6B68     		ldr	r3, [r5, #4]
 10885 0168 1343     		orrs	r3, r3, r2
 10886 016a 6B60     		str	r3, [r5, #4]
 10887 016c 2B68     		ldr	r3, [r5]
 10888 016e 23F47013 		bic	r3, r3, #3932160
 10889 0172 43F4A013 		orr	r3, r3, #1310720
 10890 0176 2B60     		str	r3, [r5]
 10891 0178 FFF7FEFF 		bl	c64_reset.part.24
 10892 017c 2B68     		ldr	r3, [r5]
 10893 017e 23F04043 		bic	r3, r3, #-1073741824
 10894 0182 43F08043 		orr	r3, r3, #1073741824
 10895 0186 2B60     		str	r3, [r5]
 10896 0188 736C     		ldr	r3, [r6, #68]
 10897 018a 43EA0B03 		orr	r3, r3, fp
 10898 018e 7364     		str	r3, [r6, #68]
 10899              		.syntax unified
 10900              	@ 879 "stm32f4xx/cmsis/cmsis_gcc.h" 1
ARM GAS  C:\Users\Jay\AppData\Local\Temp\ccrCOBv6.s 			page 188


 10901 0190 BFF34F8F 		dsb 0xF
 10902              	@ 0 "" 2
 10903              		.thumb
 10904              		.syntax unified
 10905 0194 6A6A     		ldr	r2, [r5, #36]
 10906 0196 5F4B     		ldr	r3, .L2719+64
 10907 0198 5F48     		ldr	r0, .L2719+68
 10908 019a 6049     		ldr	r1, .L2719+72
 10909 019c 604E     		ldr	r6, .L2719+76
 10910 019e DFF8A4C1 		ldr	ip, .L2719+112
 10911 01a2 22F00F02 		bic	r2, r2, #15
 10912 01a6 42EA0B02 		orr	r2, r2, fp
 10913 01aa 6A62     		str	r2, [r5, #36]
 10914 01ac 2A68     		ldr	r2, [r5]
 10915 01ae 22F44032 		bic	r2, r2, #196608
 10916 01b2 42F40032 		orr	r2, r2, #131072
 10917 01b6 2A60     		str	r2, [r5]
 10918 01b8 C3F82880 		str	r8, [r3, #40]
 10919 01bc 9A69     		ldr	r2, [r3, #24]
 10920 01be 22F44072 		bic	r2, r2, #768
 10921 01c2 22F00302 		bic	r2, r2, #3
 10922 01c6 42F40072 		orr	r2, r2, #512
 10923 01ca 42EA0B02 		orr	r2, r2, fp
 10924 01ce 9A61     		str	r2, [r3, #24]
 10925 01d0 1A6A     		ldr	r2, [r3, #32]
 10926 01d2 22F0AA02 		bic	r2, r2, #170
 10927 01d6 42F00202 		orr	r2, r2, #2
 10928 01da 1A62     		str	r2, [r3, #32]
 10929 01dc 9A68     		ldr	r2, [r3, #8]
 10930 01de 22F07702 		bic	r2, r2, #119
 10931 01e2 42F05002 		orr	r2, r2, #80
 10932 01e6 9A60     		str	r2, [r3, #8]
 10933 01e8 9A68     		ldr	r2, [r3, #8]
 10934 01ea 42F00402 		orr	r2, r2, #4
 10935 01ee 9A60     		str	r2, [r3, #8]
 10936 01f0 1A6A     		ldr	r2, [r3, #32]
 10937 01f2 42F01102 		orr	r2, r2, #17
 10938 01f6 1A62     		str	r2, [r3, #32]
 10939 01f8 1A68     		ldr	r2, [r3]
 10940 01fa 42EA0B02 		orr	r2, r2, fp
 10941 01fe 1A60     		str	r2, [r3]
 10942 0200 4322     		movs	r2, #67
 10943 0202 DA63     		str	r2, [r3, #60]
 10944 0204 9422     		movs	r2, #148
 10945 0206 1A64     		str	r2, [r3, #64]
 10946 0208 DA69     		ldr	r2, [r3, #28]
 10947 020a 22F4E042 		bic	r2, r2, #28672
 10948 020e 22F07002 		bic	r2, r2, #112
 10949 0212 42F48052 		orr	r2, r2, #4096
 10950 0216 42F01002 		orr	r2, r2, #16
 10951 021a DA61     		str	r2, [r3, #28]
 10952 021c 4FF00062 		mov	r2, #134217728
 10953 0220 C3F80C80 		str	r8, [r3, #12]
 10954 0224 8AF81B83 		strb	r8, [r10, #795]
 10955 0228 CAF80020 		str	r2, [r10]
 10956 022c 2B68     		ldr	r3, [r5]
 10957 022e 3D4A     		ldr	r2, .L2719+80
ARM GAS  C:\Users\Jay\AppData\Local\Temp\ccrCOBv6.s 			page 189


 10958 0230 23F47063 		bic	r3, r3, #3840
 10959 0234 2B60     		str	r3, [r5]
 10960 0236 EB68     		ldr	r3, [r5, #12]
 10961 0238 23F47063 		bic	r3, r3, #3840
 10962 023c 43F42063 		orr	r3, r3, #2560
 10963 0240 EB60     		str	r3, [r5, #12]
 10964 0242 C368     		ldr	r3, [r0, #12]
 10965 0244 23F00F03 		bic	r3, r3, #15
 10966 0248 C360     		str	r3, [r0, #12]
 10967 024a 0B68     		ldr	r3, [r1]
 10968 024c 3648     		ldr	r0, .L2719+84
 10969 024e 43F01003 		orr	r3, r3, #16
 10970 0252 0B60     		str	r3, [r1]
 10971 0254 8B68     		ldr	r3, [r1, #8]
 10972 0256 43F01003 		orr	r3, r3, #16
 10973 025a 8B60     		str	r3, [r1, #8]
 10974 025c CB68     		ldr	r3, [r1, #12]
 10975 025e 23F01003 		bic	r3, r3, #16
 10976 0262 CB60     		str	r3, [r1, #12]
 10977 0264 1023     		movs	r3, #16
 10978 0266 4B61     		str	r3, [r1, #20]
 10979 0268 F023     		movs	r3, #240
 10980 026a 8AF80A33 		strb	r3, [r10, #778]
 10981 026e 4FF48063 		mov	r3, #1024
 10982 0272 CAF80030 		str	r3, [r10]
 10983 0276 AC23     		movs	r3, #172
 10984 0278 C6F800C0 		str	ip, [r6]
 10985 027c 4546     		mov	r5, r8
 10986 027e C9F81800 		str	r0, [r9, #24]
 10987 0282 C846     		mov	r8, r9
 10988 0284 1A60     		str	r2, [r3]
 10989              	.L2255:
 10990 0286 0122     		movs	r2, #1
 10991 0288 2849     		ldr	r1, .L2719+88
 10992 028a 2948     		ldr	r0, .L2719+92
 10993 028c FFF7FEFF 		bl	f_mount
 10994 0290 4FF00059 		mov	r9, #536870912
 10995 0294 C8F81890 		str	r9, [r8, #24]
 10996 0298 0028     		cmp	r0, #0
 10997 029a 55D0     		beq	.L2693
 10998              	.L2260:
 10999 029c 65B9     		cbnz	r5, .L2256
 11000 029e 1D4B     		ldr	r3, .L2719+64
 11001 02a0 DB68     		ldr	r3, [r3, #12]
 11002 02a2 1A07     		lsls	r2, r3, #28
 11003 02a4 40F18080 		bpl	.L2694
 11004              	.L2257:
 11005 02a8 124B     		ldr	r3, .L2719+32
 11006 02aa 2249     		ldr	r1, .L2719+96
 11007 02ac 2248     		ldr	r0, .L2719+100
 11008 02ae 4FF00042 		mov	r2, #-2147483648
 11009 02b2 9A61     		str	r2, [r3, #24]
 11010 02b4 FFF7FEFF 		bl	c64_send_text
 11011              	.L2256:
 11012 02b8 4FF47A72 		mov	r2, #1000
 11013 02bc 45F20820 		movw	r0, #21000
 11014 02c0 0021     		movs	r1, #0
ARM GAS  C:\Users\Jay\AppData\Local\Temp\ccrCOBv6.s 			page 190


 11015 02c2 0125     		movs	r5, #1
 11016              	.L2259:
 11017 02c4 6060     		str	r0, [r4, #4]
 11018 02c6 A160     		str	r1, [r4, #8]
 11019              	.L2258:
 11020 02c8 2368     		ldr	r3, [r4]
 11021 02ca DB03     		lsls	r3, r3, #15
 11022 02cc FCD5     		bpl	.L2258
 11023 02ce 013A     		subs	r2, r2, #1
 11024 02d0 F8D1     		bne	.L2259
 11025 02d2 D8E7     		b	.L2255
 11026              	.L2720:
 11027              		.align	2
 11028              	.L2719:
 11029 02d4 00380240 		.word	1073887232
 11030 02d8 00700040 		.word	1073770496
 11031 02dc 08544007 		.word	121656328
 11032 02e0 003C0240 		.word	1073888256
 11033 02e4 F0ED00E0 		.word	-536810000
 11034 02e8 001000E0 		.word	-536866816
 11035 02ec 10E000E0 		.word	-536813552
 11036 02f0 00300240 		.word	1073885184
 11037 02f4 00000240 		.word	1073872896
 11038 02f8 00000000 		.word	.LANCHOR46
 11039 02fc 00000000 		.word	.LANCHOR47
 11040 0300 00000000 		.word	cdc_setconf
 11041 0304 00000000 		.word	cdc_control
 11042 0308 00000000 		.word	cdc_getdesc
 11043 030c 00000000 		.word	.LANCHOR48
 11044 0310 00040240 		.word	1073873920
 11045 0314 00000140 		.word	1073807360
 11046 0318 00380140 		.word	1073821696
 11047 031c 003C0140 		.word	1073822720
 11048 0320 00000000 		.word	.LANCHOR7
 11049 0324 00000000 		.word	ef_launcher_handler
 11050 0328 00800060 		.word	1610645504
 11051 032c 00000000 		.word	.LC14
 11052 0330 00000000 		.word	.LANCHOR49
 11053 0334 00000000 		.word	.LC56
 11054 0338 28000000 		.word	.LC57
 11055 033c 00E100E0 		.word	-536813312
 11056 0340 00080240 		.word	1073874944
 11057 0344 00C00008 		.word	134266880
 11058              	.L2693:
 11059 0348 AC48     		ldr	r0, .L2721
 11060 034a FFF7FEFF 		bl	f_chdir
 11061 034e C8F81890 		str	r9, [r8, #24]
 11062 0352 0028     		cmp	r0, #0
 11063 0354 A2D1     		bne	.L2260
 11064 0356 FFF7FEFF 		bl	auto_boot
 11065 035a 0028     		cmp	r0, #0
 11066 035c 00F0BD86 		beq	.L2261
 11067 0360 A74D     		ldr	r5, .L2721+4
 11068              	.L2262:
 11069 0362 6B7A     		ldrb	r3, [r5, #9]	@ zero_extendqisi2
 11070 0364 042B     		cmp	r3, #4
 11071 0366 40F01087 		bne	.L2286
ARM GAS  C:\Users\Jay\AppData\Local\Temp\ccrCOBv6.s 			page 191


 11072              	.L2293:
 11073 036a 3B68     		ldr	r3, [r7]
 11074 036c 0020     		movs	r0, #0
 11075 036e 9B68     		ldr	r3, [r3, #8]
 11076 0370 9847     		blx	r3
 11077 0372 3B68     		ldr	r3, [r7]
 11078 0374 0020     		movs	r0, #0
 11079 0376 5B68     		ldr	r3, [r3, #4]
 11080 0378 9847     		blx	r3
 11081 037a A24B     		ldr	r3, .L2721+8
 11082 037c 0822     		movs	r2, #8
 11083 037e C3F88820 		str	r2, [r3, #136]
 11084              		.syntax unified
 11085              	@ 879 "stm32f4xx/cmsis/cmsis_gcc.h" 1
 11086 0382 BFF34F8F 		dsb 0xF
 11087              	@ 0 "" 2
 11088              	@ 868 "stm32f4xx/cmsis/cmsis_gcc.h" 1
 11089 0386 BFF36F8F 		isb 0xF
 11090              	@ 0 "" 2
 11091              		.thumb
 11092              		.syntax unified
 11093 038a 6B7A     		ldrb	r3, [r5, #9]	@ zero_extendqisi2
 11094              	.L2294:
 11095 038c 013B     		subs	r3, r3, #1
 11096 038e 072B     		cmp	r3, #7
 11097 0390 00F23985 		bhi	.L2295
 11098 0394 DFE813F0 		tbh	[pc, r3, lsl #1]
 11099              	.L2297:
 11100 0398 7805     		.2byte	(.L2296-.L2297)/2
 11101 039a F805     		.2byte	(.L2298-.L2297)/2
 11102 039c 7F06     		.2byte	(.L2299-.L2297)/2
 11103 039e 3205     		.2byte	(.L2300-.L2297)/2
 11104 03a0 3705     		.2byte	(.L2295-.L2297)/2
 11105 03a2 0F05     		.2byte	(.L2301-.L2297)/2
 11106 03a4 5401     		.2byte	(.L2302-.L2297)/2
 11107 03a6 0B00     		.2byte	(.L2303-.L2297)/2
 11108              		.p2align 1
 11109              	.L2694:
 11110 03a8 FFF7FEFF 		bl	c64_interface.part.23
 11111 03ac 7CE7     		b	.L2257
 11112              	.L2303:
 11113 03ae 964B     		ldr	r3, .L2721+12
 11114 03b0 964C     		ldr	r4, .L2721+16
 11115 03b2 DA68     		ldr	r2, [r3, #12]
 11116 03b4 DFF88092 		ldr	r9, .L2721+60
 11117 03b8 DFF880B2 		ldr	fp, .L2721+64
 11118 03bc 22F00802 		bic	r2, r2, #8
 11119 03c0 DA60     		str	r2, [r3, #12]
 11120 03c2 6FF00802 		mvn	r2, #8
 11121 03c6 1A61     		str	r2, [r3, #16]
 11122 03c8 FFF7FEFF 		bl	c64_reset.part.24
 11123 03cc 904A     		ldr	r2, .L2721+20
 11124 03ce 914B     		ldr	r3, .L2721+24
 11125 03d0 4FF46041 		mov	r1, #57344
 11126 03d4 9161     		str	r1, [r2, #24]
 11127 03d6 4FF00042 		mov	r2, #-2147483648
 11128 03da 9A61     		str	r2, [r3, #24]
ARM GAS  C:\Users\Jay\AppData\Local\Temp\ccrCOBv6.s 			page 192


 11129 03dc 8E4B     		ldr	r3, .L2721+28
 11130 03de 0193     		str	r3, [sp, #4]
 11131              	.L2340:
 11132 03e0 6B7A     		ldrb	r3, [r5, #9]	@ zero_extendqisi2
 11133 03e2 042B     		cmp	r3, #4
 11134 03e4 4FD0     		beq	.L2654
 11135 03e6 8D4D     		ldr	r5, .L2721+32
 11136 03e8 8D4E     		ldr	r6, .L2721+36
 11137 03ea 4FF0A047 		mov	r7, #1342177280
 11138              	.L2350:
 11139 03ee 4FF0800A 		mov	r10, #128
 11140              	.L2459:
 11141 03f2 2B68     		ldr	r3, [r5]
 11142 03f4 13B1     		cbz	r3, .L2456
 11143 03f6 9BF80030 		ldrb	r3, [fp]	@ zero_extendqisi2
 11144 03fa 0BB3     		cbz	r3, .L2457
 11145              	.L2456:
 11146 03fc 2378     		ldrb	r3, [r4]	@ zero_extendqisi2
 11147 03fe 002B     		cmp	r3, #0
 11148 0400 F7D1     		bne	.L2459
 11149              	.L2460:
 11150 0402 2378     		ldrb	r3, [r4]	@ zero_extendqisi2
 11151 0404 002B     		cmp	r3, #0
 11152 0406 FCD1     		bne	.L2460
 11153 0408 99F80020 		ldrb	r2, [r9]	@ zero_extendqisi2
 11154 040c D2B2     		uxtb	r2, r2
 11155 040e 4023     		movs	r3, #64
 11156 0410 2370     		strb	r3, [r4]
 11157              	.L2461:
 11158 0412 3368     		ldr	r3, [r6]
 11159 0414 B3F5FF7F 		cmp	r3, #510
 11160 0418 FBD8     		bhi	.L2461
 11161 041a BB68     		ldr	r3, [r7, #8]
 11162 041c 23F00103 		bic	r3, r3, #1
 11163 0420 BB60     		str	r3, [r7, #8]
 11164              		.syntax unified
 11165              	@ 879 "stm32f4xx/cmsis/cmsis_gcc.h" 1
 11166 0422 BFF34F8F 		dsb 0xF
 11167              	@ 0 "" 2
 11168              		.thumb
 11169              		.syntax unified
 11170 0426 3368     		ldr	r3, [r6]
 11171 0428 3368     		ldr	r3, [r6]
 11172 042a 7E48     		ldr	r0, .L2721+40
 11173 042c 591C     		adds	r1, r3, #1
 11174 042e C254     		strb	r2, [r0, r3]
 11175 0430 3160     		str	r1, [r6]
 11176              		.syntax unified
 11177              	@ 879 "stm32f4xx/cmsis/cmsis_gcc.h" 1
 11178 0432 BFF34F8F 		dsb 0xF
 11179              	@ 0 "" 2
 11180              		.thumb
 11181              		.syntax unified
 11182 0436 BB68     		ldr	r3, [r7, #8]
 11183 0438 43F00103 		orr	r3, r3, #1
 11184 043c BB60     		str	r3, [r7, #8]
 11185 043e D6E7     		b	.L2350
ARM GAS  C:\Users\Jay\AppData\Local\Temp\ccrCOBv6.s 			page 193


 11186              	.L2457:
 11187 0440 2B68     		ldr	r3, [r5]
 11188 0442 002B     		cmp	r3, #0
 11189 0444 FCD0     		beq	.L2457
 11190 0446 BB68     		ldr	r3, [r7, #8]
 11191 0448 23F00103 		bic	r3, r3, #1
 11192 044c BB60     		str	r3, [r7, #8]
 11193              		.syntax unified
 11194              	@ 879 "stm32f4xx/cmsis/cmsis_gcc.h" 1
 11195 044e BFF34F8F 		dsb 0xF
 11196              	@ 0 "" 2
 11197              		.thumb
 11198              		.syntax unified
 11199 0452 2B68     		ldr	r3, [r5]
 11200 0454 7448     		ldr	r0, .L2721+44
 11201 0456 013B     		subs	r3, r3, #1
 11202 0458 1A46     		mov	r2, r3
 11203 045a 411C     		adds	r1, r0, #1
 11204 045c 90F80080 		ldrb	r8, [r0]	@ zero_extendqisi2
 11205 0460 2B60     		str	r3, [r5]
 11206 0462 FFF7FEFF 		bl	memmove
 11207              		.syntax unified
 11208              	@ 879 "stm32f4xx/cmsis/cmsis_gcc.h" 1
 11209 0466 BFF34F8F 		dsb 0xF
 11210              	@ 0 "" 2
 11211              		.thumb
 11212              		.syntax unified
 11213 046a BB68     		ldr	r3, [r7, #8]
 11214 046c 43F00103 		orr	r3, r3, #1
 11215 0470 BB60     		str	r3, [r7, #8]
 11216              	.L2458:
 11217 0472 9BF80030 		ldrb	r3, [fp]	@ zero_extendqisi2
 11218 0476 002B     		cmp	r3, #0
 11219 0478 FBD1     		bne	.L2458
 11220 047a 019B     		ldr	r3, [sp, #4]
 11221 047c 83F80080 		strb	r8, [r3]
 11222 0480 8BF800A0 		strb	r10, [fp]
 11223 0484 BAE7     		b	.L2456
 11224              	.L2654:
 11225 0486 0022     		movs	r2, #0
 11226 0488 684B     		ldr	r3, .L2721+48
 11227 048a 1146     		mov	r1, r2
 11228              	.L2351:
 11229 048c 1A70     		strb	r2, [r3]
 11230 048e 0132     		adds	r2, r2, #1
 11231 0490 102A     		cmp	r2, #16
 11232 0492 5970     		strb	r1, [r3, #1]
 11233 0494 9970     		strb	r1, [r3, #2]
 11234 0496 D970     		strb	r1, [r3, #3]
 11235 0498 1971     		strb	r1, [r3, #4]
 11236 049a 03F20313 		addw	r3, r3, #259
 11237 049e F5D1     		bne	.L2351
 11238 04a0 07A8     		add	r0, sp, #28
 11239 04a2 2A22     		movs	r2, #42
 11240 04a4 0021     		movs	r1, #0
 11241 04a6 FFF7FEFF 		bl	memset
 11242 04aa 614B     		ldr	r3, .L2721+52
ARM GAS  C:\Users\Jay\AppData\Local\Temp\ccrCOBv6.s 			page 194


 11243 04ac 0393     		str	r3, [sp, #12]
 11244 04ae 0023     		movs	r3, #0
 11245 04b0 0293     		str	r3, [sp, #8]
 11246              	.L2353:
 11247 04b2 FFF7FEFF 		bl	c64_receive_command
 11248 04b6 8228     		cmp	r0, #130
 11249 04b8 47D0     		beq	.L2355
 11250              	.L2697:
 11251 04ba 40F2EA80 		bls	.L2695
 11252 04be 8428     		cmp	r0, #132
 11253 04c0 00F00881 		beq	.L2359
 11254 04c4 C0F02381 		bcc	.L2360
 11255 04c8 8528     		cmp	r0, #133
 11256 04ca 00F0F680 		beq	.L2361
 11257 04ce 8628     		cmp	r0, #134
 11258 04d0 40F0E780 		bne	.L2548
 11259 04d4 029B     		ldr	r3, [sp, #8]
 11260 04d6 002B     		cmp	r3, #0
 11261 04d8 00F04181 		beq	.L2547
 11262 04dc 5B78     		ldrb	r3, [r3, #1]	@ zero_extendqisi2
 11263 04de 002B     		cmp	r3, #0
 11264 04e0 00F03D81 		beq	.L2547
 11265 04e4 0298     		ldr	r0, [sp, #8]
 11266 04e6 8278     		ldrb	r2, [r0, #2]	@ zero_extendqisi2
 11267 04e8 013B     		subs	r3, r3, #1
 11268 04ea 511C     		adds	r1, r2, #1
 11269 04ec 0244     		add	r2, r2, r0
 11270 04ee DBB2     		uxtb	r3, r3
 11271 04f0 8170     		strb	r1, [r0, #2]
 11272 04f2 5579     		ldrb	r5, [r2, #5]	@ zero_extendqisi2
 11273 04f4 4370     		strb	r3, [r0, #1]
 11274 04f6 002B     		cmp	r3, #0
 11275 04f8 40F03C81 		bne	.L2454
 11276 04fc 0378     		ldrb	r3, [r0]	@ zero_extendqisi2
 11277 04fe 0F2B     		cmp	r3, #15
 11278 0500 00F05F83 		beq	.L2696
 11279 0504 029E     		ldr	r6, [sp, #8]
 11280 0506 4B48     		ldr	r0, .L2721+56
 11281 0508 F11C     		adds	r1, r6, #3
 11282 050a FFF7FEFF 		bl	d64_read_file_sector
 11283 050e 0023     		movs	r3, #0
 11284 0510 7070     		strb	r0, [r6, #1]
 11285 0512 B370     		strb	r3, [r6, #2]
 11286 0514 0028     		cmp	r0, #0
 11287 0516 40F02D81 		bne	.L2454
 11288              	.L2452:
 11289 051a 9BF80030 		ldrb	r3, [fp]	@ zero_extendqisi2
 11290 051e 002B     		cmp	r3, #0
 11291 0520 FBD1     		bne	.L2452
 11292 0522 0199     		ldr	r1, [sp, #4]
 11293 0524 8023     		movs	r3, #128
 11294 0526 8422     		movs	r2, #132
 11295 0528 0A70     		strb	r2, [r1]
 11296 052a 8BF80030 		strb	r3, [fp]
 11297 052e 9BF80030 		ldrb	r3, [fp]	@ zero_extendqisi2
 11298 0532 002B     		cmp	r3, #0
 11299 0534 40F02781 		bne	.L2455
ARM GAS  C:\Users\Jay\AppData\Local\Temp\ccrCOBv6.s 			page 195


 11300 0538 019A     		ldr	r2, [sp, #4]
 11301 053a 8023     		movs	r3, #128
 11302 053c 1570     		strb	r5, [r2]
 11303 053e 8BF80030 		strb	r3, [fp]
 11304              	.L2701:
 11305 0542 FFF7FEFF 		bl	c64_receive_command
 11306 0546 8228     		cmp	r0, #130
 11307 0548 B7D1     		bne	.L2697
 11308              	.L2355:
 11309 054a 2378     		ldrb	r3, [r4]	@ zero_extendqisi2
 11310 054c 002B     		cmp	r3, #0
 11311 054e FCD1     		bne	.L2355
 11312 0550 99F80050 		ldrb	r5, [r9]	@ zero_extendqisi2
 11313 0554 EDB2     		uxtb	r5, r5
 11314 0556 4023     		movs	r3, #64
 11315 0558 05F00F05 		and	r5, r5, #15
 11316 055c 05EBC512 		add	r2, r5, r5, lsl #7
 11317 0560 2370     		strb	r3, [r4]
 11318 0562 324B     		ldr	r3, .L2721+48
 11319 0564 05EB4205 		add	r5, r5, r2, lsl #1
 11320 0568 2B44     		add	r3, r3, r5
 11321 056a 0293     		str	r3, [sp, #8]
 11322              	.L2366:
 11323 056c 2378     		ldrb	r3, [r4]	@ zero_extendqisi2
 11324 056e 002B     		cmp	r3, #0
 11325 0570 FCD1     		bne	.L2366
 11326 0572 99F80000 		ldrb	r0, [r9]	@ zero_extendqisi2
 11327 0576 C0B2     		uxtb	r0, r0
 11328 0578 4021     		movs	r1, #64
 11329 057a 2170     		strb	r1, [r4]
 11330 057c 68B1     		cbz	r0, .L2433
 11331 057e 07AB     		add	r3, sp, #28
 11332 0580 1E18     		adds	r6, r3, r0
 11333 0582 1A46     		mov	r2, r3
 11334              	.L2434:
 11335 0584 2378     		ldrb	r3, [r4]	@ zero_extendqisi2
 11336 0586 002B     		cmp	r3, #0
 11337 0588 FCD1     		bne	.L2434
 11338 058a 99F80030 		ldrb	r3, [r9]	@ zero_extendqisi2
 11339 058e DBB2     		uxtb	r3, r3
 11340 0590 02F8013B 		strb	r3, [r2], #1
 11341 0594 B242     		cmp	r2, r6
 11342 0596 2170     		strb	r1, [r4]
 11343 0598 F4D1     		bne	.L2434
 11344              	.L2433:
 11345 059a 12AB     		add	r3, sp, #72
 11346 059c 1844     		add	r0, r0, r3
 11347 059e 029A     		ldr	r2, [sp, #8]
 11348 05a0 0023     		movs	r3, #0
 11349 05a2 00F82C3C 		strb	r3, [r0, #-44]
 11350 05a6 5370     		strb	r3, [r2, #1]
 11351 05a8 9370     		strb	r3, [r2, #2]
 11352 05aa 05A9     		add	r1, sp, #20
 11353 05ac 07A8     		add	r0, sp, #28
 11354 05ae FFF7FEFF 		bl	disk_parse_filename
 11355 05b2 9DF81830 		ldrb	r3, [sp, #24]	@ zero_extendqisi2
 11356 05b6 002B     		cmp	r3, #0
ARM GAS  C:\Users\Jay\AppData\Local\Temp\ccrCOBv6.s 			page 196


 11357 05b8 40F0EF80 		bne	.L2545
 11358 05bc 9DF81910 		ldrb	r1, [sp, #25]	@ zero_extendqisi2
 11359 05c0 0429     		cmp	r1, #4
 11360 05c2 00F0EA80 		beq	.L2545
 11361 05c6 9DF81A30 		ldrb	r3, [sp, #26]	@ zero_extendqisi2
 11362 05ca 572B     		cmp	r3, #87
 11363 05cc 00F0E580 		beq	.L2545
 11364 05d0 164B     		ldr	r3, .L2721+48
 11365 05d2 5B5D     		ldrb	r3, [r3, r5]	@ zero_extendqisi2
 11366 05d4 0F2B     		cmp	r3, #15
 11367 05d6 00F00683 		beq	.L2698
 11368 05da 0598     		ldr	r0, [sp, #20]
 11369 05dc FFF7FEFF 		bl	disk_find_file.constprop.81
 11370 05e0 0028     		cmp	r0, #0
 11371 05e2 40F02A83 		bne	.L2699
 11372              	.L2441:
 11373 05e6 9BF80030 		ldrb	r3, [fp]	@ zero_extendqisi2
 11374 05ea 002B     		cmp	r3, #0
 11375 05ec FBD1     		bne	.L2441
 11376              	.L2687:
 11377 05ee 0199     		ldr	r1, [sp, #4]
 11378 05f0 8222     		movs	r2, #130
 11379 05f2 8023     		movs	r3, #128
 11380 05f4 0A70     		strb	r2, [r1]
 11381 05f6 8BF80030 		strb	r3, [fp]
 11382 05fa 5AE7     		b	.L2353
 11383              	.L2722:
 11384              		.align	2
 11385              	.L2721:
 11386 05fc 00000000 		.word	.LC30
 11387 0600 00000000 		.word	dat_file
 11388 0604 00E100E0 		.word	-536813312
 11389 0608 00000140 		.word	1073807360
 11390 060c 00000000 		.word	.LANCHOR12
 11391 0610 00080240 		.word	1073874944
 11392 0614 00000240 		.word	1073872896
 11393 0618 00000000 		.word	.LANCHOR11
 11394 061c 00000000 		.word	.LANCHOR26
 11395 0620 00000000 		.word	.LANCHOR24
 11396 0624 00000000 		.word	.LANCHOR25
 11397 0628 00000000 		.word	.LANCHOR27
 11398 062c 00200000 		.word	crt_ram_buf+8192
 11399 0630 00000000 		.word	.LANCHOR28
 11400 0634 14000000 		.word	.LANCHOR28+20
 11401 0638 00000000 		.word	.LANCHOR13
 11402 063c 00000000 		.word	.LANCHOR10
 11403              	.L2302:
 11404 0640 B84B     		ldr	r3, .L2723
 11405 0642 DA68     		ldr	r2, [r3, #12]
 11406 0644 6FF00801 		mvn	r1, #8
 11407 0648 0A40     		ands	r2, r2, r1
 11408 064a DA60     		str	r2, [r3, #12]
 11409 064c 1961     		str	r1, [r3, #16]
 11410 064e FFF7FEFF 		bl	c64_reset.part.24
 11411 0652 B549     		ldr	r1, .L2723+4
 11412 0654 B54A     		ldr	r2, .L2723+8
 11413 0656 B648     		ldr	r0, .L2723+12
ARM GAS  C:\Users\Jay\AppData\Local\Temp\ccrCOBv6.s 			page 197


 11414 0658 8861     		str	r0, [r1, #24]
 11415 065a B64B     		ldr	r3, .L2723+16
 11416 065c 4FF00041 		mov	r1, #-2147483648
 11417 0660 9161     		str	r1, [r2, #24]
 11418 0662 45F20824 		movw	r4, #21000
 11419 0666 4FF49672 		mov	r2, #300
 11420 066a 0020     		movs	r0, #0
 11421              	.L2349:
 11422 066c 5C60     		str	r4, [r3, #4]
 11423 066e 9860     		str	r0, [r3, #8]
 11424              	.L2348:
 11425 0670 1968     		ldr	r1, [r3]
 11426 0672 C903     		lsls	r1, r1, #15
 11427 0674 FCD5     		bpl	.L2348
 11428 0676 013A     		subs	r2, r2, #1
 11429 0678 F8D1     		bne	.L2349
 11430              	.L2680:
 11431 067a AB4B     		ldr	r3, .L2723+4
 11432 067c AE4C     		ldr	r4, .L2723+20
 11433 067e DFF8D892 		ldr	r9, .L2723+52
 11434 0682 DFF8D8B2 		ldr	fp, .L2723+56
 11435 0686 4FF44042 		mov	r2, #49152
 11436 068a 9A61     		str	r2, [r3, #24]
 11437 068c AB4B     		ldr	r3, .L2723+24
 11438 068e 0193     		str	r3, [sp, #4]
 11439 0690 A6E6     		b	.L2340
 11440              	.L2695:
 11441 0692 8028     		cmp	r0, #128
 11442 0694 00F08B80 		beq	.L2357
 11443 0698 00F20A81 		bhi	.L2470
 11444 069c 0028     		cmp	r0, #0
 11445 069e 3FF408AF 		beq	.L2353
 11446              	.L2548:
 11447 06a2 9BF80030 		ldrb	r3, [fp]	@ zero_extendqisi2
 11448 06a6 03F0FF02 		and	r2, r3, #255
 11449 06aa 002B     		cmp	r3, #0
 11450 06ac F9D1     		bne	.L2548
 11451 06ae 0199     		ldr	r1, [sp, #4]
 11452 06b0 8023     		movs	r3, #128
 11453 06b2 0A70     		strb	r2, [r1]
 11454 06b4 8BF80030 		strb	r3, [fp]
 11455 06b8 FBE6     		b	.L2353
 11456              	.L2361:
 11457 06ba 9BF80030 		ldrb	r3, [fp]	@ zero_extendqisi2
 11458 06be 03F0FF02 		and	r2, r3, #255
 11459 06c2 002B     		cmp	r3, #0
 11460 06c4 F9D1     		bne	.L2361
 11461 06c6 0199     		ldr	r1, [sp, #4]
 11462 06c8 0292     		str	r2, [sp, #8]
 11463 06ca 8023     		movs	r3, #128
 11464 06cc 0A70     		strb	r2, [r1]
 11465 06ce 8BF80030 		strb	r3, [fp]
 11466 06d2 EEE6     		b	.L2353
 11467              	.L2359:
 11468 06d4 2378     		ldrb	r3, [r4]	@ zero_extendqisi2
 11469 06d6 002B     		cmp	r3, #0
 11470 06d8 FCD1     		bne	.L2359
ARM GAS  C:\Users\Jay\AppData\Local\Temp\ccrCOBv6.s 			page 198


 11471 06da 99F80030 		ldrb	r3, [r9]	@ zero_extendqisi2
 11472 06de DBB2     		uxtb	r3, r3
 11473 06e0 4022     		movs	r2, #64
 11474 06e2 03F00F03 		and	r3, r3, #15
 11475 06e6 03EBC311 		add	r1, r3, r3, lsl #7
 11476 06ea 2270     		strb	r2, [r4]
 11477 06ec 944A     		ldr	r2, .L2723+28
 11478 06ee 03EB4103 		add	r3, r3, r1, lsl #1
 11479 06f2 D318     		adds	r3, r2, r3
 11480 06f4 0293     		str	r3, [sp, #8]
 11481              	.L2363:
 11482 06f6 9BF80030 		ldrb	r3, [fp]	@ zero_extendqisi2
 11483 06fa 03F0FF02 		and	r2, r3, #255
 11484 06fe 002B     		cmp	r3, #0
 11485 0700 F9D1     		bne	.L2363
 11486 0702 0199     		ldr	r1, [sp, #4]
 11487 0704 8023     		movs	r3, #128
 11488 0706 0A70     		strb	r2, [r1]
 11489 0708 8BF80030 		strb	r3, [fp]
 11490 070c D1E6     		b	.L2353
 11491              	.L2360:
 11492 070e 2378     		ldrb	r3, [r4]	@ zero_extendqisi2
 11493 0710 03F0FF02 		and	r2, r3, #255
 11494 0714 002B     		cmp	r3, #0
 11495 0716 FAD1     		bne	.L2360
 11496 0718 99F80030 		ldrb	r3, [r9]	@ zero_extendqisi2
 11497 071c DBB2     		uxtb	r3, r3
 11498 071e 03F00F03 		and	r3, r3, #15
 11499 0722 03EBC311 		add	r1, r3, r3, lsl #7
 11500 0726 03EB4103 		add	r3, r3, r1, lsl #1
 11501 072a 854D     		ldr	r5, .L2723+28
 11502 072c E95C     		ldrb	r1, [r5, r3]	@ zero_extendqisi2
 11503 072e 4020     		movs	r0, #64
 11504 0730 EB18     		adds	r3, r5, r3
 11505 0732 0F29     		cmp	r1, #15
 11506 0734 2070     		strb	r0, [r4]
 11507 0736 0293     		str	r3, [sp, #8]
 11508 0738 00F0D980 		beq	.L2700
 11509 073c 029B     		ldr	r3, [sp, #8]
 11510 073e 5A70     		strb	r2, [r3, #1]
 11511 0740 9A70     		strb	r2, [r3, #2]
 11512 0742 DA70     		strb	r2, [r3, #3]
 11513 0744 1A71     		strb	r2, [r3, #4]
 11514              	.L2446:
 11515 0746 9BF80030 		ldrb	r3, [fp]	@ zero_extendqisi2
 11516 074a 03F0FF02 		and	r2, r3, #255
 11517 074e 002B     		cmp	r3, #0
 11518 0750 F9D1     		bne	.L2446
 11519 0752 0199     		ldr	r1, [sp, #4]
 11520 0754 8023     		movs	r3, #128
 11521 0756 0A70     		strb	r2, [r1]
 11522 0758 8BF80030 		strb	r3, [fp]
 11523 075c A9E6     		b	.L2353
 11524              	.L2547:
 11525 075e 9BF80030 		ldrb	r3, [fp]	@ zero_extendqisi2
 11526 0762 002B     		cmp	r3, #0
 11527 0764 FBD1     		bne	.L2547
ARM GAS  C:\Users\Jay\AppData\Local\Temp\ccrCOBv6.s 			page 199


 11528              	.L2684:
 11529 0766 0199     		ldr	r1, [sp, #4]
 11530 0768 8322     		movs	r2, #131
 11531 076a 8023     		movs	r3, #128
 11532 076c 0A70     		strb	r2, [r1]
 11533 076e 8BF80030 		strb	r3, [fp]
 11534 0772 9EE6     		b	.L2353
 11535              	.L2454:
 11536 0774 9BF80030 		ldrb	r3, [fp]	@ zero_extendqisi2
 11537 0778 002B     		cmp	r3, #0
 11538 077a FBD1     		bne	.L2454
 11539 077c 019A     		ldr	r2, [sp, #4]
 11540 077e 8023     		movs	r3, #128
 11541 0780 1370     		strb	r3, [r2]
 11542 0782 8BF80030 		strb	r3, [fp]
 11543              	.L2455:
 11544 0786 9BF80030 		ldrb	r3, [fp]	@ zero_extendqisi2
 11545 078a 002B     		cmp	r3, #0
 11546 078c FBD1     		bne	.L2455
 11547 078e 019A     		ldr	r2, [sp, #4]
 11548 0790 8023     		movs	r3, #128
 11549 0792 1570     		strb	r5, [r2]
 11550 0794 8BF80030 		strb	r3, [fp]
 11551 0798 D3E6     		b	.L2701
 11552              	.L2545:
 11553 079a 9BF80030 		ldrb	r3, [fp]	@ zero_extendqisi2
 11554 079e 002B     		cmp	r3, #0
 11555 07a0 3FF425AF 		beq	.L2687
 11556 07a4 9BF80030 		ldrb	r3, [fp]	@ zero_extendqisi2
 11557 07a8 002B     		cmp	r3, #0
 11558 07aa F6D1     		bne	.L2545
 11559 07ac 1FE7     		b	.L2687
 11560              	.L2357:
 11561 07ae 2378     		ldrb	r3, [r4]	@ zero_extendqisi2
 11562 07b0 002B     		cmp	r3, #0
 11563 07b2 FCD1     		bne	.L2357
 11564 07b4 99F80000 		ldrb	r0, [r9]	@ zero_extendqisi2
 11565 07b8 C0B2     		uxtb	r0, r0
 11566 07ba 4021     		movs	r1, #64
 11567 07bc 2170     		strb	r1, [r4]
 11568 07be 68B1     		cbz	r0, .L2367
 11569 07c0 07AB     		add	r3, sp, #28
 11570 07c2 1D18     		adds	r5, r3, r0
 11571 07c4 1A46     		mov	r2, r3
 11572              	.L2368:
 11573 07c6 2378     		ldrb	r3, [r4]	@ zero_extendqisi2
 11574 07c8 002B     		cmp	r3, #0
 11575 07ca FCD1     		bne	.L2368
 11576 07cc 99F80030 		ldrb	r3, [r9]	@ zero_extendqisi2
 11577 07d0 DBB2     		uxtb	r3, r3
 11578 07d2 02F8013B 		strb	r3, [r2], #1
 11579 07d6 AA42     		cmp	r2, r5
 11580 07d8 2170     		strb	r1, [r4]
 11581 07da F4D1     		bne	.L2368
 11582              	.L2367:
 11583 07dc 12AB     		add	r3, sp, #72
 11584 07de 1844     		add	r0, r0, r3
ARM GAS  C:\Users\Jay\AppData\Local\Temp\ccrCOBv6.s 			page 200


 11585 07e0 0023     		movs	r3, #0
 11586 07e2 00F82C3C 		strb	r3, [r0, #-44]
 11587 07e6 9DF81C30 		ldrb	r3, [sp, #28]	@ zero_extendqisi2
 11588 07ea 242B     		cmp	r3, #36
 11589 07ec 00F08C80 		beq	.L2702
 11590 07f0 05A9     		add	r1, sp, #20
 11591 07f2 07A8     		add	r0, sp, #28
 11592 07f4 FFF7FEFF 		bl	disk_parse_filename
 11593 07f8 9DF81830 		ldrb	r3, [sp, #24]	@ zero_extendqisi2
 11594 07fc 002B     		cmp	r3, #0
 11595 07fe 43D1     		bne	.L2413
 11596 0800 9DF81910 		ldrb	r1, [sp, #25]	@ zero_extendqisi2
 11597 0804 0029     		cmp	r1, #0
 11598 0806 40F0AB80 		bne	.L2415
 11599 080a 0221     		movs	r1, #2
 11600 080c 8DF81910 		strb	r1, [sp, #25]
 11601              	.L2416:
 11602 0810 0598     		ldr	r0, [sp, #20]
 11603 0812 FFF7FEFF 		bl	disk_find_file.constprop.81
 11604 0816 0028     		cmp	r0, #0
 11605 0818 40D0     		beq	.L2418
 11606 081a 0399     		ldr	r1, [sp, #12]
 11607 081c DFF83481 		ldr	r8, .L2723+48
 11608 0820 D1F84433 		ldr	r3, [r1, #836]
 11609 0824 474E     		ldr	r6, .L2723+32
 11610 0826 DA78     		ldrb	r2, [r3, #3]	@ zero_extendqisi2
 11611 0828 81F83E22 		strb	r2, [r1, #574]
 11612 082c 1B79     		ldrb	r3, [r3, #4]	@ zero_extendqisi2
 11613 082e 81F83F32 		strb	r3, [r1, #575]
 11614 0832 0027     		movs	r7, #0
 11615 0834 4B46     		mov	r3, r9
 11616 0836 9A46     		mov	r10, r3
 11617 0838 A146     		mov	r9, r4
 11618 083a 3C46     		mov	r4, r7
 11619 083c 14E0     		b	.L2419
 11620              	.L2704:
 11621 083e 022D     		cmp	r5, #2
 11622 0840 40F24282 		bls	.L2669
 11623 0844 023D     		subs	r5, r5, #2
 11624 0846 EDB2     		uxtb	r5, r5
 11625 0848 039B     		ldr	r3, [sp, #12]
 11626 084a 3F49     		ldr	r1, .L2723+36
 11627 084c B3F84072 		ldrh	r7, [r3, #576]
 11628 0850 2A46     		mov	r2, r5
 11629 0852 3046     		mov	r0, r6
 11630 0854 FFF7FEFF 		bl	memcpy
 11631              	.L2422:
 11632 0858 6319     		adds	r3, r4, r5
 11633 085a 9CB2     		uxth	r4, r3
 11634 085c 43F60272 		movw	r2, #16130
 11635 0860 9442     		cmp	r4, r2
 11636 0862 2E44     		add	r6, r6, r5
 11637 0864 00F21282 		bhi	.L2423
 11638              	.L2419:
 11639 0868 4146     		mov	r1, r8
 11640 086a 3848     		ldr	r0, .L2723+40
 11641 086c FFF7FEFF 		bl	d64_read_file_sector
ARM GAS  C:\Users\Jay\AppData\Local\Temp\ccrCOBv6.s 			page 201


 11642 0870 0546     		mov	r5, r0
 11643 0872 0028     		cmp	r0, #0
 11644 0874 00F09881 		beq	.L2703
 11645 0878 002C     		cmp	r4, #0
 11646 087a E0D0     		beq	.L2704
 11647 087c 2A46     		mov	r2, r5
 11648 087e 3449     		ldr	r1, .L2723+44
 11649 0880 3046     		mov	r0, r6
 11650 0882 FFF7FEFF 		bl	memcpy
 11651 0886 E7E7     		b	.L2422
 11652              	.L2413:
 11653 0888 9BF80030 		ldrb	r3, [fp]	@ zero_extendqisi2
 11654 088c 002B     		cmp	r3, #0
 11655 088e 3FF4AEAE 		beq	.L2687
 11656 0892 9BF80030 		ldrb	r3, [fp]	@ zero_extendqisi2
 11657 0896 002B     		cmp	r3, #0
 11658 0898 F6D1     		bne	.L2413
 11659 089a A8E6     		b	.L2687
 11660              	.L2418:
 11661 089c 9BF80030 		ldrb	r3, [fp]	@ zero_extendqisi2
 11662 08a0 002B     		cmp	r3, #0
 11663 08a2 3FF4A4AE 		beq	.L2687
 11664 08a6 9BF80030 		ldrb	r3, [fp]	@ zero_extendqisi2
 11665 08aa 002B     		cmp	r3, #0
 11666 08ac F6D1     		bne	.L2418
 11667 08ae 9EE6     		b	.L2687
 11668              	.L2470:
 11669 08b0 284F     		ldr	r7, .L2723+48
 11670 08b2 244E     		ldr	r6, .L2723+32
 11671 08b4 07F1020A 		add	r10, r7, #2
 11672 08b8 0025     		movs	r5, #0
 11673              	.L2358:
 11674 08ba 3946     		mov	r1, r7
 11675 08bc 2348     		ldr	r0, .L2723+40
 11676 08be FFF7FEFF 		bl	d64_read_file_sector
 11677 08c2 8046     		mov	r8, r0
 11678 08c4 78B1     		cbz	r0, .L2705
 11679 08c6 3046     		mov	r0, r6
 11680 08c8 4246     		mov	r2, r8
 11681 08ca 5146     		mov	r1, r10
 11682 08cc 4544     		add	r5, r5, r8
 11683 08ce FFF7FEFF 		bl	memcpy
 11684 08d2 ADB2     		uxth	r5, r5
 11685 08d4 43F60273 		movw	r3, #16130
 11686 08d8 9D42     		cmp	r5, r3
 11687 08da 4644     		add	r6, r6, r8
 11688 08dc EDD9     		bls	.L2358
 11689 08de 2846     		mov	r0, r5
 11690 08e0 FFF7FEFF 		bl	disk_send_prg_bank
 11691 08e4 E5E5     		b	.L2353
 11692              	.L2705:
 11693 08e6 2846     		mov	r0, r5
 11694 08e8 FFF7FEFF 		bl	disk_send_prg
 11695 08ec E1E5     		b	.L2353
 11696              	.L2700:
 11697 08ee 144B     		ldr	r3, .L2723+28
 11698 08f0 1146     		mov	r1, r2
ARM GAS  C:\Users\Jay\AppData\Local\Temp\ccrCOBv6.s 			page 202


 11699              	.L2364:
 11700 08f2 1A70     		strb	r2, [r3]
 11701 08f4 0132     		adds	r2, r2, #1
 11702 08f6 102A     		cmp	r2, #16
 11703 08f8 5970     		strb	r1, [r3, #1]
 11704 08fa 9970     		strb	r1, [r3, #2]
 11705 08fc D970     		strb	r1, [r3, #3]
 11706 08fe 1971     		strb	r1, [r3, #4]
 11707 0900 03F20313 		addw	r3, r3, #259
 11708 0904 F5D1     		bne	.L2364
 11709 0906 1EE7     		b	.L2446
 11710              	.L2702:
 11711 0908 9DF81D30 		ldrb	r3, [sp, #29]	@ zero_extendqisi2
 11712 090c A3F13002 		sub	r2, r3, #48
 11713 0910 092A     		cmp	r2, #9
 11714 0912 33D8     		bhi	.L2371
 11715 0914 302B     		cmp	r3, #48
 11716 0916 00F08681 		beq	.L2372
 11717              	.L2373:
 11718 091a 9BF80030 		ldrb	r3, [fp]	@ zero_extendqisi2
 11719 091e 002B     		cmp	r3, #0
 11720 0920 FBD1     		bne	.L2373
 11721 0922 64E6     		b	.L2687
 11722              	.L2724:
 11723              		.align	2
 11724              	.L2723:
 11725 0924 00000140 		.word	1073807360
 11726 0928 00080240 		.word	1073874944
 11727 092c 00000240 		.word	1073872896
 11728 0930 00600080 		.word	-2147459072
 11729 0934 10E000E0 		.word	-536813552
 11730 0938 00000000 		.word	.LANCHOR12
 11731 093c 00000000 		.word	.LANCHOR11
 11732 0940 00200000 		.word	crt_ram_buf+8192
 11733 0944 00400000 		.word	dat_buffer+16384
 11734 0948 42020000 		.word	.LANCHOR28+578
 11735 094c 14000000 		.word	.LANCHOR28+20
 11736 0950 40020000 		.word	.LANCHOR28+576
 11737 0954 3E020000 		.word	.LANCHOR28+574
 11738 0958 00000000 		.word	.LANCHOR13
 11739 095c 00000000 		.word	.LANCHOR10
 11740              	.L2415:
 11741 0960 0429     		cmp	r1, #4
 11742 0962 7FF455AF 		bne	.L2416
 11743              	.L2417:
 11744 0966 9BF80030 		ldrb	r3, [fp]	@ zero_extendqisi2
 11745 096a 002B     		cmp	r3, #0
 11746 096c FBD1     		bne	.L2417
 11747 096e 0198     		ldr	r0, [sp, #4]
 11748 0970 8222     		movs	r2, #130
 11749 0972 8023     		movs	r3, #128
 11750 0974 0270     		strb	r2, [r0]
 11751 0976 8BF80030 		strb	r3, [fp]
 11752 097a 49E7     		b	.L2416
 11753              	.L2371:
 11754 097c 002B     		cmp	r3, #0
 11755 097e 40F01081 		bne	.L2473
ARM GAS  C:\Users\Jay\AppData\Local\Temp\ccrCOBv6.s 			page 203


 11756 0982 2A22     		movs	r2, #42
 11757 0984 8DF81E30 		strb	r3, [sp, #30]
 11758 0988 8DF81D20 		strb	r2, [sp, #29]
 11759 098c 0DF11D07 		add	r7, sp, #29
 11760              	.L2376:
 11761 0990 B748     		ldr	r0, .L2725
 11762 0992 FFF7FEFF 		bl	d64_read_disk_header
 11763 0996 0028     		cmp	r0, #0
 11764 0998 00F08E80 		beq	.L2411
 11765 099c B54A     		ldr	r2, .L2725+4
 11766 099e 40F20113 		movw	r3, #257
 11767 09a2 1380     		strh	r3, [r2]	@ movhi
 11768 09a4 039B     		ldr	r3, [sp, #12]
 11769 09a6 D3F84003 		ldr	r0, [r3, #832]
 11770 09aa 931D     		adds	r3, r2, #6
 11771 09ac 0021     		movs	r1, #0
 11772 09ae 42F21222 		movw	r2, #8722
 11773 09b2 23F8041C 		strh	r1, [r3, #-4]	@ movhi
 11774 09b6 23F8022C 		strh	r2, [r3, #-2]	@ movhi
 11775 09ba 2221     		movs	r1, #34
 11776 09bc 2022     		movs	r2, #32
 11777 09be 0174     		strb	r1, [r0, #16]
 11778 09c0 4274     		strb	r2, [r0, #17]
 11779 09c2 0146     		mov	r1, r0
 11780 09c4 04E0     		b	.L2380
 11781              	.L2378:
 11782 09c6 03F8012B 		strb	r2, [r3], #1
 11783 09ca AB4A     		ldr	r2, .L2725+8
 11784 09cc 9342     		cmp	r3, r2
 11785 09ce 0FD0     		beq	.L2706
 11786              	.L2380:
 11787 09d0 11F8012B 		ldrb	r2, [r1], #1	@ zero_extendqisi2
 11788 09d4 A02A     		cmp	r2, #160
 11789 09d6 F6D1     		bne	.L2378
 11790 09d8 4A1E     		subs	r2, r1, #1
 11791 09da 121A     		subs	r2, r2, r0
 11792 09dc D2B2     		uxtb	r2, r2
 11793 09de 162A     		cmp	r2, #22
 11794 09e0 00F0E381 		beq	.L2379
 11795 09e4 2022     		movs	r2, #32
 11796 09e6 03F8012B 		strb	r2, [r3], #1
 11797 09ea A34A     		ldr	r2, .L2725+8
 11798 09ec 9342     		cmp	r3, r2
 11799 09ee EFD1     		bne	.L2380
 11800              	.L2706:
 11801 09f0 1346     		mov	r3, r2
 11802              	.L2464:
 11803 09f2 039A     		ldr	r2, [sp, #12]
 11804 09f4 92F83C02 		ldrb	r0, [r2, #572]	@ zero_extendqisi2
 11805 09f8 0025     		movs	r5, #0
 11806 09fa 0328     		cmp	r0, #3
 11807 09fc 1D70     		strb	r5, [r3]
 11808 09fe 03F10106 		add	r6, r3, #1
 11809 0a02 00F08881 		beq	.L2381
 11810 0a06 2B46     		mov	r3, r5
 11811 0a08 9C49     		ldr	r1, .L2725+12
 11812 0a0a 01E0     		b	.L2382
ARM GAS  C:\Users\Jay\AppData\Local\Temp\ccrCOBv6.s 			page 204


 11813              	.L2388:
 11814 0a0c 0133     		adds	r3, r3, #1
 11815 0a0e 0431     		adds	r1, r1, #4
 11816              	.L2382:
 11817 0a10 112B     		cmp	r3, #17
 11818 0a12 DAB2     		uxtb	r2, r3
 11819 0a14 FAD0     		beq	.L2388
 11820 0a16 91F842C2 		ldrb	ip, [r1, #578]	@ zero_extendqisi2
 11821 0a1a 222A     		cmp	r2, #34
 11822 0a1c 6544     		add	r5, r5, ip
 11823 0a1e ADB2     		uxth	r5, r5
 11824 0a20 F4D1     		bne	.L2388
 11825 0a22 0228     		cmp	r0, #2
 11826 0a24 00F06381 		beq	.L2707
 11827              	.L2383:
 11828 0a28 DFF84482 		ldr	r8, .L2725
 11829 0a2c 07E0     		b	.L2392
 11830              	.L2405:
 11831 0a2e 039B     		ldr	r3, [sp, #12]
 11832 0a30 3946     		mov	r1, r7
 11833 0a32 D3F84403 		ldr	r0, [r3, #836]
 11834 0a36 FFF7FEFF 		bl	disk_filename_match
 11835 0a3a 0028     		cmp	r0, #0
 11836 0a3c 46D1     		bne	.L2708
 11837              	.L2392:
 11838 0a3e 4046     		mov	r0, r8
 11839 0a40 FFF7FEFF 		bl	d64_read_dir
 11840 0a44 0028     		cmp	r0, #0
 11841 0a46 F2D1     		bne	.L2405
 11842 0a48 3246     		mov	r2, r6
 11843 0a4a 40F20113 		movw	r3, #257
 11844 0a4e 22F8043B 		strh	r3, [r2], #4	@ movhi
 11845 0a52 8B48     		ldr	r0, .L2725+16
 11846 0a54 7580     		strh	r5, [r6, #2]	@ movhi
 11847 0a56 4221     		movs	r1, #66
 11848 0a58 00E0     		b	.L2406
 11849              	.L2480:
 11850 0a5a 1A46     		mov	r2, r3
 11851              	.L2406:
 11852 0a5c 1346     		mov	r3, r2
 11853 0a5e 03F8011B 		strb	r1, [r3], #1
 11854 0a62 10F8011F 		ldrb	r1, [r0, #1]!	@ zero_extendqisi2
 11855 0a66 0029     		cmp	r1, #0
 11856 0a68 F7D1     		bne	.L2480
 11857 0a6a 0E32     		adds	r2, r2, #14
 11858 0a6c 2021     		movs	r1, #32
 11859              	.L2407:
 11860 0a6e 03F8011B 		strb	r1, [r3], #1
 11861 0a72 9342     		cmp	r3, r2
 11862 0a74 FBD1     		bne	.L2407
 11863 0a76 0022     		movs	r2, #0
 11864 0a78 1A70     		strb	r2, [r3]
 11865 0a7a 7E49     		ldr	r1, .L2725+4
 11866 0a7c A3F80120 		strh	r2, [r3, #1]	@ movhi
 11867 0a80 D81C     		adds	r0, r3, #3
 11868 0a82 401A     		subs	r0, r0, r1
 11869 0a84 80B2     		uxth	r0, r0
ARM GAS  C:\Users\Jay\AppData\Local\Temp\ccrCOBv6.s 			page 205


 11870 0a86 B8B1     		cbz	r0, .L2411
 11871 0a88 FFF7FEFF 		bl	disk_send_prg
 11872              	.L2408:
 11873 0a8c 9BF80030 		ldrb	r3, [fp]	@ zero_extendqisi2
 11874 0a90 002B     		cmp	r3, #0
 11875 0a92 FBD1     		bne	.L2408
 11876 0a94 019A     		ldr	r2, [sp, #4]
 11877 0a96 8023     		movs	r3, #128
 11878 0a98 4FF00101 		mov	r1, #1
 11879 0a9c 1170     		strb	r1, [r2]
 11880 0a9e 8BF80030 		strb	r3, [fp]
 11881              	.L2409:
 11882 0aa2 9BF80030 		ldrb	r3, [fp]	@ zero_extendqisi2
 11883 0aa6 002B     		cmp	r3, #0
 11884 0aa8 FBD1     		bne	.L2409
 11885 0aaa 0199     		ldr	r1, [sp, #4]
 11886 0aac 0422     		movs	r2, #4
 11887 0aae 8023     		movs	r3, #128
 11888 0ab0 0A70     		strb	r2, [r1]
 11889 0ab2 8BF80030 		strb	r3, [fp]
 11890 0ab6 FCE4     		b	.L2353
 11891              	.L2411:
 11892 0ab8 9BF80030 		ldrb	r3, [fp]	@ zero_extendqisi2
 11893 0abc 002B     		cmp	r3, #0
 11894 0abe 3FF452AE 		beq	.L2684
 11895 0ac2 9BF80030 		ldrb	r3, [fp]	@ zero_extendqisi2
 11896 0ac6 002B     		cmp	r3, #0
 11897 0ac8 F6D1     		bne	.L2411
 11898 0aca 4CE6     		b	.L2684
 11899              	.L2708:
 11900 0acc 3346     		mov	r3, r6
 11901 0ace 40F20112 		movw	r2, #257
 11902 0ad2 23F8042B 		strh	r2, [r3], #4	@ movhi
 11903 0ad6 039A     		ldr	r2, [sp, #12]
 11904 0ad8 D2F844C3 		ldr	ip, [r2, #836]
 11905 0adc BCF81E20 		ldrh	r2, [ip, #30]	@ unaligned
 11906 0ae0 7280     		strh	r2, [r6, #2]	@ movhi
 11907 0ae2 BCF81E20 		ldrh	r2, [ip, #30]	@ unaligned
 11908 0ae6 092A     		cmp	r2, #9
 11909 0ae8 40F29380 		bls	.L2475
 11910 0aec 632A     		cmp	r2, #99
 11911 0aee 40F25781 		bls	.L2476
 11912 0af2 B2F57A7F 		cmp	r2, #1000
 11913 0af6 2CBF     		ite	cs
 11914 0af8 0026     		movcs	r6, #0
 11915 0afa 0126     		movcc	r6, #1
 11916 0afc B2F57A7F 		cmp	r2, #1000
 11917 0b00 C6F10306 		rsb	r6, r6, #3
 11918 0b04 C0F04F81 		bcc	.L2709
 11919              	.L2394:
 11920 0b08 9E46     		mov	lr, r3
 11921 0b0a 2220     		movs	r0, #34
 11922 0b0c 0EF8110B 		strb	r0, [lr], #17
 11923 0b10 0CF1050A 		add	r10, ip, #5
 11924 0b14 591C     		adds	r1, r3, #1
 11925 0b16 05E0     		b	.L2398
 11926              	.L2711:
ARM GAS  C:\Users\Jay\AppData\Local\Temp\ccrCOBv6.s 			page 206


 11927 0b18 02F07F02 		and	r2, r2, #127
 11928              	.L2397:
 11929 0b1c 01F8012B 		strb	r2, [r1], #1
 11930 0b20 7145     		cmp	r1, lr
 11931 0b22 0CD0     		beq	.L2710
 11932              	.L2398:
 11933 0b24 2228     		cmp	r0, #34
 11934 0b26 1AF8012B 		ldrb	r2, [r10], #1	@ zero_extendqisi2
 11935 0b2a F5D1     		bne	.L2711
 11936 0b2c A02A     		cmp	r2, #160
 11937 0b2e 35D0     		beq	.L2477
 11938 0b30 01F8012B 		strb	r2, [r1], #1
 11939 0b34 222A     		cmp	r2, #34
 11940 0b36 08BF     		it	eq
 11941 0b38 2020     		moveq	r0, #32
 11942 0b3a 7145     		cmp	r1, lr
 11943 0b3c F2D1     		bne	.L2398
 11944              	.L2710:
 11945 0b3e 5874     		strb	r0, [r3, #17]
 11946 0b40 9CF90220 		ldrsb	r2, [ip, #2]
 11947 0b44 4F49     		ldr	r1, .L2725+20
 11948 0b46 002A     		cmp	r2, #0
 11949 0b48 ACBF     		ite	ge
 11950 0b4a 2A22     		movge	r2, #42
 11951 0b4c 2022     		movlt	r2, #32
 11952 0b4e 9A74     		strb	r2, [r3, #18]
 11953 0b50 9CF80200 		ldrb	r0, [ip, #2]	@ zero_extendqisi2
 11954 0b54 00F00702 		and	r2, r0, #7
 11955 0b58 1333     		adds	r3, r3, #19
 11956 0b5a 51F82220 		ldr	r2, [r1, r2, lsl #2]
 11957 0b5e 1178     		ldrb	r1, [r2]	@ zero_extendqisi2
 11958 0b60 39B1     		cbz	r1, .L2400
 11959              	.L2401:
 11960 0b62 03F8011B 		strb	r1, [r3], #1
 11961 0b66 12F8011F 		ldrb	r1, [r2, #1]!	@ zero_extendqisi2
 11962 0b6a 0029     		cmp	r1, #0
 11963 0b6c F9D1     		bne	.L2401
 11964 0b6e 9CF80200 		ldrb	r0, [ip, #2]	@ zero_extendqisi2
 11965              	.L2400:
 11966 0b72 10F0400F 		tst	r0, #64
 11967 0b76 14BF     		ite	ne
 11968 0b78 3C22     		movne	r2, #60
 11969 0b7a 2022     		moveq	r2, #32
 11970 0b7c 591C     		adds	r1, r3, #1
 11971 0b7e B01C     		adds	r0, r6, #2
 11972 0b80 1A70     		strb	r2, [r3]
 11973 0b82 0344     		add	r3, r3, r0
 11974 0b84 0A46     		mov	r2, r1
 11975 0b86 2020     		movs	r0, #32
 11976              	.L2404:
 11977 0b88 02F8010B 		strb	r0, [r2], #1
 11978 0b8c 9A42     		cmp	r2, r3
 11979 0b8e FBD1     		bne	.L2404
 11980 0b90 0136     		adds	r6, r6, #1
 11981 0b92 0023     		movs	r3, #0
 11982 0b94 8B55     		strb	r3, [r1, r6]
 11983 0b96 3144     		add	r1, r1, r6
ARM GAS  C:\Users\Jay\AppData\Local\Temp\ccrCOBv6.s 			page 207


 11984 0b98 4E1C     		adds	r6, r1, #1
 11985 0b9a 50E7     		b	.L2392
 11986              	.L2477:
 11987 0b9c 0246     		mov	r2, r0
 11988 0b9e 2020     		movs	r0, #32
 11989 0ba0 BCE7     		b	.L2397
 11990              	.L2473:
 11991 0ba2 0DF11D07 		add	r7, sp, #29
 11992 0ba6 F3E6     		b	.L2376
 11993              	.L2703:
 11994 0ba8 5346     		mov	r3, r10
 11995 0baa A246     		mov	r10, r4
 11996 0bac 4C46     		mov	r4, r9
 11997 0bae 9946     		mov	r9, r3
 11998 0bb0 BAF1000F 		cmp	r10, #0
 11999 0bb4 40F08B80 		bne	.L2712
 12000              	.L2549:
 12001 0bb8 9BF80030 		ldrb	r3, [fp]	@ zero_extendqisi2
 12002 0bbc 002B     		cmp	r3, #0
 12003 0bbe FBD1     		bne	.L2549
 12004 0bc0 D1E5     		b	.L2684
 12005              	.L2696:
 12006 0bc2 314B     		ldr	r3, .L2725+24
 12007 0bc4 029F     		ldr	r7, [sp, #8]
 12008 0bc6 07CB     		ldmia	r3!, {r0, r1, r2}
 12009 0bc8 7E1D     		adds	r6, r7, #5
 12010 0bca 93F800C0 		ldrb	ip, [r3]	@ zero_extendqisi2
 12011 0bce 029B     		ldr	r3, [sp, #8]
 12012 0bd0 C7F80500 		str	r0, [r7, #5]	@ unaligned
 12013 0bd4 0D27     		movs	r7, #13
 12014 0bd6 0020     		movs	r0, #0
 12015 0bd8 86F80CC0 		strb	ip, [r6, #12]
 12016 0bdc 7160     		str	r1, [r6, #4]	@ unaligned
 12017 0bde B260     		str	r2, [r6, #8]	@ unaligned
 12018 0be0 5F70     		strb	r7, [r3, #1]
 12019 0be2 9870     		strb	r0, [r3, #2]
 12020 0be4 99E4     		b	.L2452
 12021              	.L2698:
 12022 0be6 284B     		ldr	r3, .L2725+24
 12023 0be8 029F     		ldr	r7, [sp, #8]
 12024 0bea 07CB     		ldmia	r3!, {r0, r1, r2}
 12025 0bec 7D1D     		adds	r5, r7, #5
 12026 0bee C7F80500 		str	r0, [r7, #5]	@ unaligned
 12027 0bf2 1E78     		ldrb	r6, [r3]	@ zero_extendqisi2
 12028 0bf4 2E73     		strb	r6, [r5, #12]
 12029 0bf6 0D20     		movs	r0, #13
 12030 0bf8 6960     		str	r1, [r5, #4]	@ unaligned
 12031 0bfa AA60     		str	r2, [r5, #8]	@ unaligned
 12032 0bfc 7870     		strb	r0, [r7, #1]
 12033              	.L2443:
 12034 0bfe 9BF80030 		ldrb	r3, [fp]	@ zero_extendqisi2
 12035 0c02 002B     		cmp	r3, #0
 12036 0c04 FBD1     		bne	.L2443
 12037 0c06 019A     		ldr	r2, [sp, #4]
 12038 0c08 8023     		movs	r3, #128
 12039 0c0a 1370     		strb	r3, [r2]
 12040 0c0c 8BF80030 		strb	r3, [fp]
ARM GAS  C:\Users\Jay\AppData\Local\Temp\ccrCOBv6.s 			page 208


 12041 0c10 4FE4     		b	.L2353
 12042              	.L2475:
 12043 0c12 0026     		movs	r6, #0
 12044 0c14 0222     		movs	r2, #2
 12045              	.L2465:
 12046 0c16 0132     		adds	r2, r2, #1
 12047 0c18 1A44     		add	r2, r2, r3
 12048 0c1a 2021     		movs	r1, #32
 12049              	.L2395:
 12050 0c1c 03F8011B 		strb	r1, [r3], #1
 12051 0c20 9342     		cmp	r3, r2
 12052 0c22 FBD1     		bne	.L2395
 12053 0c24 70E7     		b	.L2394
 12054              	.L2372:
 12055 0c26 9DF81E20 		ldrb	r2, [sp, #30]	@ zero_extendqisi2
 12056 0c2a 002A     		cmp	r2, #0
 12057 0c2c 53D1     		bne	.L2472
 12058 0c2e 2A23     		movs	r3, #42
 12059 0c30 8DF81D30 		strb	r3, [sp, #29]
 12060 0c34 0DF11D07 		add	r7, sp, #29
 12061 0c38 AAE6     		b	.L2376
 12062              	.L2699:
 12063 0c3a 039B     		ldr	r3, [sp, #12]
 12064 0c3c 0299     		ldr	r1, [sp, #8]
 12065 0c3e D3F84433 		ldr	r3, [r3, #836]
 12066 0c42 0B48     		ldr	r0, .L2725
 12067 0c44 DA78     		ldrb	r2, [r3, #3]	@ zero_extendqisi2
 12068 0c46 CA70     		strb	r2, [r1, #3]
 12069 0c48 1B79     		ldrb	r3, [r3, #4]	@ zero_extendqisi2
 12070 0c4a 0B71     		strb	r3, [r1, #4]
 12071 0c4c 0D46     		mov	r5, r1
 12072 0c4e 0331     		adds	r1, r1, #3
 12073 0c50 FFF7FEFF 		bl	d64_read_file_sector
 12074 0c54 6870     		strb	r0, [r5, #1]
 12075 0c56 0028     		cmp	r0, #0
 12076 0c58 D1D1     		bne	.L2443
 12077              	.L2442:
 12078 0c5a 9BF80030 		ldrb	r3, [fp]	@ zero_extendqisi2
 12079 0c5e 002B     		cmp	r3, #0
 12080 0c60 FBD1     		bne	.L2442
 12081 0c62 0199     		ldr	r1, [sp, #4]
 12082 0c64 8422     		movs	r2, #132
 12083 0c66 8023     		movs	r3, #128
 12084 0c68 0A70     		strb	r2, [r1]
 12085 0c6a 8BF80030 		strb	r3, [fp]
 12086 0c6e 20E4     		b	.L2353
 12087              	.L2726:
 12088              		.align	2
 12089              	.L2725:
 12090 0c70 14000000 		.word	.LANCHOR28+20
 12091 0c74 00400000 		.word	dat_buffer+16384
 12092 0c78 1D400000 		.word	dat_buffer+16413
 12093 0c7c 00000000 		.word	.LANCHOR28
 12094 0c80 80000000 		.word	.LC65
 12095 0c84 00000000 		.word	.LANCHOR33
 12096 0c88 90000000 		.word	.LC66
 12097              	.L2423:
ARM GAS  C:\Users\Jay\AppData\Local\Temp\ccrCOBv6.s 			page 209


 12098 0c8c 5346     		mov	r3, r10
 12099 0c8e A246     		mov	r10, r4
 12100 0c90 5046     		mov	r0, r10
 12101 0c92 4C46     		mov	r4, r9
 12102 0c94 9946     		mov	r9, r3
 12103 0c96 FFF7FEFF 		bl	disk_send_prg_bank
 12104              	.L2429:
 12105 0c9a FAB2     		uxtb	r2, r7
 12106              	.L2426:
 12107 0c9c 9BF80030 		ldrb	r3, [fp]	@ zero_extendqisi2
 12108 0ca0 002B     		cmp	r3, #0
 12109 0ca2 FBD1     		bne	.L2426
 12110 0ca4 0199     		ldr	r1, [sp, #4]
 12111 0ca6 8023     		movs	r3, #128
 12112 0ca8 0A70     		strb	r2, [r1]
 12113 0caa C7F30727 		ubfx	r7, r7, #8, #8
 12114 0cae 8BF80030 		strb	r3, [fp]
 12115              	.L2427:
 12116 0cb2 9BF80030 		ldrb	r3, [fp]	@ zero_extendqisi2
 12117 0cb6 002B     		cmp	r3, #0
 12118 0cb8 FBD1     		bne	.L2427
 12119 0cba 019A     		ldr	r2, [sp, #4]
 12120 0cbc 8023     		movs	r3, #128
 12121 0cbe 1770     		strb	r7, [r2]
 12122 0cc0 8BF80030 		strb	r3, [fp]
 12123 0cc4 FFF7F5BB 		b	.L2353
 12124              	.L2669:
 12125 0cc8 4C46     		mov	r4, r9
 12126 0cca D146     		mov	r9, r10
 12127 0ccc 74E7     		b	.L2549
 12128              	.L2712:
 12129 0cce 5046     		mov	r0, r10
 12130 0cd0 FFF7FEFF 		bl	disk_send_prg
 12131 0cd4 E1E7     		b	.L2429
 12132              	.L2472:
 12133 0cd6 0DF11D07 		add	r7, sp, #29
 12134 0cda 03E0     		b	.L2375
 12135              	.L2713:
 12136 0cdc 3B78     		ldrb	r3, [r7]	@ zero_extendqisi2
 12137 0cde 002B     		cmp	r3, #0
 12138 0ce0 3FF456AE 		beq	.L2376
 12139              	.L2375:
 12140 0ce4 3A2B     		cmp	r3, #58
 12141 0ce6 07F10107 		add	r7, r7, #1
 12142 0cea F7D1     		bne	.L2713
 12143 0cec 50E6     		b	.L2376
 12144              	.L2707:
 12145 0cee 039B     		ldr	r3, [sp, #12]
 12146 0cf0 93F84132 		ldrb	r3, [r3, #577]	@ zero_extendqisi2
 12147 0cf4 002B     		cmp	r3, #0
 12148 0cf6 3FF497AE 		beq	.L2383
 12149 0cfa 8949     		ldr	r1, .L2727
 12150 0cfc 0023     		movs	r3, #0
 12151 0cfe 01E0     		b	.L2389
 12152              	.L2390:
 12153 0d00 0133     		adds	r3, r3, #1
 12154 0d02 0131     		adds	r1, r1, #1
ARM GAS  C:\Users\Jay\AppData\Local\Temp\ccrCOBv6.s 			page 210


 12155              	.L2389:
 12156 0d04 112B     		cmp	r3, #17
 12157 0d06 DAB2     		uxtb	r2, r3
 12158 0d08 FAD0     		beq	.L2390
 12159 0d0a 0878     		ldrb	r0, [r1]	@ zero_extendqisi2
 12160 0d0c 222A     		cmp	r2, #34
 12161 0d0e 0544     		add	r5, r5, r0
 12162 0d10 ADB2     		uxth	r5, r5
 12163 0d12 F5D1     		bne	.L2390
 12164 0d14 88E6     		b	.L2383
 12165              	.L2381:
 12166 0d16 8349     		ldr	r1, .L2727+4
 12167 0d18 039A     		ldr	r2, [sp, #12]
 12168 0d1a 4FF49473 		mov	r3, #296
 12169 0d1e A1F22A20 		subw	r0, r1, #554
 12170 0d22 A2F83E32 		strh	r3, [r2, #574]	@ movhi
 12171 0d26 FFF7FEFF 		bl	d64_read_next_sector
 12172 0d2a 0028     		cmp	r0, #0
 12173 0d2c 41D0     		beq	.L2474
 12174 0d2e 7E4B     		ldr	r3, .L2727+8
 12175 0d30 0393     		str	r3, [sp, #12]
 12176 0d32 9846     		mov	r8, r3
 12177              	.L2384:
 12178 0d34 93F84E22 		ldrb	r2, [r3, #590]	@ zero_extendqisi2
 12179 0d38 1544     		add	r5, r5, r2
 12180 0d3a 7C4A     		ldr	r2, .L2727+12
 12181 0d3c 0633     		adds	r3, r3, #6
 12182 0d3e 9A42     		cmp	r2, r3
 12183 0d40 ADB2     		uxth	r5, r5
 12184 0d42 F7D1     		bne	.L2384
 12185 0d44 02F5AA71 		add	r1, r2, #340
 12186 0d48 039A     		ldr	r2, [sp, #12]
 12187 0d4a 4FF40A73 		mov	r3, #552
 12188 0d4e A1F22A20 		subw	r0, r1, #554
 12189 0d52 A2F83E32 		strh	r3, [r2, #574]	@ movhi
 12190 0d56 FFF7FEFF 		bl	d64_read_next_sector
 12191 0d5a 0028     		cmp	r0, #0
 12192 0d5c 3FF464AE 		beq	.L2383
 12193 0d60 0023     		movs	r3, #0
 12194              	.L2385:
 12195 0d62 98F84E22 		ldrb	r2, [r8, #590]	@ zero_extendqisi2
 12196 0d66 1344     		add	r3, r3, r2
 12197 0d68 714A     		ldr	r2, .L2727+16
 12198 0d6a 08F10608 		add	r8, r8, #6
 12199 0d6e 4245     		cmp	r2, r8
 12200 0d70 9BB2     		uxth	r3, r3
 12201 0d72 F6D1     		bne	.L2385
 12202 0d74 039A     		ldr	r2, [sp, #12]
 12203 0d76 6F48     		ldr	r0, .L2727+20
 12204 0d78 92F83C22 		ldrb	r2, [r2, #572]	@ zero_extendqisi2
 12205 0d7c 032A     		cmp	r2, #3
 12206 0d7e 039A     		ldr	r2, [sp, #12]
 12207 0d80 1D44     		add	r5, r5, r3
 12208 0d82 0CBF     		ite	eq
 12209 0d84 4FF44A73 		moveq	r3, #808
 12210 0d88 4FF48973 		movne	r3, #274
 12211 0d8c A2F83E32 		strh	r3, [r2, #574]	@ movhi
ARM GAS  C:\Users\Jay\AppData\Local\Temp\ccrCOBv6.s 			page 211


 12212 0d90 039A     		ldr	r2, [sp, #12]
 12213 0d92 0023     		movs	r3, #0
 12214 0d94 ADB2     		uxth	r5, r5
 12215 0d96 C2F84403 		str	r0, [r2, #836]
 12216 0d9a 82F83D32 		strb	r3, [r2, #573]
 12217 0d9e 43E6     		b	.L2383
 12218              	.L2476:
 12219 0da0 0126     		movs	r6, #1
 12220 0da2 3246     		mov	r2, r6
 12221 0da4 37E7     		b	.L2465
 12222              	.L2709:
 12223 0da6 0022     		movs	r2, #0
 12224 0da8 35E7     		b	.L2465
 12225              	.L2379:
 12226 0daa 3122     		movs	r2, #49
 12227 0dac 1A70     		strb	r2, [r3]
 12228 0dae 0133     		adds	r3, r3, #1
 12229 0db0 1FE6     		b	.L2464
 12230              	.L2474:
 12231 0db2 0546     		mov	r5, r0
 12232 0db4 38E6     		b	.L2383
 12233              	.L2301:
 12234 0db6 604C     		ldr	r4, .L2727+24
 12235 0db8 E368     		ldr	r3, [r4, #12]
 12236 0dba 6FF00802 		mvn	r2, #8
 12237 0dbe 1340     		ands	r3, r3, r2
 12238 0dc0 E360     		str	r3, [r4, #12]
 12239 0dc2 2261     		str	r2, [r4, #16]
 12240 0dc4 FFF7FEFF 		bl	c64_reset.part.24
 12241 0dc8 5C4B     		ldr	r3, .L2727+28
 12242 0dca 5D4A     		ldr	r2, .L2727+32
 12243 0dcc 9A61     		str	r2, [r3, #24]
 12244 0dce E368     		ldr	r3, [r4, #12]
 12245 0dd0 1F07     		lsls	r7, r3, #28
 12246 0dd2 01D4     		bmi	.L2345
 12247 0dd4 FFF7FEFF 		bl	c64_interface.part.23
 12248              	.L2345:
 12249 0dd8 5A4A     		ldr	r2, .L2727+36
 12250 0dda 5B4B     		ldr	r3, .L2727+40
 12251 0ddc 4FF00041 		mov	r1, #-2147483648
 12252 0de0 9161     		str	r1, [r2, #24]
 12253 0de2 45F20824 		movw	r4, #21000
 12254 0de6 4FF49672 		mov	r2, #300
 12255 0dea 0020     		movs	r0, #0
 12256              	.L2347:
 12257 0dec 5C60     		str	r4, [r3, #4]
 12258 0dee 9860     		str	r0, [r3, #8]
 12259              	.L2346:
 12260 0df0 1968     		ldr	r1, [r3]
 12261 0df2 CE03     		lsls	r6, r1, #15
 12262 0df4 FCD5     		bpl	.L2346
 12263 0df6 013A     		subs	r2, r2, #1
 12264 0df8 F8D1     		bne	.L2347
 12265 0dfa 3EE4     		b	.L2680
 12266              	.L2300:
 12267 0dfc 95F82030 		ldrb	r3, [r5, #32]	@ zero_extendqisi2
 12268 0e00 63B9     		cbnz	r3, .L2714
ARM GAS  C:\Users\Jay\AppData\Local\Temp\ccrCOBv6.s 			page 212


 12269 0e02 85F80033 		strb	r3, [r5, #768]
 12270              	.L2295:
 12271 0e06 4C4B     		ldr	r3, .L2727+24
 12272 0e08 DA68     		ldr	r2, [r3, #12]
 12273 0e0a 6FF00801 		mvn	r1, #8
 12274 0e0e 0A40     		ands	r2, r2, r1
 12275 0e10 DA60     		str	r2, [r3, #12]
 12276 0e12 1961     		str	r1, [r3, #16]
 12277 0e14 FFF7FEFF 		bl	c64_reset.part.24
 12278              	.L2688:
 12279 0e18 FFF7FEFF 		bl	restart_to_menu
 12280              	.L2714:
 12281 0e1c FFF7FEFF 		bl	chdir_last.part.66
 12282 0e20 0028     		cmp	r0, #0
 12283 0e22 F0D0     		beq	.L2295
 12284 0e24 4948     		ldr	r0, .L2727+44
 12285 0e26 FFF7FEFF 		bl	d64_open.constprop.89
 12286 0e2a 0028     		cmp	r0, #0
 12287 0e2c EBD0     		beq	.L2295
 12288 0e2e 424C     		ldr	r4, .L2727+24
 12289 0e30 E368     		ldr	r3, [r4, #12]
 12290 0e32 6FF00802 		mvn	r2, #8
 12291 0e36 1340     		ands	r3, r3, r2
 12292 0e38 E360     		str	r3, [r4, #12]
 12293 0e3a 2261     		str	r2, [r4, #16]
 12294 0e3c FFF7FEFF 		bl	c64_reset.part.24
 12295 0e40 3E4B     		ldr	r3, .L2727+28
 12296 0e42 434A     		ldr	r2, .L2727+48
 12297 0e44 9A61     		str	r2, [r3, #24]
 12298 0e46 4349     		ldr	r1, .L2727+52
 12299 0e48 4348     		ldr	r0, .L2727+56
 12300 0e4a 43F6B072 		movw	r2, #16304
 12301 0e4e FFF7FEFF 		bl	memcpy
 12302 0e52 424B     		ldr	r3, .L2727+60
 12303 0e54 3360     		str	r3, [r6]
 12304 0e56 E368     		ldr	r3, [r4, #12]
 12305 0e58 1B07     		lsls	r3, r3, #28
 12306 0e5a 01D4     		bmi	.L2344
 12307 0e5c FFF7FEFF 		bl	c64_interface.part.23
 12308              	.L2344:
 12309 0e60 384B     		ldr	r3, .L2727+36
 12310 0e62 3F49     		ldr	r1, .L2727+64
 12311 0e64 3F48     		ldr	r0, .L2727+68
 12312 0e66 4FF00042 		mov	r2, #-2147483648
 12313 0e6a 9A61     		str	r2, [r3, #24]
 12314 0e6c FFF7FEFF 		bl	c64_send_command
 12315 0e70 0028     		cmp	r0, #0
 12316 0e72 00F00E81 		beq	.L2319
 12317 0e76 3C4B     		ldr	r3, .L2727+72
 12318 0e78 3C4C     		ldr	r4, .L2727+76
 12319 0e7a DFF80491 		ldr	r9, .L2727+96
 12320 0e7e DFF804B1 		ldr	fp, .L2727+100
 12321 0e82 0193     		str	r3, [sp, #4]
 12322 0e84 FFF7ACBA 		b	.L2340
 12323              	.L2296:
 12324 0e88 B5F80B80 		ldrh	r8, [r5, #11]	@ unaligned
 12325 0e8c B8F1200F 		cmp	r8, #32
ARM GAS  C:\Users\Jay\AppData\Local\Temp\ccrCOBv6.s 			page 213


 12326 0e90 B9D8     		bhi	.L2295
 12327 0e92 374F     		ldr	r7, .L2727+80
 12328 0e94 57F82830 		ldr	r3, [r7, r8, lsl #2]
 12329 0e98 002B     		cmp	r3, #0
 12330 0e9a B4D0     		beq	.L2295
 12331 0e9c EB7B     		ldrb	r3, [r5, #15]	@ zero_extendqisi2
 12332 0e9e 002B     		cmp	r3, #0
 12333 0ea0 B1D0     		beq	.L2295
 12334 0ea2 344A     		ldr	r2, .L2727+84
 12335 0ea4 9168     		ldr	r1, [r2, #8]
 12336 0ea6 042B     		cmp	r3, #4
 12337 0ea8 41F00101 		orr	r1, r1, #1
 12338 0eac 9160     		str	r1, [r2, #8]
 12339 0eae 08D9     		bls	.L2323
 12340 0eb0 9B03     		lsls	r3, r3, #14
 12341 0eb2 3149     		ldr	r1, .L2727+88
 12342 0eb4 03F10063 		add	r3, r3, #134217728
 12343              	.L2324:
 12344 0eb8 0868     		ldr	r0, [r1]
 12345 0eba 1060     		str	r0, [r2]
 12346 0ebc 0431     		adds	r1, r1, #4
 12347 0ebe 9942     		cmp	r1, r3
 12348 0ec0 FAD1     		bne	.L2324
 12349              	.L2323:
 12350 0ec2 2C4A     		ldr	r2, .L2727+84
 12351 0ec4 2B69     		ldr	r3, [r5, #16]	@ unaligned
 12352 0ec6 1268     		ldr	r2, [r2]
 12353 0ec8 9A42     		cmp	r2, r3
 12354 0eca 9CD1     		bne	.L2295
 12355 0ecc 1D4B     		ldr	r3, .L2727+36
 12356 0ece 5B69     		ldr	r3, [r3, #20]
 12357 0ed0 1B04     		lsls	r3, r3, #16
 12358 0ed2 40F10A82 		bpl	.L2652
 12359 0ed6 254C     		ldr	r4, .L2727+76
 12360 0ed8 DFF8A490 		ldr	r9, .L2727+96
 12361              	.L2325:
 12362 0edc 697B     		ldrb	r1, [r5, #13]	@ zero_extendqisi2
 12363 0ede AA7B     		ldrb	r2, [r5, #14]	@ zero_extendqisi2
 12364 0ee0 264B     		ldr	r3, .L2727+92
 12365 0ee2 0029     		cmp	r1, #0
 12366 0ee4 1D49     		ldr	r1, .L2727+60
 12367 0ee6 3160     		str	r1, [r6]
 12368 0ee8 08BF     		it	eq
 12369 0eea 4FF02043 		moveq	r3, #-1610612736
 12370 0eee 002A     		cmp	r2, #0
 12371 0ef0 00F09981 		beq	.L2331
 12372 0ef4 43F48043 		orr	r3, r3, #16384
 12373              	.L2332:
 12374 0ef8 1049     		ldr	r1, .L2727+28
 12375 0efa 134A     		ldr	r2, .L2727+40
 12376 0efc 8B61     		str	r3, [r1, #24]
 12377 0efe 45F20821 		movw	r1, #21000
 12378 0f02 5160     		str	r1, [r2, #4]
 12379 0f04 0023     		movs	r3, #0
 12380 0f06 0F49     		ldr	r1, .L2727+36
 12381 0f08 9360     		str	r3, [r2, #8]
 12382              	.L2334:
ARM GAS  C:\Users\Jay\AppData\Local\Temp\ccrCOBv6.s 			page 214


 12383 0f0a 1368     		ldr	r3, [r2]
 12384 0f0c D803     		lsls	r0, r3, #15
 12385 0f0e 00F1C981 		bmi	.L2715
 12386 0f12 0B69     		ldr	r3, [r1, #16]
 12387 0f14 13F00803 		ands	r3, r3, #8
 12388 0f18 08BF     		it	eq
 12389 0f1a 9360     		streq	r3, [r2, #8]
 12390 0f1c F5E7     		b	.L2334
 12391              	.L2728:
 12392 0f1e 00BF     		.align	2
 12393              	.L2727:
 12394 0f20 1B030000 		.word	.LANCHOR28+795
 12395 0f24 3E020000 		.word	.LANCHOR28+574
 12396 0f28 00000000 		.word	.LANCHOR28
 12397 0f2c EA000000 		.word	.LANCHOR28+234
 12398 0f30 F0000000 		.word	.LANCHOR28+240
 12399 0f34 3E030000 		.word	.LANCHOR28+830
 12400 0f38 00000140 		.word	1073807360
 12401 0f3c 00080240 		.word	1073874944
 12402 0f40 004000A0 		.word	-1610596352
 12403 0f44 00000240 		.word	1073872896
 12404 0f48 10E000E0 		.word	-536813552
 12405 0f4c 00030000 		.word	dat_file+768
 12406 0f50 00800060 		.word	1610645504
 12407 0f54 50C00008 		.word	134266960
 12408 0f58 50000000 		.word	dat_buffer+80
 12409 0f5c 00000000 		.word	dat_buffer
 12410 0f60 A4000000 		.word	.LC39
 12411 0f64 7C000000 		.word	.LC64
 12412 0f68 00000000 		.word	.LANCHOR11
 12413 0f6c 00000000 		.word	.LANCHOR12
 12414 0f70 00000000 		.word	.LANCHOR32
 12415 0f74 00300240 		.word	1073885184
 12416 0f78 00000108 		.word	134283264
 12417 0f7c 00800020 		.word	536903680
 12418 0f80 00000000 		.word	.LANCHOR13
 12419 0f84 00000000 		.word	.LANCHOR10
 12420              	.L2298:
 12421 0f88 B5F80B30 		ldrh	r3, [r5, #11]	@ unaligned
 12422 0f8c 022B     		cmp	r3, #2
 12423 0f8e 7FF63AAF 		bls	.L2295
 12424 0f92 A64B     		ldr	r3, .L2729
 12425 0f94 DB68     		ldr	r3, [r3, #12]
 12426 0f96 1907     		lsls	r1, r3, #28
 12427 0f98 01D4     		bmi	.L2305
 12428 0f9a FFF7FEFF 		bl	c64_interface.part.23
 12429              	.L2305:
 12430 0f9e A44A     		ldr	r2, .L2729+4
 12431 0fa0 A44B     		ldr	r3, .L2729+8
 12432 0fa2 A549     		ldr	r1, .L2729+12
 12433 0fa4 A548     		ldr	r0, .L2729+16
 12434 0fa6 4FF00044 		mov	r4, #-2147483648
 12435 0faa 9461     		str	r4, [r2, #24]
 12436 0fac EC7B     		ldrb	r4, [r5, #15]	@ zero_extendqisi2
 12437 0fae 6FF43C72 		mvn	r2, #752
 12438 0fb2 9A18     		adds	r2, r3, r2
 12439 0fb4 002C     		cmp	r4, #0
ARM GAS  C:\Users\Jay\AppData\Local\Temp\ccrCOBv6.s 			page 215


 12440 0fb6 08BF     		it	eq
 12441 0fb8 1A46     		moveq	r2, r3
 12442 0fba FFF7FEFF 		bl	sprint
 12443 0fbe 9F49     		ldr	r1, .L2729+16
 12444 0fc0 9F48     		ldr	r0, .L2729+20
 12445 0fc2 FFF7FEFF 		bl	c64_send_text
 12446 0fc6 B5F80B70 		ldrh	r7, [r5, #11]	@ unaligned
 12447 0fca 9E49     		ldr	r1, .L2729+24
 12448 0fcc 9E48     		ldr	r0, .L2729+28
 12449 0fce BEB2     		uxth	r6, r7
 12450 0fd0 FFF7FEFF 		bl	c64_send_command
 12451 0fd4 0028     		cmp	r0, #0
 12452 0fd6 5CD0     		beq	.L2319
 12453 0fd8 9C4C     		ldr	r4, .L2729+32
 12454              	.L2308:
 12455 0fda 2378     		ldrb	r3, [r4]	@ zero_extendqisi2
 12456 0fdc 002B     		cmp	r3, #0
 12457 0fde FCD1     		bne	.L2308
 12458 0fe0 DFF8AC92 		ldr	r9, .L2729+100
 12459 0fe4 99F80030 		ldrb	r3, [r9]	@ zero_extendqisi2
 12460 0fe8 DBB2     		uxtb	r3, r3
 12461 0fea 4022     		movs	r2, #64
 12462 0fec 8DF81C30 		strb	r3, [sp, #28]
 12463 0ff0 2270     		strb	r2, [r4]
 12464              	.L2309:
 12465 0ff2 2378     		ldrb	r3, [r4]	@ zero_extendqisi2
 12466 0ff4 002B     		cmp	r3, #0
 12467 0ff6 FCD1     		bne	.L2309
 12468 0ff8 99F80030 		ldrb	r3, [r9]	@ zero_extendqisi2
 12469 0ffc DBB2     		uxtb	r3, r3
 12470 0ffe 8DF81D30 		strb	r3, [sp, #29]
 12471 1002 BDF81C20 		ldrh	r2, [sp, #28]
 12472 1006 4021     		movs	r1, #64
 12473 1008 9642     		cmp	r6, r2
 12474 100a 2170     		strb	r1, [r4]
 12475 100c 03D2     		bcs	.L2310
 12476 100e ADF81C70 		strh	r7, [sp, #28]	@ movhi
 12477 1012 3B0A     		lsrs	r3, r7, #8
 12478 1014 3246     		mov	r2, r6
 12479              	.L2310:
 12480 1016 9DF81C00 		ldrb	r0, [sp, #28]	@ zero_extendqisi2
 12481 101a DFF870B2 		ldr	fp, .L2729+96
 12482              	.L2311:
 12483 101e 9BF80010 		ldrb	r1, [fp]	@ zero_extendqisi2
 12484 1022 0029     		cmp	r1, #0
 12485 1024 FBD1     		bne	.L2311
 12486 1026 8A49     		ldr	r1, .L2729+36
 12487 1028 0191     		str	r1, [sp, #4]
 12488 102a 0F46     		mov	r7, r1
 12489 102c 8021     		movs	r1, #128
 12490 102e 3870     		strb	r0, [r7]
 12491 1030 8BF80010 		strb	r1, [fp]
 12492              	.L2312:
 12493 1034 9BF80010 		ldrb	r1, [fp]	@ zero_extendqisi2
 12494 1038 0029     		cmp	r1, #0
 12495 103a FBD1     		bne	.L2312
 12496 103c 0198     		ldr	r0, [sp, #4]
ARM GAS  C:\Users\Jay\AppData\Local\Temp\ccrCOBv6.s 			page 216


 12497 103e 8021     		movs	r1, #128
 12498 1040 0370     		strb	r3, [r0]
 12499 1042 8BF80010 		strb	r1, [fp]
 12500 1046 6AB1     		cbz	r2, .L2316
 12501 1048 824B     		ldr	r3, .L2729+40
 12502 104a 1A44     		add	r2, r2, r3
 12503              	.L2315:
 12504 104c 13F8010B 		ldrb	r0, [r3], #1	@ zero_extendqisi2
 12505              	.L2314:
 12506 1050 9BF80070 		ldrb	r7, [fp]	@ zero_extendqisi2
 12507 1054 002F     		cmp	r7, #0
 12508 1056 FBD1     		bne	.L2314
 12509 1058 019F     		ldr	r7, [sp, #4]
 12510 105a 9342     		cmp	r3, r2
 12511 105c 3870     		strb	r0, [r7]
 12512 105e 8BF80010 		strb	r1, [fp]
 12513 1062 F3D1     		bne	.L2315
 12514              	.L2316:
 12515 1064 2378     		ldrb	r3, [r4]	@ zero_extendqisi2
 12516 1066 002B     		cmp	r3, #0
 12517 1068 FCD1     		bne	.L2316
 12518 106a 99F80020 		ldrb	r2, [r9]	@ zero_extendqisi2
 12519 106e D2B2     		uxtb	r2, r2
 12520 1070 4023     		movs	r3, #64
 12521 1072 2370     		strb	r3, [r4]
 12522              	.L2317:
 12523 1074 2378     		ldrb	r3, [r4]	@ zero_extendqisi2
 12524 1076 002B     		cmp	r3, #0
 12525 1078 FCD1     		bne	.L2317
 12526 107a 99F80030 		ldrb	r3, [r9]	@ zero_extendqisi2
 12527 107e DBB2     		uxtb	r3, r3
 12528 1080 4021     		movs	r1, #64
 12529 1082 2170     		strb	r1, [r4]
 12530 1084 2AB9     		cbnz	r2, .L2319
 12531 1086 23B9     		cbnz	r3, .L2319
 12532 1088 BDF81C30 		ldrh	r3, [sp, #28]
 12533 108c 9E42     		cmp	r6, r3
 12534 108e 3FF4A7A9 		beq	.L2340
 12535              	.L2319:
 12536 1092 FFF7FEFF 		bl	system_restart
 12537              	.L2299:
 12538 1096 654C     		ldr	r4, .L2729
 12539 1098 E368     		ldr	r3, [r4, #12]
 12540 109a 6FF00802 		mvn	r2, #8
 12541 109e 1340     		ands	r3, r3, r2
 12542 10a0 E360     		str	r3, [r4, #12]
 12543 10a2 2261     		str	r2, [r4, #16]
 12544 10a4 FFF7FEFF 		bl	c64_reset.part.24
 12545 10a8 6B4B     		ldr	r3, .L2729+44
 12546 10aa 6C4A     		ldr	r2, .L2729+48
 12547 10ac 9A61     		str	r2, [r3, #24]
 12548 10ae E368     		ldr	r3, [r4, #12]
 12549 10b0 1A07     		lsls	r2, r3, #28
 12550 10b2 01D4     		bmi	.L2341
 12551 10b4 FFF7FEFF 		bl	c64_interface.part.23
 12552              	.L2341:
 12553 10b8 5D4B     		ldr	r3, .L2729+4
ARM GAS  C:\Users\Jay\AppData\Local\Temp\ccrCOBv6.s 			page 217


 12554 10ba 6949     		ldr	r1, .L2729+52
 12555 10bc 6048     		ldr	r0, .L2729+20
 12556 10be 634C     		ldr	r4, .L2729+32
 12557 10c0 DFF8CC91 		ldr	r9, .L2729+100
 12558 10c4 DFF8C4B1 		ldr	fp, .L2729+96
 12559 10c8 4FF00042 		mov	r2, #-2147483648
 12560 10cc 9A61     		str	r2, [r3, #24]
 12561 10ce FFF7FEFF 		bl	c64_send_text
 12562 10d2 5F4B     		ldr	r3, .L2729+36
 12563 10d4 0193     		str	r3, [sp, #4]
 12564 10d6 FFF783B9 		b	.L2340
 12565              	.L2261:
 12566 10da 544B     		ldr	r3, .L2729
 12567 10dc DB68     		ldr	r3, [r3, #12]
 12568 10de 1C07     		lsls	r4, r3, #28
 12569 10e0 01D4     		bmi	.L2263
 12570 10e2 FFF7FEFF 		bl	c64_interface.part.23
 12571              	.L2263:
 12572 10e6 524B     		ldr	r3, .L2729+4
 12573 10e8 5E49     		ldr	r1, .L2729+56
 12574 10ea 5F48     		ldr	r0, .L2729+60
 12575 10ec 4FF00042 		mov	r2, #-2147483648
 12576 10f0 9A61     		str	r2, [r3, #24]
 12577 10f2 FFF7FEFF 		bl	c64_send_command
 12578 10f6 0028     		cmp	r0, #0
 12579 10f8 3FF48EAE 		beq	.L2688
 12580 10fc DFF89491 		ldr	r9, .L2729+104
 12581 1100 D9F80030 		ldr	r3, [r9]
 12582 1104 63B9     		cbnz	r3, .L2265
 12583 1106 594A     		ldr	r2, .L2729+64
 12584 1108 5949     		ldr	r1, .L2729+68
 12585 110a C9F80020 		str	r2, [r9]
 12586 110e 594A     		ldr	r2, .L2729+72
 12587 1110 594B     		ldr	r3, .L2729+76
 12588 1112 C9F80430 		str	r3, [r9, #4]
 12589 1116 C9E90212 		strd	r1, r2, [r9, #8]
 12590 111a 584B     		ldr	r3, .L2729+80
 12591 111c C9F81030 		str	r3, [r9, #16]
 12592              	.L2265:
 12593 1120 574D     		ldr	r5, .L2729+84
 12594 1122 95F82030 		ldrb	r3, [r5, #32]	@ zero_extendqisi2
 12595 1126 002B     		cmp	r3, #0
 12596 1128 5AD1     		bne	.L2716
 12597 112a 85F80033 		strb	r3, [r5, #768]
 12598              	.L2267:
 12599 112e 0023     		movs	r3, #0
 12600 1130 DFF86481 		ldr	r8, .L2729+108
 12601 1134 A9F87830 		strh	r3, [r9, #120]	@ movhi
 12602 1138 0123     		movs	r3, #1
 12603 113a C8F80090 		str	r9, [r8]
 12604 113e 89F81530 		strb	r3, [r9, #21]
 12605 1142 424C     		ldr	r4, .L2729+32
 12606 1144 DFF854B1 		ldr	fp, .L2729+112
 12607 1148 DFF844A1 		ldr	r10, .L2729+100
 12608 114c DFF85091 		ldr	r9, .L2729+116
 12609              	.L2268:
 12610 1150 2378     		ldrb	r3, [r4]	@ zero_extendqisi2
ARM GAS  C:\Users\Jay\AppData\Local\Temp\ccrCOBv6.s 			page 218


 12611 1152 2BB3     		cbz	r3, .L2717
 12612              	.L2269:
 12613 1154 DBF80030 		ldr	r3, [fp]
 12614 1158 002B     		cmp	r3, #0
 12615 115a F9D0     		beq	.L2268
 12616 115c 344A     		ldr	r2, .L2729+4
 12617 115e 494B     		ldr	r3, .L2729+88
 12618 1160 4FF40041 		mov	r1, #32768
 12619 1164 9161     		str	r1, [r2, #24]
 12620 1166 41F26801 		movw	r1, #4200
 12621 116a 0022     		movs	r2, #0
 12622 116c 5960     		str	r1, [r3, #4]
 12623 116e 9A60     		str	r2, [r3, #8]
 12624              	.L2285:
 12625 1170 1A68     		ldr	r2, [r3]
 12626 1172 D003     		lsls	r0, r2, #15
 12627 1174 FCD5     		bpl	.L2285
 12628 1176 2D4B     		ldr	r3, .L2729
 12629 1178 0322     		movs	r2, #3
 12630 117a 6A72     		strb	r2, [r5, #9]
 12631 117c DA68     		ldr	r2, [r3, #12]
 12632 117e 6FF00801 		mvn	r1, #8
 12633 1182 22F00802 		bic	r2, r2, #8
 12634 1186 DA60     		str	r2, [r3, #12]
 12635 1188 1961     		str	r1, [r3, #16]
 12636              	.L2286:
 12637 118a 0022     		movs	r2, #0
 12638 118c 1046     		mov	r0, r2
 12639 118e 3E49     		ldr	r1, .L2729+92
 12640 1190 FFF7FEFF 		bl	f_mount
 12641 1194 6B7A     		ldrb	r3, [r5, #9]	@ zero_extendqisi2
 12642 1196 012B     		cmp	r3, #1
 12643 1198 3FF4E7A8 		beq	.L2293
 12644 119c FFF7F6B8 		b	.L2294
 12645              	.L2717:
 12646 11a0 FFF7FEFF 		bl	c64_receive_command
 12647 11a4 0B28     		cmp	r0, #11
 12648 11a6 33D8     		bhi	.L2520
 12649 11a8 01A3     		adr	r3, .L2271
 12650 11aa 53F820F0 		ldr	pc, [r3, r0, lsl #2]
 12651 11ae 00BF     		.p2align 2
 12652              	.L2271:
 12653 11b0 55110000 		.word	.L2269+1
 12654 11b4 07120000 		.word	.L2272+1
 12655 11b8 FB110000 		.word	.L2273+1
 12656 11bc EF110000 		.word	.L2274+1
 12657 11c0 13140000 		.word	.L2275+1
 12658 11c4 09140000 		.word	.L2276+1
 12659 11c8 1D140000 		.word	.L2277+1
 12660 11cc 43130000 		.word	.L2278+1
 12661 11d0 E9130000 		.word	.L2279+1
 12662 11d4 BD130000 		.word	.L2280+1
 12663 11d8 F9130000 		.word	.L2281+1
 12664 11dc E7110000 		.word	.L2282+1
 12665              		.p2align 1
 12666              	.L2716:
 12667 11e0 FFF7FEFF 		bl	chdir_last.part.66
ARM GAS  C:\Users\Jay\AppData\Local\Temp\ccrCOBv6.s 			page 219


 12668 11e4 A3E7     		b	.L2267
 12669              	.L2282:
 12670 11e6 FFF7FEFF 		bl	c64_send_exit_menu
 12671 11ea FFF7FEFF 		bl	system_restart
 12672              	.L2274:
 12673 11ee D8F80000 		ldr	r0, [r8]
 12674 11f2 0021     		movs	r1, #0
 12675 11f4 4368     		ldr	r3, [r0, #4]
 12676 11f6 9847     		blx	r3
 12677 11f8 AAE7     		b	.L2268
 12678              	.L2273:
 12679 11fa D8F80000 		ldr	r0, [r8]
 12680 11fe 0121     		movs	r1, #1
 12681 1200 4368     		ldr	r3, [r0, #4]
 12682 1202 9847     		blx	r3
 12683 1204 A4E7     		b	.L2268
 12684              	.L2272:
 12685 1206 D8F80000 		ldr	r0, [r8]
 12686 120a 0368     		ldr	r3, [r0]
 12687 120c 9847     		blx	r3
 12688 120e 9FE7     		b	.L2268
 12689              	.L2520:
 12690 1210 1E4B     		ldr	r3, .L2729+96
 12691              	.L2270:
 12692 1212 1A78     		ldrb	r2, [r3]	@ zero_extendqisi2
 12693 1214 02F0FF00 		and	r0, r2, #255
 12694 1218 002A     		cmp	r2, #0
 12695 121a FAD1     		bne	.L2270
 12696 121c 0C49     		ldr	r1, .L2729+36
 12697 121e 8022     		movs	r2, #128
 12698 1220 0870     		strb	r0, [r1]
 12699 1222 1A70     		strb	r2, [r3]
 12700 1224 94E7     		b	.L2268
 12701              	.L2331:
 12702 1226 43F08043 		orr	r3, r3, #1073741824
 12703 122a 65E6     		b	.L2332
 12704              	.L2730:
 12705              		.align	2
 12706              	.L2729:
 12707 122c 00000140 		.word	1073807360
 12708 1230 00000240 		.word	1073872896
 12709 1234 00030000 		.word	dat_file+768
 12710 1238 40000000 		.word	.LC60
 12711 123c 00000100 		.word	scratch_buf
 12712 1240 28000000 		.word	.LC57
 12713 1244 54000000 		.word	.LC61
 12714 1248 24000000 		.word	.LC9
 12715 124c 00000000 		.word	.LANCHOR12
 12716 1250 00000000 		.word	.LANCHOR11
 12717 1254 00000000 		.word	dat_buffer
 12718 1258 00080240 		.word	1073874944
 12719 125c 00800060 		.word	1610645504
 12720 1260 60000000 		.word	.LC63
 12721 1264 A4000000 		.word	.LC39
 12722 1268 AC000000 		.word	.LC40
 12723 126c 00000000 		.word	handle_dir_command
 12724 1270 00000000 		.word	handle_dir_prev_page_command
ARM GAS  C:\Users\Jay\AppData\Local\Temp\ccrCOBv6.s 			page 220


 12725 1274 00000000 		.word	handle_dir_next_page_command
 12726 1278 00000000 		.word	handle_dir_up_command
 12727 127c 00000000 		.word	handle_select_command
 12728 1280 00000000 		.word	dat_file
 12729 1284 10E000E0 		.word	-536813552
 12730 1288 00000000 		.word	.LC14
 12731 128c 00000000 		.word	.LANCHOR10
 12732 1290 00000000 		.word	.LANCHOR13
 12733 1294 00000000 		.word	.LANCHOR29
 12734 1298 00000000 		.word	.LANCHOR14
 12735 129c 00000000 		.word	.LANCHOR26
 12736 12a0 00000000 		.word	.LANCHOR31
 12737              	.L2715:
 12738 12a4 08F1FF33 		add	r3, r8, #-1
 12739 12a8 9BB2     		uxth	r3, r3
 12740 12aa 1F2B     		cmp	r3, #31
 12741 12ac 18D8     		bhi	.L2336
 12742 12ae 694A     		ldr	r2, .L2731
 12743 12b0 52F82330 		ldr	r3, [r2, r3, lsl #2]
 12744 12b4 03B1     		cbz	r3, .L2337
 12745 12b6 9847     		blx	r3
 12746              	.L2337:
 12747 12b8 57F82830 		ldr	r3, [r7, r8, lsl #2]
 12748              	.L2338:
 12749 12bc 664A     		ldr	r2, .L2731+4
 12750 12be AC21     		movs	r1, #172
 12751 12c0 D268     		ldr	r2, [r2, #12]
 12752 12c2 0B60     		str	r3, [r1]
 12753 12c4 1107     		lsls	r1, r2, #28
 12754 12c6 01D4     		bmi	.L2339
 12755 12c8 FFF7FEFF 		bl	c64_interface.part.23
 12756              	.L2339:
 12757 12cc 634B     		ldr	r3, .L2731+8
 12758 12ce DFF8D8B1 		ldr	fp, .L2731+84
 12759 12d2 4FF00042 		mov	r2, #-2147483648
 12760 12d6 9A61     		str	r2, [r3, #24]
 12761 12d8 614B     		ldr	r3, .L2731+12
 12762 12da 0193     		str	r3, [sp, #4]
 12763 12dc FFF780B8 		b	.L2340
 12764              	.L2336:
 12765 12e0 B8F1200F 		cmp	r8, #32
 12766 12e4 E8D9     		bls	.L2337
 12767 12e6 0023     		movs	r3, #0
 12768 12e8 E8E7     		b	.L2338
 12769              	.L2652:
 12770 12ea 5B4B     		ldr	r3, .L2731+4
 12771 12ec DB68     		ldr	r3, [r3, #12]
 12772 12ee 1C07     		lsls	r4, r3, #28
 12773 12f0 01D4     		bmi	.L2326
 12774 12f2 FFF7FEFF 		bl	c64_interface.part.23
 12775              	.L2326:
 12776 12f6 5B49     		ldr	r1, .L2731+16
 12777 12f8 5B48     		ldr	r0, .L2731+20
 12778 12fa 5C4C     		ldr	r4, .L2731+24
 12779 12fc FFF7FEFF 		bl	c64_send_command
 12780 1300 80B1     		cbz	r0, .L2718
 12781              	.L2328:
ARM GAS  C:\Users\Jay\AppData\Local\Temp\ccrCOBv6.s 			page 221


 12782 1302 2378     		ldrb	r3, [r4]	@ zero_extendqisi2
 12783 1304 002B     		cmp	r3, #0
 12784 1306 FCD1     		bne	.L2328
 12785 1308 DFF8A091 		ldr	r9, .L2731+88
 12786 130c 99F80030 		ldrb	r3, [r9]	@ zero_extendqisi2
 12787 1310 4023     		movs	r3, #64
 12788 1312 2370     		strb	r3, [r4]
 12789              	.L2329:
 12790 1314 2378     		ldrb	r3, [r4]	@ zero_extendqisi2
 12791 1316 002B     		cmp	r3, #0
 12792 1318 FCD1     		bne	.L2329
 12793 131a 99F80030 		ldrb	r3, [r9]	@ zero_extendqisi2
 12794 131e 4023     		movs	r3, #64
 12795 1320 2370     		strb	r3, [r4]
 12796 1322 01E0     		b	.L2327
 12797              	.L2718:
 12798 1324 DFF88491 		ldr	r9, .L2731+88
 12799              	.L2327:
 12800 1328 4B4B     		ldr	r3, .L2731+4
 12801 132a DA68     		ldr	r2, [r3, #12]
 12802 132c 6FF00801 		mvn	r1, #8
 12803 1330 22F00802 		bic	r2, r2, #8
 12804 1334 DA60     		str	r2, [r3, #12]
 12805 1336 1961     		str	r1, [r3, #16]
 12806 1338 FFF7FEFF 		bl	c64_reset.part.24
 12807 133c B5F80B80 		ldrh	r8, [r5, #11]	@ unaligned
 12808 1340 CCE5     		b	.L2325
 12809              	.L2278:
 12810 1342 4B4B     		ldr	r3, .L2731+28
 12811 1344 297A     		ldrb	r1, [r5, #8]	@ zero_extendqisi2
 12812 1346 1A68     		ldr	r2, [r3]
 12813 1348 89F80010 		strb	r1, [r9]
 12814 134c 42B9     		cbnz	r2, .L2288
 12815 134e 494A     		ldr	r2, .L2731+32
 12816 1350 1A60     		str	r2, [r3]
 12817 1352 494A     		ldr	r2, .L2731+36
 12818 1354 4948     		ldr	r0, .L2731+40
 12819 1356 5860     		str	r0, [r3, #4]
 12820 1358 C3E90222 		strd	r2, r2, [r3, #8]
 12821 135c 4848     		ldr	r0, .L2731+44
 12822 135e 1861     		str	r0, [r3, #16]
 12823              	.L2288:
 12824 1360 D8F80020 		ldr	r2, [r8]
 12825 1364 4748     		ldr	r0, .L2731+48
 12826 1366 DFF848C1 		ldr	ip, .L2731+92
 12827 136a C3F818C0 		str	ip, [r3, #24]
 12828 136e 9A42     		cmp	r2, r3
 12829 1370 18BF     		it	ne
 12830 1372 5A61     		strne	r2, [r3, #20]
 12831 1374 4FF0160C 		mov	ip, #22
 12832 1378 11F0010F 		tst	r1, #1
 12833 137c A3F81CC0 		strh	ip, [r3, #28]	@ movhi
 12834 1380 414A     		ldr	r2, .L2731+52
 12835 1382 4249     		ldr	r1, .L2731+56
 12836 1384 0193     		str	r3, [sp, #4]
 12837 1386 08BF     		it	eq
 12838 1388 0246     		moveq	r2, r0
ARM GAS  C:\Users\Jay\AppData\Local\Temp\ccrCOBv6.s 			page 222


 12839 138a 4148     		ldr	r0, .L2731+60
 12840 138c FFF7FEFF 		bl	sprint
 12841 1390 3F4A     		ldr	r2, .L2731+60
 12842 1392 4049     		ldr	r1, .L2731+64
 12843 1394 3648     		ldr	r0, .L2731+28
 12844 1396 FFF7FEFF 		bl	options_add_text_element
 12845 139a 3F4A     		ldr	r2, .L2731+68
 12846 139c 3F49     		ldr	r1, .L2731+72
 12847 139e 3448     		ldr	r0, .L2731+28
 12848 13a0 FFF7FEFF 		bl	options_add_text_element
 12849 13a4 3E4A     		ldr	r2, .L2731+76
 12850 13a6 3F49     		ldr	r1, .L2731+80
 12851 13a8 3148     		ldr	r0, .L2731+28
 12852 13aa FFF7FEFF 		bl	options_add_text_element
 12853 13ae 019B     		ldr	r3, [sp, #4]
 12854 13b0 2F48     		ldr	r0, .L2731+28
 12855 13b2 1A68     		ldr	r2, [r3]
 12856 13b4 C8F80030 		str	r3, [r8]
 12857 13b8 9047     		blx	r2
 12858 13ba C9E6     		b	.L2268
 12859              	.L2280:
 12860 13bc FFF7FEFF 		bl	c64_send_exit_menu
 12861 13c0 2B7A     		ldrb	r3, [r5, #8]	@ zero_extendqisi2
 12862 13c2 0722     		movs	r2, #7
 12863 13c4 03F00103 		and	r3, r3, #1
 12864 13c8 6A72     		strb	r2, [r5, #9]
 12865              	.L2291:
 12866 13ca 234A     		ldr	r2, .L2731+4
 12867 13cc D168     		ldr	r1, [r2, #12]
 12868 13ce 6FF00800 		mvn	r0, #8
 12869 13d2 21F00801 		bic	r1, r1, #8
 12870 13d6 D160     		str	r1, [r2, #12]
 12871 13d8 1061     		str	r0, [r2, #16]
 12872 13da 002B     		cmp	r3, #0
 12873 13dc 3EF4C1AF 		beq	.L2262
 12874              	.L2462:
 12875 13e0 FFF7FEFF 		bl	save_dat
 12876 13e4 FEF7BDBF 		b	.L2262
 12877              	.L2279:
 12878 13e8 FFF7FEFF 		bl	c64_send_exit_menu
 12879 13ec 2B7A     		ldrb	r3, [r5, #8]	@ zero_extendqisi2
 12880 13ee 0622     		movs	r2, #6
 12881 13f0 03F00103 		and	r3, r3, #1
 12882 13f4 6A72     		strb	r2, [r5, #9]
 12883 13f6 E8E7     		b	.L2291
 12884              	.L2281:
 12885 13f8 FFF7FEFF 		bl	c64_send_exit_menu
 12886 13fc 2B7A     		ldrb	r3, [r5, #8]	@ zero_extendqisi2
 12887 13fe 0822     		movs	r2, #8
 12888 1400 03F00103 		and	r3, r3, #1
 12889 1404 6A72     		strb	r2, [r5, #9]
 12890 1406 E0E7     		b	.L2291
 12891              	.L2276:
 12892 1408 D8F80000 		ldr	r0, [r8]
 12893 140c C368     		ldr	r3, [r0, #12]
 12894 140e 9847     		blx	r3
 12895 1410 9EE6     		b	.L2268
ARM GAS  C:\Users\Jay\AppData\Local\Temp\ccrCOBv6.s 			page 223


 12896              	.L2275:
 12897 1412 D8F80000 		ldr	r0, [r8]
 12898 1416 8368     		ldr	r3, [r0, #8]
 12899 1418 9847     		blx	r3
 12900 141a 99E6     		b	.L2268
 12901              	.L2277:
 12902 141c 2378     		ldrb	r3, [r4]	@ zero_extendqisi2
 12903 141e 002B     		cmp	r3, #0
 12904 1420 FCD1     		bne	.L2277
 12905 1422 9AF80010 		ldrb	r1, [r10]	@ zero_extendqisi2
 12906 1426 C9B2     		uxtb	r1, r1
 12907 1428 D8F80000 		ldr	r0, [r8]
 12908 142c 4022     		movs	r2, #64
 12909 142e 2270     		strb	r2, [r4]
 12910 1430 0369     		ldr	r3, [r0, #16]
 12911 1432 01F03F02 		and	r2, r1, #63
 12912 1436 01F0C001 		and	r1, r1, #192
 12913 143a 9847     		blx	r3
 12914 143c 0028     		cmp	r0, #0
 12915 143e 3FF487AE 		beq	.L2268
 12916 1442 054B     		ldr	r3, .L2731+4
 12917 1444 DA68     		ldr	r2, [r3, #12]
 12918 1446 6FF00801 		mvn	r1, #8
 12919 144a 22F00802 		bic	r2, r2, #8
 12920 144e DA60     		str	r2, [r3, #12]
 12921 1450 1961     		str	r1, [r3, #16]
 12922 1452 C5E7     		b	.L2462
 12923              	.L2732:
 12924              		.align	2
 12925              	.L2731:
 12926 1454 00000000 		.word	.LANCHOR50
 12927 1458 00000140 		.word	1073807360
 12928 145c 00000240 		.word	1073872896
 12929 1460 00000000 		.word	.LANCHOR11
 12930 1464 A4000000 		.word	.LC39
 12931 1468 5C000000 		.word	.LC62
 12932 146c 00000000 		.word	.LANCHOR12
 12933 1470 00000000 		.word	.LANCHOR20
 12934 1474 00000000 		.word	options_dir
 12935 1478 00000000 		.word	options_prev_next_page
 12936 147c 00000000 		.word	options_dir_up
 12937 1480 00000000 		.word	options_select
 12938 1484 04000000 		.word	.LC25
 12939 1488 00000000 		.word	.LC24
 12940 148c 08000000 		.word	.LC26
 12941 1490 00000100 		.word	scratch_buf
 12942 1494 00000000 		.word	settings_basic_change
 12943 1498 38000000 		.word	.LC59
 12944 149c 00000000 		.word	settings_save
 12945 14a0 00000000 		.word	.LC15
 12946 14a4 00000000 		.word	options_prev_dir
 12947 14a8 00000000 		.word	.LANCHOR10
 12948 14ac 00000000 		.word	.LANCHOR13
 12949 14b0 2C000000 		.word	.LC58
 12951              		.global	dat_buffer
 12952              		.comm	dat_file,1024,4
 12953              		.global	usbd_otgfs
ARM GAS  C:\Users\Jay\AppData\Local\Temp\ccrCOBv6.s 			page 224


 12954              		.global	OTGPCTL
 12955              		.global	OTGD
 12956              		.global	OTG
 12957              		.global	APBPrescTable
 12958              		.global	AHBPrescTable
 12959              		.global	SystemCoreClock
 12960              		.section	.bss.card_info,"aw",%nobits
 12961              		.align	2
 12962              		.set	.LANCHOR45,. + 0
 12965              	card_info:
 12966 0000 00000000 		.space	36
 12966      00000000 
 12966      00000000 
 12966      00000000 
 12966      00000000 
 12967              		.section	.bss.card_rca,"aw",%nobits
 12968              		.align	1
 12969              		.set	.LANCHOR0,. + 0
 12972              	card_rca:
 12973 0000 0000     		.space	2
 12974              		.section	.bss.card_type,"aw",%nobits
 12975              		.set	.LANCHOR44,. + 0
 12978              	card_type:
 12979 0000 00       		.space	1
 12980              		.section	.bss.cnt,"aw",%nobits
 12981              		.align	2
 12982              		.set	.LANCHOR5,. + 0
 12985              	cnt:
 12986 0000 00000000 		.space	4
 12987              		.section	.bss.crt_ptr,"aw",%nobits
 12988              		.align	2
 12989              		.set	.LANCHOR7,. + 0
 12992              	crt_ptr:
 12993 0000 00000000 		.space	4
 12994              		.section	.bss.crt_ram_buf,"aw",%nobits
 12995              		.align	2
 12998              	crt_ram_buf:
 12999 0000 00000000 		.space	16384
 12999      00000000 
 12999      00000000 
 12999      00000000 
 12999      00000000 
 13000              		.section	.bss.crt_rom_ptr,"aw",%nobits
 13001              		.align	2
 13002              		.set	.LANCHOR6,. + 0
 13005              	crt_rom_ptr:
 13006 0000 00000000 		.space	4
 13007              		.section	.bss.d64_state,"aw",%nobits
 13008              		.align	2
 13009              		.set	.LANCHOR28,. + 0
 13012              	d64_state:
 13013 0000 00000000 		.space	844
 13013      00000000 
 13013      00000000 
 13013      00000000 
 13013      00000000 
 13014              		.section	.bss.ef3_usb_rx_data,"aw",%nobits
ARM GAS  C:\Users\Jay\AppData\Local\Temp\ccrCOBv6.s 			page 225


 13015              		.set	.LANCHOR11,. + 0
 13018              	ef3_usb_rx_data:
 13019 0000 00       		.space	1
 13020              		.section	.bss.ef3_usb_rx_rdy,"aw",%nobits
 13021              		.set	.LANCHOR10,. + 0
 13024              	ef3_usb_rx_rdy:
 13025 0000 00       		.space	1
 13026              		.section	.bss.ef3_usb_tx_data,"aw",%nobits
 13027              		.set	.LANCHOR13,. + 0
 13030              	ef3_usb_tx_data:
 13031 0000 00       		.space	1
 13032              		.section	.bss.epyx_cycles,"aw",%nobits
 13033              		.align	1
 13034              		.set	.LANCHOR17,. + 0
 13037              	epyx_cycles:
 13038 0000 0000     		.space	2
 13039              		.section	.bss.fc3_register,"aw",%nobits
 13040              		.align	1
 13041              		.set	.LANCHOR9,. + 0
 13044              	fc3_register:
 13045 0000 0000     		.space	2
 13046              		.section	.bss.freezer_button,"aw",%nobits
 13047              		.set	.LANCHOR36,. + 0
 13050              	freezer_button:
 13051 0000 00       		.space	1
 13052              		.section	.bss.freezer_state,"aw",%nobits
 13053              		.set	.LANCHOR34,. + 0
 13056              	freezer_state:
 13057 0000 00       		.space	1
 13058              		.section	.bss.fs,"aw",%nobits
 13059              		.align	2
 13060              		.set	.LANCHOR49,. + 0
 13063              	fs:
 13064 0000 00000000 		.space	568
 13064      00000000 
 13064      00000000 
 13064      00000000 
 13064      00000000 
 13065              		.section	.bss.kcs_register,"aw",%nobits
 13066              		.set	.LANCHOR8,. + 0
 13069              	kcs_register:
 13070 0000 00       		.space	1
 13071              		.section	.bss.menu_state,"aw",%nobits
 13072              		.align	2
 13073              		.set	.LANCHOR14,. + 0
 13076              	menu_state:
 13077 0000 00000000 		.space	4
 13078              		.section	.bss.options_state,"aw",%nobits
 13079              		.align	2
 13080              		.set	.LANCHOR20,. + 0
 13083              	options_state:
 13084 0000 00000000 		.space	32
 13084      00000000 
 13084      00000000 
 13084      00000000 
 13084      00000000 
 13085              		.section	.bss.sd_state,"aw",%nobits
ARM GAS  C:\Users\Jay\AppData\Local\Temp\ccrCOBv6.s 			page 226


 13086              		.align	2
 13087              		.set	.LANCHOR29,. + 0
 13090              	sd_state:
 13091 0000 00000000 		.space	124
 13091      00000000 
 13091      00000000 
 13091      00000000 
 13091      00000000 
 13092              		.section	.bss.settings_flags,"aw",%nobits
 13093              		.set	.LANCHOR31,. + 0
 13096              	settings_flags:
 13097 0000 00       		.space	1
 13098              		.section	.bss.tmpbuf,"aw",%nobits
 13099              		.align	2
 13100              		.set	.LANCHOR4,. + 0
 13103              	tmpbuf:
 13104 0000 00000000 		.space	4
 13105              		.section	.bss.ubuf,"aw",%nobits
 13106              		.align	2
 13107              		.set	.LANCHOR48,. + 0
 13110              	ubuf:
 13111 0000 00000000 		.space	128
 13111      00000000 
 13111      00000000 
 13111      00000000 
 13111      00000000 
 13112              		.section	.bss.udev,"aw",%nobits
 13113              		.align	2
 13114              		.set	.LANCHOR46,. + 0
 13117              	udev:
 13118 0000 00000000 		.space	100
 13118      00000000 
 13118      00000000 
 13118      00000000 
 13118      00000000 
 13119              		.section	.bss.urx_fifo,"aw",%nobits
 13120              		.align	2
 13121              		.set	.LANCHOR27,. + 0
 13124              	urx_fifo:
 13125 0000 00000000 		.space	512
 13125      00000000 
 13125      00000000 
 13125      00000000 
 13125      00000000 
 13126              		.section	.bss.urx_pos,"aw",%nobits
 13127              		.align	2
 13128              		.set	.LANCHOR26,. + 0
 13131              	urx_pos:
 13132 0000 00000000 		.space	4
 13133              		.section	.bss.utx_fifo,"aw",%nobits
 13134              		.align	2
 13135              		.set	.LANCHOR25,. + 0
 13138              	utx_fifo:
 13139 0000 00000000 		.space	512
 13139      00000000 
 13139      00000000 
 13139      00000000 
ARM GAS  C:\Users\Jay\AppData\Local\Temp\ccrCOBv6.s 			page 227


 13139      00000000 
 13140              		.section	.bss.utx_pos,"aw",%nobits
 13141              		.align	2
 13142              		.set	.LANCHOR24,. + 0
 13145              	utx_pos:
 13146 0000 00000000 		.space	4
 13147              		.section	.data.SystemCoreClock,"aw",%progbits
 13148              		.align	2
 13149              		.set	.LANCHOR41,. + 0
 13152              	SystemCoreClock:
 13153 0000 0024F400 		.word	16000000
 13154              		.section	.data.cdc_line,"aw",%progbits
 13155              		.align	2
 13156              		.set	.LANCHOR16,. + 0
 13159              	cdc_line:
 13160 0000 00960000 		.word	38400
 13161 0004 00       		.byte	0
 13162 0005 00       		.byte	0
 13163 0006 08       		.byte	8
 13164              		.section	.data.dstatus,"aw",%progbits
 13165              		.set	.LANCHOR43,. + 0
 13168              	dstatus:
 13169 0000 01       		.byte	1
 13170              		.section	.data.ef3_usb_tx_rdy,"aw",%progbits
 13171              		.set	.LANCHOR12,. + 0
 13174              	ef3_usb_tx_rdy:
 13175 0000 40       		.byte	64
 13176              		.section	.rodata.AHBPrescTable,"a",%progbits
 13177              		.align	2
 13178              		.set	.LANCHOR42,. + 0
 13181              	AHBPrescTable:
 13182 0000 00       		.byte	0
 13183 0001 00       		.byte	0
 13184 0002 00       		.byte	0
 13185 0003 00       		.byte	0
 13186 0004 00       		.byte	0
 13187 0005 00       		.byte	0
 13188 0006 00       		.byte	0
 13189 0007 00       		.byte	0
 13190 0008 01       		.byte	1
 13191 0009 02       		.byte	2
 13192 000a 03       		.byte	3
 13193 000b 04       		.byte	4
 13194 000c 06       		.byte	6
 13195 000d 07       		.byte	7
 13196 000e 08       		.byte	8
 13197 000f 09       		.byte	9
 13198              		.section	.rodata.APBPrescTable,"a",%progbits
 13199              		.align	2
 13202              	APBPrescTable:
 13203 0000 00       		.byte	0
 13204 0001 00       		.byte	0
 13205 0002 00       		.byte	0
 13206 0003 00       		.byte	0
 13207 0004 01       		.byte	1
 13208 0005 02       		.byte	2
 13209 0006 03       		.byte	3
ARM GAS  C:\Users\Jay\AppData\Local\Temp\ccrCOBv6.s 			page 228


 13210 0007 04       		.byte	4
 13211              		.section	.rodata.CSWTCH.479,"a",%progbits
 13212              		.align	2
 13213              		.set	.LANCHOR32,. + 0
 13216              	CSWTCH.479:
 13217 0000 00000000 		.word	crt_handler
 13218 0004 00000000 		.word	ar4x_handler
 13219 0008 00000000 		.word	kcs_handler
 13220 000c 00000000 		.word	fc3_handler
 13221 0010 00000000 		.word	simons_basic_handler
 13222 0014 00000000 		.word	ef_handler
 13223 0018 00000000 		.word	0
 13224 001c 00000000 		.word	magic_desk_handler
 13225 0020 00000000 		.word	0
 13226 0024 00000000 		.word	0
 13227 0028 00000000 		.word	epyx_handler
 13228 002c 00000000 		.word	0
 13229 0030 00000000 		.word	0
 13230 0034 00000000 		.word	0
 13231 0038 00000000 		.word	0
 13232 003c 00000000 		.word	c64gs_handler
 13233 0040 00000000 		.word	0
 13234 0044 00000000 		.word	dinamic_handler
 13235 0048 00000000 		.word	zaxxon_handler
 13236 004c 00000000 		.word	magic_desk_handler
 13237 0050 00000000 		.word	ss5_handler
 13238 0054 00000000 		.word	comal80_handler
 13239 0058 00000000 		.word	0
 13240 005c 00000000 		.word	0
 13241 0060 00000000 		.word	0
 13242 0064 00000000 		.word	0
 13243 0068 00000000 		.word	0
 13244 006c 00000000 		.word	0
 13245 0070 00000000 		.word	0
 13246 0074 00000000 		.word	0
 13247 0078 00000000 		.word	0
 13248 007c 00000000 		.word	0
 13249 0080 00000000 		.word	ef_handler
 13250              		.section	.rodata.CSWTCH.481,"a",%progbits
 13251              		.align	2
 13252              		.set	.LANCHOR50,. + 0
 13255              	CSWTCH.481:
 13256 0000 00000000 		.word	ar4x_init
 13257 0004 00000000 		.word	kcs_init
 13258 0008 00000000 		.word	fc3_init
 13259 000c 00000000 		.word	0
 13260 0010 00000000 		.word	0
 13261 0014 00000000 		.word	0
 13262 0018 00000000 		.word	magic_desk_init
 13263 001c 00000000 		.word	0
 13264 0020 00000000 		.word	0
 13265 0024 00000000 		.word	epyx_init
 13266 0028 00000000 		.word	0
 13267 002c 00000000 		.word	0
 13268 0030 00000000 		.word	0
 13269 0034 00000000 		.word	0
 13270 0038 00000000 		.word	0
ARM GAS  C:\Users\Jay\AppData\Local\Temp\ccrCOBv6.s 			page 229


 13271 003c 00000000 		.word	0
 13272 0040 00000000 		.word	0
 13273 0044 00000000 		.word	zaxxon_init
 13274 0048 00000000 		.word	magic_desk_init
 13275 004c 00000000 		.word	ss5_init
 13276 0050 00000000 		.word	comal80_init
 13277 0054 00000000 		.word	0
 13278 0058 00000000 		.word	0
 13279 005c 00000000 		.word	0
 13280 0060 00000000 		.word	0
 13281 0064 00000000 		.word	0
 13282 0068 00000000 		.word	0
 13283 006c 00000000 		.word	0
 13284 0070 00000000 		.word	0
 13285 0074 00000000 		.word	0
 13286 0078 00000000 		.word	0
 13287 007c 00000000 		.word	ef_init
 13288              		.section	.rodata.CSWTCH.537,"a",%progbits
 13289              		.align	2
 13290              		.set	.LANCHOR23,. + 0
 13293              	CSWTCH.537:
 13294 0000 54000000 		.word	.LC72
 13295 0004 08000000 		.word	.LC16
 13296 0008 08000000 		.word	.LC16
 13297 000c 08000000 		.word	.LC16
 13298 0010 08000000 		.word	.LC16
 13299 0014 08000000 		.word	.LC16
 13300              		.section	.rodata.CSWTCH.538,"a",%progbits
 13301              		.align	2
 13302              		.set	.LANCHOR21,. + 0
 13305              	CSWTCH.538:
 13306 0000 38000000 		.word	.LC69
 13307 0004 40000000 		.word	.LC70
 13308 0008 30000000 		.word	.LC68
 13309 000c 30000000 		.word	.LC68
 13310 0010 38000000 		.word	.LC69
 13311 0014 44000000 		.word	.LC71
 13312              		.section	.rodata.CSWTCH.539,"a",%progbits
 13313              		.align	2
 13314              		.set	.LANCHOR22,. + 0
 13317              	CSWTCH.539:
 13318 0000 00000000 		.word	0
 13319 0004 00000000 		.word	0
 13320 0008 00000000 		.word	0
 13321 000c 00000000 		.word	0
 13322 0010 28000000 		.word	.LC67
 13323 0014 30000000 		.word	.LC68
 13324              		.section	.rodata.OTG,"a",%progbits
 13325              		.align	2
 13328              	OTG:
 13329 0000 00000050 		.word	1342177280
 13330              		.section	.rodata.OTGD,"a",%progbits
 13331              		.align	2
 13334              	OTGD:
 13335 0000 00080050 		.word	1342179328
 13336              		.section	.rodata.OTGPCTL,"a",%progbits
 13337              		.align	2
ARM GAS  C:\Users\Jay\AppData\Local\Temp\ccrCOBv6.s 			page 230


 13340              	OTGPCTL:
 13341 0000 000E0050 		.word	1342180864
 13342              		.section	.rodata.ar4x_mode,"a",%progbits
 13343              		.align	2
 13344              		.set	.LANCHOR39,. + 0
 13347              	ar4x_mode:
 13348 0000 004000A0 		.word	-1610596352
 13349 0004 000000E0 		.word	-536870912
 13350 0008 00C00020 		.word	536920064
 13351 000c 00800060 		.word	1610645504
 13352              		.section	.rodata.auto_boot.str1.4,"aMS",%progbits,1
 13353              		.align	2
 13354              	.LC11:
 13355 0000 2F4B756E 		.ascii	"/KungFuFlash.dat\000"
 13355      67467546 
 13355      6C617368 
 13355      2E646174 
 13355      00
 13356 0011 000000   		.space	3
 13357              	.LC12:
 13358 0014 4B756E67 		.ascii	"KungFu:\001\000"
 13358      46753A01 
 13358      00
 13359 001d 000000   		.space	3
 13360              	.LC13:
 13361 0020 4B756E67 		.ascii	"KungFu:Menu\000"
 13361      46753A4D 
 13361      656E7500 
 13362              		.section	.rodata.c64_send_command.str1.4,"aMS",%progbits,1
 13363              		.align	2
 13364              	.LC10:
 13365 0000 45465354 		.ascii	"EFSTART:\000"
 13365      4152543A 
 13365      00
 13366              		.section	.rodata.c64_send_text.str1.4,"aMS",%progbits,1
 13367              		.align	2
 13368              	.LC19:
 13369 0000 52454144 		.ascii	"READ\000"
 13369      00
 13370              		.section	.rodata.config_desc,"a",%progbits
 13371              		.align	2
 13372              		.set	.LANCHOR2,. + 0
 13375              	config_desc:
 13376 0000 09       		.byte	9
 13377 0001 02       		.byte	2
 13378 0002 4B00     		.short	75
 13379 0004 02       		.byte	2
 13380 0005 01       		.byte	1
 13381 0006 00       		.byte	0
 13382 0007 C0       		.byte	-64
 13383 0008 32       		.byte	50
 13384 0009 08       		.byte	8
 13385 000a 0B       		.byte	11
 13386 000b 00       		.byte	0
 13387 000c 02       		.byte	2
 13388 000d 02       		.byte	2
 13389 000e 02       		.byte	2
ARM GAS  C:\Users\Jay\AppData\Local\Temp\ccrCOBv6.s 			page 231


 13390 000f 00       		.byte	0
 13391 0010 00       		.byte	0
 13392 0011 09       		.byte	9
 13393 0012 04       		.byte	4
 13394 0013 00       		.byte	0
 13395 0014 00       		.byte	0
 13396 0015 01       		.byte	1
 13397 0016 02       		.byte	2
 13398 0017 02       		.byte	2
 13399 0018 00       		.byte	0
 13400 0019 00       		.byte	0
 13401 001a 05       		.byte	5
 13402 001b 24       		.byte	36
 13403 001c 00       		.byte	0
 13404 001d 1001     		.2byte	272
 13405 001f 05       		.byte	5
 13406 0020 24       		.byte	36
 13407 0021 01       		.byte	1
 13408 0022 00       		.byte	0
 13409 0023 01       		.byte	1
 13410 0024 04       		.byte	4
 13411 0025 24       		.byte	36
 13412 0026 02       		.byte	2
 13413 0027 00       		.byte	0
 13414 0028 05       		.byte	5
 13415 0029 24       		.byte	36
 13416 002a 06       		.byte	6
 13417 002b 00       		.byte	0
 13418 002c 01       		.byte	1
 13419 002d 07       		.byte	7
 13420 002e 05       		.byte	5
 13421 002f 82       		.byte	-126
 13422 0030 03       		.byte	3
 13423 0031 0800     		.2byte	8
 13424 0033 FF       		.byte	-1
 13425 0034 09       		.byte	9
 13426 0035 04       		.byte	4
 13427 0036 01       		.byte	1
 13428 0037 00       		.byte	0
 13429 0038 02       		.byte	2
 13430 0039 0A       		.byte	10
 13431 003a 00       		.byte	0
 13432 003b 00       		.byte	0
 13433 003c 00       		.byte	0
 13434 003d 07       		.byte	7
 13435 003e 05       		.byte	5
 13436 003f 01       		.byte	1
 13437 0040 02       		.byte	2
 13438 0041 4000     		.2byte	64
 13439 0043 01       		.byte	1
 13440 0044 07       		.byte	7
 13441 0045 05       		.byte	5
 13442 0046 81       		.byte	-127
 13443 0047 02       		.byte	2
 13444 0048 4000     		.short	64
 13445 004a 01       		.byte	1
 13446              		.section	.rodata.crt_banks,"a",%progbits
ARM GAS  C:\Users\Jay\AppData\Local\Temp\ccrCOBv6.s 			page 232


 13447              		.align	2
 13448              		.set	.LANCHOR18,. + 0
 13451              	crt_banks:
 13452 0000 00000000 		.word	dat_buffer
 13453 0004 00400000 		.word	dat_buffer+16384
 13454 0008 00800000 		.word	dat_buffer+32768
 13455 000c 00C00000 		.word	dat_buffer+49152
 13456 0010 00000108 		.word	134283264
 13457 0014 00400108 		.word	134299648
 13458 0018 00800108 		.word	134316032
 13459 001c 00C00108 		.word	134332416
 13460 0020 00000208 		.word	134348800
 13461 0024 00400208 		.word	134365184
 13462 0028 00800208 		.word	134381568
 13463 002c 00C00208 		.word	134397952
 13464 0030 00000308 		.word	134414336
 13465 0034 00400308 		.word	134430720
 13466 0038 00800308 		.word	134447104
 13467 003c 00C00308 		.word	134463488
 13468 0040 00000408 		.word	134479872
 13469 0044 00400408 		.word	134496256
 13470 0048 00800408 		.word	134512640
 13471 004c 00C00408 		.word	134529024
 13472 0050 00000508 		.word	134545408
 13473 0054 00400508 		.word	134561792
 13474 0058 00800508 		.word	134578176
 13475 005c 00C00508 		.word	134594560
 13476 0060 00000608 		.word	134610944
 13477 0064 00400608 		.word	134627328
 13478 0068 00800608 		.word	134643712
 13479 006c 00C00608 		.word	134660096
 13480 0070 00000708 		.word	134676480
 13481 0074 00400708 		.word	134692864
 13482 0078 00800708 		.word	134709248
 13483 007c 00C00708 		.word	134725632
 13484 0080 00000808 		.word	134742016
 13485 0084 00400808 		.word	134758400
 13486 0088 00800808 		.word	134774784
 13487 008c 00C00808 		.word	134791168
 13488 0090 00000908 		.word	134807552
 13489 0094 00400908 		.word	134823936
 13490 0098 00800908 		.word	134840320
 13491 009c 00C00908 		.word	134856704
 13492 00a0 00000A08 		.word	134873088
 13493 00a4 00400A08 		.word	134889472
 13494 00a8 00800A08 		.word	134905856
 13495 00ac 00C00A08 		.word	134922240
 13496 00b0 00000B08 		.word	134938624
 13497 00b4 00400B08 		.word	134955008
 13498 00b8 00800B08 		.word	134971392
 13499 00bc 00C00B08 		.word	134987776
 13500 00c0 00000C08 		.word	135004160
 13501 00c4 00400C08 		.word	135020544
 13502 00c8 00800C08 		.word	135036928
 13503 00cc 00C00C08 		.word	135053312
 13504 00d0 00000D08 		.word	135069696
 13505 00d4 00400D08 		.word	135086080
ARM GAS  C:\Users\Jay\AppData\Local\Temp\ccrCOBv6.s 			page 233


 13506 00d8 00800D08 		.word	135102464
 13507 00dc 00C00D08 		.word	135118848
 13508 00e0 00000E08 		.word	135135232
 13509 00e4 00400E08 		.word	135151616
 13510 00e8 00800E08 		.word	135168000
 13511 00ec 00C00E08 		.word	135184384
 13512 00f0 00000F08 		.word	135200768
 13513 00f4 00400F08 		.word	135217152
 13514 00f8 00800F08 		.word	135233536
 13515 00fc 00C00F08 		.word	135249920
 13516              		.section	.rodata.crt_ram_banks,"a",%progbits
 13517              		.align	2
 13518              		.set	.LANCHOR38,. + 0
 13521              	crt_ram_banks:
 13522 0000 00000000 		.word	crt_ram_buf
 13523 0004 00200000 		.word	crt_ram_buf+8192
 13524 0008 00000100 		.word	scratch_buf
 13525 000c 00200100 		.word	scratch_buf+8192
 13526              		.section	.rodata.d64_select.str1.4,"aMS",%progbits,1
 13527              		.align	2
 13528              	.LC52:
 13529 0000 2A00     		.ascii	"*\000"
 13530 0002 0000     		.space	2
 13531              	.LC53:
 13532 0004 4C4F4144 		.ascii	"LOAD\"%s\",8,1%cRUN%c\000"
 13532      22257322 
 13532      2C382C31 
 13532      25635255 
 13532      4E256300 
 13533              	.LC54:
 13534 0018 4E6F2050 		.ascii	"No PRG files was found on disk\000"
 13534      52472066 
 13534      696C6573 
 13534      20776173 
 13534      20666F75 
 13535 0037 00       		.space	1
 13536              	.LC55:
 13537 0038 4E6F7420 		.ascii	"Not Found\000"
 13537      466F756E 
 13537      6400
 13538              		.section	.rodata.d64_send_page.str1.4,"aMS",%progbits,1
 13539              		.align	2
 13540              	.LC49:
 13541 0000 202E2E20 		.ascii	" ..                               DIR \000"
 13541      20202020 
 13541      20202020 
 13541      20202020 
 13541      20202020 
 13542 0027 00       		.space	1
 13543              	.LC50:
 13544 0028 202A2020 		.ascii	" *     \000"
 13544      20202000 
 13545              	.LC51:
 13546 0030 202D2D2D 		.ascii	" --- \000"
 13546      2000
 13547              		.section	.rodata.d64_track_offset,"a",%progbits
 13548              		.align	2
ARM GAS  C:\Users\Jay\AppData\Local\Temp\ccrCOBv6.s 			page 234


 13549              		.set	.LANCHOR15,. + 0
 13552              	d64_track_offset:
 13553 0000 0000     		.short	0
 13554 0002 1500     		.short	21
 13555 0004 2A00     		.short	42
 13556 0006 3F00     		.short	63
 13557 0008 5400     		.short	84
 13558 000a 6900     		.short	105
 13559 000c 7E00     		.short	126
 13560 000e 9300     		.short	147
 13561 0010 A800     		.short	168
 13562 0012 BD00     		.short	189
 13563 0014 D200     		.short	210
 13564 0016 E700     		.short	231
 13565 0018 FC00     		.short	252
 13566 001a 1101     		.short	273
 13567 001c 2601     		.short	294
 13568 001e 3B01     		.short	315
 13569 0020 5001     		.short	336
 13570 0022 6501     		.short	357
 13571 0024 7801     		.short	376
 13572 0026 8B01     		.short	395
 13573 0028 9E01     		.short	414
 13574 002a B101     		.short	433
 13575 002c C401     		.short	452
 13576 002e D701     		.short	471
 13577 0030 EA01     		.short	490
 13578 0032 FC01     		.short	508
 13579 0034 0E02     		.short	526
 13580 0036 2002     		.short	544
 13581 0038 3202     		.short	562
 13582 003a 4402     		.short	580
 13583 003c 5602     		.short	598
 13584 003e 6702     		.short	615
 13585 0040 7802     		.short	632
 13586 0042 8902     		.short	649
 13587 0044 9A02     		.short	666
 13588 0046 AB02     		.short	683
 13589 0048 BC02     		.short	700
 13590 004a CD02     		.short	717
 13591 004c DE02     		.short	734
 13592 004e EF02     		.short	751
 13593 0050 0003     		.short	768
 13594 0052 1103     		.short	785
 13595              		.section	.rodata.d64_types,"a",%progbits
 13596              		.align	2
 13597              		.set	.LANCHOR33,. + 0
 13600              	d64_types:
 13601 0000 68000000 		.word	.LC73
 13602 0004 6C000000 		.word	.LC74
 13603 0008 24000000 		.word	.LC9
 13604 000c 70000000 		.word	.LC75
 13605 0010 74000000 		.word	.LC76
 13606 0014 78000000 		.word	.LC77
 13607 0018 7C000000 		.word	.LC78
 13608 001c 7C000000 		.word	.LC78
 13609              		.section	.rodata.device_desc,"a",%progbits
ARM GAS  C:\Users\Jay\AppData\Local\Temp\ccrCOBv6.s 			page 235


 13610              		.align	2
 13611              		.set	.LANCHOR1,. + 0
 13614              	device_desc:
 13615 0000 12       		.byte	18
 13616 0001 01       		.byte	1
 13617 0002 0002     		.short	512
 13618 0004 EF       		.byte	-17
 13619 0005 02       		.byte	2
 13620 0006 01       		.byte	1
 13621 0007 08       		.byte	8
 13622 0008 8304     		.short	1155
 13623 000a 4057     		.short	22336
 13624 000c 0001     		.short	256
 13625 000e 01       		.byte	1
 13626 000f 02       		.byte	2
 13627 0010 FE       		.byte	-2
 13628 0011 01       		.byte	1
 13629              		.section	.rodata.dtable,"a",%progbits
 13630              		.align	2
 13631              		.set	.LANCHOR3,. + 0
 13634              	dtable:
 13635 0000 00000000 		.word	lang_desc
 13636 0004 00000000 		.word	manuf_desc_en
 13637 0008 00000000 		.word	prod_desc_en
 13638              		.section	.rodata.ef_mode,"a",%progbits
 13639              		.align	2
 13640              		.set	.LANCHOR19,. + 0
 13643              	ef_mode:
 13644 0000 00A00040 		.word	1073782784
 13645 0004 00E00000 		.word	57344
 13646 0008 002000C0 		.word	-1073733632
 13647 000c 00600080 		.word	-2147459072
 13648 0010 00800060 		.word	1610645504
 13649 0014 00C00020 		.word	536920064
 13650 0018 000000E0 		.word	-536870912
 13651 001c 004000A0 		.word	-1610596352
 13652              		.section	.rodata.fc3_mode,"a",%progbits
 13653              		.align	2
 13654              		.set	.LANCHOR35,. + 0
 13657              	fc3_mode:
 13658 0000 000000E0 		.word	-536870912
 13659 0004 00800060 		.word	1610645504
 13660 0008 004000A0 		.word	-1610596352
 13661 000c 00C00020 		.word	536920064
 13662 0010 002000C0 		.word	-1073733632
 13663 0014 00A00040 		.word	1073782784
 13664 0018 00600080 		.word	-2147459072
 13665 001c 00E00000 		.word	57344
 13666              		.section	.rodata.handle_dir_up_command.str1.4,"aMS",%progbits,1
 13667              		.align	2
 13668              	.LC30:
 13669 0000 2F00     		.ascii	"/\000"
 13670 0002 0000     		.space	2
 13671              	.LC31:
 13672 0004 2E2E00   		.ascii	"..\000"
 13673              		.section	.rodata.handle_failed_to_read_sd.str1.4,"aMS",%progbits,1
 13674              		.align	2
ARM GAS  C:\Users\Jay\AppData\Local\Temp\ccrCOBv6.s 			page 236


 13675              	.LC20:
 13676 0000 4661696C 		.ascii	"Failed to read SD card\000"
 13676      65642074 
 13676      6F207265 
 13676      61642053 
 13676      44206361 
 13677 0017 00       		.space	1
 13678              	.LC21:
 13679 0018 4D535700 		.ascii	"MSW\000"
 13680              		.section	.rodata.handle_file_options.str1.4,"aMS",%progbits,1
 13681              		.align	2
 13682              	.LC15:
 13683 0000 43616E63 		.ascii	"Cancel\000"
 13683      656C00
 13684 0007 00       		.space	1
 13685              	.LC16:
 13686 0008 46696C65 		.ascii	"File Options\000"
 13686      204F7074 
 13686      696F6E73 
 13686      00
 13687 0015 000000   		.space	3
 13688              	.LC17:
 13689 0018 53656C65 		.ascii	"Select\000"
 13689      637400
 13690              		.section	.rodata.handle_select_command.str1.4,"aMS",%progbits,1
 13691              		.align	2
 13692              	.LC32:
 13693 0000 43363446 		.ascii	"C64File\000"
 13693      696C6500 
 13694              	.LC33:
 13695 0008 46696C65 		.ascii	"File is not supported or invalid\000"
 13695      20697320 
 13695      6E6F7420 
 13695      73757070 
 13695      6F727465 
 13696 0029 000000   		.space	3
 13697              	.LC34:
 13698 002c 556E7375 		.ascii	"Unsupported\000"
 13698      70706F72 
 13698      74656400 
 13699              	.LC35:
 13700 0038 43363420 		.ascii	"C64 CARTRIDGE   \000"
 13700      43415254 
 13700      52494447 
 13700      45202020 
 13700      00
 13701 0049 000000   		.space	3
 13702              	.LC36:
 13703 004c 556E7375 		.ascii	"Unsupported CRT type (%u)\000"
 13703      70706F72 
 13703      74656420 
 13703      43525420 
 13703      74797065 
 13704 0066 0000     		.space	2
 13705              	.LC37:
 13706 0068 50726F67 		.ascii	"Programming flash memory.\000"
 13706      72616D6D 
ARM GAS  C:\Users\Jay\AppData\Local\Temp\ccrCOBv6.s 			page 237


 13706      696E6720 
 13706      666C6173 
 13706      68206D65 
 13707 0082 0000     		.space	2
 13708              	.LC38:
 13709 0084 4661696C 		.ascii	"Failed to read CRT file\015\012\015\012%s\000"
 13709      65642074 
 13709      6F207265 
 13709      61642043 
 13709      52542066 
 13710 00a2 0000     		.space	2
 13711              	.LC39:
 13712 00a4 444F4E45 		.ascii	"DONE\000"
 13712      00
 13713 00a9 000000   		.space	3
 13714              	.LC40:
 13715 00ac 52535400 		.ascii	"RST\000"
 13716              	.LC41:
 13717 00b0 256300   		.ascii	"%c\000"
 13718 00b3 00       		.space	1
 13719              	.LC42:
 13720 00b4 4B756E67 		.ascii	"Kung Fu Flash\000"
 13720      20467520 
 13720      466C6173 
 13720      6800
 13721 00c2 0000     		.space	2
 13722              	.LC43:
 13723 00c4 54686973 		.ascii	"This will upgrade the firmware to\000"
 13723      2077696C 
 13723      6C207570 
 13723      67726164 
 13723      65207468 
 13724 00e6 0000     		.space	2
 13725              	.LC44:
 13726 00e8 4669726D 		.ascii	"Firmware Upgrade\000"
 13726      77617265 
 13726      20557067 
 13726      72616465 
 13726      00
 13727 00f9 000000   		.space	3
 13728              	.LC45:
 13729 00fc 55706772 		.ascii	"Upgrade\000"
 13729      61646500 
 13730              	.LC46:
 13731 0104 55706772 		.ascii	"Upgrading firmware.\000"
 13731      6164696E 
 13731      67206669 
 13731      726D7761 
 13731      72652E00 
 13732              	.LC47:
 13733 0118 54686973 		.ascii	"This file is used by Kung Fu Flash\000"
 13733      2066696C 
 13733      65206973 
 13733      20757365 
 13733      64206279 
 13734 013b 00       		.space	1
 13735              	.LC48:
ARM GAS  C:\Users\Jay\AppData\Local\Temp\ccrCOBv6.s 			page 238


 13736 013c 53797374 		.ascii	"System File\000"
 13736      656D2046 
 13736      696C6500 
 13737              		.section	.rodata.handle_unsupported_ex.str1.4,"aMS",%progbits,1
 13738              		.align	2
 13739              	.LC18:
 13740 0000 4F4B00   		.ascii	"OK\000"
 13741              		.section	.rodata.hex,"a",%progbits
 13742              		.align	2
 13743              		.set	.LANCHOR30,. + 0
 13746              	hex:
 13747 0000 30313233 		.ascii	"0123456789abcdef\000"
 13747      34353637 
 13747      38396162 
 13747      63646566 
 13747      00
 13748              		.section	.rodata.kcs_mode,"a",%progbits
 13749              		.align	2
 13750              		.set	.LANCHOR40,. + 0
 13753              	kcs_mode:
 13754 0000 000000E0 		.word	-536870912
 13755 0004 004000A0 		.word	-1610596352
 13756 0008 00800060 		.word	1610645504
 13757 000c 00E00000 		.word	57344
 13758              		.section	.rodata.lang_desc,"a",%progbits
 13759              		.align	2
 13762              	lang_desc:
 13763 0000 04       		.byte	4
 13764 0001 03       		.byte	3
 13765 0002 0904     		.short	1033
 13766              		.section	.rodata.main.str1.4,"aMS",%progbits,1
 13767              		.align	2
 13768              	.LC56:
 13769 0000 506C6561 		.ascii	"Please insert a FAT formatted SD card\000"
 13769      73652069 
 13769      6E736572 
 13769      74206120 
 13769      46415420 
 13770 0026 0000     		.space	2
 13771              	.LC57:
 13772 0028 4D534700 		.ascii	"MSG\000"
 13773              	.LC58:
 13774 002c 53657474 		.ascii	"Settings\000"
 13774      696E6773 
 13774      00
 13775 0035 000000   		.space	3
 13776              	.LC59:
 13777 0038 53617665 		.ascii	"Save\000"
 13777      00
 13778 003d 000000   		.space	3
 13779              	.LC60:
 13780 0040 4C6F6164 		.ascii	"Loading...\015\012\015\012%s\000"
 13780      696E672E 
 13780      2E2E0D0A 
 13780      0D0A2573 
 13780      00
 13781 0051 000000   		.space	3
ARM GAS  C:\Users\Jay\AppData\Local\Temp\ccrCOBv6.s 			page 239


 13782              	.LC61:
 13783 0054 4C4F4144 		.ascii	"LOAD\000"
 13783      00
 13784 0059 000000   		.space	3
 13785              	.LC62:
 13786 005c 57465200 		.ascii	"WFR\000"
 13787              	.LC63:
 13788 0060 436F6D6D 		.ascii	"Communicating with USB...\000"
 13788      756E6963 
 13788      6174696E 
 13788      67207769 
 13788      74682055 
 13789 007a 0000     		.space	2
 13790              	.LC64:
 13791 007c 4D4E5400 		.ascii	"MNT\000"
 13792              	.LC65:
 13793 0080 424C4F43 		.ascii	"BLOCKS FREE.\000"
 13793      4B532046 
 13793      5245452E 
 13793      00
 13794 008d 000000   		.space	3
 13795              	.LC66:
 13796 0090 30302C20 		.ascii	"00, OK,00,00\015\000"
 13796      4F4B2C30 
 13796      302C3030 
 13796      0D00
 13797              		.section	.rodata.manuf_desc_en,"a",%progbits
 13798              		.align	2
 13801              	manuf_desc_en:
 13802 0000 08       		.byte	8
 13803 0001 03       		.byte	3
 13804 0002 4B005400 		.ascii	"K\000T\000H\000\000\000"
 13804      48000000 
 13805              		.section	.rodata.prod_desc_en,"a",%progbits
 13806              		.align	2
 13809              	prod_desc_en:
 13810 0000 1C       		.byte	28
 13811 0001 03       		.byte	3
 13812 0002 4B007500 		.ascii	"K\000u\000n\000g\000 \000F\000u\000 \000F\000l\000a"
 13812      6E006700 
 13812      20004600 
 13812      75002000 
 13812      46006C00 
 13813 0017 00730068 		.ascii	"\000s\000h\000\000\000"
 13813      000000
 13814              		.section	.rodata.sd_send_page.str1.4,"aMS",%progbits,1
 13815              		.align	2
 13816              	.LC27:
 13817 0000 20646972 		.ascii	" dir \000"
 13817      2000
 13818 0006 0000     		.space	2
 13819              	.LC29:
 13820 0008 25752563 		.ascii	"%u%c \000"
 13820      2000
 13821 000e 0000     		.space	2
 13822              	.LC28:
 13823 0010 424B6D67 		.ascii	"BKmg\000"
ARM GAS  C:\Users\Jay\AppData\Local\Temp\ccrCOBv6.s 			page 240


 13823      00
 13824              		.section	.rodata.settings_basic_change.str1.4,"aMS",%progbits,1
 13825              		.align	2
 13826              	.LC24:
 13827 0000 79657300 		.ascii	"yes\000"
 13828              	.LC25:
 13829 0004 6E6F00   		.ascii	"no\000"
 13830 0007 00       		.space	1
 13831              	.LC26:
 13832 0008 50657273 		.ascii	"Persist BASIC selection: %s\000"
 13832      69737420 
 13832      42415349 
 13832      43207365 
 13832      6C656374 
 13833              		.section	.rodata.settings_save.str1.4,"aMS",%progbits,1
 13834              		.align	2
 13835              	.LC22:
 13836 0000 53617669 		.ascii	"Saving settings.\000"
 13836      6E672073 
 13836      65747469 
 13836      6E67732E 
 13836      00
 13837 0011 000000   		.space	3
 13838              	.LC23:
 13839 0014 4D534600 		.ascii	"MSF\000"
 13840              		.section	.rodata.ss5_mode,"a",%progbits
 13841              		.align	2
 13842              		.set	.LANCHOR37,. + 0
 13845              	ss5_mode:
 13846 0000 00800060 		.word	1610645504
 13847 0004 00C00020 		.word	536920064
 13848 0008 000000E0 		.word	-536870912
 13849 000c 004000A0 		.word	-1610596352
 13850 0010 00A00040 		.word	1073782784
 13851 0014 00E00000 		.word	57344
 13852 0018 002000C0 		.word	-1073733632
 13853 001c 00600080 		.word	-2147459072
 13854              		.section	.rodata.str1.4,"aMS",%progbits,1
 13855              		.align	2
 13856              	.LC0:
 13857 0000 44415400 		.ascii	"DAT\000"
 13858              	.LC1:
 13859 0004 55504400 		.ascii	"UPD\000"
 13860              	.LC2:
 13861 0008 42494E00 		.ascii	"BIN\000"
 13862              	.LC3:
 13863 000c 524F4D00 		.ascii	"ROM\000"
 13864              	.LC4:
 13865 0010 44383100 		.ascii	"D81\000"
 13866              	.LC5:
 13867 0014 44373100 		.ascii	"D71\000"
 13868              	.LC6:
 13869 0018 44363400 		.ascii	"D64\000"
 13870              	.LC7:
 13871 001c 43525400 		.ascii	"CRT\000"
 13872              	.LC8:
 13873 0020 50303000 		.ascii	"P00\000"
ARM GAS  C:\Users\Jay\AppData\Local\Temp\ccrCOBv6.s 			page 241


 13874              	.LC9:
 13875 0024 50524700 		.ascii	"PRG\000"
 13876              	.LC67:
 13877 0028 4D6F756E 		.ascii	"Mount\000"
 13877      7400
 13878 002e 0000     		.space	2
 13879              	.LC68:
 13880 0030 4C6F6164 		.ascii	"Load\000"
 13880      00
 13881 0035 000000   		.space	3
 13882              	.LC69:
 13883 0038 4F70656E 		.ascii	"Open\000"
 13883      00
 13884 003d 000000   		.space	3
 13885              	.LC70:
 13886 0040 52756E00 		.ascii	"Run\000"
 13887              	.LC71:
 13888 0044 4D6F756E 		.ascii	"Mount and load\000"
 13888      7420616E 
 13888      64206C6F 
 13888      616400
 13889 0053 00       		.space	1
 13890              	.LC72:
 13891 0054 44697265 		.ascii	"Directory Options\000"
 13891      63746F72 
 13891      79204F70 
 13891      74696F6E 
 13891      7300
 13892 0066 0000     		.space	2
 13893              	.LC73:
 13894 0068 44454C00 		.ascii	"DEL\000"
 13895              	.LC74:
 13896 006c 53455100 		.ascii	"SEQ\000"
 13897              	.LC75:
 13898 0070 55535200 		.ascii	"USR\000"
 13899              	.LC76:
 13900 0074 52454C00 		.ascii	"REL\000"
 13901              	.LC77:
 13902 0078 43424D00 		.ascii	"CBM\000"
 13903              	.LC78:
 13904 007c 3F3F3F00 		.ascii	"???\000"
 13905              		.section	.rodata.system_restart.str1.4,"aMS",%progbits,1
 13906              		.align	2
 13907              	.LC14:
 13908 0000 00       		.ascii	"\000"
 13909              		.section	.rodata.usbd_otgfs,"a",%progbits
 13910              		.align	2
 13911              		.set	.LANCHOR47,. + 0
 13914              	usbd_otgfs:
 13915 0000 00000000 		.word	getinfo
 13916 0004 00000000 		.word	enable
 13917 0008 00000000 		.word	connect
 13918 000c 00000000 		.word	setaddr
 13919 0010 00000000 		.word	ep_config
 13920 0014 00000000 		.word	ep_deconfig
 13921 0018 00000000 		.word	ep_read
 13922 001c 00000000 		.word	ep_write
ARM GAS  C:\Users\Jay\AppData\Local\Temp\ccrCOBv6.s 			page 242


 13923 0020 00000000 		.word	ep_setstall
 13924 0024 00000000 		.word	ep_isstalled
 13925 0028 00000000 		.word	evt_poll
 13926 002c 00000000 		.word	get_frame
 13927 0030 00000000 		.word	get_serialno_desc
 13928              		.section	.sram,"aw",%progbits
 13929              		.align	2
 13932              	dat_buffer:
 13933 0000 00000000 		.space	65536
 13933      00000000 
 13933      00000000 
 13933      00000000 
 13933      00000000 
 13936              	scratch_buf:
 13937 10000 00000000 		.space	16384
 13937      00000000 
 13937      00000000 
 13937      00000000 
 13937      00000000 
 13938              		.ident	"GCC: (GNU Tools for STM32 7-2018-q2-update.20190328-1800) 7.3.1 20180622 (release) [ARM/em
ARM GAS  C:\Users\Jay\AppData\Local\Temp\ccrCOBv6.s 			page 243


DEFINED SYMBOLS
                            *ABS*:0000000000000000 main.c
C:\Users\Jay\AppData\Local\Temp\ccrCOBv6.s:16     .text.sdio_cmd_send:0000000000000000 $t
C:\Users\Jay\AppData\Local\Temp\ccrCOBv6.s:23     .text.sdio_cmd_send:0000000000000000 sdio_cmd_send
C:\Users\Jay\AppData\Local\Temp\ccrCOBv6.s:111    .text.sdio_cmd_send:00000000000000a0 $d
C:\Users\Jay\AppData\Local\Temp\ccrCOBv6.s:116    .text.usbd_set_address:0000000000000000 $t
C:\Users\Jay\AppData\Local\Temp\ccrCOBv6.s:123    .text.usbd_set_address:0000000000000000 usbd_set_address
C:\Users\Jay\AppData\Local\Temp\ccrCOBv6.s:142    .text.usbd_process_evt:0000000000000000 $t
C:\Users\Jay\AppData\Local\Temp\ccrCOBv6.s:149    .text.usbd_process_evt:0000000000000000 usbd_process_evt
C:\Users\Jay\AppData\Local\Temp\ccrCOBv6.s:199    .text.usbd_process_evt:0000000000000060 $d
C:\Users\Jay\AppData\Local\Temp\ccrCOBv6.s:2536   .text.usbd_process_ep0:0000000000000000 usbd_process_ep0
C:\Users\Jay\AppData\Local\Temp\ccrCOBv6.s:202    .text.setaddr:0000000000000000 $t
C:\Users\Jay\AppData\Local\Temp\ccrCOBv6.s:210    .text.setaddr:0000000000000000 setaddr
C:\Users\Jay\AppData\Local\Temp\ccrCOBv6.s:223    .text.setaddr:0000000000000010 $d
C:\Users\Jay\AppData\Local\Temp\ccrCOBv6.s:226    .text.set_tx_fifo:0000000000000000 $t
C:\Users\Jay\AppData\Local\Temp\ccrCOBv6.s:233    .text.set_tx_fifo:0000000000000000 set_tx_fifo
C:\Users\Jay\AppData\Local\Temp\ccrCOBv6.s:281    .text.ep_deconfig:0000000000000000 $t
C:\Users\Jay\AppData\Local\Temp\ccrCOBv6.s:289    .text.ep_deconfig:0000000000000000 ep_deconfig
C:\Users\Jay\AppData\Local\Temp\ccrCOBv6.s:366    .text.ep_deconfig:00000000000000bc $d
C:\Users\Jay\AppData\Local\Temp\ccrCOBv6.s:369    .text.ep_read:0000000000000000 $t
C:\Users\Jay\AppData\Local\Temp\ccrCOBv6.s:377    .text.ep_read:0000000000000000 ep_read
C:\Users\Jay\AppData\Local\Temp\ccrCOBv6.s:435    .text.ep_read:000000000000006c $d
C:\Users\Jay\AppData\Local\Temp\ccrCOBv6.s:438    .text.ep_write:0000000000000000 $t
C:\Users\Jay\AppData\Local\Temp\ccrCOBv6.s:446    .text.ep_write:0000000000000000 ep_write
C:\Users\Jay\AppData\Local\Temp\ccrCOBv6.s:494    .text.get_frame:0000000000000000 $t
C:\Users\Jay\AppData\Local\Temp\ccrCOBv6.s:502    .text.get_frame:0000000000000000 get_frame
C:\Users\Jay\AppData\Local\Temp\ccrCOBv6.s:513    .text.get_frame:000000000000000c $d
C:\Users\Jay\AppData\Local\Temp\ccrCOBv6.s:516    .text.evt_poll:0000000000000000 $t
C:\Users\Jay\AppData\Local\Temp\ccrCOBv6.s:524    .text.evt_poll:0000000000000000 evt_poll
C:\Users\Jay\AppData\Local\Temp\ccrCOBv6.s:552    .text.evt_poll:000000000000003a $d
C:\Users\Jay\AppData\Local\Temp\ccrCOBv6.s:675    .text.evt_poll:0000000000000138 $d
C:\Users\Jay\AppData\Local\Temp\ccrCOBv6.s:678    .text.get_serialno_desc:0000000000000000 $t
C:\Users\Jay\AppData\Local\Temp\ccrCOBv6.s:686    .text.get_serialno_desc:0000000000000000 get_serialno_desc
C:\Users\Jay\AppData\Local\Temp\ccrCOBv6.s:747    .text.get_serialno_desc:0000000000000078 $d
C:\Users\Jay\AppData\Local\Temp\ccrCOBv6.s:754    .text.cdc_getdesc:0000000000000000 $t
C:\Users\Jay\AppData\Local\Temp\ccrCOBv6.s:761    .text.cdc_getdesc:0000000000000000 cdc_getdesc
C:\Users\Jay\AppData\Local\Temp\ccrCOBv6.s:802    .text.cdc_getdesc:0000000000000040 $d
C:\Users\Jay\AppData\Local\Temp\ccrCOBv6.s:807    .text.flash_sector_program:0000000000000000 $t
C:\Users\Jay\AppData\Local\Temp\ccrCOBv6.s:814    .text.flash_sector_program:0000000000000000 flash_sector_program
C:\Users\Jay\AppData\Local\Temp\ccrCOBv6.s:896    .text.flash_sector_program:000000000000008c $d
C:\Users\Jay\AppData\Local\Temp\ccrCOBv6.s:901    .text.buf_putchar:0000000000000000 $t
C:\Users\Jay\AppData\Local\Temp\ccrCOBv6.s:908    .text.buf_putchar:0000000000000000 buf_putchar
C:\Users\Jay\AppData\Local\Temp\ccrCOBv6.s:925    .text.buf_putchar:0000000000000018 $d
C:\Users\Jay\AppData\Local\Temp\ccrCOBv6.s:929    .text.d64_image_type:0000000000000000 $t
C:\Users\Jay\AppData\Local\Temp\ccrCOBv6.s:936    .text.d64_image_type:0000000000000000 d64_image_type
C:\Users\Jay\AppData\Local\Temp\ccrCOBv6.s:990    .text.d64_image_type:0000000000000058 $d
C:\Users\Jay\AppData\Local\Temp\ccrCOBv6.s:999    .text.get_file_type:0000000000000000 $t
C:\Users\Jay\AppData\Local\Temp\ccrCOBv6.s:1006   .text.get_file_type:0000000000000000 get_file_type
C:\Users\Jay\AppData\Local\Temp\ccrCOBv6.s:1287   .text.get_file_type:0000000000000230 $d
C:\Users\Jay\AppData\Local\Temp\ccrCOBv6.s:1299   .text.ar4x_init:0000000000000000 $t
C:\Users\Jay\AppData\Local\Temp\ccrCOBv6.s:1306   .text.ar4x_init:0000000000000000 ar4x_init
C:\Users\Jay\AppData\Local\Temp\ccrCOBv6.s:1321   .text.ar4x_init:0000000000000010 $d
C:\Users\Jay\AppData\Local\Temp\ccrCOBv6.s:1327   .text.kcs_init:0000000000000000 $t
C:\Users\Jay\AppData\Local\Temp\ccrCOBv6.s:1334   .text.kcs_init:0000000000000000 kcs_init
C:\Users\Jay\AppData\Local\Temp\ccrCOBv6.s:1353   .text.kcs_init:000000000000001c $d
C:\Users\Jay\AppData\Local\Temp\ccrCOBv6.s:13932  .sram:0000000000000000 dat_buffer
C:\Users\Jay\AppData\Local\Temp\ccrCOBv6.s:1359   .text.fc3_init:0000000000000000 $t
ARM GAS  C:\Users\Jay\AppData\Local\Temp\ccrCOBv6.s 			page 244


C:\Users\Jay\AppData\Local\Temp\ccrCOBv6.s:1366   .text.fc3_init:0000000000000000 fc3_init
C:\Users\Jay\AppData\Local\Temp\ccrCOBv6.s:1385   .text.fc3_init:0000000000000020 $d
C:\Users\Jay\AppData\Local\Temp\ccrCOBv6.s:1390   .text.epyx_init:0000000000000000 $t
C:\Users\Jay\AppData\Local\Temp\ccrCOBv6.s:1397   .text.epyx_init:0000000000000000 epyx_init
C:\Users\Jay\AppData\Local\Temp\ccrCOBv6.s:1408   .text.epyx_init:0000000000000008 $d
C:\Users\Jay\AppData\Local\Temp\ccrCOBv6.s:1412   .text.zaxxon_init:0000000000000000 $t
C:\Users\Jay\AppData\Local\Temp\ccrCOBv6.s:1419   .text.zaxxon_init:0000000000000000 zaxxon_init
C:\Users\Jay\AppData\Local\Temp\ccrCOBv6.s:1433   .text.zaxxon_init:0000000000000010 $d
C:\Users\Jay\AppData\Local\Temp\ccrCOBv6.s:1438   .text.ss5_init:0000000000000000 $t
C:\Users\Jay\AppData\Local\Temp\ccrCOBv6.s:1445   .text.ss5_init:0000000000000000 ss5_init
C:\Users\Jay\AppData\Local\Temp\ccrCOBv6.s:1464   .text.ss5_init:0000000000000018 $d
C:\Users\Jay\AppData\Local\Temp\ccrCOBv6.s:12998  .bss.crt_ram_buf:0000000000000000 crt_ram_buf
C:\Users\Jay\AppData\Local\Temp\ccrCOBv6.s:1472   .text.ef_init:0000000000000000 $t
C:\Users\Jay\AppData\Local\Temp\ccrCOBv6.s:1479   .text.ef_init:0000000000000000 ef_init
C:\Users\Jay\AppData\Local\Temp\ccrCOBv6.s:1490   .text.ef_init:0000000000000008 $d
C:\Users\Jay\AppData\Local\Temp\ccrCOBv6.s:1494   .text.comal80_init:0000000000000000 $t
C:\Users\Jay\AppData\Local\Temp\ccrCOBv6.s:1501   .text.comal80_init:0000000000000000 comal80_init
C:\Users\Jay\AppData\Local\Temp\ccrCOBv6.s:1512   .text.comal80_init:000000000000000c $d
C:\Users\Jay\AppData\Local\Temp\ccrCOBv6.s:1515   .text.c64_send_exit_menu:0000000000000000 $t
C:\Users\Jay\AppData\Local\Temp\ccrCOBv6.s:1522   .text.c64_send_exit_menu:0000000000000000 c64_send_exit_menu
C:\Users\Jay\AppData\Local\Temp\ccrCOBv6.s:1558   .text.c64_send_exit_menu:0000000000000038 $d
C:\Users\Jay\AppData\Local\Temp\ccrCOBv6.s:1564   .text.options_dir_up:0000000000000000 $t
C:\Users\Jay\AppData\Local\Temp\ccrCOBv6.s:1571   .text.options_dir_up:0000000000000000 options_dir_up
C:\Users\Jay\AppData\Local\Temp\ccrCOBv6.s:1588   .text.options_dir_up:0000000000000014 $d
C:\Users\Jay\AppData\Local\Temp\ccrCOBv6.s:1591   .text.options_prev_select:0000000000000000 $t
C:\Users\Jay\AppData\Local\Temp\ccrCOBv6.s:1598   .text.options_prev_select:0000000000000000 options_prev_select
C:\Users\Jay\AppData\Local\Temp\ccrCOBv6.s:1617   .text.options_prev_select:000000000000001c $d
C:\Users\Jay\AppData\Local\Temp\ccrCOBv6.s:1620   .text.options_prev_dir:0000000000000000 $t
C:\Users\Jay\AppData\Local\Temp\ccrCOBv6.s:1627   .text.options_prev_dir:0000000000000000 options_prev_dir
C:\Users\Jay\AppData\Local\Temp\ccrCOBv6.s:1641   .text.options_prev_dir:0000000000000010 $d
C:\Users\Jay\AppData\Local\Temp\ccrCOBv6.s:1644   .text.reply_page_end:0000000000000000 $t
C:\Users\Jay\AppData\Local\Temp\ccrCOBv6.s:1651   .text.reply_page_end:0000000000000000 reply_page_end
C:\Users\Jay\AppData\Local\Temp\ccrCOBv6.s:1686   .text.reply_page_end:0000000000000038 $d
C:\Users\Jay\AppData\Local\Temp\ccrCOBv6.s:13936  .sram:0000000000010000 scratch_buf
C:\Users\Jay\AppData\Local\Temp\ccrCOBv6.s:1691   .text.options_prev_next_page:0000000000000000 $t
C:\Users\Jay\AppData\Local\Temp\ccrCOBv6.s:1698   .text.options_prev_next_page:0000000000000000 options_prev_next_page
C:\Users\Jay\AppData\Local\Temp\ccrCOBv6.s:1705   .text.disk_filename_match:0000000000000000 $t
C:\Users\Jay\AppData\Local\Temp\ccrCOBv6.s:1712   .text.disk_filename_match:0000000000000000 disk_filename_match
C:\Users\Jay\AppData\Local\Temp\ccrCOBv6.s:1752   .text.disk_parse_filename:0000000000000000 $t
C:\Users\Jay\AppData\Local\Temp\ccrCOBv6.s:1759   .text.disk_parse_filename:0000000000000000 disk_parse_filename
C:\Users\Jay\AppData\Local\Temp\ccrCOBv6.s:1846   .text.disk_send_prg:0000000000000000 $t
C:\Users\Jay\AppData\Local\Temp\ccrCOBv6.s:1853   .text.disk_send_prg:0000000000000000 disk_send_prg
C:\Users\Jay\AppData\Local\Temp\ccrCOBv6.s:1888   .text.disk_send_prg:0000000000000038 $d
C:\Users\Jay\AppData\Local\Temp\ccrCOBv6.s:1892   .text.disk_send_prg_bank:0000000000000000 $t
C:\Users\Jay\AppData\Local\Temp\ccrCOBv6.s:1899   .text.disk_send_prg_bank:0000000000000000 disk_send_prg_bank
C:\Users\Jay\AppData\Local\Temp\ccrCOBv6.s:1935   .text.disk_send_prg_bank:0000000000000038 $d
C:\Users\Jay\AppData\Local\Temp\ccrCOBv6.s:1939   .text.c64_send_command:0000000000000000 $t
C:\Users\Jay\AppData\Local\Temp\ccrCOBv6.s:1946   .text.c64_send_command:0000000000000000 c64_send_command
C:\Users\Jay\AppData\Local\Temp\ccrCOBv6.s:2005   .text.c64_send_command:0000000000000070 $d
C:\Users\Jay\AppData\Local\Temp\ccrCOBv6.s:2012   .text.c64_receive_command:0000000000000000 $t
C:\Users\Jay\AppData\Local\Temp\ccrCOBv6.s:2019   .text.c64_receive_command:0000000000000000 c64_receive_command
C:\Users\Jay\AppData\Local\Temp\ccrCOBv6.s:2053   .text.c64_receive_command:000000000000003c $d
C:\Users\Jay\AppData\Local\Temp\ccrCOBv6.s:2058   .text.prg_load_file:0000000000000000 $t
C:\Users\Jay\AppData\Local\Temp\ccrCOBv6.s:2065   .text.prg_load_file:0000000000000000 prg_load_file
C:\Users\Jay\AppData\Local\Temp\ccrCOBv6.s:2102   .text.prg_load_file:0000000000000048 $d
                            *COM*:0000000000000400 dat_file
C:\Users\Jay\AppData\Local\Temp\ccrCOBv6.s:2107   .text.auto_boot:0000000000000000 $t
ARM GAS  C:\Users\Jay\AppData\Local\Temp\ccrCOBv6.s 			page 245


C:\Users\Jay\AppData\Local\Temp\ccrCOBv6.s:2114   .text.auto_boot:0000000000000000 auto_boot
C:\Users\Jay\AppData\Local\Temp\ccrCOBv6.s:2220   .text.auto_boot:00000000000000d8 $d
C:\Users\Jay\AppData\Local\Temp\ccrCOBv6.s:2231   .text.d64_read_next_sector:0000000000000000 $t
C:\Users\Jay\AppData\Local\Temp\ccrCOBv6.s:2238   .text.d64_read_next_sector:0000000000000000 d64_read_next_sector
C:\Users\Jay\AppData\Local\Temp\ccrCOBv6.s:2317   .text.d64_read_next_sector:0000000000000090 $d
C:\Users\Jay\AppData\Local\Temp\ccrCOBv6.s:2322   .text.d64_read_dir:0000000000000000 $t
C:\Users\Jay\AppData\Local\Temp\ccrCOBv6.s:2329   .text.d64_read_dir:0000000000000000 d64_read_dir
C:\Users\Jay\AppData\Local\Temp\ccrCOBv6.s:2380   .text.save_dat:0000000000000000 $t
C:\Users\Jay\AppData\Local\Temp\ccrCOBv6.s:2387   .text.save_dat:0000000000000000 save_dat
C:\Users\Jay\AppData\Local\Temp\ccrCOBv6.s:2453   .text.save_dat:0000000000000084 $d
C:\Users\Jay\AppData\Local\Temp\ccrCOBv6.s:2459   .text.usbd_process_eptx:0000000000000000 $t
C:\Users\Jay\AppData\Local\Temp\ccrCOBv6.s:2466   .text.usbd_process_eptx:0000000000000000 usbd_process_eptx
C:\Users\Jay\AppData\Local\Temp\ccrCOBv6.s:2477   .text.usbd_process_eptx:0000000000000012 $d
C:\Users\Jay\AppData\Local\Temp\ccrCOBv6.s:2481   .text.usbd_process_eptx:0000000000000016 $t
C:\Users\Jay\AppData\Local\Temp\ccrCOBv6.s:2529   .text.usbd_process_ep0:0000000000000000 $t
C:\Users\Jay\AppData\Local\Temp\ccrCOBv6.s:2728   .text.usbd_process_ep0:0000000000000198 $d
C:\Users\Jay\AppData\Local\Temp\ccrCOBv6.s:2738   .text.usbd_process_ep0:00000000000001c0 $t
C:\Users\Jay\AppData\Local\Temp\ccrCOBv6.s:2845   .text.usbd_process_ep0:0000000000000294 $d
C:\Users\Jay\AppData\Local\Temp\ccrCOBv6.s:2848   .text.getinfo:0000000000000000 $t
C:\Users\Jay\AppData\Local\Temp\ccrCOBv6.s:2856   .text.getinfo:0000000000000000 getinfo
C:\Users\Jay\AppData\Local\Temp\ccrCOBv6.s:2877   .text.getinfo:000000000000001c $d
C:\Users\Jay\AppData\Local\Temp\ccrCOBv6.s:2881   .text.ep_setstall:0000000000000000 $t
C:\Users\Jay\AppData\Local\Temp\ccrCOBv6.s:2889   .text.ep_setstall:0000000000000000 ep_setstall
C:\Users\Jay\AppData\Local\Temp\ccrCOBv6.s:2928   .text.ep_isstalled:0000000000000000 $t
C:\Users\Jay\AppData\Local\Temp\ccrCOBv6.s:2936   .text.ep_isstalled:0000000000000000 ep_isstalled
C:\Users\Jay\AppData\Local\Temp\ccrCOBv6.s:2956   .text.enable:0000000000000000 $t
C:\Users\Jay\AppData\Local\Temp\ccrCOBv6.s:2964   .text.enable:0000000000000000 enable
C:\Users\Jay\AppData\Local\Temp\ccrCOBv6.s:3059   .text.enable:00000000000000a8 $d
C:\Users\Jay\AppData\Local\Temp\ccrCOBv6.s:3066   .text.connect:0000000000000000 $t
C:\Users\Jay\AppData\Local\Temp\ccrCOBv6.s:3074   .text.connect:0000000000000000 connect
C:\Users\Jay\AppData\Local\Temp\ccrCOBv6.s:3103   .text.connect:0000000000000038 $d
C:\Users\Jay\AppData\Local\Temp\ccrCOBv6.s:3106   .text.ep_config:0000000000000000 $t
C:\Users\Jay\AppData\Local\Temp\ccrCOBv6.s:3114   .text.ep_config:0000000000000000 ep_config
C:\Users\Jay\AppData\Local\Temp\ccrCOBv6.s:3258   .text.ep_config:0000000000000130 $d
C:\Users\Jay\AppData\Local\Temp\ccrCOBv6.s:3273   .text.cdc_control:0000000000000000 $t
C:\Users\Jay\AppData\Local\Temp\ccrCOBv6.s:3280   .text.cdc_control:0000000000000000 cdc_control
C:\Users\Jay\AppData\Local\Temp\ccrCOBv6.s:3324   .text.cdc_control:0000000000000048 $d
C:\Users\Jay\AppData\Local\Temp\ccrCOBv6.s:3327   .text.cdc_setconf:0000000000000000 $t
C:\Users\Jay\AppData\Local\Temp\ccrCOBv6.s:3334   .text.cdc_setconf:0000000000000000 cdc_setconf
C:\Users\Jay\AppData\Local\Temp\ccrCOBv6.s:3393   .text.cdc_setconf:0000000000000068 $d
C:\Users\Jay\AppData\Local\Temp\ccrCOBv6.s:4814   .text.cdc_rx_tx:0000000000000000 cdc_rx_tx
C:\Users\Jay\AppData\Local\Temp\ccrCOBv6.s:3396   .text.c64_interface.part.23:0000000000000000 $t
C:\Users\Jay\AppData\Local\Temp\ccrCOBv6.s:3403   .text.c64_interface.part.23:0000000000000000 c64_interface.part.23
C:\Users\Jay\AppData\Local\Temp\ccrCOBv6.s:3458   .text.c64_interface.part.23:0000000000000064 $d
C:\Users\Jay\AppData\Local\Temp\ccrCOBv6.s:3463   .text.c64_reset.part.24:0000000000000000 $t
C:\Users\Jay\AppData\Local\Temp\ccrCOBv6.s:3470   .text.c64_reset.part.24:0000000000000000 c64_reset.part.24
C:\Users\Jay\AppData\Local\Temp\ccrCOBv6.s:3493   .text.c64_reset.part.24:0000000000000024 $d
C:\Users\Jay\AppData\Local\Temp\ccrCOBv6.s:3497   .text.system_restart:0000000000000000 $t
C:\Users\Jay\AppData\Local\Temp\ccrCOBv6.s:3504   .text.system_restart:0000000000000000 system_restart
C:\Users\Jay\AppData\Local\Temp\ccrCOBv6.s:3552   .text.system_restart:0000000000000040 $d
C:\Users\Jay\AppData\Local\Temp\ccrCOBv6.s:3559   .text.restart_to_menu:0000000000000000 $t
C:\Users\Jay\AppData\Local\Temp\ccrCOBv6.s:3566   .text.restart_to_menu:0000000000000000 restart_to_menu
C:\Users\Jay\AppData\Local\Temp\ccrCOBv6.s:3579   .text.restart_to_menu:0000000000000010 $d
C:\Users\Jay\AppData\Local\Temp\ccrCOBv6.s:3583   .text.simons_basic_handler:0000000000000000 $t
C:\Users\Jay\AppData\Local\Temp\ccrCOBv6.s:3591   .text.simons_basic_handler:0000000000000000 simons_basic_handler
C:\Users\Jay\AppData\Local\Temp\ccrCOBv6.s:3653   .text.simons_basic_handler:0000000000000070 $d
C:\Users\Jay\AppData\Local\Temp\ccrCOBv6.s:3661   .text.epyx_handler.part.38:0000000000000000 $t
ARM GAS  C:\Users\Jay\AppData\Local\Temp\ccrCOBv6.s 			page 246


C:\Users\Jay\AppData\Local\Temp\ccrCOBv6.s:3668   .text.epyx_handler.part.38:0000000000000000 epyx_handler.part.38
C:\Users\Jay\AppData\Local\Temp\ccrCOBv6.s:3684   .text.epyx_handler.part.38:0000000000000010 $d
C:\Users\Jay\AppData\Local\Temp\ccrCOBv6.s:3668   .text.epyx_handler.part.38:0000000000000000 comal80_handler.part.54
C:\Users\Jay\AppData\Local\Temp\ccrCOBv6.s:3668   .text.epyx_handler.part.38:0000000000000000 ef_launcher_handler.part.51
C:\Users\Jay\AppData\Local\Temp\ccrCOBv6.s:3668   .text.epyx_handler.part.38:0000000000000000 zaxxon_handler.part.44
C:\Users\Jay\AppData\Local\Temp\ccrCOBv6.s:3691   .text.epyx_handler:0000000000000000 $t
C:\Users\Jay\AppData\Local\Temp\ccrCOBv6.s:3699   .text.epyx_handler:0000000000000000 epyx_handler
C:\Users\Jay\AppData\Local\Temp\ccrCOBv6.s:3784   .text.epyx_handler:00000000000000a8 $d
C:\Users\Jay\AppData\Local\Temp\ccrCOBv6.s:3793   .text.c64gs_handler:0000000000000000 $t
C:\Users\Jay\AppData\Local\Temp\ccrCOBv6.s:3801   .text.c64gs_handler:0000000000000000 c64gs_handler
C:\Users\Jay\AppData\Local\Temp\ccrCOBv6.s:3866   .text.c64gs_handler:0000000000000074 $d
C:\Users\Jay\AppData\Local\Temp\ccrCOBv6.s:3876   .text.dinamic_handler:0000000000000000 $t
C:\Users\Jay\AppData\Local\Temp\ccrCOBv6.s:3884   .text.dinamic_handler:0000000000000000 dinamic_handler
C:\Users\Jay\AppData\Local\Temp\ccrCOBv6.s:3943   .text.dinamic_handler:000000000000006c $d
C:\Users\Jay\AppData\Local\Temp\ccrCOBv6.s:3952   .text.zaxxon_handler:0000000000000000 $t
C:\Users\Jay\AppData\Local\Temp\ccrCOBv6.s:3960   .text.zaxxon_handler:0000000000000000 zaxxon_handler
C:\Users\Jay\AppData\Local\Temp\ccrCOBv6.s:4024   .text.zaxxon_handler:000000000000007c $d
C:\Users\Jay\AppData\Local\Temp\ccrCOBv6.s:4033   .text.magic_desk_handler:0000000000000000 $t
C:\Users\Jay\AppData\Local\Temp\ccrCOBv6.s:4041   .text.magic_desk_handler:0000000000000000 magic_desk_handler
C:\Users\Jay\AppData\Local\Temp\ccrCOBv6.s:4105   .text.magic_desk_handler:0000000000000078 $d
C:\Users\Jay\AppData\Local\Temp\ccrCOBv6.s:4114   .text.ef_launcher_handler:0000000000000000 $t
C:\Users\Jay\AppData\Local\Temp\ccrCOBv6.s:4122   .text.ef_launcher_handler:0000000000000000 ef_launcher_handler
C:\Users\Jay\AppData\Local\Temp\ccrCOBv6.s:4253   .text.ef_launcher_handler:000000000000010c $d
C:\Users\Jay\AppData\Local\Temp\ccrCOBv6.s:4267   .text.comal80_handler:0000000000000000 $t
C:\Users\Jay\AppData\Local\Temp\ccrCOBv6.s:4275   .text.comal80_handler:0000000000000000 comal80_handler
C:\Users\Jay\AppData\Local\Temp\ccrCOBv6.s:4332   .text.comal80_handler:0000000000000078 $d
C:\Users\Jay\AppData\Local\Temp\ccrCOBv6.s:4340   .text.to_petscii_pad:0000000000000000 $t
C:\Users\Jay\AppData\Local\Temp\ccrCOBv6.s:4347   .text.to_petscii_pad:0000000000000000 to_petscii_pad
C:\Users\Jay\AppData\Local\Temp\ccrCOBv6.s:4397   .text.options_add_text_element:0000000000000000 $t
C:\Users\Jay\AppData\Local\Temp\ccrCOBv6.s:4404   .text.options_add_text_element:0000000000000000 options_add_text_element
C:\Users\Jay\AppData\Local\Temp\ccrCOBv6.s:4455   .text.options_add_text_element:000000000000005c $d
C:\Users\Jay\AppData\Local\Temp\ccrCOBv6.s:4458   .text.options_add_text_block:0000000000000000 $t
C:\Users\Jay\AppData\Local\Temp\ccrCOBv6.s:4465   .text.options_add_text_block:0000000000000000 options_add_text_block
C:\Users\Jay\AppData\Local\Temp\ccrCOBv6.s:4504   .text.options_add_text_block:0000000000000058 $d
C:\Users\Jay\AppData\Local\Temp\ccrCOBv6.s:4508   .text.build_options:0000000000000000 $t
C:\Users\Jay\AppData\Local\Temp\ccrCOBv6.s:4515   .text.build_options:0000000000000000 build_options
C:\Users\Jay\AppData\Local\Temp\ccrCOBv6.s:4554   .text.build_options:0000000000000048 $d
C:\Users\Jay\AppData\Local\Temp\ccrCOBv6.s:4678   .text.options_dir:0000000000000000 options_dir
C:\Users\Jay\AppData\Local\Temp\ccrCOBv6.s:4777   .text.options_select:0000000000000000 options_select
C:\Users\Jay\AppData\Local\Temp\ccrCOBv6.s:4563   .text.handle_file_options:0000000000000000 $t
C:\Users\Jay\AppData\Local\Temp\ccrCOBv6.s:4570   .text.handle_file_options:0000000000000000 handle_file_options
C:\Users\Jay\AppData\Local\Temp\ccrCOBv6.s:4626   .text.handle_file_options:0000000000000084 $d
C:\Users\Jay\AppData\Local\Temp\ccrCOBv6.s:4637   .text.handle_unsupported_ex:0000000000000000 $t
C:\Users\Jay\AppData\Local\Temp\ccrCOBv6.s:4644   .text.handle_unsupported_ex:0000000000000000 handle_unsupported_ex
C:\Users\Jay\AppData\Local\Temp\ccrCOBv6.s:4666   .text.handle_unsupported_ex:0000000000000028 $d
C:\Users\Jay\AppData\Local\Temp\ccrCOBv6.s:4671   .text.options_dir:0000000000000000 $t
C:\Users\Jay\AppData\Local\Temp\ccrCOBv6.s:4764   .text.options_dir:00000000000000b4 $d
C:\Users\Jay\AppData\Local\Temp\ccrCOBv6.s:4770   .text.options_select:0000000000000000 $t
C:\Users\Jay\AppData\Local\Temp\ccrCOBv6.s:4804   .text.options_select:0000000000000034 $d
C:\Users\Jay\AppData\Local\Temp\ccrCOBv6.s:4807   .text.cdc_rx_tx:0000000000000000 $t
C:\Users\Jay\AppData\Local\Temp\ccrCOBv6.s:4875   .text.cdc_rx_tx:0000000000000074 $d
C:\Users\Jay\AppData\Local\Temp\ccrCOBv6.s:4881   .text.chdir_last.part.66:0000000000000000 $t
C:\Users\Jay\AppData\Local\Temp\ccrCOBv6.s:4888   .text.chdir_last.part.66:0000000000000000 chdir_last.part.66
C:\Users\Jay\AppData\Local\Temp\ccrCOBv6.s:4911   .text.chdir_last.part.66:0000000000000028 $d
C:\Users\Jay\AppData\Local\Temp\ccrCOBv6.s:4916   .text.d64_dir_up:0000000000000000 $t
C:\Users\Jay\AppData\Local\Temp\ccrCOBv6.s:4923   .text.d64_dir_up:0000000000000000 d64_dir_up
C:\Users\Jay\AppData\Local\Temp\ccrCOBv6.s:4952   .text.d64_dir_up:0000000000000038 $d
ARM GAS  C:\Users\Jay\AppData\Local\Temp\ccrCOBv6.s 			page 247


C:\Users\Jay\AppData\Local\Temp\ccrCOBv6.s:4959   .text.d64_read_file_sector:0000000000000000 $t
C:\Users\Jay\AppData\Local\Temp\ccrCOBv6.s:4966   .text.d64_read_file_sector:0000000000000000 d64_read_file_sector
C:\Users\Jay\AppData\Local\Temp\ccrCOBv6.s:4993   .text.d64_read_disk_header:0000000000000000 $t
C:\Users\Jay\AppData\Local\Temp\ccrCOBv6.s:5000   .text.d64_read_disk_header:0000000000000000 d64_read_disk_header
C:\Users\Jay\AppData\Local\Temp\ccrCOBv6.s:5045   .text.disk_find_file.constprop.81:0000000000000000 $t
C:\Users\Jay\AppData\Local\Temp\ccrCOBv6.s:5052   .text.disk_find_file.constprop.81:0000000000000000 disk_find_file.constprop.81
C:\Users\Jay\AppData\Local\Temp\ccrCOBv6.s:5091   .text.disk_find_file.constprop.81:0000000000000054 $d
C:\Users\Jay\AppData\Local\Temp\ccrCOBv6.s:5095   .text.format_path.constprop.88:0000000000000000 $t
C:\Users\Jay\AppData\Local\Temp\ccrCOBv6.s:5102   .text.format_path.constprop.88:0000000000000000 format_path.constprop.88
C:\Users\Jay\AppData\Local\Temp\ccrCOBv6.s:5216   .text.format_path.constprop.88:00000000000000e0 $d
C:\Users\Jay\AppData\Local\Temp\ccrCOBv6.s:5223   .text.d64_open.constprop.89:0000000000000000 $t
C:\Users\Jay\AppData\Local\Temp\ccrCOBv6.s:5230   .text.d64_open.constprop.89:0000000000000000 d64_open.constprop.89
C:\Users\Jay\AppData\Local\Temp\ccrCOBv6.s:5273   .text.d64_open.constprop.89:0000000000000060 $d
C:\Users\Jay\AppData\Local\Temp\ccrCOBv6.s:5278   .text.printhex.constprop.94:0000000000000000 $t
C:\Users\Jay\AppData\Local\Temp\ccrCOBv6.s:5285   .text.printhex.constprop.94:0000000000000000 printhex.constprop.94
C:\Users\Jay\AppData\Local\Temp\ccrCOBv6.s:5333   .text.printhex.constprop.94:000000000000005c $d
C:\Users\Jay\AppData\Local\Temp\ccrCOBv6.s:5336   .text.sdio_check_tran.constprop.96:0000000000000000 $t
C:\Users\Jay\AppData\Local\Temp\ccrCOBv6.s:5343   .text.sdio_check_tran.constprop.96:0000000000000000 sdio_check_tran.constprop.96
C:\Users\Jay\AppData\Local\Temp\ccrCOBv6.s:5381   .text.sdio_check_tran.constprop.96:0000000000000044 $d
C:\Users\Jay\AppData\Local\Temp\ccrCOBv6.s:5386   .text.magic_desk_init:0000000000000000 $t
C:\Users\Jay\AppData\Local\Temp\ccrCOBv6.s:5393   .text.magic_desk_init:0000000000000000 magic_desk_init
C:\Users\Jay\AppData\Local\Temp\ccrCOBv6.s:5404   .text.magic_desk_init:0000000000000008 $d
C:\Users\Jay\AppData\Local\Temp\ccrCOBv6.s:5408   .text.c64_send_text:0000000000000000 $t
C:\Users\Jay\AppData\Local\Temp\ccrCOBv6.s:5415   .text.c64_send_text:0000000000000000 c64_send_text
C:\Users\Jay\AppData\Local\Temp\ccrCOBv6.s:5525   .text.c64_send_text:00000000000000e0 $d
C:\Users\Jay\AppData\Local\Temp\ccrCOBv6.s:5534   .text.handle_failed_to_read_sd:0000000000000000 $t
C:\Users\Jay\AppData\Local\Temp\ccrCOBv6.s:5541   .text.handle_failed_to_read_sd:0000000000000000 handle_failed_to_read_sd
C:\Users\Jay\AppData\Local\Temp\ccrCOBv6.s:5554   .text.handle_failed_to_read_sd:0000000000000014 $d
C:\Users\Jay\AppData\Local\Temp\ccrCOBv6.s:5558   .text.handle_file_open:0000000000000000 $t
C:\Users\Jay\AppData\Local\Temp\ccrCOBv6.s:5565   .text.handle_file_open:0000000000000000 handle_file_open
C:\Users\Jay\AppData\Local\Temp\ccrCOBv6.s:5581   .text.handle_file_open:0000000000000018 $d
C:\Users\Jay\AppData\Local\Temp\ccrCOBv6.s:5584   .text.d64_menu_init:0000000000000000 $t
C:\Users\Jay\AppData\Local\Temp\ccrCOBv6.s:5591   .text.d64_menu_init:0000000000000000 d64_menu_init
C:\Users\Jay\AppData\Local\Temp\ccrCOBv6.s:5618   .text.d64_menu_init:000000000000002c $d
C:\Users\Jay\AppData\Local\Temp\ccrCOBv6.s:7994   .text.d64_dir:0000000000000000 d64_dir
C:\Users\Jay\AppData\Local\Temp\ccrCOBv6.s:7928   .text.d64_prev_page:0000000000000000 d64_prev_page
C:\Users\Jay\AppData\Local\Temp\ccrCOBv6.s:7868   .text.d64_next_page:0000000000000000 d64_next_page
C:\Users\Jay\AppData\Local\Temp\ccrCOBv6.s:8081   .text.d64_select:0000000000000000 d64_select
C:\Users\Jay\AppData\Local\Temp\ccrCOBv6.s:5626   .text.d64_skip_to_page:0000000000000000 $t
C:\Users\Jay\AppData\Local\Temp\ccrCOBv6.s:5633   .text.d64_skip_to_page:0000000000000000 d64_skip_to_page
C:\Users\Jay\AppData\Local\Temp\ccrCOBv6.s:5672   .text.handle_dir_open:0000000000000000 $t
C:\Users\Jay\AppData\Local\Temp\ccrCOBv6.s:5679   .text.handle_dir_open:0000000000000000 handle_dir_open
C:\Users\Jay\AppData\Local\Temp\ccrCOBv6.s:5708   .text.handle_dir_open:000000000000003c $d
C:\Users\Jay\AppData\Local\Temp\ccrCOBv6.s:5712   .text.settings_save:0000000000000000 $t
C:\Users\Jay\AppData\Local\Temp\ccrCOBv6.s:5719   .text.settings_save:0000000000000000 settings_save
C:\Users\Jay\AppData\Local\Temp\ccrCOBv6.s:5743   .text.settings_save:000000000000002c $d
C:\Users\Jay\AppData\Local\Temp\ccrCOBv6.s:5750   .text.crt_handler:0000000000000000 $t
C:\Users\Jay\AppData\Local\Temp\ccrCOBv6.s:5758   .text.crt_handler:0000000000000000 crt_handler
C:\Users\Jay\AppData\Local\Temp\ccrCOBv6.s:5902   .text.crt_handler:0000000000000114 $d
C:\Users\Jay\AppData\Local\Temp\ccrCOBv6.s:5911   .text.sprint:0000000000000000 $t
C:\Users\Jay\AppData\Local\Temp\ccrCOBv6.s:5918   .text.sprint:0000000000000000 sprint
C:\Users\Jay\AppData\Local\Temp\ccrCOBv6.s:5947   .text.sprint:000000000000003c $d
C:\Users\Jay\AppData\Local\Temp\ccrCOBv6.s:5980   .text.sprint:000000000000007e $t
C:\Users\Jay\AppData\Local\Temp\ccrCOBv6.s:6179   .text.sprint:0000000000000228 $d
C:\Users\Jay\AppData\Local\Temp\ccrCOBv6.s:6185   .text.settings_basic_change:0000000000000000 $t
C:\Users\Jay\AppData\Local\Temp\ccrCOBv6.s:6192   .text.settings_basic_change:0000000000000000 settings_basic_change
C:\Users\Jay\AppData\Local\Temp\ccrCOBv6.s:6228   .text.settings_basic_change:0000000000000044 $d
ARM GAS  C:\Users\Jay\AppData\Local\Temp\ccrCOBv6.s 			page 248


C:\Users\Jay\AppData\Local\Temp\ccrCOBv6.s:6236   .text.sd_send_page:0000000000000000 $t
C:\Users\Jay\AppData\Local\Temp\ccrCOBv6.s:6243   .text.sd_send_page:0000000000000000 sd_send_page
C:\Users\Jay\AppData\Local\Temp\ccrCOBv6.s:6404   .text.sd_send_page:000000000000015c $d
C:\Users\Jay\AppData\Local\Temp\ccrCOBv6.s:6417   .text.handle_dir_next_page_command:0000000000000000 $t
C:\Users\Jay\AppData\Local\Temp\ccrCOBv6.s:6424   .text.handle_dir_next_page_command:0000000000000000 handle_dir_next_page_command
C:\Users\Jay\AppData\Local\Temp\ccrCOBv6.s:6496   .text.handle_dir_next_page_command:0000000000000090 $d
C:\Users\Jay\AppData\Local\Temp\ccrCOBv6.s:6501   .text.handle_dir_prev_page_command:0000000000000000 $t
C:\Users\Jay\AppData\Local\Temp\ccrCOBv6.s:6508   .text.handle_dir_prev_page_command:0000000000000000 handle_dir_prev_page_command
C:\Users\Jay\AppData\Local\Temp\ccrCOBv6.s:6599   .text.handle_dir_prev_page_command:00000000000000c4 $d
C:\Users\Jay\AppData\Local\Temp\ccrCOBv6.s:6604   .text.handle_dir_command:0000000000000000 $t
C:\Users\Jay\AppData\Local\Temp\ccrCOBv6.s:6611   .text.handle_dir_command:0000000000000000 handle_dir_command
C:\Users\Jay\AppData\Local\Temp\ccrCOBv6.s:6766   .text.handle_dir_command:000000000000017c $d
C:\Users\Jay\AppData\Local\Temp\ccrCOBv6.s:6774   .text.handle_change_dir:0000000000000000 $t
C:\Users\Jay\AppData\Local\Temp\ccrCOBv6.s:6781   .text.handle_change_dir:0000000000000000 handle_change_dir
C:\Users\Jay\AppData\Local\Temp\ccrCOBv6.s:6836   .text.handle_change_dir:0000000000000070 $d
C:\Users\Jay\AppData\Local\Temp\ccrCOBv6.s:6842   .text.handle_dir_up_command:0000000000000000 $t
C:\Users\Jay\AppData\Local\Temp\ccrCOBv6.s:6849   .text.handle_dir_up_command:0000000000000000 handle_dir_up_command
C:\Users\Jay\AppData\Local\Temp\ccrCOBv6.s:6864   .text.handle_dir_up_command:0000000000000014 $d
C:\Users\Jay\AppData\Local\Temp\ccrCOBv6.s:6868   .text.handle_select_command:0000000000000000 $t
C:\Users\Jay\AppData\Local\Temp\ccrCOBv6.s:6875   .text.handle_select_command:0000000000000000 handle_select_command
C:\Users\Jay\AppData\Local\Temp\ccrCOBv6.s:7161   .text.handle_select_command:00000000000002ac $d
C:\Users\Jay\AppData\Local\Temp\ccrCOBv6.s:7176   .text.handle_select_command:00000000000002e4 $t
C:\Users\Jay\AppData\Local\Temp\ccrCOBv6.s:7524   .text.handle_select_command:00000000000005e8 $d
C:\Users\Jay\AppData\Local\Temp\ccrCOBv6.s:7554   .text.handle_select_command:000000000000065c $t
C:\Users\Jay\AppData\Local\Temp\ccrCOBv6.s:7609   .text.handle_select_command:00000000000006dc $d
C:\Users\Jay\AppData\Local\Temp\ccrCOBv6.s:7617   .text.d64_send_page:0000000000000000 $t
C:\Users\Jay\AppData\Local\Temp\ccrCOBv6.s:7624   .text.d64_send_page:0000000000000000 d64_send_page
C:\Users\Jay\AppData\Local\Temp\ccrCOBv6.s:7848   .text.d64_send_page:00000000000001f8 $d
C:\Users\Jay\AppData\Local\Temp\ccrCOBv6.s:7861   .text.d64_next_page:0000000000000000 $t
C:\Users\Jay\AppData\Local\Temp\ccrCOBv6.s:7916   .text.d64_next_page:0000000000000060 $d
C:\Users\Jay\AppData\Local\Temp\ccrCOBv6.s:7921   .text.d64_prev_page:0000000000000000 $t
C:\Users\Jay\AppData\Local\Temp\ccrCOBv6.s:7982   .text.d64_prev_page:000000000000006c $d
C:\Users\Jay\AppData\Local\Temp\ccrCOBv6.s:7987   .text.d64_dir:0000000000000000 $t
C:\Users\Jay\AppData\Local\Temp\ccrCOBv6.s:8067   .text.d64_dir:00000000000000a4 $d
C:\Users\Jay\AppData\Local\Temp\ccrCOBv6.s:8074   .text.d64_select:0000000000000000 $t
C:\Users\Jay\AppData\Local\Temp\ccrCOBv6.s:8344   .text.d64_select:000000000000023c $d
C:\Users\Jay\AppData\Local\Temp\ccrCOBv6.s:8359   .text.fc3_handler:0000000000000000 $t
C:\Users\Jay\AppData\Local\Temp\ccrCOBv6.s:8367   .text.fc3_handler:0000000000000000 fc3_handler
C:\Users\Jay\AppData\Local\Temp\ccrCOBv6.s:8588   .text.fc3_handler:0000000000000204 $d
C:\Users\Jay\AppData\Local\Temp\ccrCOBv6.s:8601   .text.ss5_handler:0000000000000000 $t
C:\Users\Jay\AppData\Local\Temp\ccrCOBv6.s:8609   .text.ss5_handler:0000000000000000 ss5_handler
C:\Users\Jay\AppData\Local\Temp\ccrCOBv6.s:8853   .text.ss5_handler:00000000000001fc $d
C:\Users\Jay\AppData\Local\Temp\ccrCOBv6.s:8871   .text.ar4x_handler:0000000000000000 $t
C:\Users\Jay\AppData\Local\Temp\ccrCOBv6.s:8879   .text.ar4x_handler:0000000000000000 ar4x_handler
C:\Users\Jay\AppData\Local\Temp\ccrCOBv6.s:9132   .text.ar4x_handler:0000000000000248 $d
C:\Users\Jay\AppData\Local\Temp\ccrCOBv6.s:9149   .text.kcs_handler:0000000000000000 $t
C:\Users\Jay\AppData\Local\Temp\ccrCOBv6.s:9157   .text.kcs_handler:0000000000000000 kcs_handler
C:\Users\Jay\AppData\Local\Temp\ccrCOBv6.s:9431   .text.kcs_handler:000000000000028c $d
C:\Users\Jay\AppData\Local\Temp\ccrCOBv6.s:9446   .text.ef_handler:0000000000000000 $t
C:\Users\Jay\AppData\Local\Temp\ccrCOBv6.s:9454   .text.ef_handler:0000000000000000 ef_handler
C:\Users\Jay\AppData\Local\Temp\ccrCOBv6.s:9750   .text.ef_handler:00000000000002b0 $d
C:\Users\Jay\AppData\Local\Temp\ccrCOBv6.s:9766   .text.SystemInit:0000000000000000 $t
C:\Users\Jay\AppData\Local\Temp\ccrCOBv6.s:9774   .text.SystemInit:0000000000000000 SystemInit
C:\Users\Jay\AppData\Local\Temp\ccrCOBv6.s:9806   .text.SystemInit:0000000000000044 $d
C:\Users\Jay\AppData\Local\Temp\ccrCOBv6.s:9811   .text.SystemCoreClockUpdate:0000000000000000 $t
C:\Users\Jay\AppData\Local\Temp\ccrCOBv6.s:9819   .text.SystemCoreClockUpdate:0000000000000000 SystemCoreClockUpdate
C:\Users\Jay\AppData\Local\Temp\ccrCOBv6.s:9866   .text.SystemCoreClockUpdate:000000000000005c $d
ARM GAS  C:\Users\Jay\AppData\Local\Temp\ccrCOBv6.s 			page 249


C:\Users\Jay\AppData\Local\Temp\ccrCOBv6.s:9873   .text.EXTI4_IRQHandler:0000000000000000 $t
C:\Users\Jay\AppData\Local\Temp\ccrCOBv6.s:9881   .text.EXTI4_IRQHandler:0000000000000000 EXTI4_IRQHandler
C:\Users\Jay\AppData\Local\Temp\ccrCOBv6.s:9902   .text.EXTI4_IRQHandler:0000000000000024 $d
C:\Users\Jay\AppData\Local\Temp\ccrCOBv6.s:9906   .text.disk_initialize:0000000000000000 $t
C:\Users\Jay\AppData\Local\Temp\ccrCOBv6.s:9914   .text.disk_initialize:0000000000000000 disk_initialize
C:\Users\Jay\AppData\Local\Temp\ccrCOBv6.s:10226  .text.disk_initialize:00000000000002bc $d
C:\Users\Jay\AppData\Local\Temp\ccrCOBv6.s:10241  .text.disk_initialize:00000000000002f4 $t
C:\Users\Jay\AppData\Local\Temp\ccrCOBv6.s:10306  .text.disk_initialize:000000000000038c $d
C:\Users\Jay\AppData\Local\Temp\ccrCOBv6.s:10312  .text.disk_status:0000000000000000 $t
C:\Users\Jay\AppData\Local\Temp\ccrCOBv6.s:10320  .text.disk_status:0000000000000000 disk_status
C:\Users\Jay\AppData\Local\Temp\ccrCOBv6.s:10330  .text.disk_status:0000000000000008 $d
C:\Users\Jay\AppData\Local\Temp\ccrCOBv6.s:10333  .text.disk_read:0000000000000000 $t
C:\Users\Jay\AppData\Local\Temp\ccrCOBv6.s:10341  .text.disk_read:0000000000000000 disk_read
C:\Users\Jay\AppData\Local\Temp\ccrCOBv6.s:10461  .text.disk_read:00000000000000e0 $d
C:\Users\Jay\AppData\Local\Temp\ccrCOBv6.s:10469  .text.disk_write:0000000000000000 $t
C:\Users\Jay\AppData\Local\Temp\ccrCOBv6.s:10477  .text.disk_write:0000000000000000 disk_write
C:\Users\Jay\AppData\Local\Temp\ccrCOBv6.s:10641  .text.disk_write:0000000000000144 $d
C:\Users\Jay\AppData\Local\Temp\ccrCOBv6.s:10649  .text.disk_ioctl:0000000000000000 $t
C:\Users\Jay\AppData\Local\Temp\ccrCOBv6.s:10657  .text.disk_ioctl:0000000000000000 disk_ioctl
C:\Users\Jay\AppData\Local\Temp\ccrCOBv6.s:10675  .text.disk_ioctl:0000000000000014 $d
C:\Users\Jay\AppData\Local\Temp\ccrCOBv6.s:10678  .text.usbd_poll:0000000000000000 $t
C:\Users\Jay\AppData\Local\Temp\ccrCOBv6.s:10686  .text.usbd_poll:0000000000000000 usbd_poll
C:\Users\Jay\AppData\Local\Temp\ccrCOBv6.s:10697  .text.usbd_poll:0000000000000008 $d
C:\Users\Jay\AppData\Local\Temp\ccrCOBv6.s:10700  .text.OTG_FS_IRQHandler:0000000000000000 $t
C:\Users\Jay\AppData\Local\Temp\ccrCOBv6.s:10708  .text.OTG_FS_IRQHandler:0000000000000000 OTG_FS_IRQHandler
C:\Users\Jay\AppData\Local\Temp\ccrCOBv6.s:10720  .text.OTG_FS_IRQHandler:000000000000000c $d
C:\Users\Jay\AppData\Local\Temp\ccrCOBv6.s:10724  .text.startup.main:0000000000000000 $t
C:\Users\Jay\AppData\Local\Temp\ccrCOBv6.s:10732  .text.startup.main:0000000000000000 main
C:\Users\Jay\AppData\Local\Temp\ccrCOBv6.s:11029  .text.startup.main:00000000000002d4 $d
C:\Users\Jay\AppData\Local\Temp\ccrCOBv6.s:11059  .text.startup.main:0000000000000348 $t
C:\Users\Jay\AppData\Local\Temp\ccrCOBv6.s:11100  .text.startup.main:0000000000000398 $d
C:\Users\Jay\AppData\Local\Temp\ccrCOBv6.s:11108  .text.startup.main:00000000000003a8 $t
C:\Users\Jay\AppData\Local\Temp\ccrCOBv6.s:11386  .text.startup.main:00000000000005fc $d
C:\Users\Jay\AppData\Local\Temp\ccrCOBv6.s:11404  .text.startup.main:0000000000000640 $t
C:\Users\Jay\AppData\Local\Temp\ccrCOBv6.s:11725  .text.startup.main:0000000000000924 $d
C:\Users\Jay\AppData\Local\Temp\ccrCOBv6.s:11741  .text.startup.main:0000000000000960 $t
C:\Users\Jay\AppData\Local\Temp\ccrCOBv6.s:12090  .text.startup.main:0000000000000c70 $d
C:\Users\Jay\AppData\Local\Temp\ccrCOBv6.s:12098  .text.startup.main:0000000000000c8c $t
C:\Users\Jay\AppData\Local\Temp\ccrCOBv6.s:12394  .text.startup.main:0000000000000f20 $d
C:\Users\Jay\AppData\Local\Temp\ccrCOBv6.s:12421  .text.startup.main:0000000000000f88 $t
C:\Users\Jay\AppData\Local\Temp\ccrCOBv6.s:12653  .text.startup.main:00000000000011b0 $d
C:\Users\Jay\AppData\Local\Temp\ccrCOBv6.s:12665  .text.startup.main:00000000000011e0 $t
C:\Users\Jay\AppData\Local\Temp\ccrCOBv6.s:12707  .text.startup.main:000000000000122c $d
C:\Users\Jay\AppData\Local\Temp\ccrCOBv6.s:12738  .text.startup.main:00000000000012a4 $t
C:\Users\Jay\AppData\Local\Temp\ccrCOBv6.s:12926  .text.startup.main:0000000000001454 $d
C:\Users\Jay\AppData\Local\Temp\ccrCOBv6.s:13914  .rodata.usbd_otgfs:0000000000000000 usbd_otgfs
C:\Users\Jay\AppData\Local\Temp\ccrCOBv6.s:13340  .rodata.OTGPCTL:0000000000000000 OTGPCTL
C:\Users\Jay\AppData\Local\Temp\ccrCOBv6.s:13334  .rodata.OTGD:0000000000000000 OTGD
C:\Users\Jay\AppData\Local\Temp\ccrCOBv6.s:13328  .rodata.OTG:0000000000000000 OTG
C:\Users\Jay\AppData\Local\Temp\ccrCOBv6.s:13202  .rodata.APBPrescTable:0000000000000000 APBPrescTable
C:\Users\Jay\AppData\Local\Temp\ccrCOBv6.s:13181  .rodata.AHBPrescTable:0000000000000000 AHBPrescTable
C:\Users\Jay\AppData\Local\Temp\ccrCOBv6.s:13152  .data.SystemCoreClock:0000000000000000 SystemCoreClock
C:\Users\Jay\AppData\Local\Temp\ccrCOBv6.s:12961  .bss.card_info:0000000000000000 $d
C:\Users\Jay\AppData\Local\Temp\ccrCOBv6.s:12965  .bss.card_info:0000000000000000 card_info
C:\Users\Jay\AppData\Local\Temp\ccrCOBv6.s:12968  .bss.card_rca:0000000000000000 $d
C:\Users\Jay\AppData\Local\Temp\ccrCOBv6.s:12972  .bss.card_rca:0000000000000000 card_rca
C:\Users\Jay\AppData\Local\Temp\ccrCOBv6.s:12978  .bss.card_type:0000000000000000 card_type
ARM GAS  C:\Users\Jay\AppData\Local\Temp\ccrCOBv6.s 			page 250


C:\Users\Jay\AppData\Local\Temp\ccrCOBv6.s:12979  .bss.card_type:0000000000000000 $d
C:\Users\Jay\AppData\Local\Temp\ccrCOBv6.s:12981  .bss.cnt:0000000000000000 $d
C:\Users\Jay\AppData\Local\Temp\ccrCOBv6.s:12985  .bss.cnt:0000000000000000 cnt
C:\Users\Jay\AppData\Local\Temp\ccrCOBv6.s:12988  .bss.crt_ptr:0000000000000000 $d
C:\Users\Jay\AppData\Local\Temp\ccrCOBv6.s:12992  .bss.crt_ptr:0000000000000000 crt_ptr
C:\Users\Jay\AppData\Local\Temp\ccrCOBv6.s:12995  .bss.crt_ram_buf:0000000000000000 $d
C:\Users\Jay\AppData\Local\Temp\ccrCOBv6.s:13001  .bss.crt_rom_ptr:0000000000000000 $d
C:\Users\Jay\AppData\Local\Temp\ccrCOBv6.s:13005  .bss.crt_rom_ptr:0000000000000000 crt_rom_ptr
C:\Users\Jay\AppData\Local\Temp\ccrCOBv6.s:13008  .bss.d64_state:0000000000000000 $d
C:\Users\Jay\AppData\Local\Temp\ccrCOBv6.s:13012  .bss.d64_state:0000000000000000 d64_state
C:\Users\Jay\AppData\Local\Temp\ccrCOBv6.s:13018  .bss.ef3_usb_rx_data:0000000000000000 ef3_usb_rx_data
C:\Users\Jay\AppData\Local\Temp\ccrCOBv6.s:13019  .bss.ef3_usb_rx_data:0000000000000000 $d
C:\Users\Jay\AppData\Local\Temp\ccrCOBv6.s:13024  .bss.ef3_usb_rx_rdy:0000000000000000 ef3_usb_rx_rdy
C:\Users\Jay\AppData\Local\Temp\ccrCOBv6.s:13025  .bss.ef3_usb_rx_rdy:0000000000000000 $d
C:\Users\Jay\AppData\Local\Temp\ccrCOBv6.s:13030  .bss.ef3_usb_tx_data:0000000000000000 ef3_usb_tx_data
C:\Users\Jay\AppData\Local\Temp\ccrCOBv6.s:13031  .bss.ef3_usb_tx_data:0000000000000000 $d
C:\Users\Jay\AppData\Local\Temp\ccrCOBv6.s:13033  .bss.epyx_cycles:0000000000000000 $d
C:\Users\Jay\AppData\Local\Temp\ccrCOBv6.s:13037  .bss.epyx_cycles:0000000000000000 epyx_cycles
C:\Users\Jay\AppData\Local\Temp\ccrCOBv6.s:13040  .bss.fc3_register:0000000000000000 $d
C:\Users\Jay\AppData\Local\Temp\ccrCOBv6.s:13044  .bss.fc3_register:0000000000000000 fc3_register
C:\Users\Jay\AppData\Local\Temp\ccrCOBv6.s:13050  .bss.freezer_button:0000000000000000 freezer_button
C:\Users\Jay\AppData\Local\Temp\ccrCOBv6.s:13051  .bss.freezer_button:0000000000000000 $d
C:\Users\Jay\AppData\Local\Temp\ccrCOBv6.s:13056  .bss.freezer_state:0000000000000000 freezer_state
C:\Users\Jay\AppData\Local\Temp\ccrCOBv6.s:13057  .bss.freezer_state:0000000000000000 $d
C:\Users\Jay\AppData\Local\Temp\ccrCOBv6.s:13059  .bss.fs:0000000000000000 $d
C:\Users\Jay\AppData\Local\Temp\ccrCOBv6.s:13063  .bss.fs:0000000000000000 fs
C:\Users\Jay\AppData\Local\Temp\ccrCOBv6.s:13069  .bss.kcs_register:0000000000000000 kcs_register
C:\Users\Jay\AppData\Local\Temp\ccrCOBv6.s:13070  .bss.kcs_register:0000000000000000 $d
C:\Users\Jay\AppData\Local\Temp\ccrCOBv6.s:13072  .bss.menu_state:0000000000000000 $d
C:\Users\Jay\AppData\Local\Temp\ccrCOBv6.s:13076  .bss.menu_state:0000000000000000 menu_state
C:\Users\Jay\AppData\Local\Temp\ccrCOBv6.s:13079  .bss.options_state:0000000000000000 $d
C:\Users\Jay\AppData\Local\Temp\ccrCOBv6.s:13083  .bss.options_state:0000000000000000 options_state
C:\Users\Jay\AppData\Local\Temp\ccrCOBv6.s:13086  .bss.sd_state:0000000000000000 $d
C:\Users\Jay\AppData\Local\Temp\ccrCOBv6.s:13090  .bss.sd_state:0000000000000000 sd_state
C:\Users\Jay\AppData\Local\Temp\ccrCOBv6.s:13096  .bss.settings_flags:0000000000000000 settings_flags
C:\Users\Jay\AppData\Local\Temp\ccrCOBv6.s:13097  .bss.settings_flags:0000000000000000 $d
C:\Users\Jay\AppData\Local\Temp\ccrCOBv6.s:13099  .bss.tmpbuf:0000000000000000 $d
C:\Users\Jay\AppData\Local\Temp\ccrCOBv6.s:13103  .bss.tmpbuf:0000000000000000 tmpbuf
C:\Users\Jay\AppData\Local\Temp\ccrCOBv6.s:13106  .bss.ubuf:0000000000000000 $d
C:\Users\Jay\AppData\Local\Temp\ccrCOBv6.s:13110  .bss.ubuf:0000000000000000 ubuf
C:\Users\Jay\AppData\Local\Temp\ccrCOBv6.s:13113  .bss.udev:0000000000000000 $d
C:\Users\Jay\AppData\Local\Temp\ccrCOBv6.s:13117  .bss.udev:0000000000000000 udev
C:\Users\Jay\AppData\Local\Temp\ccrCOBv6.s:13120  .bss.urx_fifo:0000000000000000 $d
C:\Users\Jay\AppData\Local\Temp\ccrCOBv6.s:13124  .bss.urx_fifo:0000000000000000 urx_fifo
C:\Users\Jay\AppData\Local\Temp\ccrCOBv6.s:13127  .bss.urx_pos:0000000000000000 $d
C:\Users\Jay\AppData\Local\Temp\ccrCOBv6.s:13131  .bss.urx_pos:0000000000000000 urx_pos
C:\Users\Jay\AppData\Local\Temp\ccrCOBv6.s:13134  .bss.utx_fifo:0000000000000000 $d
C:\Users\Jay\AppData\Local\Temp\ccrCOBv6.s:13138  .bss.utx_fifo:0000000000000000 utx_fifo
C:\Users\Jay\AppData\Local\Temp\ccrCOBv6.s:13141  .bss.utx_pos:0000000000000000 $d
C:\Users\Jay\AppData\Local\Temp\ccrCOBv6.s:13145  .bss.utx_pos:0000000000000000 utx_pos
C:\Users\Jay\AppData\Local\Temp\ccrCOBv6.s:13148  .data.SystemCoreClock:0000000000000000 $d
C:\Users\Jay\AppData\Local\Temp\ccrCOBv6.s:13155  .data.cdc_line:0000000000000000 $d
C:\Users\Jay\AppData\Local\Temp\ccrCOBv6.s:13159  .data.cdc_line:0000000000000000 cdc_line
C:\Users\Jay\AppData\Local\Temp\ccrCOBv6.s:13168  .data.dstatus:0000000000000000 dstatus
C:\Users\Jay\AppData\Local\Temp\ccrCOBv6.s:13174  .data.ef3_usb_tx_rdy:0000000000000000 ef3_usb_tx_rdy
C:\Users\Jay\AppData\Local\Temp\ccrCOBv6.s:13177  .rodata.AHBPrescTable:0000000000000000 $d
C:\Users\Jay\AppData\Local\Temp\ccrCOBv6.s:13199  .rodata.APBPrescTable:0000000000000000 $d
ARM GAS  C:\Users\Jay\AppData\Local\Temp\ccrCOBv6.s 			page 251


C:\Users\Jay\AppData\Local\Temp\ccrCOBv6.s:13212  .rodata.CSWTCH.479:0000000000000000 $d
C:\Users\Jay\AppData\Local\Temp\ccrCOBv6.s:13216  .rodata.CSWTCH.479:0000000000000000 CSWTCH.479
C:\Users\Jay\AppData\Local\Temp\ccrCOBv6.s:13251  .rodata.CSWTCH.481:0000000000000000 $d
C:\Users\Jay\AppData\Local\Temp\ccrCOBv6.s:13255  .rodata.CSWTCH.481:0000000000000000 CSWTCH.481
C:\Users\Jay\AppData\Local\Temp\ccrCOBv6.s:13289  .rodata.CSWTCH.537:0000000000000000 $d
C:\Users\Jay\AppData\Local\Temp\ccrCOBv6.s:13293  .rodata.CSWTCH.537:0000000000000000 CSWTCH.537
C:\Users\Jay\AppData\Local\Temp\ccrCOBv6.s:13301  .rodata.CSWTCH.538:0000000000000000 $d
C:\Users\Jay\AppData\Local\Temp\ccrCOBv6.s:13305  .rodata.CSWTCH.538:0000000000000000 CSWTCH.538
C:\Users\Jay\AppData\Local\Temp\ccrCOBv6.s:13313  .rodata.CSWTCH.539:0000000000000000 $d
C:\Users\Jay\AppData\Local\Temp\ccrCOBv6.s:13317  .rodata.CSWTCH.539:0000000000000000 CSWTCH.539
C:\Users\Jay\AppData\Local\Temp\ccrCOBv6.s:13325  .rodata.OTG:0000000000000000 $d
C:\Users\Jay\AppData\Local\Temp\ccrCOBv6.s:13331  .rodata.OTGD:0000000000000000 $d
C:\Users\Jay\AppData\Local\Temp\ccrCOBv6.s:13337  .rodata.OTGPCTL:0000000000000000 $d
C:\Users\Jay\AppData\Local\Temp\ccrCOBv6.s:13343  .rodata.ar4x_mode:0000000000000000 $d
C:\Users\Jay\AppData\Local\Temp\ccrCOBv6.s:13347  .rodata.ar4x_mode:0000000000000000 ar4x_mode
C:\Users\Jay\AppData\Local\Temp\ccrCOBv6.s:13353  .rodata.auto_boot.str1.4:0000000000000000 $d
C:\Users\Jay\AppData\Local\Temp\ccrCOBv6.s:13363  .rodata.c64_send_command.str1.4:0000000000000000 $d
C:\Users\Jay\AppData\Local\Temp\ccrCOBv6.s:13367  .rodata.c64_send_text.str1.4:0000000000000000 $d
C:\Users\Jay\AppData\Local\Temp\ccrCOBv6.s:13371  .rodata.config_desc:0000000000000000 $d
C:\Users\Jay\AppData\Local\Temp\ccrCOBv6.s:13375  .rodata.config_desc:0000000000000000 config_desc
C:\Users\Jay\AppData\Local\Temp\ccrCOBv6.s:13447  .rodata.crt_banks:0000000000000000 $d
C:\Users\Jay\AppData\Local\Temp\ccrCOBv6.s:13451  .rodata.crt_banks:0000000000000000 crt_banks
C:\Users\Jay\AppData\Local\Temp\ccrCOBv6.s:13517  .rodata.crt_ram_banks:0000000000000000 $d
C:\Users\Jay\AppData\Local\Temp\ccrCOBv6.s:13521  .rodata.crt_ram_banks:0000000000000000 crt_ram_banks
C:\Users\Jay\AppData\Local\Temp\ccrCOBv6.s:13527  .rodata.d64_select.str1.4:0000000000000000 $d
C:\Users\Jay\AppData\Local\Temp\ccrCOBv6.s:13539  .rodata.d64_send_page.str1.4:0000000000000000 $d
C:\Users\Jay\AppData\Local\Temp\ccrCOBv6.s:13548  .rodata.d64_track_offset:0000000000000000 $d
C:\Users\Jay\AppData\Local\Temp\ccrCOBv6.s:13552  .rodata.d64_track_offset:0000000000000000 d64_track_offset
C:\Users\Jay\AppData\Local\Temp\ccrCOBv6.s:13596  .rodata.d64_types:0000000000000000 $d
C:\Users\Jay\AppData\Local\Temp\ccrCOBv6.s:13600  .rodata.d64_types:0000000000000000 d64_types
C:\Users\Jay\AppData\Local\Temp\ccrCOBv6.s:13610  .rodata.device_desc:0000000000000000 $d
C:\Users\Jay\AppData\Local\Temp\ccrCOBv6.s:13614  .rodata.device_desc:0000000000000000 device_desc
C:\Users\Jay\AppData\Local\Temp\ccrCOBv6.s:13630  .rodata.dtable:0000000000000000 $d
C:\Users\Jay\AppData\Local\Temp\ccrCOBv6.s:13634  .rodata.dtable:0000000000000000 dtable
C:\Users\Jay\AppData\Local\Temp\ccrCOBv6.s:13762  .rodata.lang_desc:0000000000000000 lang_desc
C:\Users\Jay\AppData\Local\Temp\ccrCOBv6.s:13801  .rodata.manuf_desc_en:0000000000000000 manuf_desc_en
C:\Users\Jay\AppData\Local\Temp\ccrCOBv6.s:13809  .rodata.prod_desc_en:0000000000000000 prod_desc_en
C:\Users\Jay\AppData\Local\Temp\ccrCOBv6.s:13639  .rodata.ef_mode:0000000000000000 $d
C:\Users\Jay\AppData\Local\Temp\ccrCOBv6.s:13643  .rodata.ef_mode:0000000000000000 ef_mode
C:\Users\Jay\AppData\Local\Temp\ccrCOBv6.s:13653  .rodata.fc3_mode:0000000000000000 $d
C:\Users\Jay\AppData\Local\Temp\ccrCOBv6.s:13657  .rodata.fc3_mode:0000000000000000 fc3_mode
C:\Users\Jay\AppData\Local\Temp\ccrCOBv6.s:13667  .rodata.handle_dir_up_command.str1.4:0000000000000000 $d
C:\Users\Jay\AppData\Local\Temp\ccrCOBv6.s:13674  .rodata.handle_failed_to_read_sd.str1.4:0000000000000000 $d
C:\Users\Jay\AppData\Local\Temp\ccrCOBv6.s:13681  .rodata.handle_file_options.str1.4:0000000000000000 $d
C:\Users\Jay\AppData\Local\Temp\ccrCOBv6.s:13691  .rodata.handle_select_command.str1.4:0000000000000000 $d
C:\Users\Jay\AppData\Local\Temp\ccrCOBv6.s:13738  .rodata.handle_unsupported_ex.str1.4:0000000000000000 $d
C:\Users\Jay\AppData\Local\Temp\ccrCOBv6.s:13742  .rodata.hex:0000000000000000 $d
C:\Users\Jay\AppData\Local\Temp\ccrCOBv6.s:13746  .rodata.hex:0000000000000000 hex
C:\Users\Jay\AppData\Local\Temp\ccrCOBv6.s:13749  .rodata.kcs_mode:0000000000000000 $d
C:\Users\Jay\AppData\Local\Temp\ccrCOBv6.s:13753  .rodata.kcs_mode:0000000000000000 kcs_mode
C:\Users\Jay\AppData\Local\Temp\ccrCOBv6.s:13759  .rodata.lang_desc:0000000000000000 $d
C:\Users\Jay\AppData\Local\Temp\ccrCOBv6.s:13767  .rodata.main.str1.4:0000000000000000 $d
C:\Users\Jay\AppData\Local\Temp\ccrCOBv6.s:13798  .rodata.manuf_desc_en:0000000000000000 $d
C:\Users\Jay\AppData\Local\Temp\ccrCOBv6.s:13806  .rodata.prod_desc_en:0000000000000000 $d
C:\Users\Jay\AppData\Local\Temp\ccrCOBv6.s:13815  .rodata.sd_send_page.str1.4:0000000000000000 $d
C:\Users\Jay\AppData\Local\Temp\ccrCOBv6.s:13825  .rodata.settings_basic_change.str1.4:0000000000000000 $d
C:\Users\Jay\AppData\Local\Temp\ccrCOBv6.s:13834  .rodata.settings_save.str1.4:0000000000000000 $d
ARM GAS  C:\Users\Jay\AppData\Local\Temp\ccrCOBv6.s 			page 252


C:\Users\Jay\AppData\Local\Temp\ccrCOBv6.s:13841  .rodata.ss5_mode:0000000000000000 $d
C:\Users\Jay\AppData\Local\Temp\ccrCOBv6.s:13845  .rodata.ss5_mode:0000000000000000 ss5_mode
C:\Users\Jay\AppData\Local\Temp\ccrCOBv6.s:13855  .rodata.str1.4:0000000000000000 $d
C:\Users\Jay\AppData\Local\Temp\ccrCOBv6.s:13906  .rodata.system_restart.str1.4:0000000000000000 $d
C:\Users\Jay\AppData\Local\Temp\ccrCOBv6.s:13910  .rodata.usbd_otgfs:0000000000000000 $d
C:\Users\Jay\AppData\Local\Temp\ccrCOBv6.s:13929  .sram:0000000000000000 $d
C:\Users\Jay\AppData\Local\Temp\ccrCOBv6.s:557    .text.evt_poll:000000000000003f $d
C:\Users\Jay\AppData\Local\Temp\ccrCOBv6.s:557    .text.evt_poll:0000000000000040 $t

UNDEFINED SYMBOLS
strcmp
f_read
f_open
memset
f_close
memcmp
f_lseek
f_write
f_mount
memmove
f_chdir
f_opendir
f_readdir
f_closedir
f_getcwd
strncmp
memcpy
strcpy
