ARM GAS  C:\Users\Jay\AppData\Local\Temp\cc8FQaEx.s 			page 1


   1              		.cpu cortex-m7
   2              		.eabi_attribute 27, 1
   3              		.eabi_attribute 28, 1
   4              		.eabi_attribute 20, 1
   5              		.eabi_attribute 21, 1
   6              		.eabi_attribute 23, 3
   7              		.eabi_attribute 24, 1
   8              		.eabi_attribute 25, 1
   9              		.eabi_attribute 26, 1
  10              		.eabi_attribute 30, 2
  11              		.eabi_attribute 34, 1
  12              		.eabi_attribute 18, 4
  13              		.file	"ff.c"
  14              		.text
  15              		.section	.text.get_ldnumber,"ax",%progbits
  16              		.align	1
  17              		.p2align 2,,3
  18              		.syntax unified
  19              		.thumb
  20              		.thumb_func
  21              		.fpu fpv5-sp-d16
  23              	get_ldnumber:
  24              		@ args = 0, pretend = 0, frame = 0
  25              		@ frame_needed = 0, uses_anonymous_args = 0
  26              		@ link register save eliminated.
  27 0000 0168     		ldr	r1, [r0]
  28 0002 F9B1     		cbz	r1, .L6
  29 0004 0A46     		mov	r2, r1
  30 0006 01E0     		b	.L3
  31              	.L20:
  32 0008 3A2B     		cmp	r3, #58
  33 000a 03D0     		beq	.L10
  34              	.L3:
  35 000c 12F8013B 		ldrb	r3, [r2], #1	@ zero_extendqisi2
  36 0010 1F2B     		cmp	r3, #31
  37 0012 F9D8     		bhi	.L20
  38              	.L10:
  39 0014 3A2B     		cmp	r3, #58
  40 0016 02D0     		beq	.L21
  41 0018 0C4B     		ldr	r3, .L22
  42 001a 1878     		ldrb	r0, [r3]	@ zero_extendqisi2
  43 001c 7047     		bx	lr
  44              	.L21:
  45 001e 10B4     		push	{r4}
  46 0020 0B78     		ldrb	r3, [r1]	@ zero_extendqisi2
  47 0022 A3F13004 		sub	r4, r3, #48
  48 0026 092C     		cmp	r4, #9
  49 0028 09D8     		bhi	.L9
  50 002a 0231     		adds	r1, r1, #2
  51 002c 8A42     		cmp	r2, r1
  52 002e 06D1     		bne	.L9
  53 0030 302B     		cmp	r3, #48
  54 0032 04D1     		bne	.L9
  55 0034 0260     		str	r2, [r0]
  56 0036 0020     		movs	r0, #0
  57              	.L1:
  58 0038 5DF8044B 		ldr	r4, [sp], #4
ARM GAS  C:\Users\Jay\AppData\Local\Temp\cc8FQaEx.s 			page 2


  59 003c 7047     		bx	lr
  60              	.L9:
  61 003e 4FF0FF30 		mov	r0, #-1
  62 0042 F9E7     		b	.L1
  63              	.L6:
  64 0044 4FF0FF30 		mov	r0, #-1
  65 0048 7047     		bx	lr
  66              	.L23:
  67 004a 00BF     		.align	2
  68              	.L22:
  69 004c 00000000 		.word	.LANCHOR0
  71              		.section	.text.validate,"ax",%progbits
  72              		.align	1
  73              		.p2align 2,,3
  74              		.syntax unified
  75              		.thumb
  76              		.thumb_func
  77              		.fpu fpv5-sp-d16
  79              	validate:
  80              		@ args = 0, pretend = 0, frame = 8
  81              		@ frame_needed = 0, uses_anonymous_args = 0
  82 0000 D8B1     		cbz	r0, .L37
  83 0002 0368     		ldr	r3, [r0]
  84 0004 10B5     		push	{r4, lr}
  85 0006 0446     		mov	r4, r0
  86 0008 82B0     		sub	sp, sp, #8
  87 000a 2BB1     		cbz	r3, .L27
  88 000c 1A78     		ldrb	r2, [r3]	@ zero_extendqisi2
  89 000e 1AB1     		cbz	r2, .L27
  90 0010 8088     		ldrh	r0, [r0, #4]
  91 0012 DA88     		ldrh	r2, [r3, #6]
  92 0014 9042     		cmp	r0, r2
  93 0016 04D0     		beq	.L38
  94              	.L27:
  95 0018 0920     		movs	r0, #9
  96 001a 0023     		movs	r3, #0
  97 001c 0B60     		str	r3, [r1]
  98 001e 02B0     		add	sp, sp, #8
  99              		@ sp needed
 100 0020 10BD     		pop	{r4, pc}
 101              	.L38:
 102 0022 5878     		ldrb	r0, [r3, #1]	@ zero_extendqisi2
 103 0024 0191     		str	r1, [sp, #4]
 104 0026 FFF7FEFF 		bl	disk_status
 105 002a 10F00100 		ands	r0, r0, #1
 106 002e 0199     		ldr	r1, [sp, #4]
 107 0030 F2D1     		bne	.L27
 108 0032 2368     		ldr	r3, [r4]
 109 0034 0B60     		str	r3, [r1]
 110 0036 02B0     		add	sp, sp, #8
 111              		@ sp needed
 112 0038 10BD     		pop	{r4, pc}
 113              	.L37:
 114 003a 0023     		movs	r3, #0
 115 003c 0920     		movs	r0, #9
 116 003e 0B60     		str	r3, [r1]
 117 0040 7047     		bx	lr
ARM GAS  C:\Users\Jay\AppData\Local\Temp\cc8FQaEx.s 			page 3


 119 0042 00BF     		.section	.text.mem_cpy.part.0,"ax",%progbits
 120              		.align	1
 121              		.p2align 2,,3
 122              		.syntax unified
 123              		.thumb
 124              		.thumb_func
 125              		.fpu fpv5-sp-d16
 127              	mem_cpy.part.0:
 128              		@ args = 0, pretend = 0, frame = 0
 129              		@ frame_needed = 0, uses_anonymous_args = 0
 130              		@ link register save eliminated.
 131 0000 0138     		subs	r0, r0, #1
 132 0002 0A44     		add	r2, r2, r1
 133              	.L40:
 134 0004 11F8013B 		ldrb	r3, [r1], #1	@ zero_extendqisi2
 135 0008 9142     		cmp	r1, r2
 136 000a 00F8013F 		strb	r3, [r0, #1]!
 137 000e F9D1     		bne	.L40
 138 0010 7047     		bx	lr
 140 0012 00BF     		.section	.text.sync_window.part.5,"ax",%progbits
 141              		.align	1
 142              		.p2align 2,,3
 143              		.syntax unified
 144              		.thumb
 145              		.thumb_func
 146              		.fpu fpv5-sp-d16
 148              	sync_window.part.5:
 149              		@ args = 0, pretend = 0, frame = 0
 150              		@ frame_needed = 0, uses_anonymous_args = 0
 151 0000 70B5     		push	{r4, r5, r6, lr}
 152 0002 00F13806 		add	r6, r0, #56
 153 0006 0446     		mov	r4, r0
 154 0008 426B     		ldr	r2, [r0, #52]
 155 000a 0123     		movs	r3, #1
 156 000c 4078     		ldrb	r0, [r0, #1]	@ zero_extendqisi2
 157 000e 3146     		mov	r1, r6
 158 0010 FFF7FEFF 		bl	disk_write
 159 0014 60B9     		cbnz	r0, .L44
 160 0016 616B     		ldr	r1, [r4, #52]
 161 0018 0546     		mov	r5, r0
 162 001a A36A     		ldr	r3, [r4, #40]
 163 001c 226A     		ldr	r2, [r4, #32]
 164 001e CB1A     		subs	r3, r1, r3
 165 0020 E070     		strb	r0, [r4, #3]
 166 0022 9342     		cmp	r3, r2
 167 0024 02D2     		bcs	.L46
 168 0026 A378     		ldrb	r3, [r4, #2]	@ zero_extendqisi2
 169 0028 022B     		cmp	r3, #2
 170 002a 03D0     		beq	.L48
 171              	.L46:
 172 002c 2846     		mov	r0, r5
 173 002e 70BD     		pop	{r4, r5, r6, pc}
 174              	.L44:
 175 0030 0120     		movs	r0, #1
 176 0032 70BD     		pop	{r4, r5, r6, pc}
 177              	.L48:
 178 0034 0A44     		add	r2, r2, r1
ARM GAS  C:\Users\Jay\AppData\Local\Temp\cc8FQaEx.s 			page 4


 179 0036 6078     		ldrb	r0, [r4, #1]	@ zero_extendqisi2
 180 0038 3146     		mov	r1, r6
 181 003a 0123     		movs	r3, #1
 182 003c FFF7FEFF 		bl	disk_write
 183 0040 2846     		mov	r0, r5
 184 0042 70BD     		pop	{r4, r5, r6, pc}
 186              		.section	.text.dir_clear,"ax",%progbits
 187              		.align	1
 188              		.p2align 2,,3
 189              		.syntax unified
 190              		.thumb
 191              		.thumb_func
 192              		.fpu fpv5-sp-d16
 194              	dir_clear:
 195              		@ args = 0, pretend = 0, frame = 0
 196              		@ frame_needed = 0, uses_anonymous_args = 0
 197 0000 F8B5     		push	{r3, r4, r5, r6, r7, lr}
 198 0002 C378     		ldrb	r3, [r0, #3]	@ zero_extendqisi2
 199 0004 0546     		mov	r5, r0
 200 0006 0E46     		mov	r6, r1
 201 0008 53BB     		cbnz	r3, .L50
 202              	.L54:
 203 000a EA69     		ldr	r2, [r5, #28]
 204 000c B31E     		subs	r3, r6, #2
 205 000e 023A     		subs	r2, r2, #2
 206 0010 9342     		cmp	r3, r2
 207 0012 23D2     		bcs	.L59
 208 0014 6E89     		ldrh	r6, [r5, #10]
 209 0016 2A6B     		ldr	r2, [r5, #48]
 210 0018 03FB0626 		mla	r6, r3, r6, r2
 211              	.L51:
 212 001c 05F13807 		add	r7, r5, #56
 213 0020 05F50E71 		add	r1, r5, #568
 214 0024 0022     		movs	r2, #0
 215 0026 6E63     		str	r6, [r5, #52]
 216 0028 3B46     		mov	r3, r7
 217              	.L55:
 218 002a 03F8012B 		strb	r2, [r3], #1
 219 002e 8B42     		cmp	r3, r1
 220 0030 FBD1     		bne	.L55
 221 0032 6889     		ldrh	r0, [r5, #10]
 222 0034 D0B1     		cbz	r0, .L65
 223 0036 0024     		movs	r4, #0
 224 0038 03E0     		b	.L56
 225              	.L58:
 226 003a 0134     		adds	r4, r4, #1
 227 003c 6889     		ldrh	r0, [r5, #10]
 228 003e A042     		cmp	r0, r4
 229 0040 08D9     		bls	.L57
 230              	.L56:
 231 0042 0123     		movs	r3, #1
 232 0044 3219     		adds	r2, r6, r4
 233 0046 3946     		mov	r1, r7
 234 0048 6878     		ldrb	r0, [r5, #1]	@ zero_extendqisi2
 235 004a FFF7FEFF 		bl	disk_write
 236 004e 0028     		cmp	r0, #0
 237 0050 F3D0     		beq	.L58
ARM GAS  C:\Users\Jay\AppData\Local\Temp\cc8FQaEx.s 			page 5


 238 0052 6889     		ldrh	r0, [r5, #10]
 239              	.L57:
 240 0054 201A     		subs	r0, r4, r0
 241 0056 18BF     		it	ne
 242 0058 0120     		movne	r0, #1
 243 005a F8BD     		pop	{r3, r4, r5, r6, r7, pc}
 244              	.L59:
 245 005c 0026     		movs	r6, #0
 246 005e DDE7     		b	.L51
 247              	.L50:
 248 0060 FFF7FEFF 		bl	sync_window.part.5
 249 0064 0028     		cmp	r0, #0
 250 0066 D0D0     		beq	.L54
 251 0068 0120     		movs	r0, #1
 252 006a F8BD     		pop	{r3, r4, r5, r6, r7, pc}
 253              	.L65:
 254 006c 0446     		mov	r4, r0
 255 006e F1E7     		b	.L57
 257              		.section	.text.sync_fs,"ax",%progbits
 258              		.align	1
 259              		.p2align 2,,3
 260              		.syntax unified
 261              		.thumb
 262              		.thumb_func
 263              		.fpu fpv5-sp-d16
 265              	sync_fs:
 266              		@ args = 0, pretend = 0, frame = 0
 267              		@ frame_needed = 0, uses_anonymous_args = 0
 268 0000 F8B5     		push	{r3, r4, r5, r6, r7, lr}
 269 0002 C378     		ldrb	r3, [r0, #3]	@ zero_extendqisi2
 270 0004 0546     		mov	r5, r0
 271 0006 5BB9     		cbnz	r3, .L67
 272 0008 2B78     		ldrb	r3, [r5]	@ zero_extendqisi2
 273 000a 032B     		cmp	r3, #3
 274 000c 0FD0     		beq	.L79
 275              	.L69:
 276 000e 0022     		movs	r2, #0
 277 0010 6878     		ldrb	r0, [r5, #1]	@ zero_extendqisi2
 278 0012 1146     		mov	r1, r2
 279 0014 FFF7FEFF 		bl	disk_ioctl
 280 0018 0030     		adds	r0, r0, #0
 281 001a 18BF     		it	ne
 282 001c 0120     		movne	r0, #1
 283              	.L71:
 284 001e F8BD     		pop	{r3, r4, r5, r6, r7, pc}
 285              	.L67:
 286 0020 FFF7FEFF 		bl	sync_window.part.5
 287 0024 0028     		cmp	r0, #0
 288 0026 FAD1     		bne	.L71
 289 0028 2B78     		ldrb	r3, [r5]	@ zero_extendqisi2
 290 002a 032B     		cmp	r3, #3
 291 002c EFD1     		bne	.L69
 292              	.L79:
 293 002e 2B79     		ldrb	r3, [r5, #4]	@ zero_extendqisi2
 294 0030 012B     		cmp	r3, #1
 295 0032 ECD1     		bne	.L69
 296 0034 05F13801 		add	r1, r5, #56
ARM GAS  C:\Users\Jay\AppData\Local\Temp\cc8FQaEx.s 			page 6


 297 0038 05F50E72 		add	r2, r5, #568
 298 003c 0024     		movs	r4, #0
 299 003e 0B46     		mov	r3, r1
 300              	.L72:
 301 0040 03F8014B 		strb	r4, [r3], #1
 302 0044 9A42     		cmp	r2, r3
 303 0046 FBD1     		bne	.L72
 304 0048 6869     		ldr	r0, [r5, #20]
 305 004a 5526     		movs	r6, #85
 306 004c 2B69     		ldr	r3, [r5, #16]
 307 004e 070A     		lsrs	r7, r0, #8
 308 0050 85F82002 		strb	r0, [r5, #544]
 309 0054 6A6A     		ldr	r2, [r5, #36]
 310 0056 85F82172 		strb	r7, [r5, #545]
 311 005a 070C     		lsrs	r7, r0, #16
 312 005c 000E     		lsrs	r0, r0, #24
 313 005e 85F82432 		strb	r3, [r5, #548]
 314 0062 85F82272 		strb	r7, [r5, #546]
 315 0066 1F0A     		lsrs	r7, r3, #8
 316 0068 85F82302 		strb	r0, [r5, #547]
 317 006c 180C     		lsrs	r0, r3, #16
 318 006e 1B0E     		lsrs	r3, r3, #24
 319 0070 0132     		adds	r2, r2, #1
 320 0072 85F82602 		strb	r0, [r5, #550]
 321 0076 AA20     		movs	r0, #170
 322 0078 85F82572 		strb	r7, [r5, #549]
 323 007c 6127     		movs	r7, #97
 324 007e 85F82732 		strb	r3, [r5, #551]
 325 0082 5223     		movs	r3, #82
 326 0084 85F83662 		strb	r6, [r5, #566]
 327 0088 4126     		movs	r6, #65
 328 008a 85F83702 		strb	r0, [r5, #567]
 329 008e 7220     		movs	r0, #114
 330 0090 85F83830 		strb	r3, [r5, #56]
 331 0094 85F83930 		strb	r3, [r5, #57]
 332 0098 0123     		movs	r3, #1
 333 009a 85F81C02 		strb	r0, [r5, #540]
 334 009e 85F81D02 		strb	r0, [r5, #541]
 335 00a2 6A63     		str	r2, [r5, #52]
 336 00a4 85F83A70 		strb	r7, [r5, #58]
 337 00a8 85F81F72 		strb	r7, [r5, #543]
 338 00ac 85F83B60 		strb	r6, [r5, #59]
 339 00b0 85F81E62 		strb	r6, [r5, #542]
 340 00b4 6878     		ldrb	r0, [r5, #1]	@ zero_extendqisi2
 341 00b6 FFF7FEFF 		bl	disk_write
 342 00ba 2C71     		strb	r4, [r5, #4]
 343 00bc A7E7     		b	.L69
 345 00be 00BF     		.section	.text.move_window.part.6,"ax",%progbits
 346              		.align	1
 347              		.p2align 2,,3
 348              		.syntax unified
 349              		.thumb
 350              		.thumb_func
 351              		.fpu fpv5-sp-d16
 353              	move_window.part.6:
 354              		@ args = 0, pretend = 0, frame = 0
 355              		@ frame_needed = 0, uses_anonymous_args = 0
ARM GAS  C:\Users\Jay\AppData\Local\Temp\cc8FQaEx.s 			page 7


 356 0000 38B5     		push	{r3, r4, r5, lr}
 357 0002 C378     		ldrb	r3, [r0, #3]	@ zero_extendqisi2
 358 0004 0446     		mov	r4, r0
 359 0006 0D46     		mov	r5, r1
 360 0008 13B1     		cbz	r3, .L83
 361 000a FFF7FEFF 		bl	sync_window.part.5
 362 000e 68B9     		cbnz	r0, .L84
 363              	.L83:
 364 0010 2A46     		mov	r2, r5
 365 0012 0123     		movs	r3, #1
 366 0014 04F13801 		add	r1, r4, #56
 367 0018 6078     		ldrb	r0, [r4, #1]	@ zero_extendqisi2
 368 001a FFF7FEFF 		bl	disk_read
 369 001e 0028     		cmp	r0, #0
 370 0020 16BF     		itet	ne
 371 0022 4FF0FF35 		movne	r5, #-1
 372 0026 0020     		moveq	r0, #0
 373 0028 0120     		movne	r0, #1
 374 002a 6563     		str	r5, [r4, #52]
 375              	.L84:
 376 002c 38BD     		pop	{r3, r4, r5, pc}
 378 002e 00BF     		.section	.text.check_fs,"ax",%progbits
 379              		.align	1
 380              		.p2align 2,,3
 381              		.syntax unified
 382              		.thumb
 383              		.thumb_func
 384              		.fpu fpv5-sp-d16
 386              	check_fs:
 387              		@ args = 0, pretend = 0, frame = 0
 388              		@ frame_needed = 0, uses_anonymous_args = 0
 389 0000 4FF0FF33 		mov	r3, #-1
 390 0004 0022     		movs	r2, #0
 391 0006 9942     		cmp	r1, r3
 392 0008 10B5     		push	{r4, lr}
 393 000a 0446     		mov	r4, r0
 394 000c C270     		strb	r2, [r0, #3]
 395 000e 4363     		str	r3, [r0, #52]
 396 0010 22D1     		bne	.L91
 397              	.L94:
 398 0012 94F83712 		ldrb	r1, [r4, #567]	@ zero_extendqisi2
 399 0016 4AF65522 		movw	r2, #43605
 400 001a 94F83632 		ldrb	r3, [r4, #566]	@ zero_extendqisi2
 401 001e 43EA0123 		orr	r3, r3, r1, lsl #8
 402 0022 9342     		cmp	r3, r2
 403 0024 16D1     		bne	.L109
 404 0026 94F83820 		ldrb	r2, [r4, #56]	@ zero_extendqisi2
 405 002a 02F11803 		add	r3, r2, #24
 406 002e DBB2     		uxtb	r3, r3
 407 0030 012B     		cmp	r3, #1
 408 0032 01D9     		bls	.L105
 409 0034 EB2A     		cmp	r2, #235
 410 0036 2AD1     		bne	.L102
 411              	.L105:
 412 0038 94F86E30 		ldrb	r3, [r4, #110]	@ zero_extendqisi2
 413 003c 462B     		cmp	r3, #70
 414 003e 11D1     		bne	.L96
ARM GAS  C:\Users\Jay\AppData\Local\Temp\cc8FQaEx.s 			page 8


 415 0040 94F86F30 		ldrb	r3, [r4, #111]	@ zero_extendqisi2
 416 0044 412B     		cmp	r3, #65
 417 0046 0DD1     		bne	.L96
 418 0048 94F87030 		ldrb	r3, [r4, #112]	@ zero_extendqisi2
 419 004c 542B     		cmp	r3, #84
 420 004e 09D1     		bne	.L96
 421 0050 0020     		movs	r0, #0
 422 0052 10BD     		pop	{r4, pc}
 423              	.L109:
 424 0054 0320     		movs	r0, #3
 425 0056 10BD     		pop	{r4, pc}
 426              	.L91:
 427 0058 FFF7FEFF 		bl	move_window.part.6
 428 005c 0028     		cmp	r0, #0
 429 005e D8D0     		beq	.L94
 430 0060 0420     		movs	r0, #4
 431 0062 10BD     		pop	{r4, pc}
 432              	.L96:
 433 0064 94F88A30 		ldrb	r3, [r4, #138]	@ zero_extendqisi2
 434 0068 04F18B02 		add	r2, r4, #139
 435 006c 0949     		ldr	r1, .L110
 436 006e 8F34     		adds	r4, r4, #143
 437 0070 463B     		subs	r3, r3, #70
 438              	.L97:
 439 0072 63B9     		cbnz	r3, .L102
 440 0074 12F8013B 		ldrb	r3, [r2], #1	@ zero_extendqisi2
 441 0078 11F8010F 		ldrb	r0, [r1, #1]!	@ zero_extendqisi2
 442 007c A242     		cmp	r2, r4
 443 007e A3EB0003 		sub	r3, r3, r0
 444 0082 F6D1     		bne	.L97
 445 0084 002B     		cmp	r3, #0
 446 0086 14BF     		ite	ne
 447 0088 0220     		movne	r0, #2
 448 008a 0020     		moveq	r0, #0
 449 008c 10BD     		pop	{r4, pc}
 450              	.L102:
 451 008e 0220     		movs	r0, #2
 452 0090 10BD     		pop	{r4, pc}
 453              	.L111:
 454 0092 00BF     		.align	2
 455              	.L110:
 456 0094 00000000 		.word	.LC0
 458              		.section	.text.put_fat.part.8,"ax",%progbits
 459              		.align	1
 460              		.p2align 2,,3
 461              		.syntax unified
 462              		.thumb
 463              		.thumb_func
 464              		.fpu fpv5-sp-d16
 466              	put_fat.part.8:
 467              		@ args = 0, pretend = 0, frame = 0
 468              		@ frame_needed = 0, uses_anonymous_args = 0
 469 0000 2DE9F843 		push	{r3, r4, r5, r6, r7, r8, r9, lr}
 470 0004 0378     		ldrb	r3, [r0]	@ zero_extendqisi2
 471 0006 0446     		mov	r4, r0
 472 0008 0D46     		mov	r5, r1
 473 000a 1646     		mov	r6, r2
ARM GAS  C:\Users\Jay\AppData\Local\Temp\cc8FQaEx.s 			page 9


 474 000c 022B     		cmp	r3, #2
 475 000e 57D0     		beq	.L114
 476 0010 032B     		cmp	r3, #3
 477 0012 36D0     		beq	.L115
 478 0014 012B     		cmp	r3, #1
 479 0016 02D0     		beq	.L146
 480 0018 0220     		movs	r0, #2
 481              	.L135:
 482 001a BDE8F883 		pop	{r3, r4, r5, r6, r7, r8, r9, pc}
 483              	.L146:
 484 001e 01EB5107 		add	r7, r1, r1, lsr #1
 485 0022 816A     		ldr	r1, [r0, #40]
 486 0024 436B     		ldr	r3, [r0, #52]
 487 0026 01EB5721 		add	r1, r1, r7, lsr #9
 488 002a 9942     		cmp	r1, r3
 489 002c 61D1     		bne	.L117
 490              	.L120:
 491 002e 07F10108 		add	r8, r7, #1
 492 0032 EB07     		lsls	r3, r5, #31
 493 0034 C7F30807 		ubfx	r7, r7, #0, #9
 494 0038 04F13809 		add	r9, r4, #56
 495 003c 4FEA5821 		lsr	r1, r8, #9
 496 0040 61D5     		bpl	.L147
 497 0042 19F80730 		ldrb	r3, [r9, r7]	@ zero_extendqisi2
 498 0046 0122     		movs	r2, #1
 499 0048 03F00F03 		and	r3, r3, #15
 500 004c 43EA0613 		orr	r3, r3, r6, lsl #4
 501 0050 09F80730 		strb	r3, [r9, r7]
 502 0054 A06A     		ldr	r0, [r4, #40]
 503 0056 636B     		ldr	r3, [r4, #52]
 504 0058 0144     		add	r1, r1, r0
 505 005a E270     		strb	r2, [r4, #3]
 506 005c 9942     		cmp	r1, r3
 507 005e 04D0     		beq	.L143
 508 0060 2046     		mov	r0, r4
 509 0062 FFF7FEFF 		bl	move_window.part.6
 510 0066 0028     		cmp	r0, #0
 511 0068 D7D1     		bne	.L135
 512              	.L143:
 513 006a C8F30808 		ubfx	r8, r8, #0, #9
 514 006e C6F30716 		ubfx	r6, r6, #4, #8
 515 0072 C844     		add	r8, r8, r9
 516              	.L125:
 517 0074 0123     		movs	r3, #1
 518 0076 88F80060 		strb	r6, [r8]
 519 007a 0020     		movs	r0, #0
 520 007c E370     		strb	r3, [r4, #3]
 521 007e BDE8F883 		pop	{r3, r4, r5, r6, r7, r8, r9, pc}
 522              	.L115:
 523 0082 816A     		ldr	r1, [r0, #40]
 524 0084 436B     		ldr	r3, [r0, #52]
 525 0086 01EBD511 		add	r1, r1, r5, lsr #7
 526 008a 9942     		cmp	r1, r3
 527 008c 36D1     		bne	.L128
 528              	.L129:
 529 008e AD00     		lsls	r5, r5, #2
 530 0090 04F13801 		add	r1, r4, #56
ARM GAS  C:\Users\Jay\AppData\Local\Temp\cc8FQaEx.s 			page 10


 531 0094 26F07046 		bic	r6, r6, #-268435456
 532 0098 0127     		movs	r7, #1
 533 009a 05F4FE75 		and	r5, r5, #508
 534 009e 0020     		movs	r0, #0
 535 00a0 4B19     		adds	r3, r1, r5
 536 00a2 5A88     		ldrh	r2, [r3, #2]	@ unaligned
 537 00a4 1204     		lsls	r2, r2, #16
 538 00a6 02F07042 		and	r2, r2, #-268435456
 539 00aa 3243     		orrs	r2, r2, r6
 540 00ac 4A55     		strb	r2, [r1, r5]
 541 00ae 150A     		lsrs	r5, r2, #8
 542 00b0 110C     		lsrs	r1, r2, #16
 543 00b2 120E     		lsrs	r2, r2, #24
 544 00b4 5D70     		strb	r5, [r3, #1]
 545 00b6 9970     		strb	r1, [r3, #2]
 546 00b8 DA70     		strb	r2, [r3, #3]
 547 00ba E770     		strb	r7, [r4, #3]
 548 00bc BDE8F883 		pop	{r3, r4, r5, r6, r7, r8, r9, pc}
 549              	.L114:
 550 00c0 816A     		ldr	r1, [r0, #40]
 551 00c2 436B     		ldr	r3, [r0, #52]
 552 00c4 01EB1521 		add	r1, r1, r5, lsr #8
 553 00c8 9942     		cmp	r1, r3
 554 00ca 03D0     		beq	.L127
 555 00cc FFF7FEFF 		bl	move_window.part.6
 556 00d0 0028     		cmp	r0, #0
 557 00d2 A2D1     		bne	.L135
 558              	.L127:
 559 00d4 6D00     		lsls	r5, r5, #1
 560 00d6 04F13803 		add	r3, r4, #56
 561 00da C6F30721 		ubfx	r1, r6, #8, #8
 562 00de 0122     		movs	r2, #1
 563 00e0 05F4FF75 		and	r5, r5, #510
 564 00e4 0020     		movs	r0, #0
 565 00e6 5E55     		strb	r6, [r3, r5]
 566 00e8 2B44     		add	r3, r3, r5
 567 00ea 5970     		strb	r1, [r3, #1]
 568 00ec E270     		strb	r2, [r4, #3]
 569 00ee BDE8F883 		pop	{r3, r4, r5, r6, r7, r8, r9, pc}
 570              	.L117:
 571 00f2 FFF7FEFF 		bl	move_window.part.6
 572 00f6 0028     		cmp	r0, #0
 573 00f8 99D0     		beq	.L120
 574 00fa 8EE7     		b	.L135
 575              	.L128:
 576 00fc FFF7FEFF 		bl	move_window.part.6
 577 0100 0028     		cmp	r0, #0
 578 0102 C4D0     		beq	.L129
 579 0104 89E7     		b	.L135
 580              	.L147:
 581 0106 09F80760 		strb	r6, [r9, r7]
 582 010a 0122     		movs	r2, #1
 583 010c A06A     		ldr	r0, [r4, #40]
 584 010e 636B     		ldr	r3, [r4, #52]
 585 0110 0144     		add	r1, r1, r0
 586 0112 E270     		strb	r2, [r4, #3]
 587 0114 9942     		cmp	r1, r3
ARM GAS  C:\Users\Jay\AppData\Local\Temp\cc8FQaEx.s 			page 11


 588 0116 0AD1     		bne	.L148
 589              	.L144:
 590 0118 C8F30808 		ubfx	r8, r8, #0, #9
 591 011c C6F30322 		ubfx	r2, r6, #8, #4
 592 0120 C844     		add	r8, r8, r9
 593 0122 98F80030 		ldrb	r3, [r8]	@ zero_extendqisi2
 594 0126 23F00F06 		bic	r6, r3, #15
 595 012a 1643     		orrs	r6, r6, r2
 596 012c A2E7     		b	.L125
 597              	.L148:
 598 012e 2046     		mov	r0, r4
 599 0130 FFF7FEFF 		bl	move_window.part.6
 600 0134 0028     		cmp	r0, #0
 601 0136 7FF470AF 		bne	.L135
 602 013a EDE7     		b	.L144
 604              		.section	.text.get_fat.isra.9,"ax",%progbits
 605              		.align	1
 606              		.p2align 2,,3
 607              		.syntax unified
 608              		.thumb
 609              		.thumb_func
 610              		.fpu fpv5-sp-d16
 612              	get_fat.isra.9:
 613              		@ args = 0, pretend = 0, frame = 0
 614              		@ frame_needed = 0, uses_anonymous_args = 0
 615 0000 0129     		cmp	r1, #1
 616 0002 2CD9     		bls	.L165
 617 0004 C269     		ldr	r2, [r0, #28]
 618 0006 9142     		cmp	r1, r2
 619 0008 F8B5     		push	{r3, r4, r5, r6, r7, lr}
 620 000a 0646     		mov	r6, r0
 621 000c 25D2     		bcs	.L168
 622 000e 0378     		ldrb	r3, [r0]	@ zero_extendqisi2
 623 0010 0C46     		mov	r4, r1
 624 0012 022B     		cmp	r3, #2
 625 0014 3BD0     		beq	.L151
 626 0016 032B     		cmp	r3, #3
 627 0018 23D0     		beq	.L152
 628 001a 012B     		cmp	r3, #1
 629 001c 1DD1     		bne	.L168
 630 001e 01EB5107 		add	r7, r1, r1, lsr #1
 631 0022 836A     		ldr	r3, [r0, #40]
 632 0024 D0F834C0 		ldr	ip, [r0, #52]
 633 0028 03EB5721 		add	r1, r3, r7, lsr #9
 634 002c 6145     		cmp	r1, ip
 635 002e 4AD1     		bne	.L174
 636              	.L154:
 637 0030 C7F30802 		ubfx	r2, r7, #0, #9
 638 0034 0137     		adds	r7, r7, #1
 639 0036 03EB5721 		add	r1, r3, r7, lsr #9
 640 003a 3244     		add	r2, r2, r6
 641 003c 6145     		cmp	r1, ip
 642 003e 92F83850 		ldrb	r5, [r2, #56]	@ zero_extendqisi2
 643 0042 48D1     		bne	.L156
 644              	.L160:
 645 0044 C7F30803 		ubfx	r3, r7, #0, #9
 646 0048 3344     		add	r3, r3, r6
ARM GAS  C:\Users\Jay\AppData\Local\Temp\cc8FQaEx.s 			page 12


 647 004a 93F83800 		ldrb	r0, [r3, #56]	@ zero_extendqisi2
 648 004e E307     		lsls	r3, r4, #31
 649 0050 45EA0020 		orr	r0, r5, r0, lsl #8
 650 0054 45D5     		bpl	.L175
 651 0056 0009     		lsrs	r0, r0, #4
 652 0058 F8BD     		pop	{r3, r4, r5, r6, r7, pc}
 653              	.L168:
 654 005a 0120     		movs	r0, #1
 655 005c F8BD     		pop	{r3, r4, r5, r6, r7, pc}
 656              	.L165:
 657 005e 0120     		movs	r0, #1
 658 0060 7047     		bx	lr
 659              	.L152:
 660 0062 816A     		ldr	r1, [r0, #40]
 661 0064 436B     		ldr	r3, [r0, #52]
 662 0066 01EBD411 		add	r1, r1, r4, lsr #7
 663 006a 9942     		cmp	r1, r3
 664 006c 26D1     		bne	.L163
 665              	.L164:
 666 006e A100     		lsls	r1, r4, #2
 667 0070 06F13803 		add	r3, r6, #56
 668 0074 01F4FE71 		and	r1, r1, #508
 669 0078 5A18     		adds	r2, r3, r1
 670 007a 585C     		ldrb	r0, [r3, r1]	@ zero_extendqisi2
 671 007c 5188     		ldrh	r1, [r2, #2]	@ unaligned
 672 007e 5378     		ldrb	r3, [r2, #1]	@ zero_extendqisi2
 673 0080 43EA0123 		orr	r3, r3, r1, lsl #8
 674 0084 40EA0320 		orr	r0, r0, r3, lsl #8
 675 0088 20F07040 		bic	r0, r0, #-268435456
 676 008c F8BD     		pop	{r3, r4, r5, r6, r7, pc}
 677              	.L151:
 678 008e 816A     		ldr	r1, [r0, #40]
 679 0090 436B     		ldr	r3, [r0, #52]
 680 0092 01EB1421 		add	r1, r1, r4, lsr #8
 681 0096 9942     		cmp	r1, r3
 682 0098 05D0     		beq	.L162
 683 009a FFF7FEFF 		bl	move_window.part.6
 684 009e 10B1     		cbz	r0, .L162
 685              	.L159:
 686 00a0 4FF0FF30 		mov	r0, #-1
 687 00a4 F8BD     		pop	{r3, r4, r5, r6, r7, pc}
 688              	.L162:
 689 00a6 6100     		lsls	r1, r4, #1
 690 00a8 06F13803 		add	r3, r6, #56
 691 00ac 01F4FF71 		and	r1, r1, #510
 692 00b0 5A18     		adds	r2, r3, r1
 693 00b2 585C     		ldrb	r0, [r3, r1]	@ zero_extendqisi2
 694 00b4 5378     		ldrb	r3, [r2, #1]	@ zero_extendqisi2
 695 00b6 40EA0320 		orr	r0, r0, r3, lsl #8
 696 00ba F8BD     		pop	{r3, r4, r5, r6, r7, pc}
 697              	.L163:
 698 00bc FFF7FEFF 		bl	move_window.part.6
 699 00c0 0028     		cmp	r0, #0
 700 00c2 D4D0     		beq	.L164
 701 00c4 ECE7     		b	.L159
 702              	.L174:
 703 00c6 FFF7FEFF 		bl	move_window.part.6
ARM GAS  C:\Users\Jay\AppData\Local\Temp\cc8FQaEx.s 			page 13


 704 00ca 0028     		cmp	r0, #0
 705 00cc E8D1     		bne	.L159
 706 00ce B36A     		ldr	r3, [r6, #40]
 707 00d0 D6F834C0 		ldr	ip, [r6, #52]
 708 00d4 ACE7     		b	.L154
 709              	.L156:
 710 00d6 3046     		mov	r0, r6
 711 00d8 FFF7FEFF 		bl	move_window.part.6
 712 00dc 0028     		cmp	r0, #0
 713 00de B1D0     		beq	.L160
 714 00e0 DEE7     		b	.L159
 715              	.L175:
 716 00e2 C0F30B00 		ubfx	r0, r0, #0, #12
 717 00e6 F8BD     		pop	{r3, r4, r5, r6, r7, pc}
 719              		.section	.text.dir_sdi,"ax",%progbits
 720              		.align	1
 721              		.p2align 2,,3
 722              		.syntax unified
 723              		.thumb
 724              		.thumb_func
 725              		.fpu fpv5-sp-d16
 727              	dir_sdi:
 728              		@ args = 0, pretend = 0, frame = 0
 729              		@ frame_needed = 0, uses_anonymous_args = 0
 730 0000 B1F5001F 		cmp	r1, #2097152
 731 0004 29D2     		bcs	.L195
 732 0006 CA06     		lsls	r2, r1, #27
 733 0008 F8B5     		push	{r3, r4, r5, r6, r7, lr}
 734 000a 0C46     		mov	r4, r1
 735 000c 23D1     		bne	.L179
 736 000e 8168     		ldr	r1, [r0, #8]
 737 0010 0546     		mov	r5, r0
 738 0012 0461     		str	r4, [r0, #16]
 739 0014 0668     		ldr	r6, [r0]
 740 0016 19BB     		cbnz	r1, .L180
 741 0018 3378     		ldrb	r3, [r6]	@ zero_extendqisi2
 742 001a 022B     		cmp	r3, #2
 743 001c 01D9     		bls	.L181
 744 001e F36A     		ldr	r3, [r6, #44]
 745 0020 EBB9     		cbnz	r3, .L187
 746              	.L181:
 747 0022 3389     		ldrh	r3, [r6, #8]
 748 0024 B3EB541F 		cmp	r3, r4, lsr #5
 749 0028 15D9     		bls	.L179
 750 002a F36A     		ldr	r3, [r6, #44]
 751 002c AB61     		str	r3, [r5, #24]
 752              	.L182:
 753 002e 6961     		str	r1, [r5, #20]
 754 0030 8BB1     		cbz	r3, .L179
 755 0032 C4F30802 		ubfx	r2, r4, #0, #9
 756 0036 3836     		adds	r6, r6, #56
 757 0038 03EB5424 		add	r4, r3, r4, lsr #9
 758 003c 0020     		movs	r0, #0
 759 003e 1644     		add	r6, r6, r2
 760 0040 C5E90646 		strd	r4, r6, [r5, #24]
 761 0044 F8BD     		pop	{r3, r4, r5, r6, r7, pc}
 762              	.L183:
ARM GAS  C:\Users\Jay\AppData\Local\Temp\cc8FQaEx.s 			page 14


 763 0046 F369     		ldr	r3, [r6, #28]
 764              	.L184:
 765 0048 023B     		subs	r3, r3, #2
 766 004a 8A1E     		subs	r2, r1, #2
 767 004c 9A42     		cmp	r2, r3
 768 004e 1ED3     		bcc	.L186
 769 0050 0023     		movs	r3, #0
 770 0052 C5E90513 		strd	r1, r3, [r5, #20]
 771              	.L179:
 772 0056 0220     		movs	r0, #2
 773 0058 F8BD     		pop	{r3, r4, r5, r6, r7, pc}
 774              	.L195:
 775 005a 0220     		movs	r0, #2
 776 005c 7047     		bx	lr
 777              	.L187:
 778 005e 1946     		mov	r1, r3
 779              	.L180:
 780 0060 7789     		ldrh	r7, [r6, #10]
 781 0062 7F02     		lsls	r7, r7, #9
 782 0064 BC42     		cmp	r4, r7
 783 0066 EED3     		bcc	.L183
 784 0068 3046     		mov	r0, r6
 785 006a 07E0     		b	.L185
 786              	.L196:
 787 006c 0128     		cmp	r0, #1
 788 006e F2D9     		bls	.L179
 789 0070 F369     		ldr	r3, [r6, #28]
 790 0072 8342     		cmp	r3, r0
 791 0074 EFD9     		bls	.L179
 792 0076 A742     		cmp	r7, r4
 793 0078 E6D8     		bhi	.L184
 794 007a 2868     		ldr	r0, [r5]
 795              	.L185:
 796 007c FFF7FEFF 		bl	get_fat.isra.9
 797 0080 431C     		adds	r3, r0, #1
 798 0082 0146     		mov	r1, r0
 799 0084 A4EB0704 		sub	r4, r4, r7
 800 0088 F0D1     		bne	.L196
 801 008a 0120     		movs	r0, #1
 802 008c F8BD     		pop	{r3, r4, r5, r6, r7, pc}
 803              	.L186:
 804 008e 7389     		ldrh	r3, [r6, #10]
 805 0090 306B     		ldr	r0, [r6, #48]
 806 0092 02FB0303 		mla	r3, r2, r3, r0
 807 0096 AB61     		str	r3, [r5, #24]
 808 0098 C9E7     		b	.L182
 810 009a 00BF     		.section	.text.create_chain,"ax",%progbits
 811              		.align	1
 812              		.p2align 2,,3
 813              		.syntax unified
 814              		.thumb
 815              		.thumb_func
 816              		.fpu fpv5-sp-d16
 818              	create_chain:
 819              		@ args = 0, pretend = 0, frame = 0
 820              		@ frame_needed = 0, uses_anonymous_args = 0
 821 0000 2DE9F041 		push	{r4, r5, r6, r7, r8, lr}
ARM GAS  C:\Users\Jay\AppData\Local\Temp\cc8FQaEx.s 			page 15


 822 0004 0746     		mov	r7, r0
 823 0006 8846     		mov	r8, r1
 824 0008 0668     		ldr	r6, [r0]
 825 000a 69BB     		cbnz	r1, .L198
 826 000c 3569     		ldr	r5, [r6, #16]
 827 000e 45B1     		cbz	r5, .L216
 828 0010 F369     		ldr	r3, [r6, #28]
 829 0012 AB42     		cmp	r3, r5
 830 0014 98BF     		it	ls
 831 0016 0125     		movls	r5, #1
 832 0018 7369     		ldr	r3, [r6, #20]
 833 001a 33B9     		cbnz	r3, .L242
 834              	.L209:
 835 001c 0020     		movs	r0, #0
 836              	.L197:
 837 001e BDE8F081 		pop	{r4, r5, r6, r7, r8, pc}
 838              	.L216:
 839 0022 7369     		ldr	r3, [r6, #20]
 840 0024 0125     		movs	r5, #1
 841 0026 002B     		cmp	r3, #0
 842 0028 F8D0     		beq	.L209
 843              	.L242:
 844 002a F369     		ldr	r3, [r6, #28]
 845              	.L206:
 846 002c 2C46     		mov	r4, r5
 847 002e 06E0     		b	.L210
 848              	.L243:
 849 0030 0128     		cmp	r0, #1
 850 0032 F4D0     		beq	.L197
 851 0034 431C     		adds	r3, r0, #1
 852 0036 F2D0     		beq	.L197
 853 0038 AC42     		cmp	r4, r5
 854 003a EFD0     		beq	.L209
 855 003c F369     		ldr	r3, [r6, #28]
 856              	.L210:
 857 003e 0134     		adds	r4, r4, #1
 858 0040 9C42     		cmp	r4, r3
 859 0042 03D3     		bcc	.L208
 860 0044 012D     		cmp	r5, #1
 861 0046 4FF00204 		mov	r4, #2
 862 004a E7D9     		bls	.L209
 863              	.L208:
 864 004c 2146     		mov	r1, r4
 865 004e 3868     		ldr	r0, [r7]
 866 0050 FFF7FEFF 		bl	get_fat.isra.9
 867 0054 0028     		cmp	r0, #0
 868 0056 EBD1     		bne	.L243
 869              	.L207:
 870 0058 012C     		cmp	r4, #1
 871 005a 02D9     		bls	.L200
 872 005c F369     		ldr	r3, [r6, #28]
 873 005e 9C42     		cmp	r4, r3
 874 0060 2FD3     		bcc	.L244
 875              	.L200:
 876 0062 0120     		movs	r0, #1
 877 0064 BDE8F081 		pop	{r4, r5, r6, r7, r8, pc}
 878              	.L198:
ARM GAS  C:\Users\Jay\AppData\Local\Temp\cc8FQaEx.s 			page 16


 879 0068 3046     		mov	r0, r6
 880 006a FFF7FEFF 		bl	get_fat.isra.9
 881 006e 0128     		cmp	r0, #1
 882 0070 F7D9     		bls	.L200
 883 0072 411C     		adds	r1, r0, #1
 884 0074 1DD0     		beq	.L214
 885 0076 F369     		ldr	r3, [r6, #28]
 886 0078 8342     		cmp	r3, r0
 887 007a D0D8     		bhi	.L197
 888 007c 7269     		ldr	r2, [r6, #20]
 889 007e 002A     		cmp	r2, #0
 890 0080 CCD0     		beq	.L209
 891 0082 08F10104 		add	r4, r8, #1
 892 0086 3868     		ldr	r0, [r7]
 893 0088 A342     		cmp	r3, r4
 894 008a 98BF     		it	ls
 895 008c 0224     		movls	r4, #2
 896 008e 2146     		mov	r1, r4
 897 0090 FFF7FEFF 		bl	get_fat.isra.9
 898 0094 0128     		cmp	r0, #1
 899 0096 C2D0     		beq	.L197
 900 0098 421C     		adds	r2, r0, #1
 901 009a C0D0     		beq	.L197
 902 009c 60B1     		cbz	r0, .L205
 903 009e 3569     		ldr	r5, [r6, #16]
 904 00a0 F369     		ldr	r3, [r6, #28]
 905 00a2 012D     		cmp	r5, #1
 906 00a4 32D9     		bls	.L219
 907 00a6 9D42     		cmp	r5, r3
 908 00a8 28BF     		it	cs
 909 00aa 4546     		movcs	r5, r8
 910 00ac BEE7     		b	.L206
 911              	.L212:
 912 00ae 0128     		cmp	r0, #1
 913 00b0 D7D1     		bne	.L200
 914              	.L214:
 915 00b2 4FF0FF30 		mov	r0, #-1
 916 00b6 B2E7     		b	.L197
 917              	.L205:
 918 00b8 002C     		cmp	r4, #0
 919 00ba CDD1     		bne	.L207
 920 00bc F369     		ldr	r3, [r6, #28]
 921 00be 4546     		mov	r5, r8
 922 00c0 B4E7     		b	.L206
 923              	.L244:
 924 00c2 4FF0FF32 		mov	r2, #-1
 925 00c6 2146     		mov	r1, r4
 926 00c8 3046     		mov	r0, r6
 927 00ca FFF7FEFF 		bl	put_fat.part.8
 928 00ce 68B9     		cbnz	r0, .L211
 929 00d0 B8F1000F 		cmp	r8, #0
 930 00d4 0AD0     		beq	.L211
 931 00d6 B8F1010F 		cmp	r8, #1
 932 00da C2D9     		bls	.L200
 933 00dc F369     		ldr	r3, [r6, #28]
 934 00de 9845     		cmp	r8, r3
 935 00e0 BFD2     		bcs	.L200
ARM GAS  C:\Users\Jay\AppData\Local\Temp\cc8FQaEx.s 			page 17


 936 00e2 4146     		mov	r1, r8
 937 00e4 2246     		mov	r2, r4
 938 00e6 3046     		mov	r0, r6
 939 00e8 FFF7FEFF 		bl	put_fat.part.8
 940              	.L211:
 941 00ec 0028     		cmp	r0, #0
 942 00ee DED1     		bne	.L212
 943 00f0 F369     		ldr	r3, [r6, #28]
 944 00f2 7269     		ldr	r2, [r6, #20]
 945 00f4 023B     		subs	r3, r3, #2
 946 00f6 3461     		str	r4, [r6, #16]
 947 00f8 9A42     		cmp	r2, r3
 948 00fa 01D8     		bhi	.L213
 949 00fc 013A     		subs	r2, r2, #1
 950 00fe 7261     		str	r2, [r6, #20]
 951              	.L213:
 952 0100 3379     		ldrb	r3, [r6, #4]	@ zero_extendqisi2
 953 0102 2046     		mov	r0, r4
 954 0104 43F00103 		orr	r3, r3, #1
 955 0108 3371     		strb	r3, [r6, #4]
 956 010a 88E7     		b	.L197
 957              	.L219:
 958 010c 4546     		mov	r5, r8
 959 010e 8DE7     		b	.L206
 961              		.section	.text.remove_chain,"ax",%progbits
 962              		.align	1
 963              		.p2align 2,,3
 964              		.syntax unified
 965              		.thumb
 966              		.thumb_func
 967              		.fpu fpv5-sp-d16
 969              	remove_chain:
 970              		@ args = 0, pretend = 0, frame = 0
 971              		@ frame_needed = 0, uses_anonymous_args = 0
 972 0000 0129     		cmp	r1, #1
 973 0002 3ED9     		bls	.L265
 974 0004 F8B5     		push	{r3, r4, r5, r6, r7, lr}
 975 0006 0568     		ldr	r5, [r0]
 976 0008 0C46     		mov	r4, r1
 977 000a 0746     		mov	r7, r0
 978 000c EB69     		ldr	r3, [r5, #28]
 979 000e 8B42     		cmp	r3, r1
 980 0010 2AD9     		bls	.L246
 981 0012 3ABB     		cbnz	r2, .L270
 982 0014 2846     		mov	r0, r5
 983 0016 1BE0     		b	.L252
 984              	.L249:
 985 0018 0128     		cmp	r0, #1
 986 001a 2846     		mov	r0, r5
 987 001c 24D0     		beq	.L246
 988 001e 731C     		adds	r3, r6, #1
 989 0020 31D0     		beq	.L254
 990 0022 012C     		cmp	r4, #1
 991 0024 20D9     		bls	.L246
 992 0026 EB69     		ldr	r3, [r5, #28]
 993 0028 9C42     		cmp	r4, r3
 994 002a 3446     		mov	r4, r6
ARM GAS  C:\Users\Jay\AppData\Local\Temp\cc8FQaEx.s 			page 18


 995 002c 1CD2     		bcs	.L246
 996 002e FFF7FEFF 		bl	put_fat.part.8
 997 0032 B0B9     		cbnz	r0, .L248
 998 0034 EB69     		ldr	r3, [r5, #28]
 999 0036 6A69     		ldr	r2, [r5, #20]
 1000 0038 991E     		subs	r1, r3, #2
 1001 003a 501C     		adds	r0, r2, #1
 1002 003c 8A42     		cmp	r2, r1
 1003 003e 04D2     		bcs	.L250
 1004 0040 2A79     		ldrb	r2, [r5, #4]	@ zero_extendqisi2
 1005 0042 6861     		str	r0, [r5, #20]
 1006 0044 42F00102 		orr	r2, r2, #1
 1007 0048 2A71     		strb	r2, [r5, #4]
 1008              	.L250:
 1009 004a B342     		cmp	r3, r6
 1010 004c 08D9     		bls	.L251
 1011              	.L268:
 1012 004e 3868     		ldr	r0, [r7]
 1013              	.L252:
 1014 0050 2146     		mov	r1, r4
 1015 0052 FFF7FEFF 		bl	get_fat.isra.9
 1016 0056 2146     		mov	r1, r4
 1017 0058 0646     		mov	r6, r0
 1018 005a 0022     		movs	r2, #0
 1019 005c 0028     		cmp	r0, #0
 1020 005e DBD1     		bne	.L249
 1021              	.L251:
 1022 0060 0020     		movs	r0, #0
 1023              	.L248:
 1024 0062 F8BD     		pop	{r3, r4, r5, r6, r7, pc}
 1025              	.L270:
 1026 0064 9342     		cmp	r3, r2
 1027 0066 01D8     		bhi	.L271
 1028              	.L246:
 1029 0068 0220     		movs	r0, #2
 1030 006a F8BD     		pop	{r3, r4, r5, r6, r7, pc}
 1031              	.L271:
 1032 006c 012A     		cmp	r2, #1
 1033 006e FBD9     		bls	.L246
 1034 0070 1146     		mov	r1, r2
 1035 0072 2846     		mov	r0, r5
 1036 0074 4FF0FF32 		mov	r2, #-1
 1037 0078 FFF7FEFF 		bl	put_fat.part.8
 1038 007c 0028     		cmp	r0, #0
 1039 007e E6D0     		beq	.L268
 1040 0080 F8BD     		pop	{r3, r4, r5, r6, r7, pc}
 1041              	.L265:
 1042 0082 0220     		movs	r0, #2
 1043 0084 7047     		bx	lr
 1044              	.L254:
 1045 0086 0120     		movs	r0, #1
 1046 0088 F8BD     		pop	{r3, r4, r5, r6, r7, pc}
 1048              		.section	.text.dir_next,"ax",%progbits
 1049              		.align	1
 1050              		.p2align 2,,3
 1051              		.syntax unified
 1052              		.thumb
ARM GAS  C:\Users\Jay\AppData\Local\Temp\cc8FQaEx.s 			page 19


 1053              		.thumb_func
 1054              		.fpu fpv5-sp-d16
 1056              	dir_next:
 1057              		@ args = 0, pretend = 0, frame = 8
 1058              		@ frame_needed = 0, uses_anonymous_args = 0
 1059 0000 2DE9F041 		push	{r4, r5, r6, r7, r8, lr}
 1060 0004 0569     		ldr	r5, [r0, #16]
 1061 0006 82B0     		sub	sp, sp, #8
 1062 0008 0446     		mov	r4, r0
 1063 000a 2035     		adds	r5, r5, #32
 1064 000c B5F5001F 		cmp	r5, #2097152
 1065 0010 17D2     		bcs	.L278
 1066 0012 8369     		ldr	r3, [r0, #24]
 1067 0014 002B     		cmp	r3, #0
 1068 0016 51D0     		beq	.L286
 1069 0018 C5F30807 		ubfx	r7, r5, #0, #9
 1070 001c 0668     		ldr	r6, [r0]
 1071 001e 3FB1     		cbz	r7, .L299
 1072              	.L276:
 1073 0020 3836     		adds	r6, r6, #56
 1074 0022 0020     		movs	r0, #0
 1075 0024 2561     		str	r5, [r4, #16]
 1076 0026 3E44     		add	r6, r6, r7
 1077 0028 E661     		str	r6, [r4, #28]
 1078              	.L274:
 1079 002a 02B0     		add	sp, sp, #8
 1080              		@ sp needed
 1081 002c BDE8F081 		pop	{r4, r5, r6, r7, r8, pc}
 1082              	.L299:
 1083 0030 8846     		mov	r8, r1
 1084 0032 0133     		adds	r3, r3, #1
 1085 0034 4169     		ldr	r1, [r0, #20]
 1086 0036 8361     		str	r3, [r0, #24]
 1087 0038 49B9     		cbnz	r1, .L277
 1088 003a 3389     		ldrh	r3, [r6, #8]
 1089 003c B3EB551F 		cmp	r3, r5, lsr #5
 1090 0040 EED8     		bhi	.L276
 1091              	.L278:
 1092 0042 0023     		movs	r3, #0
 1093 0044 0420     		movs	r0, #4
 1094 0046 A361     		str	r3, [r4, #24]
 1095 0048 02B0     		add	sp, sp, #8
 1096              		@ sp needed
 1097 004a BDE8F081 		pop	{r4, r5, r6, r7, r8, pc}
 1098              	.L277:
 1099 004e 7389     		ldrh	r3, [r6, #10]
 1100 0050 013B     		subs	r3, r3, #1
 1101 0052 13EA5523 		ands	r3, r3, r5, lsr #9
 1102 0056 E3D1     		bne	.L276
 1103 0058 3046     		mov	r0, r6
 1104 005a FFF7FEFF 		bl	get_fat.isra.9
 1105 005e 0128     		cmp	r0, #1
 1106 0060 0346     		mov	r3, r0
 1107 0062 23D9     		bls	.L283
 1108 0064 411C     		adds	r1, r0, #1
 1109 0066 23D0     		beq	.L284
 1110 0068 F269     		ldr	r2, [r6, #28]
ARM GAS  C:\Users\Jay\AppData\Local\Temp\cc8FQaEx.s 			page 20


 1111 006a 8242     		cmp	r2, r0
 1112 006c 13D8     		bhi	.L282
 1113 006e B8F1000F 		cmp	r8, #0
 1114 0072 E6D0     		beq	.L278
 1115 0074 6169     		ldr	r1, [r4, #20]
 1116 0076 2046     		mov	r0, r4
 1117 0078 FFF7FEFF 		bl	create_chain
 1118 007c E0B1     		cbz	r0, .L287
 1119 007e 0128     		cmp	r0, #1
 1120 0080 14D0     		beq	.L283
 1121 0082 421C     		adds	r2, r0, #1
 1122 0084 14D0     		beq	.L284
 1123 0086 0146     		mov	r1, r0
 1124 0088 0190     		str	r0, [sp, #4]
 1125 008a 3046     		mov	r0, r6
 1126 008c FFF7FEFF 		bl	dir_clear
 1127 0090 70B9     		cbnz	r0, .L284
 1128 0092 F269     		ldr	r2, [r6, #28]
 1129 0094 019B     		ldr	r3, [sp, #4]
 1130              	.L282:
 1131 0096 023A     		subs	r2, r2, #2
 1132 0098 991E     		subs	r1, r3, #2
 1133 009a 6361     		str	r3, [r4, #20]
 1134 009c 9142     		cmp	r1, r2
 1135 009e 09D2     		bcs	.L288
 1136 00a0 7389     		ldrh	r3, [r6, #10]
 1137 00a2 326B     		ldr	r2, [r6, #48]
 1138 00a4 01FB0323 		mla	r3, r1, r3, r2
 1139              	.L285:
 1140 00a8 A361     		str	r3, [r4, #24]
 1141 00aa B9E7     		b	.L276
 1142              	.L283:
 1143 00ac 0220     		movs	r0, #2
 1144 00ae BCE7     		b	.L274
 1145              	.L284:
 1146 00b0 0120     		movs	r0, #1
 1147 00b2 BAE7     		b	.L274
 1148              	.L288:
 1149 00b4 0023     		movs	r3, #0
 1150 00b6 F7E7     		b	.L285
 1151              	.L287:
 1152 00b8 0720     		movs	r0, #7
 1153 00ba B6E7     		b	.L274
 1154              	.L286:
 1155 00bc 0420     		movs	r0, #4
 1156 00be B4E7     		b	.L274
 1158              		.section	.text.dir_remove,"ax",%progbits
 1159              		.align	1
 1160              		.p2align 2,,3
 1161              		.syntax unified
 1162              		.thumb
 1163              		.thumb_func
 1164              		.fpu fpv5-sp-d16
 1166              	dir_remove:
 1167              		@ args = 0, pretend = 0, frame = 0
 1168              		@ frame_needed = 0, uses_anonymous_args = 0
 1169 0000 C16A     		ldr	r1, [r0, #44]
ARM GAS  C:\Users\Jay\AppData\Local\Temp\cc8FQaEx.s 			page 21


 1170 0002 4B1C     		adds	r3, r1, #1
 1171 0004 2DE9F041 		push	{r4, r5, r6, r7, r8, lr}
 1172 0008 0446     		mov	r4, r0
 1173 000a 0568     		ldr	r5, [r0]
 1174 000c 0669     		ldr	r6, [r0, #16]
 1175 000e 1BD1     		bne	.L301
 1176              	.L303:
 1177 0010 4FF0E508 		mov	r8, #229
 1178 0014 0127     		movs	r7, #1
 1179 0016 02E0     		b	.L302
 1180              	.L315:
 1181 0018 FFF7FEFF 		bl	dir_next
 1182 001c D0B9     		cbnz	r0, .L307
 1183              	.L302:
 1184 001e A369     		ldr	r3, [r4, #24]
 1185 0020 2846     		mov	r0, r5
 1186 0022 6A6B     		ldr	r2, [r5, #52]
 1187 0024 1946     		mov	r1, r3
 1188 0026 9342     		cmp	r3, r2
 1189 0028 02D0     		beq	.L308
 1190 002a FFF7FEFF 		bl	move_window.part.6
 1191 002e 88B9     		cbnz	r0, .L307
 1192              	.L308:
 1193 0030 E369     		ldr	r3, [r4, #28]
 1194 0032 0021     		movs	r1, #0
 1195 0034 2046     		mov	r0, r4
 1196 0036 83F80080 		strb	r8, [r3]
 1197 003a EF70     		strb	r7, [r5, #3]
 1198 003c 2369     		ldr	r3, [r4, #16]
 1199 003e B342     		cmp	r3, r6
 1200 0040 EAD3     		bcc	.L315
 1201 0042 0020     		movs	r0, #0
 1202 0044 BDE8F081 		pop	{r4, r5, r6, r7, r8, pc}
 1203              	.L301:
 1204 0048 FFF7FEFF 		bl	dir_sdi
 1205 004c 0028     		cmp	r0, #0
 1206 004e DFD0     		beq	.L303
 1207 0050 BDE8F081 		pop	{r4, r5, r6, r7, r8, pc}
 1208              	.L307:
 1209 0054 0428     		cmp	r0, #4
 1210 0056 08BF     		it	eq
 1211 0058 0220     		moveq	r0, #2
 1212 005a BDE8F081 		pop	{r4, r5, r6, r7, r8, pc}
 1214 005e 00BF     		.section	.text.dir_find,"ax",%progbits
 1215              		.align	1
 1216              		.p2align 2,,3
 1217              		.syntax unified
 1218              		.thumb
 1219              		.thumb_func
 1220              		.fpu fpv5-sp-d16
 1222              	dir_find:
 1223              		@ args = 0, pretend = 0, frame = 24
 1224              		@ frame_needed = 0, uses_anonymous_args = 0
 1225 0000 2DE9F04F 		push	{r4, r5, r6, r7, r8, r9, r10, fp, lr}
 1226 0004 0021     		movs	r1, #0
 1227 0006 87B0     		sub	sp, sp, #28
 1228 0008 0546     		mov	r5, r0
ARM GAS  C:\Users\Jay\AppData\Local\Temp\cc8FQaEx.s 			page 22


 1229 000a 0768     		ldr	r7, [r0]
 1230 000c FFF7FEFF 		bl	dir_sdi
 1231 0010 8246     		mov	r10, r0
 1232 0012 0028     		cmp	r0, #0
 1233 0014 45D1     		bne	.L318
 1234 0016 4FF0FF33 		mov	r3, #-1
 1235 001a 4FF0FF0B 		mov	fp, #255
 1236 001e 9846     		mov	r8, r3
 1237 0020 D946     		mov	r9, fp
 1238 0022 EB62     		str	r3, [r5, #44]
 1239 0024 0BE0     		b	.L340
 1240              	.L375:
 1241 0026 0F2B     		cmp	r3, #15
 1242 0028 3FD0     		beq	.L324
 1243              	.L336:
 1244 002a 4FF0FF09 		mov	r9, #255
 1245 002e C5F82C80 		str	r8, [r5, #44]
 1246              	.L325:
 1247 0032 0021     		movs	r1, #0
 1248 0034 2846     		mov	r0, r5
 1249 0036 FFF7FEFF 		bl	dir_next
 1250 003a 0028     		cmp	r0, #0
 1251 003c 4CD1     		bne	.L342
 1252              	.L340:
 1253 003e A969     		ldr	r1, [r5, #24]
 1254 0040 7B6B     		ldr	r3, [r7, #52]
 1255 0042 9942     		cmp	r1, r3
 1256 0044 04D0     		beq	.L321
 1257 0046 3846     		mov	r0, r7
 1258 0048 FFF7FEFF 		bl	move_window.part.6
 1259 004c 0028     		cmp	r0, #0
 1260 004e 43D1     		bne	.L342
 1261              	.L321:
 1262 0050 EC69     		ldr	r4, [r5, #28]
 1263 0052 2678     		ldrb	r6, [r4]	@ zero_extendqisi2
 1264 0054 002E     		cmp	r6, #0
 1265 0056 5BD0     		beq	.L374
 1266 0058 E27A     		ldrb	r2, [r4, #11]	@ zero_extendqisi2
 1267 005a E52E     		cmp	r6, #229
 1268 005c 02F03F03 		and	r3, r2, #63
 1269 0060 AB71     		strb	r3, [r5, #6]
 1270 0062 E2D0     		beq	.L336
 1271 0064 1207     		lsls	r2, r2, #28
 1272 0066 DED4     		bmi	.L375
 1273 0068 0F2B     		cmp	r3, #15
 1274 006a 1ED0     		beq	.L324
 1275 006c B9F1000F 		cmp	r9, #0
 1276 0070 37D0     		beq	.L376
 1277              	.L334:
 1278 0072 95F82B30 		ldrb	r3, [r5, #43]	@ zero_extendqisi2
 1279 0076 DB07     		lsls	r3, r3, #31
 1280 0078 D7D4     		bmi	.L336
 1281 007a 2046     		mov	r0, r4
 1282 007c 2946     		mov	r1, r5
 1283 007e 0134     		adds	r4, r4, #1
 1284 0080 10F80B3B 		ldrb	r3, [r0], #11	@ zero_extendqisi2
 1285 0084 11F8202F 		ldrb	r2, [r1, #32]!	@ zero_extendqisi2
ARM GAS  C:\Users\Jay\AppData\Local\Temp\cc8FQaEx.s 			page 23


 1286 0088 9B1A     		subs	r3, r3, r2
 1287              	.L337:
 1288 008a 002B     		cmp	r3, #0
 1289 008c CDD1     		bne	.L336
 1290 008e 14F8013B 		ldrb	r3, [r4], #1	@ zero_extendqisi2
 1291 0092 11F8012F 		ldrb	r2, [r1, #1]!	@ zero_extendqisi2
 1292 0096 A042     		cmp	r0, r4
 1293 0098 A3EB0203 		sub	r3, r3, r2
 1294 009c F5D1     		bne	.L337
 1295 009e 002B     		cmp	r3, #0
 1296 00a0 C3D1     		bne	.L336
 1297              	.L318:
 1298 00a2 5046     		mov	r0, r10
 1299 00a4 07B0     		add	sp, sp, #28
 1300              		@ sp needed
 1301 00a6 BDE8F08F 		pop	{r4, r5, r6, r7, r8, r9, r10, fp, pc}
 1302              	.L324:
 1303 00aa 95F82B30 		ldrb	r3, [r5, #43]	@ zero_extendqisi2
 1304 00ae 5806     		lsls	r0, r3, #25
 1305 00b0 BFD4     		bmi	.L325
 1306 00b2 7106     		lsls	r1, r6, #25
 1307 00b4 27D5     		bpl	.L327
 1308 00b6 2B69     		ldr	r3, [r5, #16]
 1309 00b8 06F0BF06 		and	r6, r6, #191
 1310 00bc 94F80DB0 		ldrb	fp, [r4, #13]	@ zero_extendqisi2
 1311 00c0 EB62     		str	r3, [r5, #44]
 1312              	.L328:
 1313 00c2 637B     		ldrb	r3, [r4, #13]	@ zero_extendqisi2
 1314 00c4 5B45     		cmp	r3, fp
 1315 00c6 29D0     		beq	.L377
 1316              	.L349:
 1317 00c8 4FF0FF09 		mov	r9, #255
 1318              	.L378:
 1319 00cc 0021     		movs	r1, #0
 1320 00ce 2846     		mov	r0, r5
 1321 00d0 FFF7FEFF 		bl	dir_next
 1322 00d4 0028     		cmp	r0, #0
 1323 00d6 B2D0     		beq	.L340
 1324              	.L342:
 1325 00d8 8246     		mov	r10, r0
 1326 00da 5046     		mov	r0, r10
 1327 00dc 07B0     		add	sp, sp, #28
 1328              		@ sp needed
 1329 00de BDE8F08F 		pop	{r4, r5, r6, r7, r8, r9, r10, fp, pc}
 1330              	.L376:
 1331 00e2 04F10B00 		add	r0, r4, #11
 1332 00e6 2146     		mov	r1, r4
 1333              	.L335:
 1334 00e8 4FEAC913 		lsl	r3, r9, #7
 1335 00ec 11F8012B 		ldrb	r2, [r1], #1	@ zero_extendqisi2
 1336 00f0 43EA5909 		orr	r9, r3, r9, lsr #1
 1337 00f4 8842     		cmp	r0, r1
 1338 00f6 52FA89F9 		uxtab	r9, r2, r9
 1339 00fa 5FFA89F9 		uxtb	r9, r9
 1340 00fe F3D1     		bne	.L335
 1341 0100 CB45     		cmp	fp, r9
 1342 0102 B6D1     		bne	.L334
ARM GAS  C:\Users\Jay\AppData\Local\Temp\cc8FQaEx.s 			page 24


 1343 0104 CDE7     		b	.L318
 1344              	.L327:
 1345 0106 B145     		cmp	r9, r6
 1346 0108 DBD0     		beq	.L328
 1347 010a 4FF0FF09 		mov	r9, #255
 1348 010e DDE7     		b	.L378
 1349              	.L374:
 1350 0110 4FF0040A 		mov	r10, #4
 1351 0114 5046     		mov	r0, r10
 1352 0116 07B0     		add	sp, sp, #28
 1353              		@ sp needed
 1354 0118 BDE8F08F 		pop	{r4, r5, r6, r7, r8, r9, r10, fp, pc}
 1355              	.L377:
 1356 011c E27E     		ldrb	r2, [r4, #27]	@ zero_extendqisi2
 1357 011e A37E     		ldrb	r3, [r4, #26]	@ zero_extendqisi2
 1358 0120 53EA0223 		orrs	r3, r3, r2, lsl #8
 1359 0124 D0D1     		bne	.L349
 1360 0126 2178     		ldrb	r1, [r4]	@ zero_extendqisi2
 1361 0128 0122     		movs	r2, #1
 1362 012a FB68     		ldr	r3, [r7, #12]
 1363 012c 01F03F00 		and	r0, r1, #63
 1364 0130 DFF8A0E0 		ldr	lr, .L381+4
 1365 0134 1146     		mov	r1, r2
 1366 0136 0493     		str	r3, [sp, #16]
 1367 0138 00F1FF3C 		add	ip, r0, #-1
 1368 013c 0596     		str	r6, [sp, #20]
 1369 013e F146     		mov	r9, lr
 1370 0140 0CEB4C00 		add	r0, ip, ip, lsl #1
 1371 0144 0CEB8000 		add	r0, ip, r0, lsl #2
 1372 0148 CDE900B7 		strd	fp, r7, [sp]
 1373 014c CDE902A5 		strd	r10, r5, [sp, #8]
 1374 0150 1F46     		mov	r7, r3
 1375 0152 2546     		mov	r5, r4
 1376 0154 0446     		mov	r4, r0
 1377 0156 12E0     		b	.L332
 1378              	.L379:
 1379 0158 FF2C     		cmp	r4, #255
 1380 015a 3046     		mov	r0, r6
 1381 015c 1CD8     		bhi	.L348
 1382 015e FFF7FEFF 		bl	ff_wtoupper
 1383 0162 8246     		mov	r10, r0
 1384 0164 37F81400 		ldrh	r0, [r7, r4, lsl #1]
 1385 0168 5C46     		mov	r4, fp
 1386 016a FFF7FEFF 		bl	ff_wtoupper
 1387 016e 8245     		cmp	r10, r0
 1388 0170 3146     		mov	r1, r6
 1389 0172 11D1     		bne	.L348
 1390              	.L330:
 1391 0174 164B     		ldr	r3, .L381
 1392 0176 4B45     		cmp	r3, r9
 1393 0178 15D0     		beq	.L331
 1394 017a 19F8012F 		ldrb	r2, [r9, #1]!	@ zero_extendqisi2
 1395              	.L332:
 1396 017e A818     		adds	r0, r5, r2
 1397 0180 AE5C     		ldrb	r6, [r5, r2]	@ zero_extendqisi2
 1398 0182 04F1010B 		add	fp, r4, #1
 1399 0186 4078     		ldrb	r0, [r0, #1]	@ zero_extendqisi2
ARM GAS  C:\Users\Jay\AppData\Local\Temp\cc8FQaEx.s 			page 25


 1400 0188 46EA0026 		orr	r6, r6, r0, lsl #8
 1401 018c 0029     		cmp	r1, #0
 1402 018e E3D1     		bne	.L379
 1403 0190 4FF6FF73 		movw	r3, #65535
 1404 0194 9E42     		cmp	r6, r3
 1405 0196 EDD0     		beq	.L330
 1406              	.L348:
 1407 0198 DDE900B7 		ldrd	fp, r7, [sp]
 1408 019c DDE902A5 		ldrd	r10, r5, [sp, #8]
 1409 01a0 4FF0FF09 		mov	r9, #255
 1410 01a4 45E7     		b	.L325
 1411              	.L331:
 1412 01a6 2046     		mov	r0, r4
 1413 01a8 2C46     		mov	r4, r5
 1414 01aa 059E     		ldr	r6, [sp, #20]
 1415 01ac 2278     		ldrb	r2, [r4]	@ zero_extendqisi2
 1416 01ae 5206     		lsls	r2, r2, #25
 1417 01b0 DDE900B7 		ldrd	fp, r7, [sp]
 1418 01b4 DDE902A5 		ldrd	r10, r5, [sp, #8]
 1419 01b8 00D5     		bpl	.L333
 1420 01ba 19B9     		cbnz	r1, .L380
 1421              	.L333:
 1422 01bc 013E     		subs	r6, r6, #1
 1423 01be 5FFA86F9 		uxtb	r9, r6
 1424 01c2 36E7     		b	.L325
 1425              	.L380:
 1426 01c4 049B     		ldr	r3, [sp, #16]
 1427 01c6 33F81030 		ldrh	r3, [r3, r0, lsl #1]
 1428 01ca 002B     		cmp	r3, #0
 1429 01cc F6D0     		beq	.L333
 1430 01ce 7BE7     		b	.L349
 1431              	.L382:
 1432              		.align	2
 1433              	.L381:
 1434 01d0 0C000000 		.word	.LANCHOR1+12
 1435 01d4 00000000 		.word	.LANCHOR1
 1437              		.section	.text.follow_path,"ax",%progbits
 1438              		.align	1
 1439              		.p2align 2,,3
 1440              		.syntax unified
 1441              		.thumb
 1442              		.thumb_func
 1443              		.fpu fpv5-sp-d16
 1445              	follow_path:
 1446              		@ args = 0, pretend = 0, frame = 16
 1447              		@ frame_needed = 0, uses_anonymous_args = 0
 1448 0000 2DE9F04F 		push	{r4, r5, r6, r7, r8, r9, r10, fp, lr}
 1449 0004 0B78     		ldrb	r3, [r1]	@ zero_extendqisi2
 1450 0006 85B0     		sub	sp, sp, #20
 1451 0008 0E46     		mov	r6, r1
 1452 000a 8046     		mov	r8, r0
 1453 000c 2F2B     		cmp	r3, #47
 1454 000e D0F800B0 		ldr	fp, [r0]
 1455 0012 00F0D180 		beq	.L466
 1456 0016 5C2B     		cmp	r3, #92
 1457 0018 00F0CE80 		beq	.L466
 1458 001c DBF81830 		ldr	r3, [fp, #24]
ARM GAS  C:\Users\Jay\AppData\Local\Temp\cc8FQaEx.s 			page 26


 1459 0020 8360     		str	r3, [r0, #8]
 1460 0022 3078     		ldrb	r0, [r6]	@ zero_extendqisi2
 1461 0024 1F28     		cmp	r0, #31
 1462 0026 40F2D880 		bls	.L546
 1463              	.L454:
 1464 002a 5B46     		mov	r3, fp
 1465              	.L389:
 1466 002c D3F80C90 		ldr	r9, [r3, #12]
 1467 0030 751C     		adds	r5, r6, #1
 1468 0032 0024     		movs	r4, #0
 1469 0034 A9F10207 		sub	r7, r9, #2
 1470              	.L397:
 1471 0038 80B2     		uxth	r0, r0
 1472 003a 2E46     		mov	r6, r5
 1473 003c 0028     		cmp	r0, #0
 1474 003e 40F09480 		bne	.L547
 1475              	.L459:
 1476 0042 0425     		movs	r5, #4
 1477              	.L390:
 1478 0044 012C     		cmp	r4, #1
 1479 0046 00F06D81 		beq	.L548
 1480              	.L400:
 1481 004a 022C     		cmp	r4, #2
 1482 004c 00F0CF80 		beq	.L549
 1483 0050 002C     		cmp	r4, #0
 1484 0052 00F06D81 		beq	.L405
 1485 0056 6FF00043 		mvn	r3, #-2147483648
 1486 005a 2344     		add	r3, r3, r4
 1487 005c 39F81330 		ldrh	r3, [r9, r3, lsl #1]
 1488              	.L402:
 1489 0060 2E2B     		cmp	r3, #46
 1490 0062 01D0     		beq	.L467
 1491 0064 202B     		cmp	r3, #32
 1492 0066 0DD1     		bne	.L406
 1493              	.L467:
 1494 0068 6FF00043 		mvn	r3, #-2147483648
 1495 006c 2344     		add	r3, r3, r4
 1496 006e 09EB4303 		add	r3, r9, r3, lsl #1
 1497              	.L408:
 1498 0072 013C     		subs	r4, r4, #1
 1499 0074 00F05C81 		beq	.L405
 1500 0078 33F8022D 		ldrh	r2, [r3, #-2]!
 1501 007c 202A     		cmp	r2, #32
 1502 007e F8D0     		beq	.L408
 1503 0080 2E2A     		cmp	r2, #46
 1504 0082 F6D0     		beq	.L408
 1505              	.L406:
 1506 0084 0027     		movs	r7, #0
 1507 0086 09EB4403 		add	r3, r9, r4, lsl #1
 1508 008a 29F81470 		strh	r7, [r9, r4, lsl #1]	@ movhi
 1509 008e B9F80020 		ldrh	r2, [r9]
 1510 0092 202A     		cmp	r2, #32
 1511 0094 40F08B81 		bne	.L550
 1512 0098 4A46     		mov	r2, r9
 1513              	.L414:
 1514 009a 32F8021F 		ldrh	r1, [r2, #2]!
 1515 009e 0137     		adds	r7, r7, #1
ARM GAS  C:\Users\Jay\AppData\Local\Temp\cc8FQaEx.s 			page 27


 1516 00a0 2029     		cmp	r1, #32
 1517 00a2 FAD0     		beq	.L414
 1518              	.L415:
 1519 00a4 45F00305 		orr	r5, r5, #3
 1520 00a8 EDB2     		uxtb	r5, r5
 1521              	.L417:
 1522 00aa 33F8022D 		ldrh	r2, [r3, #-2]!
 1523 00ae 2E2A     		cmp	r2, #46
 1524 00b0 01D0     		beq	.L418
 1525 00b2 013C     		subs	r4, r4, #1
 1526 00b4 F9D1     		bne	.L417
 1527              	.L418:
 1528 00b6 08F12003 		add	r3, r8, #32
 1529 00ba 08F12B01 		add	r1, r8, #43
 1530 00be 2022     		movs	r2, #32
 1531              	.L420:
 1532 00c0 03F8012B 		strb	r2, [r3], #1
 1533 00c4 8B42     		cmp	r3, r1
 1534 00c6 FBD1     		bne	.L420
 1535 00c8 4FF0000A 		mov	r10, #0
 1536 00cc 0822     		movs	r2, #8
 1537 00ce 5346     		mov	r3, r10
 1538              	.L421:
 1539 00d0 39F81700 		ldrh	r0, [r9, r7, lsl #1]
 1540 00d4 0137     		adds	r7, r7, #1
 1541 00d6 78B1     		cbz	r0, .L422
 1542              	.L551:
 1543 00d8 2028     		cmp	r0, #32
 1544 00da 05D0     		beq	.L423
 1545 00dc 2E28     		cmp	r0, #46
 1546 00de 40F0CB80 		bne	.L424
 1547 00e2 BC42     		cmp	r4, r7
 1548 00e4 00F0C880 		beq	.L424
 1549              	.L423:
 1550 00e8 45F00305 		orr	r5, r5, #3
 1551 00ec 39F81700 		ldrh	r0, [r9, r7, lsl #1]
 1552 00f0 0137     		adds	r7, r7, #1
 1553 00f2 EDB2     		uxtb	r5, r5
 1554 00f4 0028     		cmp	r0, #0
 1555 00f6 EFD1     		bne	.L551
 1556              	.L422:
 1557 00f8 98F82010 		ldrb	r1, [r8, #32]	@ zero_extendqisi2
 1558 00fc E529     		cmp	r1, #229
 1559 00fe 02D1     		bne	.L441
 1560 0100 0521     		movs	r1, #5
 1561 0102 88F82010 		strb	r1, [r8, #32]
 1562              	.L441:
 1563 0106 082A     		cmp	r2, #8
 1564 0108 01D1     		bne	.L429
 1565 010a 9B00     		lsls	r3, r3, #2
 1566 010c DBB2     		uxtb	r3, r3
 1567              	.L429:
 1568 010e 03F00C02 		and	r2, r3, #12
 1569 0112 0C2A     		cmp	r2, #12
 1570 0114 00F01381 		beq	.L442
 1571 0118 03F00302 		and	r2, r3, #3
 1572 011c 032A     		cmp	r2, #3
ARM GAS  C:\Users\Jay\AppData\Local\Temp\cc8FQaEx.s 			page 28


 1573 011e 00F00E81 		beq	.L442
 1574 0122 AF07     		lsls	r7, r5, #30
 1575 0124 07D4     		bmi	.L444
 1576 0126 DC07     		lsls	r4, r3, #31
 1577 0128 02D5     		bpl	.L445
 1578 012a 45F01005 		orr	r5, r5, #16
 1579 012e EDB2     		uxtb	r5, r5
 1580              	.L445:
 1581 0130 5807     		lsls	r0, r3, #29
 1582 0132 00F10881 		bmi	.L552
 1583              	.L444:
 1584 0136 88F82B50 		strb	r5, [r8, #43]
 1585 013a 4046     		mov	r0, r8
 1586 013c FFF7FEFF 		bl	dir_find
 1587 0140 98F82B30 		ldrb	r3, [r8, #43]	@ zero_extendqisi2
 1588 0144 0028     		cmp	r0, #0
 1589 0146 75D0     		beq	.L446
 1590              	.L554:
 1591 0148 0428     		cmp	r0, #4
 1592 014a 32D1     		bne	.L469
 1593 014c 9906     		lsls	r1, r3, #26
 1594 014e 03F00402 		and	r2, r3, #4
 1595 0152 40F14381 		bpl	.L447
 1596 0156 002A     		cmp	r2, #0
 1597 0158 00F08A80 		beq	.L448
 1598 015c 8023     		movs	r3, #128
 1599 015e 0020     		movs	r0, #0
 1600 0160 88F82B30 		strb	r3, [r8, #43]
 1601 0164 05B0     		add	sp, sp, #20
 1602              		@ sp needed
 1603 0166 BDE8F08F 		pop	{r4, r5, r6, r7, r8, r9, r10, fp, pc}
 1604              	.L547:
 1605 016a 40F2B511 		movw	r1, #437
 1606 016e FFF7FEFF 		bl	ff_oem2uni
 1607 0172 E8B1     		cbz	r0, .L458
 1608 0174 1F28     		cmp	r0, #31
 1609 0176 40F2B880 		bls	.L392
 1610 017a 2F28     		cmp	r0, #47
 1611 017c 00F0B580 		beq	.L392
 1612 0180 5C28     		cmp	r0, #92
 1613 0182 00F0B580 		beq	.L393
 1614 0186 7F28     		cmp	r0, #127
 1615 0188 07D9     		bls	.L553
 1616              	.L394:
 1617 018a FF2C     		cmp	r4, #255
 1618 018c 10D0     		beq	.L458
 1619 018e 27F8020F 		strh	r0, [r7, #2]!	@ movhi
 1620 0192 0134     		adds	r4, r4, #1
 1621 0194 15F8010B 		ldrb	r0, [r5], #1	@ zero_extendqisi2
 1622 0198 4EE7     		b	.L397
 1623              	.L553:
 1624 019a 2228     		cmp	r0, #34
 1625 019c 08D0     		beq	.L458
 1626 019e 2A23     		movs	r3, #42
 1627 01a0 914A     		ldr	r2, .L559
 1628 01a2 03E0     		b	.L395
 1629              	.L396:
ARM GAS  C:\Users\Jay\AppData\Local\Temp\cc8FQaEx.s 			page 29


 1630 01a4 12F8013F 		ldrb	r3, [r2, #1]!	@ zero_extendqisi2
 1631 01a8 002B     		cmp	r3, #0
 1632 01aa EED0     		beq	.L394
 1633              	.L395:
 1634 01ac 8342     		cmp	r3, r0
 1635 01ae F9D1     		bne	.L396
 1636              	.L458:
 1637 01b0 0620     		movs	r0, #6
 1638              	.L469:
 1639 01b2 05B0     		add	sp, sp, #20
 1640              		@ sp needed
 1641 01b4 BDE8F08F 		pop	{r4, r5, r6, r7, r8, r9, r10, fp, pc}
 1642              	.L466:
 1643 01b8 5C2B     		cmp	r3, #92
 1644 01ba 01D0     		beq	.L512
 1645 01bc 2F2B     		cmp	r3, #47
 1646 01be 05D1     		bne	.L387
 1647              	.L512:
 1648 01c0 16F8013F 		ldrb	r3, [r6, #1]!	@ zero_extendqisi2
 1649 01c4 2F2B     		cmp	r3, #47
 1650 01c6 FBD0     		beq	.L512
 1651 01c8 5C2B     		cmp	r3, #92
 1652 01ca F9D0     		beq	.L512
 1653              	.L387:
 1654 01cc 0023     		movs	r3, #0
 1655 01ce C8F80830 		str	r3, [r8, #8]
 1656 01d2 3078     		ldrb	r0, [r6]	@ zero_extendqisi2
 1657 01d4 1F28     		cmp	r0, #31
 1658 01d6 3FF628AF 		bhi	.L454
 1659              	.L546:
 1660 01da 8023     		movs	r3, #128
 1661 01dc 4046     		mov	r0, r8
 1662 01de 0021     		movs	r1, #0
 1663 01e0 88F82B30 		strb	r3, [r8, #43]
 1664 01e4 05B0     		add	sp, sp, #20
 1665              		@ sp needed
 1666 01e6 BDE8F04F 		pop	{r4, r5, r6, r7, r8, r9, r10, fp, lr}
 1667 01ea FFF7FEBF 		b	dir_sdi
 1668              	.L549:
 1669 01ee B9F80230 		ldrh	r3, [r9, #2]
 1670 01f2 2E2B     		cmp	r3, #46
 1671 01f4 7FF434AF 		bne	.L402
 1672 01f8 B9F80020 		ldrh	r2, [r9]
 1673 01fc 2E2A     		cmp	r2, #46
 1674 01fe 7FF42FAF 		bne	.L402
 1675              	.L401:
 1676 0202 0023     		movs	r3, #0
 1677 0204 08F11F02 		add	r2, r8, #31
 1678 0208 29F81430 		strh	r3, [r9, r4, lsl #1]	@ movhi
 1679              	.L410:
 1680 020c 9C42     		cmp	r4, r3
 1681 020e 94BF     		ite	ls
 1682 0210 2021     		movls	r1, #32
 1683 0212 2E21     		movhi	r1, #46
 1684 0214 0133     		adds	r3, r3, #1
 1685 0216 0B2B     		cmp	r3, #11
 1686 0218 02F8011F 		strb	r1, [r2, #1]!
ARM GAS  C:\Users\Jay\AppData\Local\Temp\cc8FQaEx.s 			page 30


 1687 021c F6D1     		bne	.L410
 1688 021e 45F02005 		orr	r5, r5, #32
 1689 0222 4046     		mov	r0, r8
 1690 0224 88F82B50 		strb	r5, [r8, #43]
 1691 0228 FFF7FEFF 		bl	dir_find
 1692 022c 98F82B30 		ldrb	r3, [r8, #43]	@ zero_extendqisi2
 1693 0230 0028     		cmp	r0, #0
 1694 0232 89D1     		bne	.L554
 1695              	.L446:
 1696 0234 5A07     		lsls	r2, r3, #29
 1697 0236 BCD4     		bmi	.L469
 1698 0238 98F80630 		ldrb	r3, [r8, #6]	@ zero_extendqisi2
 1699 023c DB06     		lsls	r3, r3, #27
 1700 023e 40F1CB80 		bpl	.L465
 1701 0242 D8F81020 		ldr	r2, [r8, #16]
 1702 0246 0BF13803 		add	r3, fp, #56
 1703 024a 9BF80010 		ldrb	r1, [fp]	@ zero_extendqisi2
 1704 024e C2F30802 		ubfx	r2, r2, #0, #9
 1705 0252 0329     		cmp	r1, #3
 1706 0254 1344     		add	r3, r3, r2
 1707 0256 D87E     		ldrb	r0, [r3, #27]	@ zero_extendqisi2
 1708 0258 9A7E     		ldrb	r2, [r3, #26]	@ zero_extendqisi2
 1709 025a 42EA0022 		orr	r2, r2, r0, lsl #8
 1710 025e 05D1     		bne	.L449
 1711 0260 597D     		ldrb	r1, [r3, #21]	@ zero_extendqisi2
 1712 0262 1B7D     		ldrb	r3, [r3, #20]	@ zero_extendqisi2
 1713 0264 43EA0123 		orr	r3, r3, r1, lsl #8
 1714 0268 42EA0342 		orr	r2, r2, r3, lsl #16
 1715              	.L449:
 1716 026c C8F80820 		str	r2, [r8, #8]
 1717              	.L448:
 1718 0270 D8F80030 		ldr	r3, [r8]
 1719 0274 3078     		ldrb	r0, [r6]	@ zero_extendqisi2
 1720 0276 D9E6     		b	.L389
 1721              	.L424:
 1722 0278 9245     		cmp	r10, r2
 1723 027a 26D2     		bcs	.L468
 1724 027c BC42     		cmp	r4, r7
 1725 027e 24D0     		beq	.L468
 1726 0280 7F28     		cmp	r0, #127
 1727 0282 64D8     		bhi	.L555
 1728              	.L431:
 1729 0284 2B28     		cmp	r0, #43
 1730 0286 00F09980 		beq	.L463
 1731 028a 2C21     		movs	r1, #44
 1732 028c DFF860C1 		ldr	ip, .L559+8
 1733              	.L437:
 1734 0290 8142     		cmp	r1, r0
 1735 0292 00F09380 		beq	.L463
 1736 0296 1CF8011F 		ldrb	r1, [ip, #1]!	@ zero_extendqisi2
 1737 029a 0029     		cmp	r1, #0
 1738 029c F8D1     		bne	.L437
 1739 029e A0F14101 		sub	r1, r0, #65
 1740 02a2 89B2     		uxth	r1, r1
 1741 02a4 1929     		cmp	r1, #25
 1742 02a6 40F28680 		bls	.L452
 1743              	.L453:
ARM GAS  C:\Users\Jay\AppData\Local\Temp\cc8FQaEx.s 			page 31


 1744 02aa A0F16101 		sub	r1, r0, #97
 1745 02ae 89B2     		uxth	r1, r1
 1746 02b0 1929     		cmp	r1, #25
 1747 02b2 9CBF     		itt	ls
 1748 02b4 2038     		subls	r0, r0, #32
 1749 02b6 43F00103 		orrls	r3, r3, #1
 1750 02ba C0B2     		uxtb	r0, r0
 1751              	.L435:
 1752 02bc 08EB0A01 		add	r1, r8, r10
 1753 02c0 0AF1010A 		add	r10, r10, #1
 1754 02c4 81F82000 		strb	r0, [r1, #32]
 1755 02c8 02E7     		b	.L421
 1756              	.L468:
 1757 02ca 0B2A     		cmp	r2, #11
 1758 02cc 78D0     		beq	.L556
 1759 02ce BC42     		cmp	r4, r7
 1760 02d0 04D0     		beq	.L430
 1761 02d2 45F00305 		orr	r5, r5, #3
 1762 02d6 EDB2     		uxtb	r5, r5
 1763 02d8 FFF40EAF 		bcc	.L422
 1764              	.L430:
 1765 02dc 9B00     		lsls	r3, r3, #2
 1766 02de 2746     		mov	r7, r4
 1767 02e0 0B22     		movs	r2, #11
 1768 02e2 4FF0080A 		mov	r10, #8
 1769 02e6 DBB2     		uxtb	r3, r3
 1770 02e8 F2E6     		b	.L421
 1771              	.L392:
 1772 02ea 1F28     		cmp	r0, #31
 1773 02ec 7FF6A9AE 		bls	.L459
 1774              	.L393:
 1775 02f0 2B78     		ldrb	r3, [r5]	@ zero_extendqisi2
 1776 02f2 2F2B     		cmp	r3, #47
 1777 02f4 07D0     		beq	.L513
 1778 02f6 A3F15C05 		sub	r5, r3, #92
 1779 02fa B5FA85F5 		clz	r5, r5
 1780 02fe 6D09     		lsrs	r5, r5, #5
 1781 0300 002D     		cmp	r5, #0
 1782 0302 3FF49FAE 		beq	.L390
 1783              	.L513:
 1784 0306 16F8013F 		ldrb	r3, [r6, #1]!	@ zero_extendqisi2
 1785 030a 2F2B     		cmp	r3, #47
 1786 030c FBD0     		beq	.L513
 1787 030e A3F15C03 		sub	r3, #92
 1788 0312 B3FA83F3 		clz	r3, r3
 1789 0316 5B09     		lsrs	r3, r3, #5
 1790 0318 002B     		cmp	r3, #0
 1791 031a F4D1     		bne	.L513
 1792 031c 012C     		cmp	r4, #1
 1793 031e 1D46     		mov	r5, r3
 1794 0320 7FF493AE 		bne	.L400
 1795              	.L548:
 1796 0324 B9F80030 		ldrh	r3, [r9]
 1797 0328 2E2B     		cmp	r3, #46
 1798 032a 7FF499AE 		bne	.L402
 1799 032e 68E7     		b	.L401
 1800              	.L405:
ARM GAS  C:\Users\Jay\AppData\Local\Temp\cc8FQaEx.s 			page 32


 1801 0330 0023     		movs	r3, #0
 1802 0332 0620     		movs	r0, #6
 1803 0334 A9F80030 		strh	r3, [r9]	@ movhi
 1804 0338 05B0     		add	sp, sp, #20
 1805              		@ sp needed
 1806 033a BDE8F08F 		pop	{r4, r5, r6, r7, r8, r9, r10, fp, pc}
 1807              	.L442:
 1808 033e 45F00205 		orr	r5, r5, #2
 1809 0342 EDB2     		uxtb	r5, r5
 1810 0344 F7E6     		b	.L444
 1811              	.L552:
 1812 0346 45F00805 		orr	r5, r5, #8
 1813 034a EDB2     		uxtb	r5, r5
 1814 034c F3E6     		b	.L444
 1815              	.L555:
 1816 034e 45F0020C 		orr	ip, r5, #2
 1817 0352 40F2B511 		movw	r1, #437
 1818 0356 CDE90223 		strd	r2, r3, [sp, #8]
 1819 035a 5FFA8CF3 		uxtb	r3, ip
 1820 035e 0193     		str	r3, [sp, #4]
 1821 0360 FFF7FEFF 		bl	ff_uni2oem
 1822 0364 10F0800F 		tst	r0, #128
 1823 0368 DDE90223 		ldrd	r2, r3, [sp, #8]
 1824 036c 0AD0     		beq	.L432
 1825 036e 00F07F00 		and	r0, r0, #127
 1826 0372 1E49     		ldr	r1, .L559+4
 1827 0374 085C     		ldrb	r0, [r1, r0]	@ zero_extendqisi2
 1828              	.L433:
 1829 0376 A8BB     		cbnz	r0, .L557
 1830              	.L436:
 1831 0378 0199     		ldr	r1, [sp, #4]
 1832 037a 5F20     		movs	r0, #95
 1833 037c 41F00305 		orr	r5, r1, #3
 1834 0380 EDB2     		uxtb	r5, r5
 1835 0382 9BE7     		b	.L435
 1836              	.L432:
 1837 0384 FF28     		cmp	r0, #255
 1838 0386 F6D9     		bls	.L433
 1839 0388 511E     		subs	r1, r2, #1
 1840 038a 8A45     		cmp	r10, r1
 1841 038c 0AD2     		bcs	.L558
 1842 038e 08EB0A01 		add	r1, r8, r10
 1843 0392 4FEA102C 		lsr	ip, r0, #8
 1844 0396 019D     		ldr	r5, [sp, #4]
 1845 0398 0AF1010A 		add	r10, r10, #1
 1846 039c 81F820C0 		strb	ip, [r1, #32]
 1847 03a0 C0B2     		uxtb	r0, r0
 1848 03a2 8BE7     		b	.L435
 1849              	.L558:
 1850 03a4 45F00305 		orr	r5, r5, #3
 1851 03a8 9246     		mov	r10, r2
 1852 03aa EDB2     		uxtb	r5, r5
 1853 03ac 90E6     		b	.L421
 1854              	.L550:
 1855 03ae 2E2A     		cmp	r2, #46
 1856 03b0 7FF47BAE 		bne	.L417
 1857 03b4 76E6     		b	.L415
ARM GAS  C:\Users\Jay\AppData\Local\Temp\cc8FQaEx.s 			page 33


 1858              	.L452:
 1859 03b6 43F00203 		orr	r3, r3, #2
 1860 03ba 76E7     		b	.L453
 1861              	.L463:
 1862 03bc 0195     		str	r5, [sp, #4]
 1863 03be DBE7     		b	.L436
 1864              	.L556:
 1865 03c0 98F82020 		ldrb	r2, [r8, #32]	@ zero_extendqisi2
 1866 03c4 45F00305 		orr	r5, r5, #3
 1867 03c8 E52A     		cmp	r2, #229
 1868 03ca EDB2     		uxtb	r5, r5
 1869 03cc 7FF49FAE 		bne	.L429
 1870 03d0 0522     		movs	r2, #5
 1871 03d2 88F82020 		strb	r2, [r8, #32]
 1872 03d6 9AE6     		b	.L429
 1873              	.L465:
 1874 03d8 0520     		movs	r0, #5
 1875 03da EAE6     		b	.L469
 1876              	.L447:
 1877 03dc 002A     		cmp	r2, #0
 1878 03de 08BF     		it	eq
 1879 03e0 0520     		moveq	r0, #5
 1880 03e2 E6E6     		b	.L469
 1881              	.L557:
 1882 03e4 019D     		ldr	r5, [sp, #4]
 1883 03e6 4DE7     		b	.L431
 1884              	.L560:
 1885              		.align	2
 1886              	.L559:
 1887 03e8 01000000 		.word	.LC1+1
 1888 03ec 00000000 		.word	.LANCHOR2
 1889 03f0 01000000 		.word	.LC2+1
 1891              		.section	.text.dir_register,"ax",%progbits
 1892              		.align	1
 1893              		.p2align 2,,3
 1894              		.syntax unified
 1895              		.thumb
 1896              		.thumb_func
 1897              		.fpu fpv5-sp-d16
 1899              	dir_register:
 1900              		@ args = 0, pretend = 0, frame = 48
 1901              		@ frame_needed = 0, uses_anonymous_args = 0
 1902 0000 2DE9F04F 		push	{r4, r5, r6, r7, r8, r9, r10, fp, lr}
 1903 0004 90F82B30 		ldrb	r3, [r0, #43]	@ zero_extendqisi2
 1904 0008 8DB0     		sub	sp, sp, #52
 1905 000a 13F0A007 		ands	r7, r3, #160
 1906 000e 40F0F380 		bne	.L604
 1907 0012 D0F800A0 		ldr	r10, [r0]
 1908 0016 DAF80C30 		ldr	r3, [r10, #12]
 1909 001a 1A88     		ldrh	r2, [r3]
 1910 001c 002A     		cmp	r2, #0
 1911 001e 00F08881 		beq	.L605
 1912              	.L564:
 1913 0022 33F8022F 		ldrh	r2, [r3, #2]!
 1914 0026 0137     		adds	r7, r7, #1
 1915 0028 002A     		cmp	r2, #0
 1916 002a FAD1     		bne	.L564
ARM GAS  C:\Users\Jay\AppData\Local\Temp\cc8FQaEx.s 			page 34


 1917              	.L563:
 1918 002c 00F12005 		add	r5, r0, #32
 1919 0030 0446     		mov	r4, r0
 1920 0032 0C22     		movs	r2, #12
 1921 0034 09A8     		add	r0, sp, #36
 1922 0036 2946     		mov	r1, r5
 1923 0038 FFF7FEFF 		bl	mem_cpy.part.0
 1924 003c 9DF82F30 		ldrb	r3, [sp, #47]	@ zero_extendqisi2
 1925 0040 D907     		lsls	r1, r3, #31
 1926 0042 58D4     		bmi	.L648
 1927 0044 9B07     		lsls	r3, r3, #30
 1928 0046 40F1D580 		bpl	.L610
 1929              	.L652:
 1930 004a 0C37     		adds	r7, r7, #12
 1931 004c BA4B     		ldr	r3, .L655
 1932 004e A3FB0737 		umull	r3, r7, r3, r7
 1933 0052 BF08     		lsrs	r7, r7, #2
 1934 0054 0137     		adds	r7, r7, #1
 1935              	.L579:
 1936 0056 0021     		movs	r1, #0
 1937 0058 2046     		mov	r0, r4
 1938 005a D4F80080 		ldr	r8, [r4]
 1939 005e FFF7FEFF 		bl	dir_sdi
 1940 0062 8346     		mov	fp, r0
 1941 0064 0028     		cmp	r0, #0
 1942 0066 40F0B180 		bne	.L580
 1943 006a 0646     		mov	r6, r0
 1944 006c 08E0     		b	.L587
 1945              	.L649:
 1946 006e E3B9     		cbnz	r3, .L582
 1947 0070 1E46     		mov	r6, r3
 1948              	.L583:
 1949 0072 0121     		movs	r1, #1
 1950 0074 2046     		mov	r0, r4
 1951 0076 FFF7FEFF 		bl	dir_next
 1952 007a 0028     		cmp	r0, #0
 1953 007c 40F0A580 		bne	.L611
 1954              	.L587:
 1955 0080 A369     		ldr	r3, [r4, #24]
 1956 0082 0136     		adds	r6, r6, #1
 1957 0084 D8F83420 		ldr	r2, [r8, #52]
 1958 0088 4046     		mov	r0, r8
 1959 008a 1946     		mov	r1, r3
 1960 008c 9342     		cmp	r3, r2
 1961 008e 04D0     		beq	.L584
 1962 0090 FFF7FEFF 		bl	move_window.part.6
 1963 0094 0028     		cmp	r0, #0
 1964 0096 40F09880 		bne	.L611
 1965              	.L584:
 1966 009a E369     		ldr	r3, [r4, #28]
 1967 009c 1A78     		ldrb	r2, [r3]	@ zero_extendqisi2
 1968 009e B2FA82F3 		clz	r3, r2
 1969 00a2 E52A     		cmp	r2, #229
 1970 00a4 4FEA5313 		lsr	r3, r3, #5
 1971 00a8 E1D1     		bne	.L649
 1972              	.L582:
 1973 00aa B742     		cmp	r7, r6
ARM GAS  C:\Users\Jay\AppData\Local\Temp\cc8FQaEx.s 			page 35


 1974 00ac E1D1     		bne	.L583
 1975 00ae 7B1E     		subs	r3, r7, #1
 1976 00b0 0193     		str	r3, [sp, #4]
 1977 00b2 40F0B280 		bne	.L650
 1978              	.L586:
 1979 00b6 A169     		ldr	r1, [r4, #24]
 1980 00b8 DAF83430 		ldr	r3, [r10, #52]
 1981 00bc 9942     		cmp	r1, r3
 1982 00be 40F0A180 		bne	.L599
 1983              	.L601:
 1984 00c2 E369     		ldr	r3, [r4, #28]
 1985 00c4 0021     		movs	r1, #0
 1986 00c6 03F12002 		add	r2, r3, #32
 1987              	.L600:
 1988 00ca 03F8011B 		strb	r1, [r3], #1
 1989 00ce 9342     		cmp	r3, r2
 1990 00d0 FBD1     		bne	.L600
 1991 00d2 2946     		mov	r1, r5
 1992 00d4 0B22     		movs	r2, #11
 1993 00d6 E069     		ldr	r0, [r4, #28]
 1994 00d8 FFF7FEFF 		bl	mem_cpy.part.0
 1995 00dc 94F82B30 		ldrb	r3, [r4, #43]	@ zero_extendqisi2
 1996 00e0 E169     		ldr	r1, [r4, #28]
 1997 00e2 0122     		movs	r2, #1
 1998 00e4 03F01803 		and	r3, r3, #24
 1999 00e8 0B73     		strb	r3, [r1, #12]
 2000 00ea 8AF80320 		strb	r2, [r10, #3]
 2001              	.L616:
 2002 00ee 5846     		mov	r0, fp
 2003 00f0 0DB0     		add	sp, sp, #52
 2004              		@ sp needed
 2005 00f2 BDE8F08F 		pop	{r4, r5, r6, r7, r8, r9, r10, fp, pc}
 2006              	.L648:
 2007 00f6 4023     		movs	r3, #64
 2008 00f8 4FF00108 		mov	r8, #1
 2009 00fc 0B22     		movs	r2, #11
 2010 00fe 09A9     		add	r1, sp, #36
 2011 0100 84F82B30 		strb	r3, [r4, #43]
 2012 0104 2846     		mov	r0, r5
 2013 0106 FFF7FEFF 		bl	mem_cpy.part.0
 2014 010a 8C4E     		ldr	r6, .L655+4
 2015 010c 4346     		mov	r3, r8
 2016              	.L566:
 2017 010e 0DF1230C 		add	ip, sp, #35
 2018 0112 0722     		movs	r2, #7
 2019              	.L572:
 2020 0114 03F00F00 		and	r0, r3, #15
 2021 0118 013A     		subs	r2, r2, #1
 2022 011a 00F13001 		add	r1, r0, #48
 2023 011e 3929     		cmp	r1, #57
 2024 0120 88BF     		it	hi
 2025 0122 00F13701 		addhi	r1, r0, #55
 2026 0126 1B09     		lsrs	r3, r3, #4
 2027 0128 0CF80119 		strb	r1, [ip], #-1
 2028 012c F2D1     		bne	.L572
 2029 012e 0CA9     		add	r1, sp, #48
 2030 0130 7E20     		movs	r0, #126
ARM GAS  C:\Users\Jay\AppData\Local\Temp\cc8FQaEx.s 			page 36


 2031 0132 1144     		add	r1, r1, r2
 2032 0134 01F8140C 		strb	r0, [r1, #-20]
 2033 0138 002A     		cmp	r2, #0
 2034 013a 50D0     		beq	.L608
 2035 013c 94F82010 		ldrb	r1, [r4, #32]	@ zero_extendqisi2
 2036 0140 2029     		cmp	r1, #32
 2037 0142 08D0     		beq	.L573
 2038 0144 2946     		mov	r1, r5
 2039 0146 03E0     		b	.L574
 2040              	.L651:
 2041 0148 11F8010F 		ldrb	r0, [r1, #1]!	@ zero_extendqisi2
 2042 014c 2028     		cmp	r0, #32
 2043 014e 02D0     		beq	.L573
 2044              	.L574:
 2045 0150 0133     		adds	r3, r3, #1
 2046 0152 9A42     		cmp	r2, r3
 2047 0154 F8D1     		bne	.L651
 2048              	.L573:
 2049 0156 581E     		subs	r0, r3, #1
 2050 0158 2844     		add	r0, r0, r5
 2051              	.L576:
 2052 015a 0CA9     		add	r1, sp, #48
 2053 015c 072A     		cmp	r2, #7
 2054 015e 01EB020C 		add	ip, r1, r2
 2055 0162 4FF02001 		mov	r1, #32
 2056 0166 02D8     		bhi	.L575
 2057 0168 1CF8141C 		ldrb	r1, [ip, #-20]	@ zero_extendqisi2
 2058 016c 0132     		adds	r2, r2, #1
 2059              	.L575:
 2060 016e 0133     		adds	r3, r3, #1
 2061 0170 00F8011F 		strb	r1, [r0, #1]!
 2062 0174 072B     		cmp	r3, #7
 2063 0176 F0D9     		bls	.L576
 2064 0178 2046     		mov	r0, r4
 2065 017a FFF7FEFF 		bl	dir_find
 2066 017e 8346     		mov	fp, r0
 2067 0180 78BB     		cbnz	r0, .L577
 2068 0182 08F10108 		add	r8, r8, #1
 2069 0186 B8F1640F 		cmp	r8, #100
 2070 018a 22D0     		beq	.L603
 2071 018c 0B22     		movs	r2, #11
 2072 018e 09A9     		add	r1, sp, #36
 2073 0190 2846     		mov	r0, r5
 2074 0192 DAF80C90 		ldr	r9, [r10, #12]
 2075 0196 FFF7FEFF 		bl	mem_cpy.part.0
 2076 019a B8F1050F 		cmp	r8, #5
 2077 019e 12D9     		bls	.L606
 2078 01a0 A9F1020C 		sub	ip, r9, #2
 2079 01a4 4346     		mov	r3, r8
 2080              	.L568:
 2081 01a6 3CF8021F 		ldrh	r1, [ip, #2]!
 2082 01aa 0029     		cmp	r1, #0
 2083 01ac AFD0     		beq	.L566
 2084 01ae 1020     		movs	r0, #16
 2085              	.L570:
 2086 01b0 01F00102 		and	r2, r1, #1
 2087 01b4 4908     		lsrs	r1, r1, #1
ARM GAS  C:\Users\Jay\AppData\Local\Temp\cc8FQaEx.s 			page 37


 2088 01b6 02EB4303 		add	r3, r2, r3, lsl #1
 2089 01ba DA03     		lsls	r2, r3, #15
 2090 01bc 48BF     		it	mi
 2091 01be 7340     		eormi	r3, r3, r6
 2092 01c0 0138     		subs	r0, r0, #1
 2093 01c2 F5D1     		bne	.L570
 2094 01c4 EFE7     		b	.L568
 2095              	.L606:
 2096 01c6 4346     		mov	r3, r8
 2097 01c8 A1E7     		b	.L566
 2098              	.L611:
 2099 01ca 8346     		mov	fp, r0
 2100              	.L580:
 2101 01cc BBF1040F 		cmp	fp, #4
 2102 01d0 8DD1     		bne	.L616
 2103              	.L603:
 2104 01d2 4FF0070B 		mov	fp, #7
 2105 01d6 5846     		mov	r0, fp
 2106 01d8 0DB0     		add	sp, sp, #52
 2107              		@ sp needed
 2108 01da BDE8F08F 		pop	{r4, r5, r6, r7, r8, r9, r10, fp, pc}
 2109              	.L608:
 2110 01de 1346     		mov	r3, r2
 2111 01e0 B9E7     		b	.L573
 2112              	.L577:
 2113 01e2 0428     		cmp	r0, #4
 2114 01e4 83D1     		bne	.L616
 2115 01e6 9DF82F30 		ldrb	r3, [sp, #47]	@ zero_extendqisi2
 2116 01ea 84F82B30 		strb	r3, [r4, #43]
 2117 01ee 9B07     		lsls	r3, r3, #30
 2118 01f0 3FF52BAF 		bmi	.L652
 2119              	.L610:
 2120 01f4 0127     		movs	r7, #1
 2121 01f6 2EE7     		b	.L579
 2122              	.L604:
 2123 01f8 4FF0060B 		mov	fp, #6
 2124 01fc 5846     		mov	r0, fp
 2125 01fe 0DB0     		add	sp, sp, #52
 2126              		@ sp needed
 2127 0200 BDE8F08F 		pop	{r4, r5, r6, r7, r8, r9, r10, fp, pc}
 2128              	.L599:
 2129 0204 5046     		mov	r0, r10
 2130 0206 FFF7FEFF 		bl	move_window.part.6
 2131 020a 0028     		cmp	r0, #0
 2132 020c 3FF459AF 		beq	.L601
 2133              	.L615:
 2134 0210 8346     		mov	fp, r0
 2135 0212 5846     		mov	r0, fp
 2136 0214 0DB0     		add	sp, sp, #52
 2137              		@ sp needed
 2138 0216 BDE8F08F 		pop	{r4, r5, r6, r7, r8, r9, r10, fp, pc}
 2139              	.L650:
 2140 021a 2169     		ldr	r1, [r4, #16]
 2141 021c 2046     		mov	r0, r4
 2142 021e 019B     		ldr	r3, [sp, #4]
 2143 0220 A1EB4311 		sub	r1, r1, r3, lsl #5
 2144 0224 FFF7FEFF 		bl	dir_sdi
ARM GAS  C:\Users\Jay\AppData\Local\Temp\cc8FQaEx.s 			page 38


 2145 0228 0028     		cmp	r0, #0
 2146 022a F1D1     		bne	.L615
 2147 022c 0246     		mov	r2, r0
 2148 022e 2946     		mov	r1, r5
 2149 0230 04F12B00 		add	r0, r4, #43
 2150              	.L588:
 2151 0234 D301     		lsls	r3, r2, #7
 2152 0236 11F8016B 		ldrb	r6, [r1], #1	@ zero_extendqisi2
 2153 023a 43EA5203 		orr	r3, r3, r2, lsr #1
 2154 023e 8142     		cmp	r1, r0
 2155 0240 56FA83F3 		uxtab	r3, r6, r3
 2156 0244 DAB2     		uxtb	r2, r3
 2157 0246 F5D1     		bne	.L588
 2158 0248 DFF8F490 		ldr	r9, .L655+8
 2159 024c 0392     		str	r2, [sp, #12]
 2160 024e CDE9045B 		strd	r5, fp, [sp, #16]
 2161              	.L598:
 2162 0252 A169     		ldr	r1, [r4, #24]
 2163 0254 DAF83430 		ldr	r3, [r10, #52]
 2164 0258 9942     		cmp	r1, r3
 2165 025a 04D0     		beq	.L591
 2166 025c 5046     		mov	r0, r10
 2167 025e FFF7FEFF 		bl	move_window.part.6
 2168 0262 0028     		cmp	r0, #0
 2169 0264 D4D1     		bne	.L615
 2170              	.L591:
 2171 0266 9DF80430 		ldrb	r3, [sp, #4]	@ zero_extendqisi2
 2172 026a 0026     		movs	r6, #0
 2173 026c E169     		ldr	r1, [r4, #28]
 2174 026e 0125     		movs	r5, #1
 2175 0270 581E     		subs	r0, r3, #1
 2176 0272 039A     		ldr	r2, [sp, #12]
 2177 0274 DAF80C80 		ldr	r8, [r10, #12]
 2178 0278 4FF6FF7B 		movw	fp, #65535
 2179 027c 00EB4007 		add	r7, r0, r0, lsl #1
 2180 0280 0293     		str	r3, [sp, #8]
 2181 0282 4A73     		strb	r2, [r1, #13]
 2182 0284 3346     		mov	r3, r6
 2183 0286 00EB8700 		add	r0, r0, r7, lsl #2
 2184 028a 4FF00F07 		mov	r7, #15
 2185 028e 0E73     		strb	r6, [r1, #12]
 2186 0290 3246     		mov	r2, r6
 2187 0292 CF72     		strb	r7, [r1, #11]
 2188 0294 4FF0FF0E 		mov	lr, #255
 2189 0298 8E76     		strb	r6, [r1, #26]
 2190 029a CE76     		strb	r6, [r1, #27]
 2191 029c 16E0     		b	.L590
 2192              	.L653:
 2193 029e 38F81030 		ldrh	r3, [r8, r0, lsl #1]
 2194 02a2 180A     		lsrs	r0, r3, #8
 2195 02a4 4B55     		strb	r3, [r1, r5]
 2196 02a6 7870     		strb	r0, [r7, #1]
 2197 02a8 002B     		cmp	r3, #0
 2198 02aa 40D1     		bne	.L614
 2199 02ac 0C2E     		cmp	r6, #12
 2200 02ae 4FF6FF73 		movw	r3, #65535
 2201 02b2 25D8     		bhi	.L597
ARM GAS  C:\Users\Jay\AppData\Local\Temp\cc8FQaEx.s 			page 39


 2202 02b4 19F80600 		ldrb	r0, [r9, r6]	@ zero_extendqisi2
 2203 02b8 0D18     		adds	r5, r1, r0
 2204 02ba 01F800E0 		strb	lr, [r1, r0]
 2205 02be 85F801E0 		strb	lr, [r5, #1]
 2206              	.L593:
 2207 02c2 0C2A     		cmp	r2, #12
 2208 02c4 6046     		mov	r0, ip
 2209 02c6 14D8     		bhi	.L596
 2210              	.L654:
 2211 02c8 19F80250 		ldrb	r5, [r9, r2]	@ zero_extendqisi2
 2212              	.L590:
 2213 02cc 5B45     		cmp	r3, fp
 2214 02ce 02F10106 		add	r6, r2, #1
 2215 02d2 01EB0507 		add	r7, r1, r5
 2216 02d6 00F1010C 		add	ip, r0, #1
 2217 02da 02F10202 		add	r2, r2, #2
 2218 02de DED1     		bne	.L653
 2219 02e0 3246     		mov	r2, r6
 2220 02e2 8446     		mov	ip, r0
 2221 02e4 01F805E0 		strb	lr, [r1, r5]
 2222 02e8 0C2A     		cmp	r2, #12
 2223 02ea 87F801E0 		strb	lr, [r7, #1]
 2224 02ee 6046     		mov	r0, ip
 2225 02f0 EAD9     		bls	.L654
 2226              	.L596:
 2227 02f2 4FF6FF72 		movw	r2, #65535
 2228 02f6 9342     		cmp	r3, r2
 2229 02f8 02D0     		beq	.L597
 2230 02fa 38F81C30 		ldrh	r3, [r8, ip, lsl #1]
 2231 02fe 1BB9     		cbnz	r3, .L595
 2232              	.L597:
 2233 0300 029B     		ldr	r3, [sp, #8]
 2234 0302 43F04003 		orr	r3, r3, #64
 2235 0306 0293     		str	r3, [sp, #8]
 2236              	.L595:
 2237 0308 0123     		movs	r3, #1
 2238 030a 029A     		ldr	r2, [sp, #8]
 2239 030c 2046     		mov	r0, r4
 2240 030e 0A70     		strb	r2, [r1]
 2241 0310 0021     		movs	r1, #0
 2242 0312 8AF80330 		strb	r3, [r10, #3]
 2243 0316 FFF7FEFF 		bl	dir_next
 2244 031a 0028     		cmp	r0, #0
 2245 031c 7FF478AF 		bne	.L615
 2246 0320 019B     		ldr	r3, [sp, #4]
 2247 0322 013B     		subs	r3, r3, #1
 2248 0324 0193     		str	r3, [sp, #4]
 2249 0326 94D1     		bne	.L598
 2250 0328 DDE9045B 		ldrd	r5, fp, [sp, #16]
 2251 032c C3E6     		b	.L586
 2252              	.L614:
 2253 032e 3246     		mov	r2, r6
 2254 0330 C7E7     		b	.L593
 2255              	.L605:
 2256 0332 1746     		mov	r7, r2
 2257 0334 7AE6     		b	.L563
 2258              	.L656:
ARM GAS  C:\Users\Jay\AppData\Local\Temp\cc8FQaEx.s 			page 40


 2259 0336 00BF     		.align	2
 2260              	.L655:
 2261 0338 4FECC44E 		.word	1321528399
 2262 033c 21100100 		.word	69665
 2263 0340 00000000 		.word	.LANCHOR1
 2265              		.section	.text.get_fileinfo,"ax",%progbits
 2266              		.align	1
 2267              		.p2align 2,,3
 2268              		.syntax unified
 2269              		.thumb
 2270              		.thumb_func
 2271              		.fpu fpv5-sp-d16
 2273              	get_fileinfo:
 2274              		@ args = 0, pretend = 0, frame = 0
 2275              		@ frame_needed = 0, uses_anonymous_args = 0
 2276 0000 2DE9F843 		push	{r3, r4, r5, r6, r7, r8, r9, lr}
 2277 0004 0024     		movs	r4, #0
 2278 0006 D0F80090 		ldr	r9, [r0]
 2279 000a 8C75     		strb	r4, [r1, #22]
 2280 000c 8369     		ldr	r3, [r0, #24]
 2281 000e 002B     		cmp	r3, #0
 2282 0010 79D0     		beq	.L657
 2283 0012 C36A     		ldr	r3, [r0, #44]
 2284 0014 0D46     		mov	r5, r1
 2285 0016 8046     		mov	r8, r0
 2286 0018 0133     		adds	r3, r3, #1
 2287 001a 00F08B80 		beq	.L680
 2288 001e D9F80C20 		ldr	r2, [r9, #12]
 2289 0022 2746     		mov	r7, r4
 2290 0024 2646     		mov	r6, r4
 2291              	.L660:
 2292 0026 105B     		ldrh	r0, [r2, r4]
 2293 0028 98B1     		cbz	r0, .L664
 2294 002a 2FB9     		cbnz	r7, .L661
 2295 002c 00F52053 		add	r3, r0, #10240
 2296 0030 9BB2     		uxth	r3, r3
 2297 0032 B3F5006F 		cmp	r3, #2048
 2298 0036 75D3     		bcc	.L681
 2299              	.L661:
 2300 0038 40EA0740 		orr	r0, r0, r7, lsl #16
 2301 003c 40F2B511 		movw	r1, #437
 2302 0040 FFF7FEFF 		bl	ff_uni2oem
 2303 0044 FF28     		cmp	r0, #255
 2304 0046 C6F1FF03 		rsb	r3, r6, #255
 2305 004a 5ED9     		bls	.L663
 2306 004c 012B     		cmp	r3, #1
 2307 004e 6BD8     		bhi	.L705
 2308              	.L683:
 2309 0050 0026     		movs	r6, #0
 2310              	.L664:
 2311 0052 0023     		movs	r3, #0
 2312 0054 002F     		cmp	r7, #0
 2313 0056 18BF     		it	ne
 2314 0058 1E46     		movne	r6, r3
 2315 005a 2E44     		add	r6, r6, r5
 2316 005c B375     		strb	r3, [r6, #22]
 2317 005e 95F816E0 		ldrb	lr, [r5, #22]	@ zero_extendqisi2
ARM GAS  C:\Users\Jay\AppData\Local\Temp\cc8FQaEx.s 			page 41


 2318              	.L659:
 2319 0062 D8F81CC0 		ldr	ip, [r8, #28]
 2320 0066 0020     		movs	r0, #0
 2321 0068 4FF02E08 		mov	r8, #46
 2322 006c 0CF1FF36 		add	r6, ip, #-1
 2323 0070 0446     		mov	r4, r0
 2324 0072 08E0     		b	.L671
 2325              	.L707:
 2326 0074 0B28     		cmp	r0, #11
 2327 0076 15D8     		bhi	.L685
 2328 0078 0230     		adds	r0, r0, #2
 2329 007a 87F80980 		strb	r8, [r7, #9]
 2330              	.L670:
 2331 007e 2B44     		add	r3, r3, r5
 2332 0080 5A72     		strb	r2, [r3, #9]
 2333              	.L668:
 2334 0082 0B2C     		cmp	r4, #11
 2335 0084 11D0     		beq	.L706
 2336              	.L671:
 2337 0086 16F8012F 		ldrb	r2, [r6, #1]!	@ zero_extendqisi2
 2338 008a 0134     		adds	r4, r4, #1
 2339 008c 431C     		adds	r3, r0, #1
 2340 008e 91B2     		uxth	r1, r2
 2341 0090 2029     		cmp	r1, #32
 2342 0092 F6D0     		beq	.L668
 2343 0094 0529     		cmp	r1, #5
 2344 0096 05EB0007 		add	r7, r5, r0
 2345 009a 1946     		mov	r1, r3
 2346 009c 08BF     		it	eq
 2347 009e E522     		moveq	r2, #229
 2348 00a0 092C     		cmp	r4, #9
 2349 00a2 E7D0     		beq	.L707
 2350              	.L685:
 2351 00a4 0346     		mov	r3, r0
 2352 00a6 0846     		mov	r0, r1
 2353 00a8 E9E7     		b	.L670
 2354              	.L706:
 2355 00aa 2B18     		adds	r3, r5, r0
 2356 00ac 0022     		movs	r2, #0
 2357 00ae 5A72     		strb	r2, [r3, #9]
 2358 00b0 BEF1000F 		cmp	lr, #0
 2359 00b4 0BD1     		bne	.L673
 2360 00b6 0028     		cmp	r0, #0
 2361 00b8 3ED1     		bne	.L708
 2362 00ba 3F23     		movs	r3, #63
 2363 00bc 0124     		movs	r4, #1
 2364 00be AB75     		strb	r3, [r5, #22]
 2365              	.L676:
 2366 00c0 0023     		movs	r3, #0
 2367 00c2 2C44     		add	r4, r4, r5
 2368 00c4 A375     		strb	r3, [r4, #22]
 2369 00c6 9CF80C30 		ldrb	r3, [ip, #12]	@ zero_extendqisi2
 2370 00ca 03B9     		cbnz	r3, .L673
 2371 00cc 6B72     		strb	r3, [r5, #9]
 2372              	.L673:
 2373 00ce 9CF80B30 		ldrb	r3, [ip, #11]	@ zero_extendqisi2
 2374 00d2 2B72     		strb	r3, [r5, #8]
ARM GAS  C:\Users\Jay\AppData\Local\Temp\cc8FQaEx.s 			page 42


 2375 00d4 BCF81E10 		ldrh	r1, [ip, #30]	@ unaligned
 2376 00d8 9CF81D20 		ldrb	r2, [ip, #29]	@ zero_extendqisi2
 2377 00dc 9CF81C30 		ldrb	r3, [ip, #28]	@ zero_extendqisi2
 2378 00e0 42EA0122 		orr	r2, r2, r1, lsl #8
 2379 00e4 43EA0223 		orr	r3, r3, r2, lsl #8
 2380 00e8 2B60     		str	r3, [r5]
 2381 00ea 9CF81720 		ldrb	r2, [ip, #23]	@ zero_extendqisi2
 2382 00ee 9CF81630 		ldrb	r3, [ip, #22]	@ zero_extendqisi2
 2383 00f2 43EA0223 		orr	r3, r3, r2, lsl #8
 2384 00f6 EB80     		strh	r3, [r5, #6]	@ movhi
 2385 00f8 9CF81920 		ldrb	r2, [ip, #25]	@ zero_extendqisi2
 2386 00fc 9CF81830 		ldrb	r3, [ip, #24]	@ zero_extendqisi2
 2387 0100 43EA0223 		orr	r3, r3, r2, lsl #8
 2388 0104 AB80     		strh	r3, [r5, #4]	@ movhi
 2389              	.L657:
 2390 0106 BDE8F883 		pop	{r3, r4, r5, r6, r7, r8, r9, pc}
 2391              	.L663:
 2392 010a 0028     		cmp	r0, #0
 2393 010c A0D0     		beq	.L683
 2394 010e 002B     		cmp	r3, #0
 2395 0110 9ED0     		beq	.L683
 2396 0112 AA19     		adds	r2, r5, r6
 2397 0114 0123     		movs	r3, #1
 2398 0116 9075     		strb	r0, [r2, #22]
 2399              	.L665:
 2400 0118 1E44     		add	r6, r6, r3
 2401 011a D9F80C20 		ldr	r2, [r9, #12]
 2402 011e 0027     		movs	r7, #0
 2403              	.L662:
 2404 0120 0234     		adds	r4, r4, #2
 2405 0122 80E7     		b	.L660
 2406              	.L681:
 2407 0124 0746     		mov	r7, r0
 2408 0126 FBE7     		b	.L662
 2409              	.L705:
 2410 0128 AA19     		adds	r2, r5, r6
 2411 012a 010A     		lsrs	r1, r0, #8
 2412 012c 0223     		movs	r3, #2
 2413 012e D075     		strb	r0, [r2, #23]
 2414 0130 9175     		strb	r1, [r2, #22]
 2415 0132 F1E7     		b	.L665
 2416              	.L680:
 2417 0134 A646     		mov	lr, r4
 2418 0136 94E7     		b	.L659
 2419              	.L708:
 2420 0138 6B7A     		ldrb	r3, [r5, #9]	@ zero_extendqisi2
 2421 013a 7446     		mov	r4, lr
 2422 013c 002B     		cmp	r3, #0
 2423 013e BFD0     		beq	.L676
 2424 0140 05F10901 		add	r1, r5, #9
 2425 0144 05F11502 		add	r2, r5, #21
 2426 0148 0826     		movs	r6, #8
 2427 014a 0DE0     		b	.L678
 2428              	.L709:
 2429 014c 1928     		cmp	r0, #25
 2430 014e 04D8     		bhi	.L677
 2431 0150 9CF80C00 		ldrb	r0, [ip, #12]	@ zero_extendqisi2
ARM GAS  C:\Users\Jay\AppData\Local\Temp\cc8FQaEx.s 			page 43


 2432 0154 0642     		tst	r6, r0
 2433 0156 00D0     		beq	.L677
 2434 0158 2033     		adds	r3, r3, #32
 2435              	.L677:
 2436 015a 02F8013F 		strb	r3, [r2, #1]!
 2437 015e 0134     		adds	r4, r4, #1
 2438 0160 11F8013F 		ldrb	r3, [r1, #1]!	@ zero_extendqisi2
 2439 0164 002B     		cmp	r3, #0
 2440 0166 ABD0     		beq	.L676
 2441              	.L678:
 2442 0168 9BB2     		uxth	r3, r3
 2443 016a 2E2B     		cmp	r3, #46
 2444 016c A3F14100 		sub	r0, r3, #65
 2445 0170 ECD1     		bne	.L709
 2446 0172 1026     		movs	r6, #16
 2447 0174 F1E7     		b	.L677
 2449 0176 00BF     		.section	.text.mount_volume,"ax",%progbits
 2450              		.align	1
 2451              		.p2align 2,,3
 2452              		.syntax unified
 2453              		.thumb
 2454              		.thumb_func
 2455              		.fpu fpv5-sp-d16
 2457              	mount_volume:
 2458              		@ args = 0, pretend = 0, frame = 16
 2459              		@ frame_needed = 0, uses_anonymous_args = 0
 2460 0000 0023     		movs	r3, #0
 2461 0002 2DE9F041 		push	{r4, r5, r6, r7, r8, lr}
 2462 0006 0B60     		str	r3, [r1]
 2463 0008 84B0     		sub	sp, sp, #16
 2464 000a 0F46     		mov	r7, r1
 2465 000c 1546     		mov	r5, r2
 2466 000e FFF7FEFF 		bl	get_ldnumber
 2467 0012 061E     		subs	r6, r0, #0
 2468 0014 33DB     		blt	.L739
 2469 0016 BB4B     		ldr	r3, .L778
 2470 0018 53F82640 		ldr	r4, [r3, r6, lsl #2]
 2471 001c 002C     		cmp	r4, #0
 2472 001e 00F0F080 		beq	.L740
 2473 0022 3C60     		str	r4, [r7]
 2474 0024 05F0FE05 		and	r5, r5, #254
 2475 0028 2378     		ldrb	r3, [r4]	@ zero_extendqisi2
 2476 002a 73B1     		cbz	r3, .L712
 2477 002c 6078     		ldrb	r0, [r4, #1]	@ zero_extendqisi2
 2478 002e FFF7FEFF 		bl	disk_status
 2479 0032 C307     		lsls	r3, r0, #31
 2480 0034 09D4     		bmi	.L712
 2481 0036 002D     		cmp	r5, #0
 2482 0038 00F0E780 		beq	.L741
 2483 003c 10F00400 		ands	r0, r0, #4
 2484 0040 1ED0     		beq	.L767
 2485              	.L714:
 2486 0042 0A20     		movs	r0, #10
 2487 0044 04B0     		add	sp, sp, #16
 2488              		@ sp needed
 2489 0046 BDE8F081 		pop	{r4, r5, r6, r7, r8, pc}
 2490              	.L712:
ARM GAS  C:\Users\Jay\AppData\Local\Temp\cc8FQaEx.s 			page 44


 2491 004a F0B2     		uxtb	r0, r6
 2492 004c 0023     		movs	r3, #0
 2493 004e 6070     		strb	r0, [r4, #1]
 2494 0050 2370     		strb	r3, [r4]
 2495 0052 FFF7FEFF 		bl	disk_initialize
 2496 0056 C707     		lsls	r7, r0, #31
 2497 0058 15D4     		bmi	.L743
 2498 005a 0DB1     		cbz	r5, .L713
 2499 005c 4607     		lsls	r6, r0, #29
 2500 005e F0D4     		bmi	.L714
 2501              	.L713:
 2502 0060 0021     		movs	r1, #0
 2503 0062 2046     		mov	r0, r4
 2504 0064 FFF7FEFF 		bl	check_fs
 2505 0068 0228     		cmp	r0, #2
 2506 006a 10D0     		beq	.L775
 2507 006c 0428     		cmp	r0, #4
 2508 006e 00F0C680 		beq	.L746
 2509 0072 0128     		cmp	r0, #1
 2510 0074 2FD9     		bls	.L721
 2511              	.L722:
 2512 0076 0D20     		movs	r0, #13
 2513 0078 04B0     		add	sp, sp, #16
 2514              		@ sp needed
 2515 007a BDE8F081 		pop	{r4, r5, r6, r7, r8, pc}
 2516              	.L739:
 2517 007e 0B20     		movs	r0, #11
 2518              	.L767:
 2519 0080 04B0     		add	sp, sp, #16
 2520              		@ sp needed
 2521 0082 BDE8F081 		pop	{r4, r5, r6, r7, r8, pc}
 2522              	.L743:
 2523 0086 0320     		movs	r0, #3
 2524 0088 04B0     		add	sp, sp, #16
 2525              		@ sp needed
 2526 008a BDE8F081 		pop	{r4, r5, r6, r7, r8, pc}
 2527              	.L775:
 2528 008e 6D46     		mov	r5, sp
 2529 0090 04F50073 		add	r3, r4, #512
 2530 0094 04F51077 		add	r7, r4, #576
 2531 0098 2846     		mov	r0, r5
 2532              	.L716:
 2533 009a 1E88     		ldrh	r6, [r3]	@ unaligned
 2534 009c 1033     		adds	r3, r3, #16
 2535 009e 13F8111C 		ldrb	r1, [r3, #-17]	@ zero_extendqisi2
 2536 00a2 13F8122C 		ldrb	r2, [r3, #-18]	@ zero_extendqisi2
 2537 00a6 BB42     		cmp	r3, r7
 2538 00a8 41EA0621 		orr	r1, r1, r6, lsl #8
 2539 00ac 42EA0122 		orr	r2, r2, r1, lsl #8
 2540 00b0 40F8042B 		str	r2, [r0], #4
 2541 00b4 F1D1     		bne	.L716
 2542 00b6 05F11006 		add	r6, r5, #16
 2543 00ba 02E0     		b	.L719
 2544              	.L717:
 2545 00bc B542     		cmp	r5, r6
 2546 00be 00F09B80 		beq	.L776
 2547              	.L719:
ARM GAS  C:\Users\Jay\AppData\Local\Temp\cc8FQaEx.s 			page 45


 2548 00c2 55F8041B 		ldr	r1, [r5], #4
 2549 00c6 0320     		movs	r0, #3
 2550 00c8 0029     		cmp	r1, #0
 2551 00ca F7D0     		beq	.L717
 2552 00cc 2046     		mov	r0, r4
 2553 00ce FFF7FEFF 		bl	check_fs
 2554 00d2 0128     		cmp	r0, #1
 2555 00d4 F2D8     		bhi	.L717
 2556              	.L721:
 2557 00d6 94F84420 		ldrb	r2, [r4, #68]	@ zero_extendqisi2
 2558 00da 94F84330 		ldrb	r3, [r4, #67]	@ zero_extendqisi2
 2559 00de 43EA0223 		orr	r3, r3, r2, lsl #8
 2560 00e2 B3F5007F 		cmp	r3, #512
 2561 00e6 C6D1     		bne	.L722
 2562 00e8 94F84F20 		ldrb	r2, [r4, #79]	@ zero_extendqisi2
 2563 00ec 94F84E30 		ldrb	r3, [r4, #78]	@ zero_extendqisi2
 2564 00f0 53EA0223 		orrs	r3, r3, r2, lsl #8
 2565 00f4 09D1     		bne	.L724
 2566 00f6 B4F85E10 		ldrh	r1, [r4, #94]	@ unaligned
 2567 00fa 94F85D30 		ldrb	r3, [r4, #93]	@ zero_extendqisi2
 2568 00fe 94F85C20 		ldrb	r2, [r4, #92]	@ zero_extendqisi2
 2569 0102 43EA0123 		orr	r3, r3, r1, lsl #8
 2570 0106 42EA0323 		orr	r3, r2, r3, lsl #8
 2571              	.L724:
 2572 010a 94F84820 		ldrb	r2, [r4, #72]	@ zero_extendqisi2
 2573 010e 2362     		str	r3, [r4, #32]
 2574 0110 501E     		subs	r0, r2, #1
 2575 0112 A270     		strb	r2, [r4, #2]
 2576 0114 616B     		ldr	r1, [r4, #52]
 2577 0116 0128     		cmp	r0, #1
 2578 0118 ADD8     		bhi	.L722
 2579 011a 94F84500 		ldrb	r0, [r4, #69]	@ zero_extendqisi2
 2580 011e 85B2     		uxth	r5, r0
 2581 0120 6581     		strh	r5, [r4, #10]	@ movhi
 2582 0122 002D     		cmp	r5, #0
 2583 0124 A7D0     		beq	.L722
 2584 0126 451E     		subs	r5, r0, #1
 2585 0128 0542     		tst	r5, r0
 2586 012a A4D1     		bne	.L722
 2587 012c 94F84A50 		ldrb	r5, [r4, #74]	@ zero_extendqisi2
 2588 0130 94F84960 		ldrb	r6, [r4, #73]	@ zero_extendqisi2
 2589 0134 46EA0526 		orr	r6, r6, r5, lsl #8
 2590 0138 3507     		lsls	r5, r6, #28
 2591 013a 2681     		strh	r6, [r4, #8]	@ movhi
 2592 013c 9BD1     		bne	.L722
 2593 013e 94F84C70 		ldrb	r7, [r4, #76]	@ zero_extendqisi2
 2594 0142 94F84B50 		ldrb	r5, [r4, #75]	@ zero_extendqisi2
 2595 0146 55EA0725 		orrs	r5, r5, r7, lsl #8
 2596 014a 09D1     		bne	.L726
 2597 014c B4F85AC0 		ldrh	ip, [r4, #90]	@ unaligned
 2598 0150 94F85970 		ldrb	r7, [r4, #89]	@ zero_extendqisi2
 2599 0154 94F85850 		ldrb	r5, [r4, #88]	@ zero_extendqisi2
 2600 0158 47EA0C27 		orr	r7, r7, ip, lsl #8
 2601 015c 45EA0725 		orr	r5, r5, r7, lsl #8
 2602              	.L726:
 2603 0160 94F847C0 		ldrb	ip, [r4, #71]	@ zero_extendqisi2
 2604 0164 94F84670 		ldrb	r7, [r4, #70]	@ zero_extendqisi2
ARM GAS  C:\Users\Jay\AppData\Local\Temp\cc8FQaEx.s 			page 46


 2605 0168 57EA0C2C 		orrs	ip, r7, ip, lsl #8
 2606 016c 83D0     		beq	.L722
 2607 016e 03FB02FE 		mul	lr, r3, r2
 2608 0172 0CEB1617 		add	r7, ip, r6, lsr #4
 2609 0176 7744     		add	r7, r7, lr
 2610 0178 BD42     		cmp	r5, r7
 2611 017a FFF47CAF 		bcc	.L722
 2612 017e ED1B     		subs	r5, r5, r7
 2613 0180 614A     		ldr	r2, .L778+4
 2614 0182 B5FBF0F0 		udiv	r0, r5, r0
 2615 0186 451E     		subs	r5, r0, #1
 2616 0188 9542     		cmp	r5, r2
 2617 018a 3FF674AF 		bhi	.L722
 2618 018e 4FF6F578 		movw	r8, #65525
 2619 0192 8C44     		add	ip, ip, r1
 2620 0194 CD19     		adds	r5, r1, r7
 2621 0196 821C     		adds	r2, r0, #2
 2622 0198 4045     		cmp	r0, r8
 2623 019a 38D8     		bhi	.L727
 2624 019c 40F6F577 		movw	r7, #4085
 2625 01a0 E261     		str	r2, [r4, #28]
 2626 01a2 2563     		str	r5, [r4, #48]
 2627 01a4 B842     		cmp	r0, r7
 2628 01a6 C4E9091C 		strd	r1, ip, [r4, #36]
 2629 01aa 5FD8     		bhi	.L728
 2630 01ac 002E     		cmp	r6, #0
 2631 01ae 3FF462AF 		beq	.L722
 2632 01b2 02EB4205 		add	r5, r2, r2, lsl #1
 2633 01b6 02F00102 		and	r2, r2, #1
 2634 01ba 0EEB0C01 		add	r1, lr, ip
 2635 01be 0120     		movs	r0, #1
 2636 01c0 02EB5502 		add	r2, r2, r5, lsr #1
 2637 01c4 E162     		str	r1, [r4, #44]
 2638              	.L736:
 2639 01c6 02F2FF12 		addw	r2, r2, #511
 2640 01ca B3EB522F 		cmp	r3, r2, lsr #9
 2641 01ce FFF452AF 		bcc	.L722
 2642 01d2 4FF0FF33 		mov	r3, #-1
 2643 01d6 8022     		movs	r2, #128
 2644 01d8 C4E90433 		strd	r3, r3, [r4, #16]
 2645 01dc 2271     		strb	r2, [r4, #4]
 2646              	.L732:
 2647 01de 4B4A     		ldr	r2, .L778+8
 2648 01e0 0021     		movs	r1, #0
 2649 01e2 4B4D     		ldr	r5, .L778+12
 2650 01e4 1388     		ldrh	r3, [r2]
 2651 01e6 2070     		strb	r0, [r4]
 2652 01e8 0846     		mov	r0, r1
 2653 01ea 0133     		adds	r3, r3, #1
 2654 01ec E560     		str	r5, [r4, #12]
 2655 01ee A161     		str	r1, [r4, #24]
 2656 01f0 9BB2     		uxth	r3, r3
 2657 01f2 1380     		strh	r3, [r2]	@ movhi
 2658 01f4 E380     		strh	r3, [r4, #6]	@ movhi
 2659 01f6 43E7     		b	.L767
 2660              	.L776:
 2661 01f8 0428     		cmp	r0, #4
ARM GAS  C:\Users\Jay\AppData\Local\Temp\cc8FQaEx.s 			page 47


 2662 01fa 7FF43CAF 		bne	.L722
 2663              	.L746:
 2664 01fe 0120     		movs	r0, #1
 2665 0200 3EE7     		b	.L767
 2666              	.L740:
 2667 0202 0C20     		movs	r0, #12
 2668 0204 04B0     		add	sp, sp, #16
 2669              		@ sp needed
 2670 0206 BDE8F081 		pop	{r4, r5, r6, r7, r8, pc}
 2671              	.L741:
 2672 020a 2846     		mov	r0, r5
 2673 020c 38E7     		b	.L767
 2674              	.L727:
 2675 020e 94F86370 		ldrb	r7, [r4, #99]	@ zero_extendqisi2
 2676 0212 94F86200 		ldrb	r0, [r4, #98]	@ zero_extendqisi2
 2677 0216 E261     		str	r2, [r4, #28]
 2678 0218 40EA0720 		orr	r0, r0, r7, lsl #8
 2679 021c 2563     		str	r5, [r4, #48]
 2680 021e 3043     		orrs	r0, r6, r0
 2681 0220 C4E9091C 		strd	r1, ip, [r4, #36]
 2682 0224 7FF427AF 		bne	.L722
 2683 0228 B4F86660 		ldrh	r6, [r4, #102]	@ unaligned
 2684 022c 9200     		lsls	r2, r2, #2
 2685 022e 94F86550 		ldrb	r5, [r4, #101]	@ zero_extendqisi2
 2686 0232 94F86400 		ldrb	r0, [r4, #100]	@ zero_extendqisi2
 2687 0236 02F2FF12 		addw	r2, r2, #511
 2688 023a 45EA0625 		orr	r5, r5, r6, lsl #8
 2689 023e B3EB522F 		cmp	r3, r2, lsr #9
 2690 0242 40EA0520 		orr	r0, r0, r5, lsl #8
 2691 0246 E062     		str	r0, [r4, #44]
 2692 0248 FFF415AF 		bcc	.L722
 2693 024c 94F86950 		ldrb	r5, [r4, #105]	@ zero_extendqisi2
 2694 0250 4FF0FF32 		mov	r2, #-1
 2695 0254 94F86830 		ldrb	r3, [r4, #104]	@ zero_extendqisi2
 2696 0258 8020     		movs	r0, #128
 2697 025a 6261     		str	r2, [r4, #20]
 2698 025c 43EA0523 		orr	r3, r3, r5, lsl #8
 2699 0260 2261     		str	r2, [r4, #16]
 2700 0262 2071     		strb	r0, [r4, #4]
 2701 0264 012B     		cmp	r3, #1
 2702 0266 0AD0     		beq	.L777
 2703              	.L733:
 2704 0268 0320     		movs	r0, #3
 2705 026a B8E7     		b	.L732
 2706              	.L728:
 2707 026c 002E     		cmp	r6, #0
 2708 026e 3FF402AF 		beq	.L722
 2709 0272 0EEB0C01 		add	r1, lr, ip
 2710 0276 5200     		lsls	r2, r2, #1
 2711 0278 0220     		movs	r0, #2
 2712 027a E162     		str	r1, [r4, #44]
 2713 027c A3E7     		b	.L736
 2714              	.L777:
 2715 027e 0131     		adds	r1, r1, #1
 2716 0280 2046     		mov	r0, r4
 2717 0282 FFF7FEFF 		bl	move_window.part.6
 2718 0286 0028     		cmp	r0, #0
ARM GAS  C:\Users\Jay\AppData\Local\Temp\cc8FQaEx.s 			page 48


 2719 0288 EED1     		bne	.L733
 2720 028a 94F83712 		ldrb	r1, [r4, #567]	@ zero_extendqisi2
 2721 028e 4AF65522 		movw	r2, #43605
 2722 0292 94F83632 		ldrb	r3, [r4, #566]	@ zero_extendqisi2
 2723 0296 2071     		strb	r0, [r4, #4]
 2724 0298 43EA0123 		orr	r3, r3, r1, lsl #8
 2725 029c 9342     		cmp	r3, r2
 2726 029e E3D1     		bne	.L733
 2727 02a0 618F     		ldrh	r1, [r4, #58]	@ unaligned
 2728 02a2 94F83920 		ldrb	r2, [r4, #57]	@ zero_extendqisi2
 2729 02a6 94F83830 		ldrb	r3, [r4, #56]	@ zero_extendqisi2
 2730 02aa 42EA0122 		orr	r2, r2, r1, lsl #8
 2731 02ae 1949     		ldr	r1, .L778+16
 2732 02b0 43EA0223 		orr	r3, r3, r2, lsl #8
 2733 02b4 8B42     		cmp	r3, r1
 2734 02b6 D7D1     		bne	.L733
 2735 02b8 B4F81E12 		ldrh	r1, [r4, #542]	@ unaligned
 2736 02bc 94F81D22 		ldrb	r2, [r4, #541]	@ zero_extendqisi2
 2737 02c0 94F81C32 		ldrb	r3, [r4, #540]	@ zero_extendqisi2
 2738 02c4 42EA0122 		orr	r2, r2, r1, lsl #8
 2739 02c8 1349     		ldr	r1, .L778+20
 2740 02ca 43EA0223 		orr	r3, r3, r2, lsl #8
 2741 02ce 8B42     		cmp	r3, r1
 2742 02d0 CAD1     		bne	.L733
 2743 02d2 94F82122 		ldrb	r2, [r4, #545]	@ zero_extendqisi2
 2744 02d6 0320     		movs	r0, #3
 2745 02d8 94F82532 		ldrb	r3, [r4, #549]	@ zero_extendqisi2
 2746 02dc B4F82252 		ldrh	r5, [r4, #546]	@ unaligned
 2747 02e0 B4F82612 		ldrh	r1, [r4, #550]	@ unaligned
 2748 02e4 42EA0525 		orr	r5, r2, r5, lsl #8
 2749 02e8 94F82022 		ldrb	r2, [r4, #544]	@ zero_extendqisi2
 2750 02ec 43EA0121 		orr	r1, r3, r1, lsl #8
 2751 02f0 94F82432 		ldrb	r3, [r4, #548]	@ zero_extendqisi2
 2752 02f4 42EA0522 		orr	r2, r2, r5, lsl #8
 2753 02f8 43EA0123 		orr	r3, r3, r1, lsl #8
 2754 02fc C4E90432 		strd	r3, r2, [r4, #16]
 2755 0300 6DE7     		b	.L732
 2756              	.L779:
 2757 0302 00BF     		.align	2
 2758              	.L778:
 2759 0304 00000000 		.word	.LANCHOR3
 2760 0308 F4FFFF0F 		.word	268435444
 2761 030c 00000000 		.word	.LANCHOR4
 2762 0310 00000000 		.word	.LANCHOR5
 2763 0314 52526141 		.word	1096897106
 2764 0318 72724161 		.word	1631679090
 2766              		.section	.text.dir_read.constprop.12,"ax",%progbits
 2767              		.align	1
 2768              		.p2align 2,,3
 2769              		.syntax unified
 2770              		.thumb
 2771              		.thumb_func
 2772              		.fpu fpv5-sp-d16
 2774              	dir_read.constprop.12:
 2775              		@ args = 0, pretend = 0, frame = 0
 2776              		@ frame_needed = 0, uses_anonymous_args = 0
 2777 0000 2DE9F047 		push	{r4, r5, r6, r7, r8, r9, r10, lr}
ARM GAS  C:\Users\Jay\AppData\Local\Temp\cc8FQaEx.s 			page 49


 2778 0004 0446     		mov	r4, r0
 2779 0006 FF27     		movs	r7, #255
 2780 0008 0420     		movs	r0, #4
 2781 000a 2568     		ldr	r5, [r4]
 2782 000c 3E46     		mov	r6, r7
 2783 000e 06E0     		b	.L781
 2784              	.L808:
 2785 0010 FF26     		movs	r6, #255
 2786              	.L786:
 2787 0012 0021     		movs	r1, #0
 2788 0014 2046     		mov	r0, r4
 2789 0016 FFF7FEFF 		bl	dir_next
 2790 001a 0028     		cmp	r0, #0
 2791 001c 58D1     		bne	.L783
 2792              	.L781:
 2793 001e A169     		ldr	r1, [r4, #24]
 2794 0020 0029     		cmp	r1, #0
 2795 0022 59D0     		beq	.L822
 2796 0024 6B6B     		ldr	r3, [r5, #52]
 2797 0026 8B42     		cmp	r3, r1
 2798 0028 04D0     		beq	.L785
 2799 002a 2846     		mov	r0, r5
 2800 002c FFF7FEFF 		bl	move_window.part.6
 2801 0030 0028     		cmp	r0, #0
 2802 0032 4DD1     		bne	.L783
 2803              	.L785:
 2804 0034 E169     		ldr	r1, [r4, #28]
 2805 0036 0A78     		ldrb	r2, [r1]	@ zero_extendqisi2
 2806 0038 002A     		cmp	r2, #0
 2807 003a 48D0     		beq	.L823
 2808 003c CB7A     		ldrb	r3, [r1, #11]	@ zero_extendqisi2
 2809 003e E52A     		cmp	r2, #229
 2810 0040 03F03F03 		and	r3, r3, #63
 2811 0044 A371     		strb	r3, [r4, #6]
 2812 0046 E3D0     		beq	.L808
 2813 0048 2E2A     		cmp	r2, #46
 2814 004a E1D0     		beq	.L808
 2815 004c 23F02000 		bic	r0, r3, #32
 2816 0050 0828     		cmp	r0, #8
 2817 0052 DDD0     		beq	.L808
 2818 0054 0F2B     		cmp	r3, #15
 2819 0056 44D1     		bne	.L787
 2820 0058 5006     		lsls	r0, r2, #25
 2821 005a 35D5     		bpl	.L788
 2822 005c 2369     		ldr	r3, [r4, #16]
 2823 005e 02F0BF06 		and	r6, r2, #191
 2824 0062 4F7B     		ldrb	r7, [r1, #13]	@ zero_extendqisi2
 2825 0064 E362     		str	r3, [r4, #44]
 2826              	.L789:
 2827 0066 4B7B     		ldrb	r3, [r1, #13]	@ zero_extendqisi2
 2828 0068 BB42     		cmp	r3, r7
 2829 006a D1D1     		bne	.L808
 2830 006c CA7E     		ldrb	r2, [r1, #27]	@ zero_extendqisi2
 2831 006e 8B7E     		ldrb	r3, [r1, #26]	@ zero_extendqisi2
 2832 0070 53EA0223 		orrs	r3, r3, r2, lsl #8
 2833 0074 CCD1     		bne	.L808
 2834 0076 0A78     		ldrb	r2, [r1]	@ zero_extendqisi2
ARM GAS  C:\Users\Jay\AppData\Local\Temp\cc8FQaEx.s 			page 50


 2835 0078 0123     		movs	r3, #1
 2836 007a 2C48     		ldr	r0, .L826
 2837 007c 4FF6FF78 		movw	r8, #65535
 2838 0080 22F04002 		bic	r2, r2, #64
 2839 0084 9C46     		mov	ip, r3
 2840 0086 00F10C0E 		add	lr, r0, #12
 2841 008a D5F80C90 		ldr	r9, [r5, #12]
 2842 008e 013A     		subs	r2, r2, #1
 2843 0090 02EB420A 		add	r10, r2, r2, lsl #1
 2844 0094 02EB8A02 		add	r2, r2, r10, lsl #2
 2845 0098 09E0     		b	.L793
 2846              	.L824:
 2847 009a FF2A     		cmp	r2, #255
 2848 009c 9C46     		mov	ip, r3
 2849 009e B7D8     		bhi	.L808
 2850 00a0 29F81230 		strh	r3, [r9, r2, lsl #1]	@ movhi
 2851 00a4 0132     		adds	r2, r2, #1
 2852              	.L791:
 2853 00a6 8645     		cmp	lr, r0
 2854 00a8 2FD0     		beq	.L792
 2855 00aa 10F8013F 		ldrb	r3, [r0, #1]!	@ zero_extendqisi2
 2856              	.L793:
 2857 00ae 01EB030A 		add	r10, r1, r3
 2858 00b2 CB5C     		ldrb	r3, [r1, r3]	@ zero_extendqisi2
 2859 00b4 9AF801A0 		ldrb	r10, [r10, #1]	@ zero_extendqisi2
 2860 00b8 43EA0A23 		orr	r3, r3, r10, lsl #8
 2861 00bc BCF1000F 		cmp	ip, #0
 2862 00c0 EBD1     		bne	.L824
 2863 00c2 4345     		cmp	r3, r8
 2864 00c4 EFD0     		beq	.L791
 2865 00c6 A3E7     		b	.L808
 2866              	.L788:
 2867 00c8 B242     		cmp	r2, r6
 2868 00ca A1D1     		bne	.L808
 2869 00cc CBE7     		b	.L789
 2870              	.L823:
 2871 00ce 0420     		movs	r0, #4
 2872              	.L783:
 2873 00d0 0023     		movs	r3, #0
 2874 00d2 A361     		str	r3, [r4, #24]
 2875              	.L797:
 2876 00d4 BDE8F087 		pop	{r4, r5, r6, r7, r8, r9, r10, pc}
 2877              	.L822:
 2878 00d8 0028     		cmp	r0, #0
 2879 00da F9D1     		bne	.L783
 2880              	.L799:
 2881 00dc 0020     		movs	r0, #0
 2882 00de BDE8F087 		pop	{r4, r5, r6, r7, r8, r9, r10, pc}
 2883              	.L787:
 2884 00e2 6EB9     		cbnz	r6, .L795
 2885 00e4 01F10B00 		add	r0, r1, #11
 2886              	.L796:
 2887 00e8 F301     		lsls	r3, r6, #7
 2888 00ea 11F8012B 		ldrb	r2, [r1], #1	@ zero_extendqisi2
 2889 00ee 43EA5606 		orr	r6, r3, r6, lsr #1
 2890 00f2 8142     		cmp	r1, r0
 2891 00f4 52FA86F6 		uxtab	r6, r2, r6
ARM GAS  C:\Users\Jay\AppData\Local\Temp\cc8FQaEx.s 			page 51


 2892 00f8 F6B2     		uxtb	r6, r6
 2893 00fa F5D1     		bne	.L796
 2894 00fc BE42     		cmp	r6, r7
 2895 00fe EDD0     		beq	.L799
 2896              	.L795:
 2897 0100 4FF0FF33 		mov	r3, #-1
 2898 0104 0020     		movs	r0, #0
 2899 0106 E362     		str	r3, [r4, #44]
 2900 0108 E4E7     		b	.L797
 2901              	.L792:
 2902 010a 0B78     		ldrb	r3, [r1]	@ zero_extendqisi2
 2903 010c 5B06     		lsls	r3, r3, #25
 2904 010e 02D5     		bpl	.L794
 2905 0110 BCF1000F 		cmp	ip, #0
 2906 0114 02D1     		bne	.L825
 2907              	.L794:
 2908 0116 013E     		subs	r6, r6, #1
 2909 0118 F6B2     		uxtb	r6, r6
 2910 011a 7AE7     		b	.L786
 2911              	.L825:
 2912 011c FF2A     		cmp	r2, #255
 2913 011e 3FF677AF 		bhi	.L808
 2914 0122 0023     		movs	r3, #0
 2915 0124 29F81230 		strh	r3, [r9, r2, lsl #1]	@ movhi
 2916 0128 F5E7     		b	.L794
 2917              	.L827:
 2918 012a 00BF     		.align	2
 2919              	.L826:
 2920 012c 00000000 		.word	.LANCHOR1
 2922              		.section	.text.f_mount,"ax",%progbits
 2923              		.align	1
 2924              		.p2align 2,,3
 2925              		.global	f_mount
 2926              		.syntax unified
 2927              		.thumb
 2928              		.thumb_func
 2929              		.fpu fpv5-sp-d16
 2931              	f_mount:
 2932              		@ args = 0, pretend = 0, frame = 16
 2933              		@ frame_needed = 0, uses_anonymous_args = 0
 2934 0000 10B5     		push	{r4, lr}
 2935 0002 84B0     		sub	sp, sp, #16
 2936 0004 1446     		mov	r4, r2
 2937 0006 04AB     		add	r3, sp, #16
 2938 0008 CDE90010 		strd	r1, r0, [sp]
 2939 000c 43F8041D 		str	r1, [r3, #-4]!
 2940 0010 1846     		mov	r0, r3
 2941 0012 FFF7FEFF 		bl	get_ldnumber
 2942 0016 0028     		cmp	r0, #0
 2943 0018 16DB     		blt	.L832
 2944 001a 0D4A     		ldr	r2, .L842
 2945 001c 52F82030 		ldr	r3, [r2, r0, lsl #2]
 2946 0020 0BB1     		cbz	r3, .L830
 2947 0022 0021     		movs	r1, #0
 2948 0024 1970     		strb	r1, [r3]
 2949              	.L830:
 2950 0026 019B     		ldr	r3, [sp, #4]
ARM GAS  C:\Users\Jay\AppData\Local\Temp\cc8FQaEx.s 			page 52


 2951 0028 0BB1     		cbz	r3, .L831
 2952 002a 0021     		movs	r1, #0
 2953 002c 1970     		strb	r1, [r3]
 2954              	.L831:
 2955 002e 42F82030 		str	r3, [r2, r0, lsl #2]
 2956 0032 14B9     		cbnz	r4, .L841
 2957 0034 2046     		mov	r0, r4
 2958 0036 04B0     		add	sp, sp, #16
 2959              		@ sp needed
 2960 0038 10BD     		pop	{r4, pc}
 2961              	.L841:
 2962 003a 0022     		movs	r2, #0
 2963 003c 01A9     		add	r1, sp, #4
 2964 003e 6846     		mov	r0, sp
 2965 0040 FFF7FEFF 		bl	mount_volume
 2966 0044 04B0     		add	sp, sp, #16
 2967              		@ sp needed
 2968 0046 10BD     		pop	{r4, pc}
 2969              	.L832:
 2970 0048 0B20     		movs	r0, #11
 2971 004a 04B0     		add	sp, sp, #16
 2972              		@ sp needed
 2973 004c 10BD     		pop	{r4, pc}
 2974              	.L843:
 2975 004e 00BF     		.align	2
 2976              	.L842:
 2977 0050 00000000 		.word	.LANCHOR3
 2979              		.section	.text.f_open,"ax",%progbits
 2980              		.align	1
 2981              		.p2align 2,,3
 2982              		.global	f_open
 2983              		.syntax unified
 2984              		.thumb
 2985              		.thumb_func
 2986              		.fpu fpv5-sp-d16
 2988              	f_open:
 2989              		@ args = 0, pretend = 0, frame = 64
 2990              		@ frame_needed = 0, uses_anonymous_args = 0
 2991 0000 2DE9F041 		push	{r4, r5, r6, r7, r8, lr}
 2992 0004 90B0     		sub	sp, sp, #64
 2993 0006 0191     		str	r1, [sp, #4]
 2994 0008 48B3     		cbz	r0, .L872
 2995 000a 02F03F07 		and	r7, r2, #63
 2996 000e 0446     		mov	r4, r0
 2997 0010 1546     		mov	r5, r2
 2998 0012 03A9     		add	r1, sp, #12
 2999 0014 01A8     		add	r0, sp, #4
 3000 0016 3A46     		mov	r2, r7
 3001 0018 FFF7FEFF 		bl	mount_volume
 3002 001c 0646     		mov	r6, r0
 3003 001e 28B1     		cbz	r0, .L906
 3004              	.L846:
 3005 0020 0023     		movs	r3, #0
 3006 0022 2360     		str	r3, [r4]
 3007              	.L882:
 3008 0024 3046     		mov	r0, r6
 3009 0026 10B0     		add	sp, sp, #64
ARM GAS  C:\Users\Jay\AppData\Local\Temp\cc8FQaEx.s 			page 53


 3010              		@ sp needed
 3011 0028 BDE8F081 		pop	{r4, r5, r6, r7, r8, pc}
 3012              	.L906:
 3013 002c 039B     		ldr	r3, [sp, #12]
 3014 002e 04A8     		add	r0, sp, #16
 3015 0030 0199     		ldr	r1, [sp, #4]
 3016 0032 0493     		str	r3, [sp, #16]
 3017 0034 FFF7FEFF 		bl	follow_path
 3018 0038 05F01C03 		and	r3, r5, #28
 3019 003c A0B9     		cbnz	r0, .L847
 3020 003e 9DF93B20 		ldrsb	r2, [sp, #59]
 3021 0042 002A     		cmp	r2, #0
 3022 0044 C0F2CD80 		blt	.L873
 3023 0048 9DF81620 		ldrb	r2, [sp, #22]	@ zero_extendqisi2
 3024 004c 8BB1     		cbz	r3, .L907
 3025 004e 12F0110F 		tst	r2, #17
 3026 0052 16D1     		bne	.L880
 3027 0054 6B07     		lsls	r3, r5, #29
 3028 0056 40F1C680 		bpl	.L908
 3029 005a 0826     		movs	r6, #8
 3030 005c E0E7     		b	.L846
 3031              	.L872:
 3032 005e 0926     		movs	r6, #9
 3033 0060 3046     		mov	r0, r6
 3034 0062 10B0     		add	sp, sp, #64
 3035              		@ sp needed
 3036 0064 BDE8F081 		pop	{r4, r5, r6, r7, r8, pc}
 3037              	.L847:
 3038 0068 0BB1     		cbz	r3, .L904
 3039 006a 0428     		cmp	r0, #4
 3040 006c 0DD0     		beq	.L867
 3041              	.L904:
 3042 006e 0646     		mov	r6, r0
 3043 0070 D6E7     		b	.L846
 3044              	.L907:
 3045 0072 D306     		lsls	r3, r2, #27
 3046 0074 07D4     		bmi	.L909
 3047 0076 A907     		lsls	r1, r5, #30
 3048 0078 40F1A880 		bpl	.L858
 3049 007c D307     		lsls	r3, r2, #31
 3050 007e 40F1A580 		bpl	.L858
 3051              	.L880:
 3052 0082 0726     		movs	r6, #7
 3053 0084 CCE7     		b	.L846
 3054              	.L909:
 3055 0086 0426     		movs	r6, #4
 3056 0088 CAE7     		b	.L846
 3057              	.L867:
 3058 008a 04A8     		add	r0, sp, #16
 3059 008c 47F00807 		orr	r7, r7, #8
 3060 0090 FFF7FEFF 		bl	dir_register
 3061 0094 0028     		cmp	r0, #0
 3062 0096 EAD1     		bne	.L904
 3063 0098 DDF80CC0 		ldr	ip, [sp, #12]
 3064 009c 0B9B     		ldr	r3, [sp, #44]
 3065              	.L851:
 3066 009e 9CF80020 		ldrb	r2, [ip]	@ zero_extendqisi2
ARM GAS  C:\Users\Jay\AppData\Local\Temp\cc8FQaEx.s 			page 54


 3067 00a2 D97E     		ldrb	r1, [r3, #27]	@ zero_extendqisi2
 3068 00a4 9D7E     		ldrb	r5, [r3, #26]	@ zero_extendqisi2
 3069 00a6 032A     		cmp	r2, #3
 3070 00a8 45EA0125 		orr	r5, r5, r1, lsl #8
 3071 00ac 00F0A780 		beq	.L910
 3072              	.L853:
 3073 00b0 0022     		movs	r2, #0
 3074 00b2 2121     		movs	r1, #33
 3075 00b4 4E20     		movs	r0, #78
 3076 00b6 1974     		strb	r1, [r3, #16]
 3077 00b8 2021     		movs	r1, #32
 3078 00ba 9A73     		strb	r2, [r3, #14]
 3079 00bc DA73     		strb	r2, [r3, #15]
 3080 00be 5874     		strb	r0, [r3, #17]
 3081 00c0 0B9B     		ldr	r3, [sp, #44]
 3082 00c2 D972     		strb	r1, [r3, #11]
 3083 00c4 0B9B     		ldr	r3, [sp, #44]
 3084 00c6 9A76     		strb	r2, [r3, #26]
 3085 00c8 DA76     		strb	r2, [r3, #27]
 3086 00ca 9CF80010 		ldrb	r1, [ip]	@ zero_extendqisi2
 3087 00ce 0329     		cmp	r1, #3
 3088 00d0 00F09280 		beq	.L911
 3089              	.L854:
 3090 00d4 0B9B     		ldr	r3, [sp, #44]
 3091 00d6 0022     		movs	r2, #0
 3092 00d8 0121     		movs	r1, #1
 3093 00da 1A77     		strb	r2, [r3, #28]
 3094 00dc 5A77     		strb	r2, [r3, #29]
 3095 00de 9A77     		strb	r2, [r3, #30]
 3096 00e0 DA77     		strb	r2, [r3, #31]
 3097 00e2 8CF80310 		strb	r1, [ip, #3]
 3098 00e6 CDB1     		cbz	r5, .L857
 3099 00e8 04A8     		add	r0, sp, #16
 3100 00ea 2946     		mov	r1, r5
 3101 00ec DCF83480 		ldr	r8, [ip, #52]
 3102 00f0 FFF7FEFF 		bl	remove_chain
 3103 00f4 0028     		cmp	r0, #0
 3104 00f6 BAD1     		bne	.L904
 3105 00f8 DDF80CC0 		ldr	ip, [sp, #12]
 3106 00fc 013D     		subs	r5, r5, #1
 3107 00fe DCF83430 		ldr	r3, [ip, #52]
 3108 0102 9845     		cmp	r8, r3
 3109 0104 00F0A180 		beq	.L912
 3110 0108 6046     		mov	r0, ip
 3111 010a 4146     		mov	r1, r8
 3112 010c FFF7FEFF 		bl	move_window.part.6
 3113 0110 DDF80CC0 		ldr	ip, [sp, #12]
 3114 0114 CCF81050 		str	r5, [ip, #16]
 3115 0118 0028     		cmp	r0, #0
 3116 011a A8D1     		bne	.L904
 3117              	.L857:
 3118 011c DCF83480 		ldr	r8, [ip, #52]
 3119              	.L856:
 3120 0120 0B9B     		ldr	r3, [sp, #44]
 3121              	.L871:
 3122 0122 47F04007 		orr	r7, r7, #64
 3123              	.L852:
ARM GAS  C:\Users\Jay\AppData\Local\Temp\cc8FQaEx.s 			page 55


 3124 0126 C4E90883 		strd	r8, r3, [r4, #32]
 3125 012a 9CF80010 		ldrb	r1, [ip]	@ zero_extendqisi2
 3126 012e D87E     		ldrb	r0, [r3, #27]	@ zero_extendqisi2
 3127 0130 9A7E     		ldrb	r2, [r3, #26]	@ zero_extendqisi2
 3128 0132 0329     		cmp	r1, #3
 3129 0134 42EA0022 		orr	r2, r2, r0, lsl #8
 3130 0138 05D1     		bne	.L859
 3131 013a 587D     		ldrb	r0, [r3, #21]	@ zero_extendqisi2
 3132 013c 197D     		ldrb	r1, [r3, #20]	@ zero_extendqisi2
 3133 013e 41EA0021 		orr	r1, r1, r0, lsl #8
 3134 0142 42EA0142 		orr	r2, r2, r1, lsl #16
 3135              	.L859:
 3136 0146 A260     		str	r2, [r4, #8]
 3137 0148 0020     		movs	r0, #0
 3138 014a B3F81EE0 		ldrh	lr, [r3, #30]	@ unaligned
 3139 014e 04F12805 		add	r5, r4, #40
 3140 0152 597F     		ldrb	r1, [r3, #29]	@ zero_extendqisi2
 3141 0154 1A7F     		ldrb	r2, [r3, #28]	@ zero_extendqisi2
 3142 0156 41EA0E23 		orr	r3, r1, lr, lsl #8
 3143 015a BCF806E0 		ldrh	lr, [ip, #6]
 3144 015e 0146     		mov	r1, r0
 3145 0160 C4F800C0 		str	ip, [r4]
 3146 0164 42EA0322 		orr	r2, r2, r3, lsl #8
 3147 0168 2B46     		mov	r3, r5
 3148 016a 6074     		strb	r0, [r4, #17]
 3149 016c E260     		str	r2, [r4, #12]
 3150 016e 04F50A72 		add	r2, r4, #552
 3151 0172 A4F804E0 		strh	lr, [r4, #4]	@ movhi
 3152 0176 E061     		str	r0, [r4, #28]
 3153 0178 6061     		str	r0, [r4, #20]
 3154 017a 2774     		strb	r7, [r4, #16]
 3155              	.L860:
 3156 017c 03F8011B 		strb	r1, [r3], #1
 3157 0180 9342     		cmp	r3, r2
 3158 0182 FBD1     		bne	.L860
 3159 0184 B906     		lsls	r1, r7, #26
 3160 0186 7FF54DAF 		bpl	.L882
 3161 018a E768     		ldr	r7, [r4, #12]
 3162 018c 002F     		cmp	r7, #0
 3163 018e 3FF449AF 		beq	.L882
 3164 0192 BCF80A80 		ldrh	r8, [ip, #10]
 3165 0196 A168     		ldr	r1, [r4, #8]
 3166 0198 4FEA4828 		lsl	r8, r8, #9
 3167 019c 6761     		str	r7, [r4, #20]
 3168 019e 4745     		cmp	r7, r8
 3169 01a0 34D9     		bls	.L863
 3170              	.L865:
 3171 01a2 2068     		ldr	r0, [r4]
 3172 01a4 A7EB0807 		sub	r7, r7, r8
 3173 01a8 FFF7FEFF 		bl	get_fat.isra.9
 3174 01ac 0128     		cmp	r0, #1
 3175 01ae 0146     		mov	r1, r0
 3176 01b0 14D9     		bls	.L864
 3177 01b2 B0F1FF3F 		cmp	r0, #-1
 3178 01b6 18BF     		it	ne
 3179 01b8 4745     		cmpne	r7, r8
 3180 01ba F2D8     		bhi	.L865
ARM GAS  C:\Users\Jay\AppData\Local\Temp\cc8FQaEx.s 			page 56


 3181 01bc 421C     		adds	r2, r0, #1
 3182 01be A061     		str	r0, [r4, #24]
 3183 01c0 0CBF     		ite	eq
 3184 01c2 0123     		moveq	r3, #1
 3185 01c4 0023     		movne	r3, #0
 3186 01c6 22D1     		bne	.L866
 3187 01c8 1E46     		mov	r6, r3
 3188 01ca 29E7     		b	.L846
 3189              	.L858:
 3190 01cc DDF80CC0 		ldr	ip, [sp, #12]
 3191 01d0 2807     		lsls	r0, r5, #28
 3192 01d2 0B9B     		ldr	r3, [sp, #44]
 3193 01d4 DCF83480 		ldr	r8, [ip, #52]
 3194 01d8 A5D5     		bpl	.L852
 3195 01da A2E7     		b	.L871
 3196              	.L864:
 3197 01dc A061     		str	r0, [r4, #24]
 3198              	.L905:
 3199 01de 0226     		movs	r6, #2
 3200 01e0 1EE7     		b	.L846
 3201              	.L873:
 3202 01e2 0626     		movs	r6, #6
 3203 01e4 1CE7     		b	.L846
 3204              	.L908:
 3205 01e6 2807     		lsls	r0, r5, #28
 3206 01e8 DDF80CC0 		ldr	ip, [sp, #12]
 3207 01ec 0B9B     		ldr	r3, [sp, #44]
 3208 01ee 3FF556AF 		bmi	.L851
 3209 01f2 DCF83480 		ldr	r8, [ip, #52]
 3210 01f6 96E7     		b	.L852
 3211              	.L911:
 3212 01f8 1A75     		strb	r2, [r3, #20]
 3213 01fa 5A75     		strb	r2, [r3, #21]
 3214 01fc 6AE7     		b	.L854
 3215              	.L910:
 3216 01fe 597D     		ldrb	r1, [r3, #21]	@ zero_extendqisi2
 3217 0200 1A7D     		ldrb	r2, [r3, #20]	@ zero_extendqisi2
 3218 0202 42EA0122 		orr	r2, r2, r1, lsl #8
 3219 0206 45EA0245 		orr	r5, r5, r2, lsl #16
 3220 020a 51E7     		b	.L853
 3221              	.L863:
 3222 020c A161     		str	r1, [r4, #24]
 3223              	.L866:
 3224 020e C7F30803 		ubfx	r3, r7, #0, #9
 3225 0212 002B     		cmp	r3, #0
 3226 0214 3FF406AF 		beq	.L882
 3227 0218 0398     		ldr	r0, [sp, #12]
 3228 021a 0239     		subs	r1, r1, #2
 3229 021c C369     		ldr	r3, [r0, #28]
 3230 021e 023B     		subs	r3, r3, #2
 3231 0220 9942     		cmp	r1, r3
 3232 0222 DCD2     		bcs	.L905
 3233 0224 4289     		ldrh	r2, [r0, #10]
 3234 0226 036B     		ldr	r3, [r0, #48]
 3235 0228 01FB0232 		mla	r2, r1, r2, r3
 3236 022c 002A     		cmp	r2, #0
 3237 022e D6D0     		beq	.L905
ARM GAS  C:\Users\Jay\AppData\Local\Temp\cc8FQaEx.s 			page 57


 3238 0230 02EB5722 		add	r2, r2, r7, lsr #9
 3239 0234 2946     		mov	r1, r5
 3240 0236 0123     		movs	r3, #1
 3241 0238 E261     		str	r2, [r4, #28]
 3242 023a 4078     		ldrb	r0, [r0, #1]	@ zero_extendqisi2
 3243 023c FFF7FEFF 		bl	disk_read
 3244 0240 0028     		cmp	r0, #0
 3245 0242 3FF4EFAE 		beq	.L882
 3246 0246 0126     		movs	r6, #1
 3247 0248 EAE6     		b	.L846
 3248              	.L912:
 3249 024a CCF81050 		str	r5, [ip, #16]
 3250 024e 67E7     		b	.L856
 3252              		.section	.text.f_read,"ax",%progbits
 3253              		.align	1
 3254              		.p2align 2,,3
 3255              		.global	f_read
 3256              		.syntax unified
 3257              		.thumb
 3258              		.thumb_func
 3259              		.fpu fpv5-sp-d16
 3261              	f_read:
 3262              		@ args = 0, pretend = 0, frame = 16
 3263              		@ frame_needed = 0, uses_anonymous_args = 0
 3264 0000 2DE9F04F 		push	{r4, r5, r6, r7, r8, r9, r10, fp, lr}
 3265 0004 9846     		mov	r8, r3
 3266 0006 85B0     		sub	sp, sp, #20
 3267 0008 0023     		movs	r3, #0
 3268 000a 8946     		mov	r9, r1
 3269 000c 03A9     		add	r1, sp, #12
 3270 000e 1446     		mov	r4, r2
 3271 0010 C8F80030 		str	r3, [r8]
 3272 0014 0546     		mov	r5, r0
 3273 0016 FFF7FEFF 		bl	validate
 3274 001a 0746     		mov	r7, r0
 3275 001c 0028     		cmp	r0, #0
 3276 001e 38D1     		bne	.L914
 3277 0020 6F7C     		ldrb	r7, [r5, #17]	@ zero_extendqisi2
 3278 0022 002F     		cmp	r7, #0
 3279 0024 35D1     		bne	.L914
 3280 0026 2B7C     		ldrb	r3, [r5, #16]	@ zero_extendqisi2
 3281 0028 DA07     		lsls	r2, r3, #31
 3282 002a 69D5     		bpl	.L933
 3283 002c 6B69     		ldr	r3, [r5, #20]
 3284 002e EE68     		ldr	r6, [r5, #12]
 3285 0030 F61A     		subs	r6, r6, r3
 3286 0032 A642     		cmp	r6, r4
 3287 0034 28BF     		it	cs
 3288 0036 2646     		movcs	r6, r4
 3289 0038 5EB3     		cbz	r6, .L914
 3290 003a 05F1280A 		add	r10, r5, #40
 3291              	.L915:
 3292 003e C3F30801 		ubfx	r1, r3, #0, #9
 3293 0042 0029     		cmp	r1, #0
 3294 0044 3DD1     		bne	.L917
 3295 0046 0399     		ldr	r1, [sp, #12]
 3296 0048 4A89     		ldrh	r2, [r1, #10]
ARM GAS  C:\Users\Jay\AppData\Local\Temp\cc8FQaEx.s 			page 58


 3297 004a 013A     		subs	r2, r2, #1
 3298 004c 12EA5322 		ands	r2, r2, r3, lsr #9
 3299 0050 4DD0     		beq	.L918
 3300 0052 A869     		ldr	r0, [r5, #24]
 3301              	.L919:
 3302 0054 CB69     		ldr	r3, [r1, #28]
 3303 0056 0238     		subs	r0, r0, #2
 3304 0058 023B     		subs	r3, r3, #2
 3305 005a 9842     		cmp	r0, r3
 3306 005c 79D2     		bcs	.L924
 3307 005e B1F80AC0 		ldrh	ip, [r1, #10]
 3308 0062 0B6B     		ldr	r3, [r1, #48]
 3309 0064 0CFB0030 		mla	r0, ip, r0, r3
 3310 0068 0028     		cmp	r0, #0
 3311 006a 72D0     		beq	.L924
 3312 006c 740A     		lsrs	r4, r6, #9
 3313 006e 02EB000B 		add	fp, r2, r0
 3314 0072 12D0     		beq	.L925
 3315 0074 1319     		adds	r3, r2, r4
 3316 0076 4878     		ldrb	r0, [r1, #1]	@ zero_extendqisi2
 3317 0078 4946     		mov	r1, r9
 3318 007a 6345     		cmp	r3, ip
 3319 007c 88BF     		it	hi
 3320 007e ACEB0204 		subhi	r4, ip, r2
 3321 0082 5A46     		mov	r2, fp
 3322 0084 2346     		mov	r3, r4
 3323 0086 FFF7FEFF 		bl	disk_read
 3324 008a 0028     		cmp	r0, #0
 3325 008c 3AD0     		beq	.L940
 3326              	.L927:
 3327 008e 0127     		movs	r7, #1
 3328 0090 6F74     		strb	r7, [r5, #17]
 3329              	.L914:
 3330 0092 3846     		mov	r0, r7
 3331 0094 05B0     		add	sp, sp, #20
 3332              		@ sp needed
 3333 0096 BDE8F08F 		pop	{r4, r5, r6, r7, r8, r9, r10, fp, pc}
 3334              	.L925:
 3335 009a EA69     		ldr	r2, [r5, #28]
 3336 009c 5A45     		cmp	r2, fp
 3337 009e 0BD0     		beq	.L930
 3338 00a0 95F91030 		ldrsb	r3, [r5, #16]
 3339 00a4 4878     		ldrb	r0, [r1, #1]	@ zero_extendqisi2
 3340 00a6 002B     		cmp	r3, #0
 3341 00a8 39DB     		blt	.L941
 3342              	.L931:
 3343 00aa 0123     		movs	r3, #1
 3344 00ac 5A46     		mov	r2, fp
 3345 00ae 5146     		mov	r1, r10
 3346 00b0 FFF7FEFF 		bl	disk_read
 3347 00b4 0028     		cmp	r0, #0
 3348 00b6 EAD1     		bne	.L927
 3349              	.L930:
 3350 00b8 6969     		ldr	r1, [r5, #20]
 3351 00ba C5F81CB0 		str	fp, [r5, #28]
 3352 00be C1F30801 		ubfx	r1, r1, #0, #9
 3353              	.L917:
ARM GAS  C:\Users\Jay\AppData\Local\Temp\cc8FQaEx.s 			page 59


 3354 00c2 C1F50074 		rsb	r4, r1, #512
 3355 00c6 4846     		mov	r0, r9
 3356 00c8 5144     		add	r1, r1, r10
 3357 00ca B442     		cmp	r4, r6
 3358 00cc 28BF     		it	cs
 3359 00ce 3446     		movcs	r4, r6
 3360 00d0 2246     		mov	r2, r4
 3361 00d2 FFF7FEFF 		bl	mem_cpy.part.0
 3362              	.L929:
 3363 00d6 D8F80020 		ldr	r2, [r8]
 3364 00da 361B     		subs	r6, r6, r4
 3365 00dc 6B69     		ldr	r3, [r5, #20]
 3366 00de A144     		add	r9, r9, r4
 3367 00e0 2244     		add	r2, r2, r4
 3368 00e2 2344     		add	r3, r3, r4
 3369 00e4 C8F80020 		str	r2, [r8]
 3370 00e8 6B61     		str	r3, [r5, #20]
 3371 00ea A8D1     		bne	.L915
 3372 00ec D1E7     		b	.L914
 3373              	.L918:
 3374 00ee 7BB9     		cbnz	r3, .L920
 3375 00f0 A868     		ldr	r0, [r5, #8]
 3376              	.L921:
 3377 00f2 0128     		cmp	r0, #1
 3378 00f4 2DD9     		bls	.L924
 3379 00f6 431C     		adds	r3, r0, #1
 3380 00f8 C9D0     		beq	.L927
 3381 00fa 0399     		ldr	r1, [sp, #12]
 3382 00fc A861     		str	r0, [r5, #24]
 3383 00fe A9E7     		b	.L919
 3384              	.L933:
 3385 0100 0727     		movs	r7, #7
 3386 0102 C6E7     		b	.L914
 3387              	.L940:
 3388 0104 95F91030 		ldrsb	r3, [r5, #16]
 3389 0108 002B     		cmp	r3, #0
 3390 010a 15DB     		blt	.L942
 3391              	.L928:
 3392 010c 6402     		lsls	r4, r4, #9
 3393 010e E2E7     		b	.L929
 3394              	.L920:
 3395 0110 A969     		ldr	r1, [r5, #24]
 3396 0112 2868     		ldr	r0, [r5]
 3397 0114 0192     		str	r2, [sp, #4]
 3398 0116 FFF7FEFF 		bl	get_fat.isra.9
 3399 011a 019A     		ldr	r2, [sp, #4]
 3400 011c E9E7     		b	.L921
 3401              	.L941:
 3402 011e 0123     		movs	r3, #1
 3403 0120 5146     		mov	r1, r10
 3404 0122 FFF7FEFF 		bl	disk_write
 3405 0126 0028     		cmp	r0, #0
 3406 0128 B1D1     		bne	.L927
 3407 012a 2B7C     		ldrb	r3, [r5, #16]	@ zero_extendqisi2
 3408 012c 039A     		ldr	r2, [sp, #12]
 3409 012e 03F07F03 		and	r3, r3, #127
 3410 0132 2B74     		strb	r3, [r5, #16]
ARM GAS  C:\Users\Jay\AppData\Local\Temp\cc8FQaEx.s 			page 60


 3411 0134 5078     		ldrb	r0, [r2, #1]	@ zero_extendqisi2
 3412 0136 B8E7     		b	.L931
 3413              	.L942:
 3414 0138 E869     		ldr	r0, [r5, #28]
 3415 013a A0EB0B00 		sub	r0, r0, fp
 3416 013e A042     		cmp	r0, r4
 3417 0140 E4D2     		bcs	.L928
 3418 0142 09EB4020 		add	r0, r9, r0, lsl #9
 3419 0146 4FF40072 		mov	r2, #512
 3420 014a 5146     		mov	r1, r10
 3421 014c FFF7FEFF 		bl	mem_cpy.part.0
 3422 0150 DCE7     		b	.L928
 3423              	.L924:
 3424 0152 0227     		movs	r7, #2
 3425 0154 6F74     		strb	r7, [r5, #17]
 3426 0156 9CE7     		b	.L914
 3428              		.section	.text.f_write,"ax",%progbits
 3429              		.align	1
 3430              		.p2align 2,,3
 3431              		.global	f_write
 3432              		.syntax unified
 3433              		.thumb
 3434              		.thumb_func
 3435              		.fpu fpv5-sp-d16
 3437              	f_write:
 3438              		@ args = 0, pretend = 0, frame = 16
 3439              		@ frame_needed = 0, uses_anonymous_args = 0
 3440 0000 2DE9F04F 		push	{r4, r5, r6, r7, r8, r9, r10, fp, lr}
 3441 0004 9A46     		mov	r10, r3
 3442 0006 85B0     		sub	sp, sp, #20
 3443 0008 0023     		movs	r3, #0
 3444 000a 8B46     		mov	fp, r1
 3445 000c 03A9     		add	r1, sp, #12
 3446 000e 1646     		mov	r6, r2
 3447 0010 CAF80030 		str	r3, [r10]
 3448 0014 0446     		mov	r4, r0
 3449 0016 FFF7FEFF 		bl	validate
 3450 001a 8046     		mov	r8, r0
 3451 001c 0028     		cmp	r0, #0
 3452 001e 54D1     		bne	.L944
 3453 0020 94F81180 		ldrb	r8, [r4, #17]	@ zero_extendqisi2
 3454 0024 B8F1000F 		cmp	r8, #0
 3455 0028 4FD1     		bne	.L944
 3456 002a 227C     		ldrb	r2, [r4, #16]	@ zero_extendqisi2
 3457 002c 9107     		lsls	r1, r2, #30
 3458 002e 40F18C80 		bpl	.L965
 3459 0032 6369     		ldr	r3, [r4, #20]
 3460 0034 F342     		cmn	r3, r6
 3461 0036 00D3     		bcc	.L945
 3462 0038 DE43     		mvns	r6, r3
 3463              	.L945:
 3464 003a 002E     		cmp	r6, #0
 3465 003c 73D0     		beq	.L952
 3466 003e 04F12802 		add	r2, r4, #40
 3467 0042 0192     		str	r2, [sp, #4]
 3468              	.L964:
 3469 0044 C3F30800 		ubfx	r0, r3, #0, #9
ARM GAS  C:\Users\Jay\AppData\Local\Temp\cc8FQaEx.s 			page 61


 3470 0048 0028     		cmp	r0, #0
 3471 004a 4CD1     		bne	.L947
 3472 004c 039A     		ldr	r2, [sp, #12]
 3473 004e B2F80A90 		ldrh	r9, [r2, #10]
 3474 0052 09F1FF39 		add	r9, r9, #-1
 3475 0056 19EA5329 		ands	r9, r9, r3, lsr #9
 3476 005a 0FD1     		bne	.L948
 3477 005c 002B     		cmp	r3, #0
 3478 005e 7DD1     		bne	.L949
 3479 0060 A068     		ldr	r0, [r4, #8]
 3480 0062 0028     		cmp	r0, #0
 3481 0064 00F08280 		beq	.L973
 3482              	.L950:
 3483 0068 0128     		cmp	r0, #1
 3484 006a 00F09D80 		beq	.L958
 3485 006e 431C     		adds	r3, r0, #1
 3486 0070 27D0     		beq	.L957
 3487 0072 A368     		ldr	r3, [r4, #8]
 3488 0074 A061     		str	r0, [r4, #24]
 3489 0076 039A     		ldr	r2, [sp, #12]
 3490 0078 03B9     		cbnz	r3, .L948
 3491 007a A060     		str	r0, [r4, #8]
 3492              	.L948:
 3493 007c 94F91030 		ldrsb	r3, [r4, #16]
 3494 0080 002B     		cmp	r3, #0
 3495 0082 54DB     		blt	.L974
 3496              	.L956:
 3497 0084 A769     		ldr	r7, [r4, #24]
 3498 0086 D369     		ldr	r3, [r2, #28]
 3499 0088 023F     		subs	r7, r7, #2
 3500 008a 023B     		subs	r3, r3, #2
 3501 008c 9F42     		cmp	r7, r3
 3502 008e 80F08B80 		bcs	.L958
 3503 0092 5389     		ldrh	r3, [r2, #10]
 3504 0094 116B     		ldr	r1, [r2, #48]
 3505 0096 03FB0717 		mla	r7, r3, r7, r1
 3506 009a 002F     		cmp	r7, #0
 3507 009c 00F08480 		beq	.L958
 3508 00a0 750A     		lsrs	r5, r6, #9
 3509 00a2 4F44     		add	r7, r7, r9
 3510 00a4 15D0     		beq	.L959
 3511 00a6 09EB0501 		add	r1, r9, r5
 3512 00aa 5078     		ldrb	r0, [r2, #1]	@ zero_extendqisi2
 3513 00ac 3A46     		mov	r2, r7
 3514 00ae 9942     		cmp	r1, r3
 3515 00b0 5946     		mov	r1, fp
 3516 00b2 88BF     		it	hi
 3517 00b4 A3EB0905 		subhi	r5, r3, r9
 3518 00b8 2B46     		mov	r3, r5
 3519 00ba FFF7FEFF 		bl	disk_write
 3520 00be 0028     		cmp	r0, #0
 3521 00c0 46D0     		beq	.L975
 3522              	.L957:
 3523 00c2 4FF00108 		mov	r8, #1
 3524 00c6 84F81180 		strb	r8, [r4, #17]
 3525              	.L944:
 3526 00ca 4046     		mov	r0, r8
ARM GAS  C:\Users\Jay\AppData\Local\Temp\cc8FQaEx.s 			page 62


 3527 00cc 05B0     		add	sp, sp, #20
 3528              		@ sp needed
 3529 00ce BDE8F08F 		pop	{r4, r5, r6, r7, r8, r9, r10, fp, pc}
 3530              	.L959:
 3531 00d2 E369     		ldr	r3, [r4, #28]
 3532 00d4 6069     		ldr	r0, [r4, #20]
 3533 00d6 BB42     		cmp	r3, r7
 3534 00d8 02D0     		beq	.L963
 3535 00da E368     		ldr	r3, [r4, #12]
 3536 00dc 8342     		cmp	r3, r0
 3537 00de 4DD8     		bhi	.L976
 3538              	.L963:
 3539 00e0 C0F30800 		ubfx	r0, r0, #0, #9
 3540 00e4 E761     		str	r7, [r4, #28]
 3541              	.L947:
 3542 00e6 C0F50075 		rsb	r5, r0, #512
 3543 00ea 019B     		ldr	r3, [sp, #4]
 3544 00ec 5946     		mov	r1, fp
 3545 00ee B542     		cmp	r5, r6
 3546 00f0 1844     		add	r0, r0, r3
 3547 00f2 28BF     		it	cs
 3548 00f4 3546     		movcs	r5, r6
 3549 00f6 2A46     		mov	r2, r5
 3550 00f8 FFF7FEFF 		bl	mem_cpy.part.0
 3551 00fc 237C     		ldrb	r3, [r4, #16]	@ zero_extendqisi2
 3552 00fe 63F07F03 		orn	r3, r3, #127
 3553 0102 2374     		strb	r3, [r4, #16]
 3554              	.L962:
 3555 0104 6369     		ldr	r3, [r4, #20]
 3556 0106 AB44     		add	fp, fp, r5
 3557 0108 E268     		ldr	r2, [r4, #12]
 3558 010a 2B44     		add	r3, r3, r5
 3559 010c DAF80010 		ldr	r1, [r10]
 3560 0110 9A42     		cmp	r2, r3
 3561 0112 2944     		add	r1, r1, r5
 3562 0114 38BF     		it	cc
 3563 0116 1A46     		movcc	r2, r3
 3564 0118 761B     		subs	r6, r6, r5
 3565 011a CAF80010 		str	r1, [r10]
 3566 011e E260     		str	r2, [r4, #12]
 3567 0120 6361     		str	r3, [r4, #20]
 3568 0122 8FD1     		bne	.L964
 3569              	.L972:
 3570 0124 227C     		ldrb	r2, [r4, #16]	@ zero_extendqisi2
 3571              	.L952:
 3572 0126 42F04002 		orr	r2, r2, #64
 3573 012a 2274     		strb	r2, [r4, #16]
 3574 012c CDE7     		b	.L944
 3575              	.L974:
 3576 012e 5078     		ldrb	r0, [r2, #1]	@ zero_extendqisi2
 3577 0130 0123     		movs	r3, #1
 3578 0132 E269     		ldr	r2, [r4, #28]
 3579 0134 0199     		ldr	r1, [sp, #4]
 3580 0136 FFF7FEFF 		bl	disk_write
 3581 013a 0028     		cmp	r0, #0
 3582 013c C1D1     		bne	.L957
 3583 013e 237C     		ldrb	r3, [r4, #16]	@ zero_extendqisi2
ARM GAS  C:\Users\Jay\AppData\Local\Temp\cc8FQaEx.s 			page 63


 3584 0140 039A     		ldr	r2, [sp, #12]
 3585 0142 03F07F03 		and	r3, r3, #127
 3586 0146 2374     		strb	r3, [r4, #16]
 3587 0148 9CE7     		b	.L956
 3588              	.L965:
 3589 014a 4FF00708 		mov	r8, #7
 3590 014e BCE7     		b	.L944
 3591              	.L975:
 3592 0150 E169     		ldr	r1, [r4, #28]
 3593 0152 C91B     		subs	r1, r1, r7
 3594 0154 A942     		cmp	r1, r5
 3595 0156 1BD3     		bcc	.L977
 3596              	.L961:
 3597 0158 6D02     		lsls	r5, r5, #9
 3598 015a D3E7     		b	.L962
 3599              	.L949:
 3600 015c A169     		ldr	r1, [r4, #24]
 3601 015e 2046     		mov	r0, r4
 3602 0160 FFF7FEFF 		bl	create_chain
 3603 0164 0028     		cmp	r0, #0
 3604 0166 7FF47FAF 		bne	.L950
 3605 016a DBE7     		b	.L972
 3606              	.L973:
 3607 016c 4946     		mov	r1, r9
 3608 016e 2046     		mov	r0, r4
 3609 0170 FFF7FEFF 		bl	create_chain
 3610 0174 0028     		cmp	r0, #0
 3611 0176 7FF477AF 		bne	.L950
 3612 017a D3E7     		b	.L972
 3613              	.L976:
 3614 017c 5078     		ldrb	r0, [r2, #1]	@ zero_extendqisi2
 3615 017e 0123     		movs	r3, #1
 3616 0180 3A46     		mov	r2, r7
 3617 0182 0199     		ldr	r1, [sp, #4]
 3618 0184 FFF7FEFF 		bl	disk_read
 3619 0188 0028     		cmp	r0, #0
 3620 018a 9AD1     		bne	.L957
 3621 018c 6069     		ldr	r0, [r4, #20]
 3622 018e A7E7     		b	.L963
 3623              	.L977:
 3624 0190 0BEB4121 		add	r1, fp, r1, lsl #9
 3625 0194 4FF40072 		mov	r2, #512
 3626 0198 0198     		ldr	r0, [sp, #4]
 3627 019a FFF7FEFF 		bl	mem_cpy.part.0
 3628 019e 237C     		ldrb	r3, [r4, #16]	@ zero_extendqisi2
 3629 01a0 03F07F03 		and	r3, r3, #127
 3630 01a4 2374     		strb	r3, [r4, #16]
 3631 01a6 D7E7     		b	.L961
 3632              	.L958:
 3633 01a8 4FF00208 		mov	r8, #2
 3634 01ac 84F81180 		strb	r8, [r4, #17]
 3635 01b0 8BE7     		b	.L944
 3637              		.section	.text.f_sync,"ax",%progbits
 3638              		.align	1
 3639              		.p2align 2,,3
 3640              		.global	f_sync
 3641              		.syntax unified
ARM GAS  C:\Users\Jay\AppData\Local\Temp\cc8FQaEx.s 			page 64


 3642              		.thumb
 3643              		.thumb_func
 3644              		.fpu fpv5-sp-d16
 3646              	f_sync:
 3647              		@ args = 0, pretend = 0, frame = 8
 3648              		@ frame_needed = 0, uses_anonymous_args = 0
 3649 0000 F0B5     		push	{r4, r5, r6, r7, lr}
 3650 0002 83B0     		sub	sp, sp, #12
 3651 0004 0446     		mov	r4, r0
 3652 0006 01A9     		add	r1, sp, #4
 3653 0008 FFF7FEFF 		bl	validate
 3654 000c 88BB     		cbnz	r0, .L979
 3655 000e 237C     		ldrb	r3, [r4, #16]	@ zero_extendqisi2
 3656 0010 5A06     		lsls	r2, r3, #25
 3657 0012 2ED5     		bpl	.L979
 3658 0014 1B06     		lsls	r3, r3, #24
 3659 0016 019D     		ldr	r5, [sp, #4]
 3660 0018 39D4     		bmi	.L988
 3661              	.L980:
 3662 001a 216A     		ldr	r1, [r4, #32]
 3663 001c 6B6B     		ldr	r3, [r5, #52]
 3664 001e 9942     		cmp	r1, r3
 3665 0020 29D1     		bne	.L989
 3666              	.L981:
 3667 0022 636A     		ldr	r3, [r4, #36]
 3668 0024 DA7A     		ldrb	r2, [r3, #11]	@ zero_extendqisi2
 3669 0026 42F02002 		orr	r2, r2, #32
 3670 002a DA72     		strb	r2, [r3, #11]
 3671 002c A268     		ldr	r2, [r4, #8]
 3672 002e 2168     		ldr	r1, [r4]
 3673 0030 C2F30720 		ubfx	r0, r2, #8, #8
 3674 0034 9A76     		strb	r2, [r3, #26]
 3675 0036 D876     		strb	r0, [r3, #27]
 3676 0038 0978     		ldrb	r1, [r1]	@ zero_extendqisi2
 3677 003a 0329     		cmp	r1, #3
 3678 003c 22D0     		beq	.L990
 3679              	.L982:
 3680 003e E268     		ldr	r2, [r4, #12]
 3681 0040 0021     		movs	r1, #0
 3682 0042 2120     		movs	r0, #33
 3683 0044 1A77     		strb	r2, [r3, #28]
 3684 0046 160C     		lsrs	r6, r2, #16
 3685 0048 170A     		lsrs	r7, r2, #8
 3686 004a 1876     		strb	r0, [r3, #24]
 3687 004c 120E     		lsrs	r2, r2, #24
 3688 004e 9E77     		strb	r6, [r3, #30]
 3689 0050 4E26     		movs	r6, #78
 3690 0052 9975     		strb	r1, [r3, #22]
 3691 0054 DA77     		strb	r2, [r3, #31]
 3692 0056 0122     		movs	r2, #1
 3693 0058 5F77     		strb	r7, [r3, #29]
 3694 005a 2846     		mov	r0, r5
 3695 005c D975     		strb	r1, [r3, #23]
 3696 005e 9974     		strb	r1, [r3, #18]
 3697 0060 D974     		strb	r1, [r3, #19]
 3698 0062 5E76     		strb	r6, [r3, #25]
 3699 0064 EA70     		strb	r2, [r5, #3]
ARM GAS  C:\Users\Jay\AppData\Local\Temp\cc8FQaEx.s 			page 65


 3700 0066 FFF7FEFF 		bl	sync_fs
 3701 006a 237C     		ldrb	r3, [r4, #16]	@ zero_extendqisi2
 3702 006c 23F04003 		bic	r3, r3, #64
 3703 0070 2374     		strb	r3, [r4, #16]
 3704              	.L979:
 3705 0072 03B0     		add	sp, sp, #12
 3706              		@ sp needed
 3707 0074 F0BD     		pop	{r4, r5, r6, r7, pc}
 3708              	.L989:
 3709 0076 2846     		mov	r0, r5
 3710 0078 FFF7FEFF 		bl	move_window.part.6
 3711 007c 0028     		cmp	r0, #0
 3712 007e F8D1     		bne	.L979
 3713 0080 019D     		ldr	r5, [sp, #4]
 3714 0082 CEE7     		b	.L981
 3715              	.L990:
 3716 0084 120C     		lsrs	r2, r2, #16
 3717 0086 110A     		lsrs	r1, r2, #8
 3718 0088 1A75     		strb	r2, [r3, #20]
 3719 008a 5975     		strb	r1, [r3, #21]
 3720 008c D7E7     		b	.L982
 3721              	.L988:
 3722 008e 6878     		ldrb	r0, [r5, #1]	@ zero_extendqisi2
 3723 0090 0123     		movs	r3, #1
 3724 0092 E269     		ldr	r2, [r4, #28]
 3725 0094 04F12801 		add	r1, r4, #40
 3726 0098 FFF7FEFF 		bl	disk_write
 3727 009c 28B9     		cbnz	r0, .L983
 3728 009e 237C     		ldrb	r3, [r4, #16]	@ zero_extendqisi2
 3729 00a0 019D     		ldr	r5, [sp, #4]
 3730 00a2 03F07F03 		and	r3, r3, #127
 3731 00a6 2374     		strb	r3, [r4, #16]
 3732 00a8 B7E7     		b	.L980
 3733              	.L983:
 3734 00aa 0120     		movs	r0, #1
 3735 00ac E1E7     		b	.L979
 3737 00ae 00BF     		.section	.text.f_close,"ax",%progbits
 3738              		.align	1
 3739              		.p2align 2,,3
 3740              		.global	f_close
 3741              		.syntax unified
 3742              		.thumb
 3743              		.thumb_func
 3744              		.fpu fpv5-sp-d16
 3746              	f_close:
 3747              		@ args = 0, pretend = 0, frame = 8
 3748              		@ frame_needed = 0, uses_anonymous_args = 0
 3749 0000 10B5     		push	{r4, lr}
 3750 0002 82B0     		sub	sp, sp, #8
 3751 0004 0446     		mov	r4, r0
 3752 0006 FFF7FEFF 		bl	f_sync
 3753 000a 08B1     		cbz	r0, .L994
 3754              	.L992:
 3755 000c 02B0     		add	sp, sp, #8
 3756              		@ sp needed
 3757 000e 10BD     		pop	{r4, pc}
 3758              	.L994:
ARM GAS  C:\Users\Jay\AppData\Local\Temp\cc8FQaEx.s 			page 66


 3759 0010 01A9     		add	r1, sp, #4
 3760 0012 2046     		mov	r0, r4
 3761 0014 FFF7FEFF 		bl	validate
 3762 0018 0028     		cmp	r0, #0
 3763 001a F7D1     		bne	.L992
 3764 001c 2060     		str	r0, [r4]
 3765 001e 02B0     		add	sp, sp, #8
 3766              		@ sp needed
 3767 0020 10BD     		pop	{r4, pc}
 3769 0022 00BF     		.section	.text.f_chdrive,"ax",%progbits
 3770              		.align	1
 3771              		.p2align 2,,3
 3772              		.global	f_chdrive
 3773              		.syntax unified
 3774              		.thumb
 3775              		.thumb_func
 3776              		.fpu fpv5-sp-d16
 3778              	f_chdrive:
 3779              		@ args = 0, pretend = 0, frame = 8
 3780              		@ frame_needed = 0, uses_anonymous_args = 0
 3781 0000 00B5     		push	{lr}
 3782 0002 83B0     		sub	sp, sp, #12
 3783 0004 02AB     		add	r3, sp, #8
 3784 0006 43F8040D 		str	r0, [r3, #-4]!
 3785 000a 1846     		mov	r0, r3
 3786 000c FFF7FEFF 		bl	get_ldnumber
 3787 0010 031E     		subs	r3, r0, #0
 3788 0012 05DB     		blt	.L997
 3789 0014 044A     		ldr	r2, .L999
 3790 0016 0020     		movs	r0, #0
 3791 0018 1370     		strb	r3, [r2]
 3792 001a 03B0     		add	sp, sp, #12
 3793              		@ sp needed
 3794 001c 5DF804FB 		ldr	pc, [sp], #4
 3795              	.L997:
 3796 0020 0B20     		movs	r0, #11
 3797 0022 03B0     		add	sp, sp, #12
 3798              		@ sp needed
 3799 0024 5DF804FB 		ldr	pc, [sp], #4
 3800              	.L1000:
 3801              		.align	2
 3802              	.L999:
 3803 0028 00000000 		.word	.LANCHOR0
 3805              		.section	.text.f_chdir,"ax",%progbits
 3806              		.align	1
 3807              		.p2align 2,,3
 3808              		.global	f_chdir
 3809              		.syntax unified
 3810              		.thumb
 3811              		.thumb_func
 3812              		.fpu fpv5-sp-d16
 3814              	f_chdir:
 3815              		@ args = 0, pretend = 0, frame = 64
 3816              		@ frame_needed = 0, uses_anonymous_args = 0
 3817 0000 30B5     		push	{r4, r5, lr}
 3818 0002 91B0     		sub	sp, sp, #68
 3819 0004 0022     		movs	r2, #0
ARM GAS  C:\Users\Jay\AppData\Local\Temp\cc8FQaEx.s 			page 67


 3820 0006 0190     		str	r0, [sp, #4]
 3821 0008 03A9     		add	r1, sp, #12
 3822 000a 01A8     		add	r0, sp, #4
 3823 000c FFF7FEFF 		bl	mount_volume
 3824 0010 08B1     		cbz	r0, .L1008
 3825              	.L1002:
 3826 0012 11B0     		add	sp, sp, #68
 3827              		@ sp needed
 3828 0014 30BD     		pop	{r4, r5, pc}
 3829              	.L1008:
 3830 0016 039B     		ldr	r3, [sp, #12]
 3831 0018 04A8     		add	r0, sp, #16
 3832 001a 0199     		ldr	r1, [sp, #4]
 3833 001c 0493     		str	r3, [sp, #16]
 3834 001e FFF7FEFF 		bl	follow_path
 3835 0022 C0B9     		cbnz	r0, .L1003
 3836 0024 9DF93B30 		ldrsb	r3, [sp, #59]
 3837 0028 002B     		cmp	r3, #0
 3838 002a 19DB     		blt	.L1009
 3839 002c 9DF81630 		ldrb	r3, [sp, #22]	@ zero_extendqisi2
 3840 0030 DB06     		lsls	r3, r3, #27
 3841 0032 19D5     		bpl	.L1006
 3842 0034 0399     		ldr	r1, [sp, #12]
 3843 0036 0B9A     		ldr	r2, [sp, #44]
 3844 0038 0C78     		ldrb	r4, [r1]	@ zero_extendqisi2
 3845 003a D57E     		ldrb	r5, [r2, #27]	@ zero_extendqisi2
 3846 003c 937E     		ldrb	r3, [r2, #26]	@ zero_extendqisi2
 3847 003e 032C     		cmp	r4, #3
 3848 0040 43EA0523 		orr	r3, r3, r5, lsl #8
 3849 0044 05D1     		bne	.L1005
 3850 0046 547D     		ldrb	r4, [r2, #21]	@ zero_extendqisi2
 3851 0048 127D     		ldrb	r2, [r2, #20]	@ zero_extendqisi2
 3852 004a 42EA0422 		orr	r2, r2, r4, lsl #8
 3853 004e 43EA0243 		orr	r3, r3, r2, lsl #16
 3854              	.L1005:
 3855 0052 8B61     		str	r3, [r1, #24]
 3856 0054 DDE7     		b	.L1002
 3857              	.L1003:
 3858 0056 0428     		cmp	r0, #4
 3859 0058 08BF     		it	eq
 3860 005a 0520     		moveq	r0, #5
 3861 005c 11B0     		add	sp, sp, #68
 3862              		@ sp needed
 3863 005e 30BD     		pop	{r4, r5, pc}
 3864              	.L1009:
 3865 0060 039B     		ldr	r3, [sp, #12]
 3866 0062 069A     		ldr	r2, [sp, #24]
 3867 0064 9A61     		str	r2, [r3, #24]
 3868 0066 D4E7     		b	.L1002
 3869              	.L1006:
 3870 0068 0520     		movs	r0, #5
 3871 006a D2E7     		b	.L1002
 3873              		.section	.text.f_getcwd,"ax",%progbits
 3874              		.align	1
 3875              		.p2align 2,,3
 3876              		.global	f_getcwd
 3877              		.syntax unified
ARM GAS  C:\Users\Jay\AppData\Local\Temp\cc8FQaEx.s 			page 68


 3878              		.thumb
 3879              		.thumb_func
 3880              		.fpu fpv5-sp-d16
 3882              	f_getcwd:
 3883              		@ args = 0, pretend = 0, frame = 344
 3884              		@ frame_needed = 0, uses_anonymous_args = 0
 3885 0000 2DE9F043 		push	{r4, r5, r6, r7, r8, r9, lr}
 3886 0004 0023     		movs	r3, #0
 3887 0006 D7B0     		sub	sp, sp, #348
 3888 0008 0546     		mov	r5, r0
 3889 000a 8946     		mov	r9, r1
 3890 000c 0190     		str	r0, [sp, #4]
 3891 000e 1A46     		mov	r2, r3
 3892 0010 0370     		strb	r3, [r0]
 3893 0012 03A9     		add	r1, sp, #12
 3894 0014 01A8     		add	r0, sp, #4
 3895 0016 FFF7FEFF 		bl	mount_volume
 3896 001a 0646     		mov	r6, r0
 3897 001c 0028     		cmp	r0, #0
 3898 001e 50D1     		bne	.L1011
 3899 0020 039B     		ldr	r3, [sp, #12]
 3900 0022 D3F81880 		ldr	r8, [r3, #24]
 3901 0026 0493     		str	r3, [sp, #16]
 3902 0028 CDF81880 		str	r8, [sp, #24]
 3903 002c B8F1000F 		cmp	r8, #0
 3904 0030 00F08980 		beq	.L1012
 3905 0034 4C46     		mov	r4, r9
 3906              	.L1024:
 3907 0036 2021     		movs	r1, #32
 3908 0038 04A8     		add	r0, sp, #16
 3909 003a FFF7FEFF 		bl	dir_sdi
 3910 003e 0028     		cmp	r0, #0
 3911 0040 7AD1     		bne	.L1030
 3912 0042 0398     		ldr	r0, [sp, #12]
 3913 0044 0A99     		ldr	r1, [sp, #40]
 3914 0046 436B     		ldr	r3, [r0, #52]
 3915 0048 9942     		cmp	r1, r3
 3916 004a 04D0     		beq	.L1013
 3917 004c FFF7FEFF 		bl	move_window.part.6
 3918 0050 0028     		cmp	r0, #0
 3919 0052 71D1     		bne	.L1030
 3920 0054 0398     		ldr	r0, [sp, #12]
 3921              	.L1013:
 3922 0056 0B9A     		ldr	r2, [sp, #44]
 3923 0058 0178     		ldrb	r1, [r0]	@ zero_extendqisi2
 3924 005a 937E     		ldrb	r3, [r2, #26]	@ zero_extendqisi2
 3925 005c D07E     		ldrb	r0, [r2, #27]	@ zero_extendqisi2
 3926 005e 0329     		cmp	r1, #3
 3927 0060 43EA0023 		orr	r3, r3, r0, lsl #8
 3928 0064 05D1     		bne	.L1014
 3929 0066 517D     		ldrb	r1, [r2, #21]	@ zero_extendqisi2
 3930 0068 127D     		ldrb	r2, [r2, #20]	@ zero_extendqisi2
 3931 006a 42EA0122 		orr	r2, r2, r1, lsl #8
 3932 006e 43EA0243 		orr	r3, r3, r2, lsl #16
 3933              	.L1014:
 3934 0072 0021     		movs	r1, #0
 3935 0074 04A8     		add	r0, sp, #16
ARM GAS  C:\Users\Jay\AppData\Local\Temp\cc8FQaEx.s 			page 69


 3936 0076 0693     		str	r3, [sp, #24]
 3937 0078 FFF7FEFF 		bl	dir_sdi
 3938 007c B8B1     		cbz	r0, .L1018
 3939 007e 5BE0     		b	.L1030
 3940              	.L1047:
 3941 0080 039A     		ldr	r2, [sp, #12]
 3942 0082 04A8     		add	r0, sp, #16
 3943 0084 0B9F     		ldr	r7, [sp, #44]
 3944 0086 1278     		ldrb	r2, [r2]	@ zero_extendqisi2
 3945 0088 97F81BE0 		ldrb	lr, [r7, #27]	@ zero_extendqisi2
 3946 008c BB7E     		ldrb	r3, [r7, #26]	@ zero_extendqisi2
 3947 008e 032A     		cmp	r2, #3
 3948 0090 43EA0E23 		orr	r3, r3, lr, lsl #8
 3949 0094 06D1     		bne	.L1016
 3950 0096 97F815E0 		ldrb	lr, [r7, #21]	@ zero_extendqisi2
 3951 009a 3A7D     		ldrb	r2, [r7, #20]	@ zero_extendqisi2
 3952 009c 42EA0E22 		orr	r2, r2, lr, lsl #8
 3953 00a0 43EA0243 		orr	r3, r3, r2, lsl #16
 3954              	.L1016:
 3955 00a4 4345     		cmp	r3, r8
 3956 00a6 12D0     		beq	.L1017
 3957 00a8 FFF7FEFF 		bl	dir_next
 3958 00ac 28B9     		cbnz	r0, .L1015
 3959              	.L1018:
 3960 00ae 04A8     		add	r0, sp, #16
 3961 00b0 FFF7FEFF 		bl	dir_read.constprop.12
 3962 00b4 0021     		movs	r1, #0
 3963 00b6 0028     		cmp	r0, #0
 3964 00b8 E2D0     		beq	.L1047
 3965              	.L1015:
 3966 00ba 0428     		cmp	r0, #4
 3967 00bc 14BF     		ite	ne
 3968 00be 0646     		movne	r6, r0
 3969 00c0 0226     		moveq	r6, #2
 3970              	.L1011:
 3971 00c2 0023     		movs	r3, #0
 3972 00c4 3046     		mov	r0, r6
 3973 00c6 2B70     		strb	r3, [r5]
 3974 00c8 57B0     		add	sp, sp, #348
 3975              		@ sp needed
 3976 00ca BDE8F083 		pop	{r4, r5, r6, r7, r8, r9, pc}
 3977              	.L1017:
 3978 00ce 10A9     		add	r1, sp, #64
 3979 00d0 04A8     		add	r0, sp, #16
 3980 00d2 FFF7FEFF 		bl	get_fileinfo
 3981 00d6 9DF85630 		ldrb	r3, [sp, #86]	@ zero_extendqisi2
 3982 00da 53B3     		cbz	r3, .L1019
 3983 00dc 0DF15601 		add	r1, sp, #86
 3984 00e0 0023     		movs	r3, #0
 3985 00e2 00E0     		b	.L1020
 3986              	.L1031:
 3987 00e4 1346     		mov	r3, r2
 3988              	.L1020:
 3989 00e6 11F8010F 		ldrb	r0, [r1, #1]!	@ zero_extendqisi2
 3990 00ea 5A1C     		adds	r2, r3, #1
 3991 00ec 0028     		cmp	r0, #0
 3992 00ee F9D1     		bne	.L1031
ARM GAS  C:\Users\Jay\AppData\Local\Temp\cc8FQaEx.s 			page 70


 3993 00f0 991C     		adds	r1, r3, #2
 3994 00f2 A142     		cmp	r1, r4
 3995 00f4 2DD8     		bhi	.L1033
 3996 00f6 1633     		adds	r3, r3, #22
 3997 00f8 10A9     		add	r1, sp, #64
 3998 00fa A21A     		subs	r2, r4, r2
 3999 00fc 0B44     		add	r3, r3, r1
 4000              	.L1023:
 4001 00fe 013C     		subs	r4, r4, #1
 4002 0100 13F80109 		ldrb	r0, [r3], #-1	@ zero_extendqisi2
 4003 0104 0199     		ldr	r1, [sp, #4]
 4004 0106 9442     		cmp	r4, r2
 4005 0108 0855     		strb	r0, [r1, r4]
 4006 010a F8D1     		bne	.L1023
 4007              	.L1022:
 4008 010c 541E     		subs	r4, r2, #1
 4009 010e 019B     		ldr	r3, [sp, #4]
 4010 0110 2F22     		movs	r2, #47
 4011 0112 1A55     		strb	r2, [r3, r4]
 4012 0114 DDF81880 		ldr	r8, [sp, #24]
 4013 0118 B8F1000F 		cmp	r8, #0
 4014 011c 8BD1     		bne	.L1024
 4015 011e A145     		cmp	r9, r4
 4016 0120 11D0     		beq	.L1012
 4017              	.L1026:
 4018 0122 019B     		ldr	r3, [sp, #4]
 4019 0124 1B5D     		ldrb	r3, [r3, r4]	@ zero_extendqisi2
 4020 0126 0134     		adds	r4, r4, #1
 4021 0128 A145     		cmp	r9, r4
 4022 012a 05F8013B 		strb	r3, [r5], #1
 4023 012e F8D8     		bhi	.L1026
 4024 0130 C7E7     		b	.L1011
 4025              	.L1019:
 4026 0132 74B1     		cbz	r4, .L1033
 4027 0134 2246     		mov	r2, r4
 4028 0136 E9E7     		b	.L1022
 4029              	.L1030:
 4030 0138 0646     		mov	r6, r0
 4031 013a 0023     		movs	r3, #0
 4032 013c 3046     		mov	r0, r6
 4033 013e 2B70     		strb	r3, [r5]
 4034 0140 57B0     		add	sp, sp, #348
 4035              		@ sp needed
 4036 0142 BDE8F083 		pop	{r4, r5, r6, r7, r8, r9, pc}
 4037              	.L1012:
 4038 0146 09F1FF34 		add	r4, r9, #-1
 4039 014a 019B     		ldr	r3, [sp, #4]
 4040 014c 2F22     		movs	r2, #47
 4041 014e 1A55     		strb	r2, [r3, r4]
 4042 0150 E7E7     		b	.L1026
 4043              	.L1033:
 4044 0152 1126     		movs	r6, #17
 4045 0154 B5E7     		b	.L1011
 4047 0156 00BF     		.section	.text.f_lseek,"ax",%progbits
 4048              		.align	1
 4049              		.p2align 2,,3
 4050              		.global	f_lseek
ARM GAS  C:\Users\Jay\AppData\Local\Temp\cc8FQaEx.s 			page 71


 4051              		.syntax unified
 4052              		.thumb
 4053              		.thumb_func
 4054              		.fpu fpv5-sp-d16
 4056              	f_lseek:
 4057              		@ args = 0, pretend = 0, frame = 8
 4058              		@ frame_needed = 0, uses_anonymous_args = 0
 4059 0000 F0B5     		push	{r4, r5, r6, r7, lr}
 4060 0002 83B0     		sub	sp, sp, #12
 4061 0004 0E46     		mov	r6, r1
 4062 0006 0446     		mov	r4, r0
 4063 0008 01A9     		add	r1, sp, #4
 4064 000a FFF7FEFF 		bl	validate
 4065 000e 0746     		mov	r7, r0
 4066 0010 0028     		cmp	r0, #0
 4067 0012 62D1     		bne	.L1049
 4068 0014 677C     		ldrb	r7, [r4, #17]	@ zero_extendqisi2
 4069 0016 002F     		cmp	r7, #0
 4070 0018 5FD1     		bne	.L1049
 4071 001a E368     		ldr	r3, [r4, #12]
 4072 001c B342     		cmp	r3, r6
 4073 001e 04D2     		bcs	.L1050
 4074 0020 227C     		ldrb	r2, [r4, #16]	@ zero_extendqisi2
 4075 0022 12F0020F 		tst	r2, #2
 4076 0026 08BF     		it	eq
 4077 0028 1E46     		moveq	r6, r3
 4078              	.L1050:
 4079 002a 0022     		movs	r2, #0
 4080 002c 6369     		ldr	r3, [r4, #20]
 4081 002e 6261     		str	r2, [r4, #20]
 4082 0030 002E     		cmp	r6, #0
 4083 0032 52D0     		beq	.L1049
 4084 0034 019A     		ldr	r2, [sp, #4]
 4085 0036 5589     		ldrh	r5, [r2, #10]
 4086 0038 6D02     		lsls	r5, r5, #9
 4087 003a 002B     		cmp	r3, #0
 4088 003c 50D0     		beq	.L1051
 4089 003e 013B     		subs	r3, r3, #1
 4090 0040 721E     		subs	r2, r6, #1
 4091 0042 B3FBF5F1 		udiv	r1, r3, r5
 4092 0046 B2FBF5F2 		udiv	r2, r2, r5
 4093 004a 8A42     		cmp	r2, r1
 4094 004c 48D3     		bcc	.L1051
 4095 004e 6942     		negs	r1, r5
 4096 0050 A269     		ldr	r2, [r4, #24]
 4097 0052 0B40     		ands	r3, r3, r1
 4098 0054 F61A     		subs	r6, r6, r3
 4099 0056 6361     		str	r3, [r4, #20]
 4100              	.L1052:
 4101 0058 0AB3     		cbz	r2, .L1068
 4102 005a AE42     		cmp	r6, r5
 4103 005c 11D8     		bhi	.L1064
 4104 005e 64E0     		b	.L1057
 4105              	.L1088:
 4106 0060 FFF7FEFF 		bl	create_chain
 4107 0064 0246     		mov	r2, r0
 4108 0066 0028     		cmp	r0, #0
ARM GAS  C:\Users\Jay\AppData\Local\Temp\cc8FQaEx.s 			page 72


 4109 0068 74D0     		beq	.L1087
 4110              	.L1059:
 4111 006a 531C     		adds	r3, r2, #1
 4112 006c 4ED0     		beq	.L1060
 4113 006e 012A     		cmp	r2, #1
 4114 0070 51D9     		bls	.L1062
 4115 0072 019B     		ldr	r3, [sp, #4]
 4116 0074 DB69     		ldr	r3, [r3, #28]
 4117 0076 9342     		cmp	r3, r2
 4118 0078 4DD9     		bls	.L1062
 4119 007a B542     		cmp	r5, r6
 4120 007c 6369     		ldr	r3, [r4, #20]
 4121 007e A261     		str	r2, [r4, #24]
 4122 0080 53D2     		bcs	.L1057
 4123              	.L1064:
 4124 0082 207C     		ldrb	r0, [r4, #16]	@ zero_extendqisi2
 4125 0084 2B44     		add	r3, r3, r5
 4126 0086 1146     		mov	r1, r2
 4127 0088 761B     		subs	r6, r6, r5
 4128 008a 10F0020F 		tst	r0, #2
 4129 008e 6361     		str	r3, [r4, #20]
 4130 0090 2046     		mov	r0, r4
 4131 0092 E5D1     		bne	.L1088
 4132 0094 2068     		ldr	r0, [r4]
 4133 0096 FFF7FEFF 		bl	get_fat.isra.9
 4134 009a 0246     		mov	r2, r0
 4135 009c E5E7     		b	.L1059
 4136              	.L1068:
 4137 009e 1546     		mov	r5, r2
 4138              	.L1056:
 4139 00a0 E268     		ldr	r2, [r4, #12]
 4140 00a2 C3F30801 		ubfx	r1, r3, #0, #9
 4141 00a6 9A42     		cmp	r2, r3
 4142 00a8 04D2     		bcs	.L1065
 4143 00aa 227C     		ldrb	r2, [r4, #16]	@ zero_extendqisi2
 4144 00ac E360     		str	r3, [r4, #12]
 4145 00ae 42F04003 		orr	r3, r2, #64
 4146 00b2 2374     		strb	r3, [r4, #16]
 4147              	.L1065:
 4148 00b4 89B1     		cbz	r1, .L1049
 4149 00b6 E269     		ldr	r2, [r4, #28]
 4150 00b8 AA42     		cmp	r2, r5
 4151 00ba 0ED0     		beq	.L1049
 4152 00bc 94F91030 		ldrsb	r3, [r4, #16]
 4153 00c0 04F12806 		add	r6, r4, #40
 4154 00c4 0199     		ldr	r1, [sp, #4]
 4155 00c6 002B     		cmp	r3, #0
 4156 00c8 4878     		ldrb	r0, [r1, #1]	@ zero_extendqisi2
 4157 00ca 1ADB     		blt	.L1089
 4158              	.L1066:
 4159 00cc 3146     		mov	r1, r6
 4160 00ce 0123     		movs	r3, #1
 4161 00d0 2A46     		mov	r2, r5
 4162 00d2 FFF7FEFF 		bl	disk_read
 4163 00d6 C8B9     		cbnz	r0, .L1060
 4164 00d8 E561     		str	r5, [r4, #28]
 4165              	.L1049:
ARM GAS  C:\Users\Jay\AppData\Local\Temp\cc8FQaEx.s 			page 73


 4166 00da 3846     		mov	r0, r7
 4167 00dc 03B0     		add	sp, sp, #12
 4168              		@ sp needed
 4169 00de F0BD     		pop	{r4, r5, r6, r7, pc}
 4170              	.L1051:
 4171 00e0 A268     		ldr	r2, [r4, #8]
 4172 00e2 12B1     		cbz	r2, .L1090
 4173 00e4 0023     		movs	r3, #0
 4174              	.L1053:
 4175 00e6 A261     		str	r2, [r4, #24]
 4176 00e8 B6E7     		b	.L1052
 4177              	.L1090:
 4178 00ea 1146     		mov	r1, r2
 4179 00ec 2046     		mov	r0, r4
 4180 00ee FFF7FEFF 		bl	create_chain
 4181 00f2 0128     		cmp	r0, #1
 4182 00f4 0246     		mov	r2, r0
 4183 00f6 0ED0     		beq	.L1062
 4184 00f8 411C     		adds	r1, r0, #1
 4185 00fa 07D0     		beq	.L1060
 4186 00fc A060     		str	r0, [r4, #8]
 4187 00fe 6369     		ldr	r3, [r4, #20]
 4188 0100 F1E7     		b	.L1053
 4189              	.L1089:
 4190 0102 0123     		movs	r3, #1
 4191 0104 3146     		mov	r1, r6
 4192 0106 FFF7FEFF 		bl	disk_write
 4193 010a 38B1     		cbz	r0, .L1091
 4194              	.L1060:
 4195 010c 0127     		movs	r7, #1
 4196 010e 3846     		mov	r0, r7
 4197 0110 6774     		strb	r7, [r4, #17]
 4198 0112 03B0     		add	sp, sp, #12
 4199              		@ sp needed
 4200 0114 F0BD     		pop	{r4, r5, r6, r7, pc}
 4201              	.L1062:
 4202 0116 0227     		movs	r7, #2
 4203 0118 6774     		strb	r7, [r4, #17]
 4204 011a DEE7     		b	.L1049
 4205              	.L1091:
 4206 011c 237C     		ldrb	r3, [r4, #16]	@ zero_extendqisi2
 4207 011e 019A     		ldr	r2, [sp, #4]
 4208 0120 03F07F03 		and	r3, r3, #127
 4209 0124 2374     		strb	r3, [r4, #16]
 4210 0126 5078     		ldrb	r0, [r2, #1]	@ zero_extendqisi2
 4211 0128 D0E7     		b	.L1066
 4212              	.L1057:
 4213 012a 3344     		add	r3, r3, r6
 4214 012c C6F30805 		ubfx	r5, r6, #0, #9
 4215 0130 6361     		str	r3, [r4, #20]
 4216 0132 002D     		cmp	r5, #0
 4217 0134 B4D0     		beq	.L1056
 4218 0136 0198     		ldr	r0, [sp, #4]
 4219 0138 023A     		subs	r2, r2, #2
 4220 013a C169     		ldr	r1, [r0, #28]
 4221 013c 0239     		subs	r1, r1, #2
 4222 013e 8A42     		cmp	r2, r1
ARM GAS  C:\Users\Jay\AppData\Local\Temp\cc8FQaEx.s 			page 74


 4223 0140 E9D2     		bcs	.L1062
 4224 0142 4589     		ldrh	r5, [r0, #10]
 4225 0144 016B     		ldr	r1, [r0, #48]
 4226 0146 02FB0515 		mla	r5, r2, r5, r1
 4227 014a 002D     		cmp	r5, #0
 4228 014c E3D0     		beq	.L1062
 4229 014e 05EB5625 		add	r5, r5, r6, lsr #9
 4230 0152 A5E7     		b	.L1056
 4231              	.L1087:
 4232 0154 0546     		mov	r5, r0
 4233 0156 6369     		ldr	r3, [r4, #20]
 4234 0158 A2E7     		b	.L1056
 4236 015a 00BF     		.section	.text.f_opendir,"ax",%progbits
 4237              		.align	1
 4238              		.p2align 2,,3
 4239              		.global	f_opendir
 4240              		.syntax unified
 4241              		.thumb
 4242              		.thumb_func
 4243              		.fpu fpv5-sp-d16
 4245              	f_opendir:
 4246              		@ args = 0, pretend = 0, frame = 16
 4247              		@ frame_needed = 0, uses_anonymous_args = 0
 4248 0000 30B5     		push	{r4, r5, lr}
 4249 0002 85B0     		sub	sp, sp, #20
 4250 0004 0191     		str	r1, [sp, #4]
 4251 0006 0028     		cmp	r0, #0
 4252 0008 34D0     		beq	.L1101
 4253 000a 0446     		mov	r4, r0
 4254 000c 0022     		movs	r2, #0
 4255 000e 03A9     		add	r1, sp, #12
 4256 0010 01A8     		add	r0, sp, #4
 4257 0012 FFF7FEFF 		bl	mount_volume
 4258 0016 18B1     		cbz	r0, .L1114
 4259              	.L1094:
 4260 0018 0023     		movs	r3, #0
 4261 001a 2360     		str	r3, [r4]
 4262 001c 05B0     		add	sp, sp, #20
 4263              		@ sp needed
 4264 001e 30BD     		pop	{r4, r5, pc}
 4265              	.L1114:
 4266 0020 039B     		ldr	r3, [sp, #12]
 4267 0022 2046     		mov	r0, r4
 4268 0024 0199     		ldr	r1, [sp, #4]
 4269 0026 2360     		str	r3, [r4]
 4270 0028 FFF7FEFF 		bl	follow_path
 4271 002c 28BB     		cbnz	r0, .L1095
 4272 002e 94F92B30 		ldrsb	r3, [r4, #43]
 4273 0032 002B     		cmp	r3, #0
 4274 0034 25DB     		blt	.L1115
 4275 0036 A379     		ldrb	r3, [r4, #6]	@ zero_extendqisi2
 4276 0038 DB06     		lsls	r3, r3, #27
 4277 003a 20D5     		bpl	.L1100
 4278 003c 039A     		ldr	r2, [sp, #12]
 4279 003e E169     		ldr	r1, [r4, #28]
 4280 0040 1078     		ldrb	r0, [r2]	@ zero_extendqisi2
 4281 0042 CD7E     		ldrb	r5, [r1, #27]	@ zero_extendqisi2
ARM GAS  C:\Users\Jay\AppData\Local\Temp\cc8FQaEx.s 			page 75


 4282 0044 8B7E     		ldrb	r3, [r1, #26]	@ zero_extendqisi2
 4283 0046 0328     		cmp	r0, #3
 4284 0048 43EA0523 		orr	r3, r3, r5, lsl #8
 4285 004c 05D1     		bne	.L1099
 4286 004e 487D     		ldrb	r0, [r1, #21]	@ zero_extendqisi2
 4287 0050 097D     		ldrb	r1, [r1, #20]	@ zero_extendqisi2
 4288 0052 41EA0021 		orr	r1, r1, r0, lsl #8
 4289 0056 43EA0143 		orr	r3, r3, r1, lsl #16
 4290              	.L1099:
 4291 005a A360     		str	r3, [r4, #8]
 4292              	.L1097:
 4293 005c D388     		ldrh	r3, [r2, #6]
 4294 005e 0021     		movs	r1, #0
 4295 0060 2046     		mov	r0, r4
 4296 0062 A380     		strh	r3, [r4, #4]	@ movhi
 4297 0064 FFF7FEFF 		bl	dir_sdi
 4298 0068 0428     		cmp	r0, #4
 4299 006a 08D0     		beq	.L1100
 4300 006c 0028     		cmp	r0, #0
 4301 006e D3D1     		bne	.L1094
 4302 0070 05B0     		add	sp, sp, #20
 4303              		@ sp needed
 4304 0072 30BD     		pop	{r4, r5, pc}
 4305              	.L1101:
 4306 0074 0920     		movs	r0, #9
 4307 0076 05B0     		add	sp, sp, #20
 4308              		@ sp needed
 4309 0078 30BD     		pop	{r4, r5, pc}
 4310              	.L1095:
 4311 007a 0428     		cmp	r0, #4
 4312 007c CCD1     		bne	.L1094
 4313              	.L1100:
 4314 007e 0520     		movs	r0, #5
 4315 0080 CAE7     		b	.L1094
 4316              	.L1115:
 4317 0082 039A     		ldr	r2, [sp, #12]
 4318 0084 EAE7     		b	.L1097
 4320 0086 00BF     		.section	.text.f_closedir,"ax",%progbits
 4321              		.align	1
 4322              		.p2align 2,,3
 4323              		.global	f_closedir
 4324              		.syntax unified
 4325              		.thumb
 4326              		.thumb_func
 4327              		.fpu fpv5-sp-d16
 4329              	f_closedir:
 4330              		@ args = 0, pretend = 0, frame = 8
 4331              		@ frame_needed = 0, uses_anonymous_args = 0
 4332 0000 10B5     		push	{r4, lr}
 4333 0002 82B0     		sub	sp, sp, #8
 4334 0004 0446     		mov	r4, r0
 4335 0006 01A9     		add	r1, sp, #4
 4336 0008 FFF7FEFF 		bl	validate
 4337 000c 00B9     		cbnz	r0, .L1117
 4338 000e 2060     		str	r0, [r4]
 4339              	.L1117:
 4340 0010 02B0     		add	sp, sp, #8
ARM GAS  C:\Users\Jay\AppData\Local\Temp\cc8FQaEx.s 			page 76


 4341              		@ sp needed
 4342 0012 10BD     		pop	{r4, pc}
 4344              		.section	.text.f_readdir,"ax",%progbits
 4345              		.align	1
 4346              		.p2align 2,,3
 4347              		.global	f_readdir
 4348              		.syntax unified
 4349              		.thumb
 4350              		.thumb_func
 4351              		.fpu fpv5-sp-d16
 4353              	f_readdir:
 4354              		@ args = 0, pretend = 0, frame = 8
 4355              		@ frame_needed = 0, uses_anonymous_args = 0
 4356 0000 70B5     		push	{r4, r5, r6, lr}
 4357 0002 82B0     		sub	sp, sp, #8
 4358 0004 0D46     		mov	r5, r1
 4359 0006 0446     		mov	r4, r0
 4360 0008 01A9     		add	r1, sp, #4
 4361 000a FFF7FEFF 		bl	validate
 4362 000e 88B9     		cbnz	r0, .L1120
 4363 0010 95B1     		cbz	r5, .L1123
 4364 0012 2046     		mov	r0, r4
 4365 0014 FFF7FEFF 		bl	dir_read.constprop.12
 4366 0018 10F0FB06 		ands	r6, r0, #251
 4367 001c 0AD1     		bne	.L1120
 4368 001e 2946     		mov	r1, r5
 4369 0020 2046     		mov	r0, r4
 4370 0022 FFF7FEFF 		bl	get_fileinfo
 4371 0026 3146     		mov	r1, r6
 4372 0028 2046     		mov	r0, r4
 4373 002a FFF7FEFF 		bl	dir_next
 4374 002e 0428     		cmp	r0, #4
 4375 0030 08BF     		it	eq
 4376 0032 0020     		moveq	r0, #0
 4377              	.L1120:
 4378 0034 02B0     		add	sp, sp, #8
 4379              		@ sp needed
 4380 0036 70BD     		pop	{r4, r5, r6, pc}
 4381              	.L1123:
 4382 0038 0146     		mov	r1, r0
 4383 003a 2046     		mov	r0, r4
 4384 003c FFF7FEFF 		bl	dir_sdi
 4385 0040 02B0     		add	sp, sp, #8
 4386              		@ sp needed
 4387 0042 70BD     		pop	{r4, r5, r6, pc}
 4389              		.section	.text.f_stat,"ax",%progbits
 4390              		.align	1
 4391              		.p2align 2,,3
 4392              		.global	f_stat
 4393              		.syntax unified
 4394              		.thumb
 4395              		.thumb_func
 4396              		.fpu fpv5-sp-d16
 4398              	f_stat:
 4399              		@ args = 0, pretend = 0, frame = 56
 4400              		@ frame_needed = 0, uses_anonymous_args = 0
 4401 0000 30B5     		push	{r4, r5, lr}
ARM GAS  C:\Users\Jay\AppData\Local\Temp\cc8FQaEx.s 			page 77


 4402 0002 8FB0     		sub	sp, sp, #60
 4403 0004 0D46     		mov	r5, r1
 4404 0006 0022     		movs	r2, #0
 4405 0008 0190     		str	r0, [sp, #4]
 4406 000a 02A9     		add	r1, sp, #8
 4407 000c 01A8     		add	r0, sp, #4
 4408 000e FFF7FEFF 		bl	mount_volume
 4409 0012 0446     		mov	r4, r0
 4410 0014 10B1     		cbz	r0, .L1131
 4411              	.L1125:
 4412 0016 2046     		mov	r0, r4
 4413 0018 0FB0     		add	sp, sp, #60
 4414              		@ sp needed
 4415 001a 30BD     		pop	{r4, r5, pc}
 4416              	.L1131:
 4417 001c 0199     		ldr	r1, [sp, #4]
 4418 001e 02A8     		add	r0, sp, #8
 4419 0020 FFF7FEFF 		bl	follow_path
 4420 0024 0446     		mov	r4, r0
 4421 0026 0028     		cmp	r0, #0
 4422 0028 F5D1     		bne	.L1125
 4423 002a 9DF93330 		ldrsb	r3, [sp, #51]
 4424 002e 002B     		cmp	r3, #0
 4425 0030 06DB     		blt	.L1126
 4426 0032 002D     		cmp	r5, #0
 4427 0034 EFD0     		beq	.L1125
 4428 0036 2946     		mov	r1, r5
 4429 0038 02A8     		add	r0, sp, #8
 4430 003a FFF7FEFF 		bl	get_fileinfo
 4431 003e EAE7     		b	.L1125
 4432              	.L1126:
 4433 0040 0624     		movs	r4, #6
 4434 0042 E8E7     		b	.L1125
 4436              		.section	.text.f_getfree,"ax",%progbits
 4437              		.align	1
 4438              		.p2align 2,,3
 4439              		.global	f_getfree
 4440              		.syntax unified
 4441              		.thumb
 4442              		.thumb_func
 4443              		.fpu fpv5-sp-d16
 4445              	f_getfree:
 4446              		@ args = 0, pretend = 0, frame = 16
 4447              		@ frame_needed = 0, uses_anonymous_args = 0
 4448 0000 2DE9F047 		push	{r4, r5, r6, r7, r8, r9, r10, lr}
 4449 0004 84B0     		sub	sp, sp, #16
 4450 0006 0F46     		mov	r7, r1
 4451 0008 1446     		mov	r4, r2
 4452 000a 0022     		movs	r2, #0
 4453 000c 0190     		str	r0, [sp, #4]
 4454 000e 03A9     		add	r1, sp, #12
 4455 0010 01A8     		add	r0, sp, #4
 4456 0012 FFF7FEFF 		bl	mount_volume
 4457 0016 8046     		mov	r8, r0
 4458 0018 0028     		cmp	r0, #0
 4459 001a 3AD1     		bne	.L1133
 4460 001c 039D     		ldr	r5, [sp, #12]
ARM GAS  C:\Users\Jay\AppData\Local\Temp\cc8FQaEx.s 			page 78


 4461 001e EE69     		ldr	r6, [r5, #28]
 4462 0020 6B69     		ldr	r3, [r5, #20]
 4463 0022 B21E     		subs	r2, r6, #2
 4464 0024 2560     		str	r5, [r4]
 4465 0026 9342     		cmp	r3, r2
 4466 0028 37D9     		bls	.L1152
 4467 002a 2B78     		ldrb	r3, [r5]	@ zero_extendqisi2
 4468 002c 012B     		cmp	r3, #1
 4469 002e 39D0     		beq	.L1153
 4470 0030 A96A     		ldr	r1, [r5, #40]
 4471 0032 0446     		mov	r4, r0
 4472 0034 8146     		mov	r9, r0
 4473              	.L1147:
 4474 0036 5CB9     		cbnz	r4, .L1141
 4475 0038 6B6B     		ldr	r3, [r5, #52]
 4476 003a 01F1010A 		add	r10, r1, #1
 4477 003e 9942     		cmp	r1, r3
 4478 0040 50D0     		beq	.L1148
 4479 0042 2846     		mov	r0, r5
 4480 0044 FFF7FEFF 		bl	move_window.part.6
 4481 0048 0028     		cmp	r0, #0
 4482 004a 4DD1     		bne	.L1154
 4483 004c 5146     		mov	r1, r10
 4484 004e 039D     		ldr	r5, [sp, #12]
 4485              	.L1141:
 4486 0050 05F13803 		add	r3, r5, #56
 4487 0054 95F800C0 		ldrb	ip, [r5]	@ zero_extendqisi2
 4488 0058 1819     		adds	r0, r3, r4
 4489 005a BCF1020F 		cmp	ip, #2
 4490 005e 1B5D     		ldrb	r3, [r3, r4]	@ zero_extendqisi2
 4491 0060 4278     		ldrb	r2, [r0, #1]	@ zero_extendqisi2
 4492 0062 37D0     		beq	.L1155
 4493 0064 4088     		ldrh	r0, [r0, #2]	@ unaligned
 4494 0066 0434     		adds	r4, r4, #4
 4495 0068 42EA0022 		orr	r2, r2, r0, lsl #8
 4496 006c 43EA0223 		orr	r3, r3, r2, lsl #8
 4497 0070 33F07043 		bics	r3, r3, #-268435456
 4498 0074 08BF     		it	eq
 4499 0076 09F10109 		addeq	r9, r9, #1
 4500              	.L1145:
 4501 007a 013E     		subs	r6, r6, #1
 4502 007c C4F30804 		ubfx	r4, r4, #0, #9
 4503 0080 D9D1     		bne	.L1147
 4504              	.L1138:
 4505 0082 C7F80090 		str	r9, [r7]
 4506 0086 2B79     		ldrb	r3, [r5, #4]	@ zero_extendqisi2
 4507 0088 C5F81490 		str	r9, [r5, #20]
 4508 008c 43F00103 		orr	r3, r3, #1
 4509 0090 2B71     		strb	r3, [r5, #4]
 4510              	.L1133:
 4511 0092 4046     		mov	r0, r8
 4512 0094 04B0     		add	sp, sp, #16
 4513              		@ sp needed
 4514 0096 BDE8F087 		pop	{r4, r5, r6, r7, r8, r9, r10, pc}
 4515              	.L1152:
 4516 009a 4046     		mov	r0, r8
 4517 009c 3B60     		str	r3, [r7]
ARM GAS  C:\Users\Jay\AppData\Local\Temp\cc8FQaEx.s 			page 79


 4518 009e 04B0     		add	sp, sp, #16
 4519              		@ sp needed
 4520 00a0 BDE8F087 		pop	{r4, r5, r6, r7, r8, r9, r10, pc}
 4521              	.L1153:
 4522 00a4 0224     		movs	r4, #2
 4523 00a6 8146     		mov	r9, r0
 4524 00a8 08E0     		b	.L1140
 4525              	.L1158:
 4526 00aa 0128     		cmp	r0, #1
 4527 00ac 1FD0     		beq	.L1156
 4528 00ae 08B9     		cbnz	r0, .L1139
 4529 00b0 09F10109 		add	r9, r9, #1
 4530              	.L1139:
 4531 00b4 039B     		ldr	r3, [sp, #12]
 4532 00b6 DA69     		ldr	r2, [r3, #28]
 4533 00b8 A242     		cmp	r2, r4
 4534 00ba 1CD9     		bls	.L1157
 4535              	.L1140:
 4536 00bc 2146     		mov	r1, r4
 4537 00be 2846     		mov	r0, r5
 4538 00c0 FFF7FEFF 		bl	get_fat.isra.9
 4539 00c4 431C     		adds	r3, r0, #1
 4540 00c6 04F10104 		add	r4, r4, #1
 4541 00ca EED1     		bne	.L1158
 4542 00cc 039D     		ldr	r5, [sp, #12]
 4543 00ce 4FF00108 		mov	r8, #1
 4544 00d2 D6E7     		b	.L1138
 4545              	.L1155:
 4546 00d4 53EA0223 		orrs	r3, r3, r2, lsl #8
 4547 00d8 04F10204 		add	r4, r4, #2
 4548 00dc 08BF     		it	eq
 4549 00de 09F10109 		addeq	r9, r9, #1
 4550 00e2 CAE7     		b	.L1145
 4551              	.L1148:
 4552 00e4 5146     		mov	r1, r10
 4553 00e6 B3E7     		b	.L1141
 4554              	.L1154:
 4555 00e8 8046     		mov	r8, r0
 4556 00ea 039D     		ldr	r5, [sp, #12]
 4557 00ec C9E7     		b	.L1138
 4558              	.L1156:
 4559 00ee 039D     		ldr	r5, [sp, #12]
 4560 00f0 4FF00208 		mov	r8, #2
 4561 00f4 C5E7     		b	.L1138
 4562              	.L1157:
 4563 00f6 1D46     		mov	r5, r3
 4564 00f8 C3E7     		b	.L1138
 4566 00fa 00BF     		.section	.text.f_truncate,"ax",%progbits
 4567              		.align	1
 4568              		.p2align 2,,3
 4569              		.global	f_truncate
 4570              		.syntax unified
 4571              		.thumb
 4572              		.thumb_func
 4573              		.fpu fpv5-sp-d16
 4575              	f_truncate:
 4576              		@ args = 0, pretend = 0, frame = 8
ARM GAS  C:\Users\Jay\AppData\Local\Temp\cc8FQaEx.s 			page 80


 4577              		@ frame_needed = 0, uses_anonymous_args = 0
 4578 0000 30B5     		push	{r4, r5, lr}
 4579 0002 83B0     		sub	sp, sp, #12
 4580 0004 0546     		mov	r5, r0
 4581 0006 01A9     		add	r1, sp, #4
 4582 0008 FFF7FEFF 		bl	validate
 4583 000c 0446     		mov	r4, r0
 4584 000e C0B9     		cbnz	r0, .L1174
 4585 0010 6C7C     		ldrb	r4, [r5, #17]	@ zero_extendqisi2
 4586 0012 B4B9     		cbnz	r4, .L1174
 4587 0014 2B7C     		ldrb	r3, [r5, #16]	@ zero_extendqisi2
 4588 0016 9907     		lsls	r1, r3, #30
 4589 0018 16D5     		bpl	.L1169
 4590 001a 6B69     		ldr	r3, [r5, #20]
 4591 001c EA68     		ldr	r2, [r5, #12]
 4592 001e 9342     		cmp	r3, r2
 4593 0020 0FD2     		bcs	.L1174
 4594 0022 9BB9     		cbnz	r3, .L1162
 4595 0024 2246     		mov	r2, r4
 4596 0026 A968     		ldr	r1, [r5, #8]
 4597 0028 2846     		mov	r0, r5
 4598 002a FFF7FEFF 		bl	remove_chain
 4599 002e AC60     		str	r4, [r5, #8]
 4600              	.L1163:
 4601 0030 2B7C     		ldrb	r3, [r5, #16]	@ zero_extendqisi2
 4602 0032 6A69     		ldr	r2, [r5, #20]
 4603 0034 43F04003 		orr	r3, r3, #64
 4604 0038 EA60     		str	r2, [r5, #12]
 4605 003a 2B74     		strb	r3, [r5, #16]
 4606 003c C8B9     		cbnz	r0, .L1172
 4607              	.L1166:
 4608 003e 1B06     		lsls	r3, r3, #24
 4609 0040 23D4     		bmi	.L1176
 4610              	.L1174:
 4611 0042 2046     		mov	r0, r4
 4612 0044 03B0     		add	sp, sp, #12
 4613              		@ sp needed
 4614 0046 30BD     		pop	{r4, r5, pc}
 4615              	.L1169:
 4616 0048 0724     		movs	r4, #7
 4617 004a FAE7     		b	.L1174
 4618              	.L1162:
 4619 004c A969     		ldr	r1, [r5, #24]
 4620 004e 2868     		ldr	r0, [r5]
 4621 0050 FFF7FEFF 		bl	get_fat.isra.9
 4622 0054 421C     		adds	r2, r0, #1
 4623 0056 0FD0     		beq	.L1170
 4624 0058 0128     		cmp	r0, #1
 4625 005a 24D0     		beq	.L1171
 4626 005c 019B     		ldr	r3, [sp, #4]
 4627 005e DB69     		ldr	r3, [r3, #28]
 4628 0060 8342     		cmp	r3, r0
 4629 0062 22D8     		bhi	.L1165
 4630 0064 2B7C     		ldrb	r3, [r5, #16]	@ zero_extendqisi2
 4631 0066 6A69     		ldr	r2, [r5, #20]
 4632 0068 43F04003 		orr	r3, r3, #64
 4633 006c EA60     		str	r2, [r5, #12]
ARM GAS  C:\Users\Jay\AppData\Local\Temp\cc8FQaEx.s 			page 81


 4634 006e 2B74     		strb	r3, [r5, #16]
 4635 0070 E5E7     		b	.L1166
 4636              	.L1172:
 4637 0072 0446     		mov	r4, r0
 4638 0074 6C74     		strb	r4, [r5, #17]
 4639 0076 E4E7     		b	.L1174
 4640              	.L1170:
 4641 0078 0124     		movs	r4, #1
 4642              	.L1164:
 4643 007a 2B7C     		ldrb	r3, [r5, #16]	@ zero_extendqisi2
 4644 007c 6A69     		ldr	r2, [r5, #20]
 4645 007e 43F04003 		orr	r3, r3, #64
 4646 0082 6C74     		strb	r4, [r5, #17]
 4647 0084 EA60     		str	r2, [r5, #12]
 4648 0086 2B74     		strb	r3, [r5, #16]
 4649 0088 DBE7     		b	.L1174
 4650              	.L1176:
 4651 008a 0198     		ldr	r0, [sp, #4]
 4652 008c 0123     		movs	r3, #1
 4653 008e EA69     		ldr	r2, [r5, #28]
 4654 0090 05F12801 		add	r1, r5, #40
 4655 0094 4078     		ldrb	r0, [r0, #1]	@ zero_extendqisi2
 4656 0096 FFF7FEFF 		bl	disk_write
 4657 009a 60B9     		cbnz	r0, .L1173
 4658 009c 2B7C     		ldrb	r3, [r5, #16]	@ zero_extendqisi2
 4659 009e 03F07F03 		and	r3, r3, #127
 4660 00a2 2B74     		strb	r3, [r5, #16]
 4661 00a4 CDE7     		b	.L1174
 4662              	.L1171:
 4663 00a6 0224     		movs	r4, #2
 4664 00a8 E7E7     		b	.L1164
 4665              	.L1165:
 4666 00aa 0146     		mov	r1, r0
 4667 00ac AA69     		ldr	r2, [r5, #24]
 4668 00ae 2846     		mov	r0, r5
 4669 00b0 FFF7FEFF 		bl	remove_chain
 4670 00b4 BCE7     		b	.L1163
 4671              	.L1173:
 4672 00b6 0124     		movs	r4, #1
 4673 00b8 6C74     		strb	r4, [r5, #17]
 4674 00ba C2E7     		b	.L1174
 4676              		.section	.text.f_unlink,"ax",%progbits
 4677              		.align	1
 4678              		.p2align 2,,3
 4679              		.global	f_unlink
 4680              		.syntax unified
 4681              		.thumb
 4682              		.thumb_func
 4683              		.fpu fpv5-sp-d16
 4685              	f_unlink:
 4686              		@ args = 0, pretend = 0, frame = 112
 4687              		@ frame_needed = 0, uses_anonymous_args = 0
 4688 0000 30B5     		push	{r4, r5, lr}
 4689 0002 9DB0     		sub	sp, sp, #116
 4690 0004 0222     		movs	r2, #2
 4691 0006 0190     		str	r0, [sp, #4]
 4692 0008 03A9     		add	r1, sp, #12
ARM GAS  C:\Users\Jay\AppData\Local\Temp\cc8FQaEx.s 			page 82


 4693 000a 01A8     		add	r0, sp, #4
 4694 000c FFF7FEFF 		bl	mount_volume
 4695 0010 08B1     		cbz	r0, .L1199
 4696              	.L1178:
 4697 0012 1DB0     		add	sp, sp, #116
 4698              		@ sp needed
 4699 0014 30BD     		pop	{r4, r5, pc}
 4700              	.L1199:
 4701 0016 039B     		ldr	r3, [sp, #12]
 4702 0018 04A8     		add	r0, sp, #16
 4703 001a 0199     		ldr	r1, [sp, #4]
 4704 001c 0493     		str	r3, [sp, #16]
 4705 001e FFF7FEFF 		bl	follow_path
 4706 0022 0028     		cmp	r0, #0
 4707 0024 F5D1     		bne	.L1178
 4708 0026 9DF83B30 		ldrb	r3, [sp, #59]	@ zero_extendqisi2
 4709 002a 9806     		lsls	r0, r3, #26
 4710 002c 2CD4     		bmi	.L1188
 4711 002e 1906     		lsls	r1, r3, #24
 4712 0030 2AD4     		bmi	.L1188
 4713 0032 9DF81630 		ldrb	r3, [sp, #22]	@ zero_extendqisi2
 4714 0036 DA07     		lsls	r2, r3, #31
 4715 0038 29D4     		bmi	.L1185
 4716 003a 0398     		ldr	r0, [sp, #12]
 4717 003c 0B9A     		ldr	r2, [sp, #44]
 4718 003e 0178     		ldrb	r1, [r0]	@ zero_extendqisi2
 4719 0040 D57E     		ldrb	r5, [r2, #27]	@ zero_extendqisi2
 4720 0042 947E     		ldrb	r4, [r2, #26]	@ zero_extendqisi2
 4721 0044 0329     		cmp	r1, #3
 4722 0046 44EA0524 		orr	r4, r4, r5, lsl #8
 4723 004a 2AD0     		beq	.L1200
 4724              	.L1180:
 4725 004c DB06     		lsls	r3, r3, #27
 4726 004e 10D5     		bpl	.L1186
 4727 0050 8369     		ldr	r3, [r0, #24]
 4728 0052 A342     		cmp	r3, r4
 4729 0054 1BD0     		beq	.L1185
 4730 0056 1090     		str	r0, [sp, #64]
 4731 0058 0021     		movs	r1, #0
 4732 005a 10A8     		add	r0, sp, #64
 4733 005c 1294     		str	r4, [sp, #72]
 4734 005e FFF7FEFF 		bl	dir_sdi
 4735 0062 0028     		cmp	r0, #0
 4736 0064 D5D1     		bne	.L1178
 4737 0066 10A8     		add	r0, sp, #64
 4738 0068 FFF7FEFF 		bl	dir_read.constprop.12
 4739 006c 78B1     		cbz	r0, .L1185
 4740 006e 0428     		cmp	r0, #4
 4741 0070 CFD1     		bne	.L1178
 4742              	.L1186:
 4743 0072 04A8     		add	r0, sp, #16
 4744 0074 FFF7FEFF 		bl	dir_remove
 4745 0078 00B9     		cbnz	r0, .L1184
 4746 007a 54B9     		cbnz	r4, .L1201
 4747              	.L1184:
 4748 007c 0028     		cmp	r0, #0
 4749 007e C8D1     		bne	.L1178
ARM GAS  C:\Users\Jay\AppData\Local\Temp\cc8FQaEx.s 			page 83


 4750              	.L1202:
 4751 0080 0398     		ldr	r0, [sp, #12]
 4752 0082 FFF7FEFF 		bl	sync_fs
 4753 0086 C4E7     		b	.L1178
 4754              	.L1188:
 4755 0088 0620     		movs	r0, #6
 4756 008a 1DB0     		add	sp, sp, #116
 4757              		@ sp needed
 4758 008c 30BD     		pop	{r4, r5, pc}
 4759              	.L1185:
 4760 008e 0720     		movs	r0, #7
 4761 0090 BFE7     		b	.L1178
 4762              	.L1201:
 4763 0092 2146     		mov	r1, r4
 4764 0094 04A8     		add	r0, sp, #16
 4765 0096 0022     		movs	r2, #0
 4766 0098 FFF7FEFF 		bl	remove_chain
 4767 009c 0028     		cmp	r0, #0
 4768 009e B8D1     		bne	.L1178
 4769 00a0 EEE7     		b	.L1202
 4770              	.L1200:
 4771 00a2 517D     		ldrb	r1, [r2, #21]	@ zero_extendqisi2
 4772 00a4 127D     		ldrb	r2, [r2, #20]	@ zero_extendqisi2
 4773 00a6 42EA0122 		orr	r2, r2, r1, lsl #8
 4774 00aa 44EA0244 		orr	r4, r4, r2, lsl #16
 4775 00ae CDE7     		b	.L1180
 4777              		.section	.text.f_mkdir,"ax",%progbits
 4778              		.align	1
 4779              		.p2align 2,,3
 4780              		.global	f_mkdir
 4781              		.syntax unified
 4782              		.thumb
 4783              		.thumb_func
 4784              		.fpu fpv5-sp-d16
 4786              	f_mkdir:
 4787              		@ args = 0, pretend = 0, frame = 80
 4788              		@ frame_needed = 0, uses_anonymous_args = 0
 4789 0000 2DE9F041 		push	{r4, r5, r6, r7, r8, lr}
 4790 0004 94B0     		sub	sp, sp, #80
 4791 0006 0222     		movs	r2, #2
 4792 0008 0190     		str	r0, [sp, #4]
 4793 000a 03A9     		add	r1, sp, #12
 4794 000c 01A8     		add	r0, sp, #4
 4795 000e FFF7FEFF 		bl	mount_volume
 4796 0012 0446     		mov	r4, r0
 4797 0014 18B1     		cbz	r0, .L1217
 4798              	.L1204:
 4799 0016 2046     		mov	r0, r4
 4800 0018 14B0     		add	sp, sp, #80
 4801              		@ sp needed
 4802 001a BDE8F081 		pop	{r4, r5, r6, r7, r8, pc}
 4803              	.L1217:
 4804 001e 039B     		ldr	r3, [sp, #12]
 4805 0020 08A8     		add	r0, sp, #32
 4806 0022 0199     		ldr	r1, [sp, #4]
 4807 0024 0893     		str	r3, [sp, #32]
 4808 0026 FFF7FEFF 		bl	follow_path
ARM GAS  C:\Users\Jay\AppData\Local\Temp\cc8FQaEx.s 			page 84


 4809 002a 0446     		mov	r4, r0
 4810 002c 0028     		cmp	r0, #0
 4811 002e 00F08980 		beq	.L1210
 4812 0032 0428     		cmp	r0, #4
 4813 0034 EFD1     		bne	.L1204
 4814 0036 9DF84B10 		ldrb	r1, [sp, #75]	@ zero_extendqisi2
 4815 003a 11F02001 		ands	r1, r1, #32
 4816 003e 40F08D80 		bne	.L1211
 4817 0042 039B     		ldr	r3, [sp, #12]
 4818 0044 14AE     		add	r6, sp, #80
 4819 0046 46F8403D 		str	r3, [r6, #-64]!
 4820 004a 3046     		mov	r0, r6
 4821 004c FFF7FEFF 		bl	create_chain
 4822 0050 0546     		mov	r5, r0
 4823 0052 0028     		cmp	r0, #0
 4824 0054 7BD0     		beq	.L1212
 4825 0056 0128     		cmp	r0, #1
 4826 0058 00F08280 		beq	.L1213
 4827 005c 431C     		adds	r3, r0, #1
 4828 005e 00F08180 		beq	.L1214
 4829 0062 0146     		mov	r1, r0
 4830 0064 0398     		ldr	r0, [sp, #12]
 4831 0066 FFF7FEFF 		bl	dir_clear
 4832 006a 0446     		mov	r4, r0
 4833 006c 0028     		cmp	r0, #0
 4834 006e 6FD1     		bne	.L1205
 4835 0070 039A     		ldr	r2, [sp, #12]
 4836 0072 2021     		movs	r1, #32
 4837 0074 02F13803 		add	r3, r2, #56
 4838 0078 4332     		adds	r2, r2, #67
 4839              	.L1206:
 4840 007a 03F8011B 		strb	r1, [r3], #1
 4841 007e 9342     		cmp	r3, r2
 4842 0080 FBD1     		bne	.L1206
 4843 0082 0398     		ldr	r0, [sp, #12]
 4844 0084 2E23     		movs	r3, #46
 4845 0086 1027     		movs	r7, #16
 4846 0088 4E21     		movs	r1, #78
 4847 008a 0278     		ldrb	r2, [r0]	@ zero_extendqisi2
 4848 008c 2124     		movs	r4, #33
 4849 008e 80F83830 		strb	r3, [r0, #56]
 4850 0092 5FFA85F8 		uxtb	r8, r5
 4851 0096 0023     		movs	r3, #0
 4852 0098 80F84370 		strb	r7, [r0, #67]
 4853 009c 032A     		cmp	r2, #3
 4854 009e C5F30727 		ubfx	r7, r5, #8, #8
 4855 00a2 80F85110 		strb	r1, [r0, #81]
 4856 00a6 00F13801 		add	r1, r0, #56
 4857 00aa 80F85040 		strb	r4, [r0, #80]
 4858 00ae 80F84E30 		strb	r3, [r0, #78]
 4859 00b2 80F84F30 		strb	r3, [r0, #79]
 4860 00b6 80F85280 		strb	r8, [r0, #82]
 4861 00ba 80F85370 		strb	r7, [r0, #83]
 4862 00be 05D1     		bne	.L1207
 4863 00c0 2B0C     		lsrs	r3, r5, #16
 4864 00c2 1A0A     		lsrs	r2, r3, #8
 4865 00c4 80F84C30 		strb	r3, [r0, #76]
ARM GAS  C:\Users\Jay\AppData\Local\Temp\cc8FQaEx.s 			page 85


 4866 00c8 80F84D20 		strb	r2, [r0, #77]
 4867              	.L1207:
 4868 00cc 5830     		adds	r0, r0, #88
 4869 00ce 2022     		movs	r2, #32
 4870 00d0 FFF7FEFF 		bl	mem_cpy.part.0
 4871 00d4 0A9A     		ldr	r2, [sp, #40]
 4872 00d6 039B     		ldr	r3, [sp, #12]
 4873 00d8 2E20     		movs	r0, #46
 4874 00da C2F30721 		ubfx	r1, r2, #8, #8
 4875 00de 83F87220 		strb	r2, [r3, #114]
 4876 00e2 83F87310 		strb	r1, [r3, #115]
 4877 00e6 1978     		ldrb	r1, [r3]	@ zero_extendqisi2
 4878 00e8 83F85900 		strb	r0, [r3, #89]
 4879 00ec 0329     		cmp	r1, #3
 4880 00ee 05D1     		bne	.L1208
 4881 00f0 120C     		lsrs	r2, r2, #16
 4882 00f2 110A     		lsrs	r1, r2, #8
 4883 00f4 83F86C20 		strb	r2, [r3, #108]
 4884 00f8 83F86D10 		strb	r1, [r3, #109]
 4885              	.L1208:
 4886 00fc 0122     		movs	r2, #1
 4887 00fe 08A8     		add	r0, sp, #32
 4888 0100 DA70     		strb	r2, [r3, #3]
 4889 0102 FFF7FEFF 		bl	dir_register
 4890 0106 0446     		mov	r4, r0
 4891 0108 10BB     		cbnz	r0, .L1205
 4892 010a 0F9B     		ldr	r3, [sp, #60]
 4893 010c 2121     		movs	r1, #33
 4894 010e 4E22     		movs	r2, #78
 4895 0110 1976     		strb	r1, [r3, #24]
 4896 0112 9875     		strb	r0, [r3, #22]
 4897 0114 D875     		strb	r0, [r3, #23]
 4898 0116 5A76     		strb	r2, [r3, #25]
 4899 0118 0F9A     		ldr	r2, [sp, #60]
 4900 011a 039B     		ldr	r3, [sp, #12]
 4901 011c 82F81A80 		strb	r8, [r2, #26]
 4902 0120 D776     		strb	r7, [r2, #27]
 4903 0122 1978     		ldrb	r1, [r3]	@ zero_extendqisi2
 4904 0124 0329     		cmp	r1, #3
 4905 0126 03D1     		bne	.L1209
 4906 0128 2D0C     		lsrs	r5, r5, #16
 4907 012a 290A     		lsrs	r1, r5, #8
 4908 012c 1575     		strb	r5, [r2, #20]
 4909 012e 5175     		strb	r1, [r2, #21]
 4910              	.L1209:
 4911 0130 0F99     		ldr	r1, [sp, #60]
 4912 0132 1024     		movs	r4, #16
 4913 0134 0122     		movs	r2, #1
 4914 0136 1846     		mov	r0, r3
 4915 0138 CC72     		strb	r4, [r1, #11]
 4916 013a DA70     		strb	r2, [r3, #3]
 4917 013c FFF7FEFF 		bl	sync_fs
 4918 0140 0446     		mov	r4, r0
 4919 0142 68E7     		b	.L1204
 4920              	.L1210:
 4921 0144 0824     		movs	r4, #8
 4922 0146 2046     		mov	r0, r4
ARM GAS  C:\Users\Jay\AppData\Local\Temp\cc8FQaEx.s 			page 86


 4923 0148 14B0     		add	sp, sp, #80
 4924              		@ sp needed
 4925 014a BDE8F081 		pop	{r4, r5, r6, r7, r8, pc}
 4926              	.L1212:
 4927 014e 0724     		movs	r4, #7
 4928              	.L1205:
 4929 0150 2946     		mov	r1, r5
 4930 0152 3046     		mov	r0, r6
 4931 0154 0022     		movs	r2, #0
 4932 0156 FFF7FEFF 		bl	remove_chain
 4933 015a 5CE7     		b	.L1204
 4934              	.L1211:
 4935 015c 0624     		movs	r4, #6
 4936 015e 5AE7     		b	.L1204
 4937              	.L1213:
 4938 0160 0224     		movs	r4, #2
 4939 0162 F5E7     		b	.L1205
 4940              	.L1214:
 4941 0164 0124     		movs	r4, #1
 4942 0166 F3E7     		b	.L1205
 4944              		.section	.text.f_rename,"ax",%progbits
 4945              		.align	1
 4946              		.p2align 2,,3
 4947              		.global	f_rename
 4948              		.syntax unified
 4949              		.thumb
 4950              		.thumb_func
 4951              		.fpu fpv5-sp-d16
 4953              	f_rename:
 4954              		@ args = 0, pretend = 0, frame = 144
 4955              		@ frame_needed = 0, uses_anonymous_args = 0
 4956 0000 10B5     		push	{r4, lr}
 4957 0002 A4B0     		sub	sp, sp, #144
 4958 0004 24AB     		add	r3, sp, #144
 4959 0006 0190     		str	r0, [sp, #4]
 4960 0008 43F8901D 		str	r1, [r3, #-144]!
 4961 000c 1846     		mov	r0, r3
 4962 000e FFF7FEFF 		bl	get_ldnumber
 4963 0012 0222     		movs	r2, #2
 4964 0014 03A9     		add	r1, sp, #12
 4965 0016 01A8     		add	r0, sp, #4
 4966 0018 FFF7FEFF 		bl	mount_volume
 4967 001c 08B1     		cbz	r0, .L1236
 4968              	.L1219:
 4969 001e 24B0     		add	sp, sp, #144
 4970              		@ sp needed
 4971 0020 10BD     		pop	{r4, pc}
 4972              	.L1236:
 4973 0022 039B     		ldr	r3, [sp, #12]
 4974 0024 0CA8     		add	r0, sp, #48
 4975 0026 0199     		ldr	r1, [sp, #4]
 4976 0028 0C93     		str	r3, [sp, #48]
 4977 002a FFF7FEFF 		bl	follow_path
 4978 002e 0028     		cmp	r0, #0
 4979 0030 F5D1     		bne	.L1219
 4980 0032 9DF85B30 		ldrb	r3, [sp, #91]	@ zero_extendqisi2
 4981 0036 13F0A00F 		tst	r3, #160
ARM GAS  C:\Users\Jay\AppData\Local\Temp\cc8FQaEx.s 			page 87


 4982 003a 15D1     		bne	.L1230
 4983 003c 2022     		movs	r2, #32
 4984 003e 1399     		ldr	r1, [sp, #76]
 4985 0040 04A8     		add	r0, sp, #16
 4986 0042 FFF7FEFF 		bl	mem_cpy.part.0
 4987 0046 3022     		movs	r2, #48
 4988 0048 18A8     		add	r0, sp, #96
 4989 004a 0DEB0201 		add	r1, sp, r2
 4990 004e FFF7FEFF 		bl	mem_cpy.part.0
 4991 0052 18A8     		add	r0, sp, #96
 4992 0054 0099     		ldr	r1, [sp]
 4993 0056 FFF7FEFF 		bl	follow_path
 4994 005a 38B9     		cbnz	r0, .L1220
 4995 005c 1A9A     		ldr	r2, [sp, #104]
 4996 005e 0E9B     		ldr	r3, [sp, #56]
 4997 0060 9A42     		cmp	r2, r3
 4998 0062 4FD0     		beq	.L1237
 4999              	.L1231:
 5000 0064 0820     		movs	r0, #8
 5001 0066 DAE7     		b	.L1219
 5002              	.L1230:
 5003 0068 0620     		movs	r0, #6
 5004 006a D8E7     		b	.L1219
 5005              	.L1220:
 5006 006c 0428     		cmp	r0, #4
 5007 006e D6D1     		bne	.L1219
 5008              	.L1221:
 5009 0070 18A8     		add	r0, sp, #96
 5010 0072 FFF7FEFF 		bl	dir_register
 5011 0076 0028     		cmp	r0, #0
 5012 0078 D1D1     		bne	.L1219
 5013 007a 1F9C     		ldr	r4, [sp, #124]
 5014 007c 1322     		movs	r2, #19
 5015 007e 0DF11D01 		add	r1, sp, #29
 5016 0082 04F10D00 		add	r0, r4, #13
 5017 0086 FFF7FEFF 		bl	mem_cpy.part.0
 5018 008a 9DF81B30 		ldrb	r3, [sp, #27]	@ zero_extendqisi2
 5019 008e 0398     		ldr	r0, [sp, #12]
 5020 0090 DA06     		lsls	r2, r3, #27
 5021 0092 58BF     		it	pl
 5022 0094 43F02003 		orrpl	r3, r3, #32
 5023 0098 E372     		strb	r3, [r4, #11]
 5024 009a 0123     		movs	r3, #1
 5025 009c C370     		strb	r3, [r0, #3]
 5026 009e E37A     		ldrb	r3, [r4, #11]	@ zero_extendqisi2
 5027 00a0 DB06     		lsls	r3, r3, #27
 5028 00a2 26D5     		bpl	.L1225
 5029 00a4 0E9A     		ldr	r2, [sp, #56]
 5030 00a6 1A9B     		ldr	r3, [sp, #104]
 5031 00a8 9A42     		cmp	r2, r3
 5032 00aa 22D0     		beq	.L1225
 5033 00ac 0278     		ldrb	r2, [r0]	@ zero_extendqisi2
 5034 00ae E17E     		ldrb	r1, [r4, #27]	@ zero_extendqisi2
 5035 00b0 A37E     		ldrb	r3, [r4, #26]	@ zero_extendqisi2
 5036 00b2 032A     		cmp	r2, #3
 5037 00b4 43EA0123 		orr	r3, r3, r1, lsl #8
 5038 00b8 05D1     		bne	.L1227
ARM GAS  C:\Users\Jay\AppData\Local\Temp\cc8FQaEx.s 			page 88


 5039 00ba 617D     		ldrb	r1, [r4, #21]	@ zero_extendqisi2
 5040 00bc 227D     		ldrb	r2, [r4, #20]	@ zero_extendqisi2
 5041 00be 42EA0122 		orr	r2, r2, r1, lsl #8
 5042 00c2 43EA0243 		orr	r3, r3, r2, lsl #16
 5043              	.L1227:
 5044 00c6 C269     		ldr	r2, [r0, #28]
 5045 00c8 023B     		subs	r3, r3, #2
 5046 00ca 023A     		subs	r2, r2, #2
 5047 00cc 9342     		cmp	r3, r2
 5048 00ce 1ED2     		bcs	.L1233
 5049 00d0 4289     		ldrh	r2, [r0, #10]
 5050 00d2 016B     		ldr	r1, [r0, #48]
 5051 00d4 03FB0211 		mla	r1, r3, r2, r1
 5052 00d8 C9B1     		cbz	r1, .L1233
 5053 00da 426B     		ldr	r2, [r0, #52]
 5054 00dc 9142     		cmp	r1, r2
 5055 00de 04D0     		beq	.L1228
 5056 00e0 FFF7FEFF 		bl	move_window.part.6
 5057 00e4 0028     		cmp	r0, #0
 5058 00e6 9AD1     		bne	.L1219
 5059 00e8 0398     		ldr	r0, [sp, #12]
 5060              	.L1228:
 5061 00ea 90F85930 		ldrb	r3, [r0, #89]	@ zero_extendqisi2
 5062 00ee 2E2B     		cmp	r3, #46
 5063 00f0 0FD0     		beq	.L1238
 5064              	.L1225:
 5065 00f2 0CA8     		add	r0, sp, #48
 5066 00f4 FFF7FEFF 		bl	dir_remove
 5067 00f8 0028     		cmp	r0, #0
 5068 00fa 90D1     		bne	.L1219
 5069 00fc 0398     		ldr	r0, [sp, #12]
 5070 00fe FFF7FEFF 		bl	sync_fs
 5071 0102 8CE7     		b	.L1219
 5072              	.L1237:
 5073 0104 1C9A     		ldr	r2, [sp, #112]
 5074 0106 109B     		ldr	r3, [sp, #64]
 5075 0108 9A42     		cmp	r2, r3
 5076 010a ABD1     		bne	.L1231
 5077 010c B0E7     		b	.L1221
 5078              	.L1233:
 5079 010e 0220     		movs	r0, #2
 5080 0110 85E7     		b	.L1219
 5081              	.L1238:
 5082 0112 1A9B     		ldr	r3, [sp, #104]
 5083 0114 039A     		ldr	r2, [sp, #12]
 5084 0116 C3F30721 		ubfx	r1, r3, #8, #8
 5085 011a 80F87230 		strb	r3, [r0, #114]
 5086 011e 80F87310 		strb	r1, [r0, #115]
 5087 0122 1178     		ldrb	r1, [r2]	@ zero_extendqisi2
 5088 0124 0329     		cmp	r1, #3
 5089 0126 05D1     		bne	.L1229
 5090 0128 1B0C     		lsrs	r3, r3, #16
 5091 012a 190A     		lsrs	r1, r3, #8
 5092 012c 80F86C30 		strb	r3, [r0, #108]
 5093 0130 80F86D10 		strb	r1, [r0, #109]
 5094              	.L1229:
 5095 0134 0123     		movs	r3, #1
ARM GAS  C:\Users\Jay\AppData\Local\Temp\cc8FQaEx.s 			page 89


 5096 0136 D370     		strb	r3, [r2, #3]
 5097 0138 DBE7     		b	.L1225
 5099 013a 00BF     		.section	.bss.CurrVol,"aw",%nobits
 5100              		.set	.LANCHOR0,. + 0
 5103              	CurrVol:
 5104 0000 00       		.space	1
 5105              		.section	.bss.FatFs,"aw",%nobits
 5106              		.align	2
 5107              		.set	.LANCHOR3,. + 0
 5110              	FatFs:
 5111 0000 00000000 		.space	4
 5112              		.section	.bss.Fsid,"aw",%nobits
 5113              		.align	1
 5114              		.set	.LANCHOR4,. + 0
 5117              	Fsid:
 5118 0000 0000     		.space	2
 5119              		.section	.bss.LfnBuf,"aw",%nobits
 5120              		.align	2
 5121              		.set	.LANCHOR5,. + 0
 5124              	LfnBuf:
 5125 0000 00000000 		.space	512
 5125      00000000 
 5125      00000000 
 5125      00000000 
 5125      00000000 
 5126              		.section	.rodata.ExCvt,"a",%progbits
 5127              		.align	2
 5128              		.set	.LANCHOR2,. + 0
 5131              	ExCvt:
 5132 0000 80       		.byte	-128
 5133 0001 9A       		.byte	-102
 5134 0002 45       		.byte	69
 5135 0003 41       		.byte	65
 5136 0004 8E       		.byte	-114
 5137 0005 41       		.byte	65
 5138 0006 8F       		.byte	-113
 5139 0007 80       		.byte	-128
 5140 0008 45       		.byte	69
 5141 0009 45       		.byte	69
 5142 000a 45       		.byte	69
 5143 000b 49       		.byte	73
 5144 000c 49       		.byte	73
 5145 000d 49       		.byte	73
 5146 000e 8E       		.byte	-114
 5147 000f 8F       		.byte	-113
 5148 0010 90       		.byte	-112
 5149 0011 92       		.byte	-110
 5150 0012 92       		.byte	-110
 5151 0013 4F       		.byte	79
 5152 0014 99       		.byte	-103
 5153 0015 4F       		.byte	79
 5154 0016 55       		.byte	85
 5155 0017 55       		.byte	85
 5156 0018 59       		.byte	89
 5157 0019 99       		.byte	-103
 5158 001a 9A       		.byte	-102
 5159 001b 9B       		.byte	-101
ARM GAS  C:\Users\Jay\AppData\Local\Temp\cc8FQaEx.s 			page 90


 5160 001c 9C       		.byte	-100
 5161 001d 9D       		.byte	-99
 5162 001e 9E       		.byte	-98
 5163 001f 9F       		.byte	-97
 5164 0020 41       		.byte	65
 5165 0021 49       		.byte	73
 5166 0022 4F       		.byte	79
 5167 0023 55       		.byte	85
 5168 0024 A5       		.byte	-91
 5169 0025 A5       		.byte	-91
 5170 0026 A6       		.byte	-90
 5171 0027 A7       		.byte	-89
 5172 0028 A8       		.byte	-88
 5173 0029 A9       		.byte	-87
 5174 002a AA       		.byte	-86
 5175 002b AB       		.byte	-85
 5176 002c AC       		.byte	-84
 5177 002d AD       		.byte	-83
 5178 002e AE       		.byte	-82
 5179 002f AF       		.byte	-81
 5180 0030 B0       		.byte	-80
 5181 0031 B1       		.byte	-79
 5182 0032 B2       		.byte	-78
 5183 0033 B3       		.byte	-77
 5184 0034 B4       		.byte	-76
 5185 0035 B5       		.byte	-75
 5186 0036 B6       		.byte	-74
 5187 0037 B7       		.byte	-73
 5188 0038 B8       		.byte	-72
 5189 0039 B9       		.byte	-71
 5190 003a BA       		.byte	-70
 5191 003b BB       		.byte	-69
 5192 003c BC       		.byte	-68
 5193 003d BD       		.byte	-67
 5194 003e BE       		.byte	-66
 5195 003f BF       		.byte	-65
 5196 0040 C0       		.byte	-64
 5197 0041 C1       		.byte	-63
 5198 0042 C2       		.byte	-62
 5199 0043 C3       		.byte	-61
 5200 0044 C4       		.byte	-60
 5201 0045 C5       		.byte	-59
 5202 0046 C6       		.byte	-58
 5203 0047 C7       		.byte	-57
 5204 0048 C8       		.byte	-56
 5205 0049 C9       		.byte	-55
 5206 004a CA       		.byte	-54
 5207 004b CB       		.byte	-53
 5208 004c CC       		.byte	-52
 5209 004d CD       		.byte	-51
 5210 004e CE       		.byte	-50
 5211 004f CF       		.byte	-49
 5212 0050 D0       		.byte	-48
 5213 0051 D1       		.byte	-47
 5214 0052 D2       		.byte	-46
 5215 0053 D3       		.byte	-45
 5216 0054 D4       		.byte	-44
ARM GAS  C:\Users\Jay\AppData\Local\Temp\cc8FQaEx.s 			page 91


 5217 0055 D5       		.byte	-43
 5218 0056 D6       		.byte	-42
 5219 0057 D7       		.byte	-41
 5220 0058 D8       		.byte	-40
 5221 0059 D9       		.byte	-39
 5222 005a DA       		.byte	-38
 5223 005b DB       		.byte	-37
 5224 005c DC       		.byte	-36
 5225 005d DD       		.byte	-35
 5226 005e DE       		.byte	-34
 5227 005f DF       		.byte	-33
 5228 0060 E0       		.byte	-32
 5229 0061 E1       		.byte	-31
 5230 0062 E2       		.byte	-30
 5231 0063 E3       		.byte	-29
 5232 0064 E4       		.byte	-28
 5233 0065 E5       		.byte	-27
 5234 0066 E6       		.byte	-26
 5235 0067 E7       		.byte	-25
 5236 0068 E8       		.byte	-24
 5237 0069 E9       		.byte	-23
 5238 006a EA       		.byte	-22
 5239 006b EB       		.byte	-21
 5240 006c EC       		.byte	-20
 5241 006d ED       		.byte	-19
 5242 006e EE       		.byte	-18
 5243 006f EF       		.byte	-17
 5244 0070 F0       		.byte	-16
 5245 0071 F1       		.byte	-15
 5246 0072 F2       		.byte	-14
 5247 0073 F3       		.byte	-13
 5248 0074 F4       		.byte	-12
 5249 0075 F5       		.byte	-11
 5250 0076 F6       		.byte	-10
 5251 0077 F7       		.byte	-9
 5252 0078 F8       		.byte	-8
 5253 0079 F9       		.byte	-7
 5254 007a FA       		.byte	-6
 5255 007b FB       		.byte	-5
 5256 007c FC       		.byte	-4
 5257 007d FD       		.byte	-3
 5258 007e FE       		.byte	-2
 5259 007f FF       		.byte	-1
 5260              		.section	.rodata.LfnOfs,"a",%progbits
 5261              		.align	2
 5262              		.set	.LANCHOR1,. + 0
 5265              	LfnOfs:
 5266 0000 01       		.byte	1
 5267 0001 03       		.byte	3
 5268 0002 05       		.byte	5
 5269 0003 07       		.byte	7
 5270 0004 09       		.byte	9
 5271 0005 0E       		.byte	14
 5272 0006 10       		.byte	16
 5273 0007 12       		.byte	18
 5274 0008 14       		.byte	20
 5275 0009 16       		.byte	22
ARM GAS  C:\Users\Jay\AppData\Local\Temp\cc8FQaEx.s 			page 92


 5276 000a 18       		.byte	24
 5277 000b 1C       		.byte	28
 5278 000c 1E       		.byte	30
 5279              		.section	.rodata.check_fs.str1.4,"aMS",%progbits,1
 5280              		.align	2
 5281              	.LC0:
 5282 0000 46415433 		.ascii	"FAT32\000"
 5282      3200
 5283              		.section	.rodata.follow_path.str1.4,"aMS",%progbits,1
 5284              		.align	2
 5285              	.LC1:
 5286 0000 222A3A3C 		.ascii	"\"*:<>?|\177\000"
 5286      3E3F7C7F 
 5286      00
 5287 0009 000000   		.space	3
 5288              	.LC2:
 5289 000c 2B2C3B3D 		.ascii	"+,;=[]\000"
 5289      5B5D00
 5290              		.ident	"GCC: (GNU Tools for STM32 7-2018-q2-update.20190328-1800) 7.3.1 20180622 (release) [ARM/em
ARM GAS  C:\Users\Jay\AppData\Local\Temp\cc8FQaEx.s 			page 93

