ARM GAS  C:\Users\Jay\AppData\Local\Temp\ccjVRGue.s 			page 1


   1              		.cpu cortex-m7
   2              		.eabi_attribute 27, 1
   3              		.eabi_attribute 28, 1
   4              		.eabi_attribute 20, 1
   5              		.eabi_attribute 21, 1
   6              		.eabi_attribute 23, 3
   7              		.eabi_attribute 24, 1
   8              		.eabi_attribute 25, 1
   9              		.eabi_attribute 26, 1
  10              		.eabi_attribute 30, 2
  11              		.eabi_attribute 34, 1
  12              		.eabi_attribute 18, 4
  13              		.file	"main.c"
  14              		.text
  15              		.section	.text.c64_data_write,"ax",%progbits
  16              		.align	1
  17              		.p2align 2,,3
  18              		.syntax unified
  19              		.thumb
  20              		.thumb_func
  21              		.fpu fpv5-sp-d16
  23              	c64_data_write:
  24              		@ args = 0, pretend = 0, frame = 0
  25              		@ frame_needed = 0, uses_anonymous_args = 0
  26              		@ link register save eliminated.
  27 0000 10F0010F 		tst	r0, #1
  28 0004 2749     		ldr	r1, .L20
  29 0006 284A     		ldr	r2, .L20+4
  30 0008 70B4     		push	{r4, r5, r6}
  31 000a 14BF     		ite	ne
  32 000c 0225     		movne	r5, #2
  33 000e 4FF40035 		moveq	r5, #131072
  34 0012 10F0020F 		tst	r0, #2
  35 0016 254C     		ldr	r4, .L20+8
  36 0018 14BF     		ite	ne
  37 001a 0126     		movne	r6, #1
  38 001c 4FF48036 		moveq	r6, #65536
  39 0020 10F0040F 		tst	r0, #4
  40 0024 45EA0605 		orr	r5, r5, r6
  41 0028 14BF     		ite	ne
  42 002a 4FF40073 		movne	r3, #512
  43 002e 4FF00073 		moveq	r3, #33554432
  44 0032 10F0080F 		tst	r0, #8
  45 0036 A561     		str	r5, [r4, #24]
  46 0038 14BF     		ite	ne
  47 003a 4FF48076 		movne	r6, #256
  48 003e 4FF08076 		moveq	r6, #16777216
  49 0042 10F0100F 		tst	r0, #16
  50 0046 43EA0603 		orr	r3, r3, r6
  51 004a 14BF     		ite	ne
  52 004c 8025     		movne	r5, #128
  53 004e 4FF40005 		moveq	r5, #8388608
  54 0052 10F0200F 		tst	r0, #32
  55 0056 43EA0503 		orr	r3, r3, r5
  56 005a 14BF     		ite	ne
  57 005c 4025     		movne	r5, #64
  58 005e 4FF48005 		moveq	r5, #4194304
ARM GAS  C:\Users\Jay\AppData\Local\Temp\ccjVRGue.s 			page 2


  59 0062 10F0400F 		tst	r0, #64
  60 0066 43EA0503 		orr	r3, r3, r5
  61 006a 114D     		ldr	r5, .L20+12
  62 006c 14BF     		ite	ne
  63 006e 2026     		movne	r6, #32
  64 0070 4FF40016 		moveq	r6, #2097152
  65 0074 10F0800F 		tst	r0, #128
  66 0078 43EA0603 		orr	r3, r3, r6
  67 007c 14BF     		ite	ne
  68 007e 2020     		movne	r0, #32
  69 0080 4FF40010 		moveq	r0, #2097152
  70 0084 8B61     		str	r3, [r1, #24]
  71 0086 9061     		str	r0, [r2, #24]
  72 0088 2068     		ldr	r0, [r4]
  73 008a 00F00F00 		and	r0, r0, #15
  74 008e 2060     		str	r0, [r4]
  75 0090 0B68     		ldr	r3, [r1]
  76 0092 2B40     		ands	r3, r3, r5
  77 0094 0B60     		str	r3, [r1]
  78 0096 1368     		ldr	r3, [r2]
  79 0098 03F44063 		and	r3, r3, #3072
  80 009c 70BC     		pop	{r4, r5, r6}
  81 009e 1360     		str	r3, [r2]
  82 00a0 7047     		bx	lr
  83              	.L21:
  84 00a2 00BF     		.align	2
  85              	.L20:
  86 00a4 00040258 		.word	1476527104
  87 00a8 000C0258 		.word	1476529152
  88 00ac 00100258 		.word	1476530176
  89 00b0 00FC0F00 		.word	1047552
  91              		.section	.text.sdio_cmd_send,"ax",%progbits
  92              		.align	1
  93              		.p2align 2,,3
  94              		.syntax unified
  95              		.thumb
  96              		.thumb_func
  97              		.fpu fpv5-sp-d16
  99              	sdio_cmd_send:
 100              		@ args = 0, pretend = 0, frame = 0
 101              		@ frame_needed = 0, uses_anonymous_args = 0
 102 0000 F8B5     		push	{r3, r4, r5, r6, r7, lr}
 103 0002 1546     		mov	r5, r2
 104 0004 0206     		lsls	r2, r0, #24
 105 0006 0446     		mov	r4, r0
 106 0008 0F46     		mov	r7, r1
 107 000a 1E46     		mov	r6, r3
 108 000c 2DD4     		bmi	.L23
 109              	.L29:
 110 000e 012D     		cmp	r5, #1
 111 0010 04F03F04 		and	r4, r4, #63
 112 0014 36D0     		beq	.L53
 113 0016 022D     		cmp	r5, #2
 114 0018 14BF     		ite	ne
 115 001a 44F48050 		orrne	r0, r4, #4096
 116 001e 44F49850 		orreq	r0, r4, #4864
 117              	.L30:
ARM GAS  C:\Users\Jay\AppData\Local\Temp\ccjVRGue.s 			page 3


 118 0022 1E4B     		ldr	r3, .L55
 119 0024 1E49     		ldr	r1, .L55+4
 120 0026 1A46     		mov	r2, r3
 121 0028 9963     		str	r1, [r3, #56]
 122 002a 9F60     		str	r7, [r3, #8]
 123 002c D860     		str	r0, [r3, #12]
 124              	.L32:
 125 002e 536B     		ldr	r3, [r2, #52]
 126 0030 9904     		lsls	r1, r3, #18
 127 0032 FCD4     		bmi	.L32
 128 0034 ADB1     		cbz	r5, .L51
 129 0036 194A     		ldr	r2, .L55
 130              	.L33:
 131 0038 536B     		ldr	r3, [r2, #52]
 132 003a 13F0450F 		tst	r3, #69
 133 003e FBD0     		beq	.L33
 134 0040 5A07     		lsls	r2, r3, #29
 135 0042 1DD4     		bmi	.L28
 136 0044 DB07     		lsls	r3, r3, #31
 137 0046 05D5     		bpl	.L34
 138 0048 012C     		cmp	r4, #1
 139 004a 18BF     		it	ne
 140 004c 0C2C     		cmpne	r4, #12
 141 004e 01D0     		beq	.L34
 142 0050 292C     		cmp	r4, #41
 143 0052 15D1     		bne	.L28
 144              	.L34:
 145 0054 114B     		ldr	r3, .L55
 146 0056 022D     		cmp	r5, #2
 147 0058 5A69     		ldr	r2, [r3, #20]
 148 005a 3260     		str	r2, [r6]
 149 005c 15D0     		beq	.L54
 150 005e 0120     		movs	r0, #1
 151 0060 F8BD     		pop	{r3, r4, r5, r6, r7, pc}
 152              	.L51:
 153 0062 506B     		ldr	r0, [r2, #52]
 154 0064 C0F3C010 		ubfx	r0, r0, #7, #1
 155 0068 F8BD     		pop	{r3, r4, r5, r6, r7, pc}
 156              	.L23:
 157 006a 0E49     		ldr	r1, .L55+8
 158 006c 0122     		movs	r2, #1
 159 006e 3720     		movs	r0, #55
 160 0070 0988     		ldrh	r1, [r1]
 161 0072 0904     		lsls	r1, r1, #16
 162 0074 FFF7C4FF 		bl	sdio_cmd_send
 163 0078 10B1     		cbz	r0, .L28
 164 007a 3368     		ldr	r3, [r6]
 165 007c 9806     		lsls	r0, r3, #26
 166 007e C6D4     		bmi	.L29
 167              	.L28:
 168 0080 0020     		movs	r0, #0
 169 0082 F8BD     		pop	{r3, r4, r5, r6, r7, pc}
 170              	.L53:
 171 0084 44F48850 		orr	r0, r4, #4352
 172 0088 CBE7     		b	.L30
 173              	.L54:
 174 008a 9A69     		ldr	r2, [r3, #24]
ARM GAS  C:\Users\Jay\AppData\Local\Temp\ccjVRGue.s 			page 4


 175 008c 0120     		movs	r0, #1
 176 008e 7260     		str	r2, [r6, #4]
 177 0090 DA69     		ldr	r2, [r3, #28]
 178 0092 B260     		str	r2, [r6, #8]
 179 0094 1B6A     		ldr	r3, [r3, #32]
 180 0096 F360     		str	r3, [r6, #12]
 181 0098 F8BD     		pop	{r3, r4, r5, r6, r7, pc}
 182              	.L56:
 183 009a 00BF     		.align	2
 184              	.L55:
 185 009c 00240248 		.word	1208099840
 186 00a0 C500C01F 		.word	532676805
 187 00a4 00000000 		.word	.LANCHOR0
 189              		.section	.text.usbd_set_address,"ax",%progbits
 190              		.align	1
 191              		.p2align 2,,3
 192              		.syntax unified
 193              		.thumb
 194              		.thumb_func
 195              		.fpu fpv5-sp-d16
 197              	usbd_set_address:
 198              		@ args = 0, pretend = 0, frame = 0
 199              		@ frame_needed = 0, uses_anonymous_args = 0
 200 0000 38B5     		push	{r3, r4, r5, lr}
 201 0002 0368     		ldr	r3, [r0]
 202 0004 0D46     		mov	r5, r1
 203 0006 0446     		mov	r4, r0
 204 0008 8878     		ldrb	r0, [r1, #2]	@ zero_extendqisi2
 205 000a DB68     		ldr	r3, [r3, #12]
 206 000c 9847     		blx	r3
 207 000e 6B88     		ldrh	r3, [r5, #2]
 208 0010 002B     		cmp	r3, #0
 209 0012 14BF     		ite	ne
 210 0014 0323     		movne	r3, #3
 211 0016 0223     		moveq	r3, #2
 212 0018 84F86230 		strb	r3, [r4, #98]
 213 001c 38BD     		pop	{r3, r4, r5, pc}
 215 001e 00BF     		.section	.text.usbd_process_evt,"ax",%progbits
 216              		.align	1
 217              		.p2align 2,,3
 218              		.syntax unified
 219              		.thumb
 220              		.thumb_func
 221              		.fpu fpv5-sp-d16
 223              	usbd_process_evt:
 224              		@ args = 0, pretend = 0, frame = 0
 225              		@ frame_needed = 0, uses_anonymous_args = 0
 226 0000 70B5     		push	{r4, r5, r6, lr}
 227 0002 0446     		mov	r4, r0
 228 0004 1646     		mov	r6, r2
 229 0006 0D46     		mov	r5, r1
 230 0008 A9B1     		cbz	r1, .L63
 231 000a 0B1F     		subs	r3, r1, #4
 232 000c 022B     		cmp	r3, #2
 233 000e 09D9     		bls	.L71
 234              	.L62:
 235 0010 04EB8503 		add	r3, r4, r5, lsl #2
ARM GAS  C:\Users\Jay\AppData\Local\Temp\ccjVRGue.s 			page 5


 236 0014 5B69     		ldr	r3, [r3, #20]
 237 0016 13B3     		cbz	r3, .L61
 238 0018 3246     		mov	r2, r6
 239 001a 2946     		mov	r1, r5
 240 001c 2046     		mov	r0, r4
 241 001e BDE87040 		pop	{r4, r5, r6, lr}
 242 0022 1847     		bx	r3	@ indirect register sibling call
 243              	.L71:
 244 0024 02F00703 		and	r3, r2, #7
 245 0028 00EB8303 		add	r3, r0, r3, lsl #2
 246 002c 5B6B     		ldr	r3, [r3, #52]
 247 002e 002B     		cmp	r3, #0
 248 0030 EED0     		beq	.L62
 249 0032 9847     		blx	r3
 250 0034 ECE7     		b	.L62
 251              	.L63:
 252 0036 0368     		ldr	r3, [r0]
 253 0038 0222     		movs	r2, #2
 254 003a 84F86310 		strb	r1, [r4, #99]
 255 003e 0846     		mov	r0, r1
 256 0040 84F86220 		strb	r2, [r4, #98]
 257 0044 84F86110 		strb	r1, [r4, #97]
 258 0048 94F86020 		ldrb	r2, [r4, #96]	@ zero_extendqisi2
 259 004c 1B69     		ldr	r3, [r3, #16]
 260 004e 9847     		blx	r3
 261 0050 034A     		ldr	r2, .L72
 262 0052 2368     		ldr	r3, [r4]
 263 0054 2846     		mov	r0, r5
 264 0056 6263     		str	r2, [r4, #52]
 265 0058 DB68     		ldr	r3, [r3, #12]
 266 005a 9847     		blx	r3
 267 005c D8E7     		b	.L62
 268              	.L61:
 269 005e 70BD     		pop	{r4, r5, r6, pc}
 270              	.L73:
 271              		.align	2
 272              	.L72:
 273 0060 00000000 		.word	usbd_process_ep0
 275              		.section	.text.setaddr,"ax",%progbits
 276              		.align	1
 277              		.p2align 2,,3
 278              		.global	setaddr
 279              		.syntax unified
 280              		.thumb
 281              		.thumb_func
 282              		.fpu fpv5-sp-d16
 284              	setaddr:
 285              		@ args = 0, pretend = 0, frame = 0
 286              		@ frame_needed = 0, uses_anonymous_args = 0
 287              		@ link register save eliminated.
 288 0000 034A     		ldr	r2, .L75
 289 0002 1368     		ldr	r3, [r2]
 290 0004 23F4FE63 		bic	r3, r3, #2032
 291 0008 43EA0010 		orr	r0, r3, r0, lsl #4
 292 000c 1060     		str	r0, [r2]
 293 000e 7047     		bx	lr
 294              	.L76:
ARM GAS  C:\Users\Jay\AppData\Local\Temp\ccjVRGue.s 			page 6


 295              		.align	2
 296              	.L75:
 297 0010 00080840 		.word	1074268160
 299              		.section	.text.set_tx_fifo,"ax",%progbits
 300              		.align	1
 301              		.p2align 2,,3
 302              		.syntax unified
 303              		.thumb
 304              		.thumb_func
 305              		.fpu fpv5-sp-d16
 307              	set_tx_fifo:
 308              		@ args = 0, pretend = 0, frame = 0
 309              		@ frame_needed = 0, uses_anonymous_args = 0
 310              		@ link register save eliminated.
 311 0000 70B4     		push	{r4, r5, r6}
 312 0002 164E     		ldr	r6, .L84
 313 0004 0022     		movs	r2, #0
 314 0006 B46A     		ldr	r4, [r6, #40]
 315 0008 04EB1444 		add	r4, r4, r4, lsr #16
 316 000c A4B2     		uxth	r4, r4
 317              	.L79:
 318 000e 02F14003 		add	r3, r2, #64
 319 0012 0132     		adds	r2, r2, #1
 320 0014 06EB8303 		add	r3, r6, r3, lsl #2
 321 0018 5B68     		ldr	r3, [r3, #4]
 322 001a 03EB1345 		add	r5, r3, r3, lsr #16
 323 001e 9BB2     		uxth	r3, r3
 324 0020 ADB2     		uxth	r5, r5
 325 0022 B3F5007F 		cmp	r3, #512
 326 0026 02D2     		bcs	.L78
 327 0028 AC42     		cmp	r4, r5
 328 002a 38BF     		it	cc
 329 002c 2C46     		movcc	r4, r5
 330              	.L78:
 331 002e 032A     		cmp	r2, #3
 332 0030 EDD1     		bne	.L79
 333 0032 0331     		adds	r1, r1, #3
 334 0034 8910     		asrs	r1, r1, #2
 335 0036 1029     		cmp	r1, #16
 336 0038 B8BF     		it	lt
 337 003a 1021     		movlt	r1, #16
 338 003c 0B19     		adds	r3, r1, r4
 339 003e B3F5A07F 		cmp	r3, #320
 340 0042 08D8     		bhi	.L81
 341 0044 8300     		lsls	r3, r0, #2
 342 0046 064A     		ldr	r2, .L84+4
 343 0048 44EA0144 		orr	r4, r4, r1, lsl #16
 344 004c 0120     		movs	r0, #1
 345 004e 1A44     		add	r2, r2, r3
 346 0050 5460     		str	r4, [r2, #4]
 347 0052 70BC     		pop	{r4, r5, r6}
 348 0054 7047     		bx	lr
 349              	.L81:
 350 0056 0020     		movs	r0, #0
 351 0058 70BC     		pop	{r4, r5, r6}
 352 005a 7047     		bx	lr
 353              	.L85:
ARM GAS  C:\Users\Jay\AppData\Local\Temp\ccjVRGue.s 			page 7


 354              		.align	2
 355              	.L84:
 356 005c 00000840 		.word	1074266112
 357 0060 FC000840 		.word	1074266364
 359              		.section	.text.ep_deconfig,"ax",%progbits
 360              		.align	1
 361              		.p2align 2,,3
 362              		.global	ep_deconfig
 363              		.syntax unified
 364              		.thumb
 365              		.thumb_func
 366              		.fpu fpv5-sp-d16
 368              	ep_deconfig:
 369              		@ args = 0, pretend = 0, frame = 0
 370              		@ frame_needed = 0, uses_anonymous_args = 0
 371 0000 00F07F00 		and	r0, r0, #127
 372 0004 294B     		ldr	r3, .L100
 373 0006 4FF00111 		mov	r1, #65537
 374 000a 4201     		lsls	r2, r0, #5
 375 000c F0B5     		push	{r4, r5, r6, r7, lr}
 376 000e 01FA00F5 		lsl	r5, r1, r0
 377 0012 D969     		ldr	r1, [r3, #28]
 378 0014 264E     		ldr	r6, .L100+4
 379 0016 8401     		lsls	r4, r0, #6
 380 0018 21EA0501 		bic	r1, r1, r5
 381 001c 254F     		ldr	r7, .L100+8
 382 001e 04F4F864 		and	r4, r4, #1984
 383 0022 254D     		ldr	r5, .L100+12
 384 0024 D961     		str	r1, [r3, #28]
 385 0026 02EB060C 		add	ip, r2, r6
 386 002a 9359     		ldr	r3, [r2, r6]
 387 002c 3946     		mov	r1, r7
 388 002e 02EB050E 		add	lr, r2, r5
 389 0032 23F40043 		bic	r3, r3, #32768
 390 0036 9351     		str	r3, [r2, r6]
 391 0038 3B69     		ldr	r3, [r7, #16]
 392 003a 23F4F863 		bic	r3, r3, #1984
 393 003e 43F02003 		orr	r3, r3, #32
 394 0042 2343     		orrs	r3, r3, r4
 395 0044 3B61     		str	r3, [r7, #16]
 396              	.L87:
 397 0046 0B69     		ldr	r3, [r1, #16]
 398 0048 9B06     		lsls	r3, r3, #26
 399 004a FCD4     		bmi	.L87
 400 004c 9359     		ldr	r3, [r2, r6]
 401 004e 002B     		cmp	r3, #0
 402 0050 0CDB     		blt	.L99
 403 0052 FF23     		movs	r3, #255
 404 0054 CCF80830 		str	r3, [ip, #8]
 405 0058 78B9     		cbnz	r0, .L90
 406              	.L91:
 407 005a 5359     		ldr	r3, [r2, r5]
 408 005c 23F40043 		bic	r3, r3, #32768
 409 0060 5351     		str	r3, [r2, r5]
 410 0062 5359     		ldr	r3, [r2, r5]
 411              	.L92:
 412 0064 FF23     		movs	r3, #255
ARM GAS  C:\Users\Jay\AppData\Local\Temp\ccjVRGue.s 			page 8


 413 0066 CEF80830 		str	r3, [lr, #8]
 414 006a F0BD     		pop	{r4, r5, r6, r7, pc}
 415              	.L99:
 416 006c D0B1     		cbz	r0, .L89
 417 006e 4FF08041 		mov	r1, #1073741824
 418 0072 FF23     		movs	r3, #255
 419 0074 9151     		str	r1, [r2, r6]
 420 0076 CCF80830 		str	r3, [ip, #8]
 421              	.L90:
 422 007a 00F10111 		add	r1, r0, #65537
 423 007e 0F4B     		ldr	r3, .L100+16
 424 0080 8000     		lsls	r0, r0, #2
 425 0082 4902     		lsls	r1, r1, #9
 426 0084 0344     		add	r3, r3, r0
 427 0086 5960     		str	r1, [r3, #4]
 428 0088 5359     		ldr	r3, [r2, r5]
 429 008a 23F40043 		bic	r3, r3, #32768
 430 008e 5351     		str	r3, [r2, r5]
 431 0090 5359     		ldr	r3, [r2, r5]
 432 0092 002B     		cmp	r3, #0
 433 0094 E6DA     		bge	.L92
 434 0096 4FF08043 		mov	r3, #1073741824
 435 009a 5351     		str	r3, [r2, r5]
 436 009c FF23     		movs	r3, #255
 437 009e CEF80830 		str	r3, [lr, #8]
 438 00a2 F0BD     		pop	{r4, r5, r6, r7, pc}
 439              	.L89:
 440 00a4 FF23     		movs	r3, #255
 441 00a6 CCF80830 		str	r3, [ip, #8]
 442 00aa D6E7     		b	.L91
 443              	.L101:
 444              		.align	2
 445              	.L100:
 446 00ac 00080840 		.word	1074268160
 447 00b0 00090840 		.word	1074268416
 448 00b4 00000840 		.word	1074266112
 449 00b8 000B0840 		.word	1074268928
 450 00bc FC000840 		.word	1074266364
 452              		.section	.text.ep_read,"ax",%progbits
 453              		.align	1
 454              		.p2align 2,,3
 455              		.global	ep_read
 456              		.syntax unified
 457              		.thumb
 458              		.thumb_func
 459              		.fpu fpv5-sp-d16
 461              	ep_read:
 462              		@ args = 0, pretend = 0, frame = 0
 463              		@ frame_needed = 0, uses_anonymous_args = 0
 464              		@ link register save eliminated.
 465 0000 194B     		ldr	r3, .L117
 466 0002 F0B4     		push	{r4, r5, r6, r7}
 467 0004 5C69     		ldr	r4, [r3, #20]
 468 0006 E406     		lsls	r4, r4, #27
 469 0008 2BD5     		bpl	.L110
 470 000a DC69     		ldr	r4, [r3, #28]
 471 000c 00F07F00 		and	r0, r0, #127
ARM GAS  C:\Users\Jay\AppData\Local\Temp\ccjVRGue.s 			page 9


 472 0010 04F00F04 		and	r4, r4, #15
 473 0014 8442     		cmp	r4, r0
 474 0016 24D1     		bne	.L110
 475 0018 186A     		ldr	r0, [r3, #32]
 476 001a C0F30A10 		ubfx	r0, r0, #4, #11
 477 001e F0B1     		cbz	r0, .L102
 478 0020 0025     		movs	r5, #0
 479 0022 124F     		ldr	r7, .L117+4
 480 0024 06E0     		b	.L108
 481              	.L104:
 482 0026 043A     		subs	r2, r2, #4
 483 0028 41F8043B 		str	r3, [r1], #4
 484 002c 92B2     		uxth	r2, r2
 485              	.L106:
 486 002e 0435     		adds	r5, r5, #4
 487 0030 8542     		cmp	r5, r0
 488 0032 14D2     		bcs	.L102
 489              	.L108:
 490 0034 032A     		cmp	r2, #3
 491 0036 3B68     		ldr	r3, [r7]
 492 0038 F5D8     		bhi	.L104
 493 003a 002A     		cmp	r2, #0
 494 003c F7D0     		beq	.L106
 495 003e 013A     		subs	r2, r2, #1
 496 0040 4C1E     		subs	r4, r1, #1
 497 0042 92B2     		uxth	r2, r2
 498 0044 8E18     		adds	r6, r1, r2
 499              	.L107:
 500 0046 04F8013F 		strb	r3, [r4, #1]!
 501 004a A642     		cmp	r6, r4
 502 004c 4FEA1323 		lsr	r3, r3, #8
 503 0050 F9D1     		bne	.L107
 504 0052 0435     		adds	r5, r5, #4
 505 0054 531C     		adds	r3, r2, #1
 506 0056 0022     		movs	r2, #0
 507 0058 8542     		cmp	r5, r0
 508 005a 1944     		add	r1, r1, r3
 509 005c EAD3     		bcc	.L108
 510              	.L102:
 511 005e F0BC     		pop	{r4, r5, r6, r7}
 512 0060 7047     		bx	lr
 513              	.L110:
 514 0062 4FF0FF30 		mov	r0, #-1
 515 0066 FAE7     		b	.L102
 516              	.L118:
 517              		.align	2
 518              	.L117:
 519 0068 00000840 		.word	1074266112
 520 006c 00100840 		.word	1074270208
 522              		.section	.text.ep_write,"ax",%progbits
 523              		.align	1
 524              		.p2align 2,,3
 525              		.global	ep_write
 526              		.syntax unified
 527              		.thumb
 528              		.thumb_func
 529              		.fpu fpv5-sp-d16
ARM GAS  C:\Users\Jay\AppData\Local\Temp\ccjVRGue.s 			page 10


 531              	ep_write:
 532              		@ args = 0, pretend = 0, frame = 0
 533              		@ frame_needed = 0, uses_anonymous_args = 0
 534 0000 F0B5     		push	{r4, r5, r6, r7, lr}
 535 0002 00F07F04 		and	r4, r0, #127
 536 0006 174F     		ldr	r7, .L134
 537 0008 D31C     		adds	r3, r2, #3
 538 000a 174E     		ldr	r6, .L134+4
 539 000c 4FEA441C 		lsl	ip, r4, #5
 540 0010 9B10     		asrs	r3, r3, #2
 541 0012 0CEB070E 		add	lr, ip, r7
 542 0016 06EB0436 		add	r6, r6, r4, lsl #12
 543 001a DEF81850 		ldr	r5, [lr, #24]
 544 001e 9D42     		cmp	r5, r3
 545 0020 1DD3     		bcc	.L124
 546 0022 1046     		mov	r0, r2
 547 0024 BCB9     		cbnz	r4, .L133
 548              	.L121:
 549 0026 02F50022 		add	r2, r2, #524288
 550 002a 0025     		movs	r5, #0
 551 002c 0F4C     		ldr	r4, .L134+8
 552 002e CEF81050 		str	r5, [lr, #16]
 553 0032 CEF81020 		str	r2, [lr, #16]
 554 0036 5CF80720 		ldr	r2, [ip, r7]
 555 003a 1440     		ands	r4, r4, r2
 556 003c 44F00444 		orr	r4, r4, #-2080374784
 557 0040 4CF80740 		str	r4, [ip, r7]
 558 0044 33B1     		cbz	r3, .L119
 559 0046 01EB8302 		add	r2, r1, r3, lsl #2
 560              	.L122:
 561 004a 51F8043B 		ldr	r3, [r1], #4
 562 004e 8A42     		cmp	r2, r1
 563 0050 3360     		str	r3, [r6]
 564 0052 FAD1     		bne	.L122
 565              	.L119:
 566 0054 F0BD     		pop	{r4, r5, r6, r7, pc}
 567              	.L133:
 568 0056 5CF80740 		ldr	r4, [ip, r7]
 569 005a 002C     		cmp	r4, #0
 570 005c E3DA     		bge	.L121
 571              	.L124:
 572 005e 4FF0FF30 		mov	r0, #-1
 573 0062 F0BD     		pop	{r4, r5, r6, r7, pc}
 574              	.L135:
 575              		.align	2
 576              	.L134:
 577 0064 00090840 		.word	1074268416
 578 0068 00100840 		.word	1074270208
 579 006c FFFFDF7B 		.word	2078277631
 581              		.section	.text.get_frame,"ax",%progbits
 582              		.align	1
 583              		.p2align 2,,3
 584              		.global	get_frame
 585              		.syntax unified
 586              		.thumb
 587              		.thumb_func
 588              		.fpu fpv5-sp-d16
ARM GAS  C:\Users\Jay\AppData\Local\Temp\ccjVRGue.s 			page 11


 590              	get_frame:
 591              		@ args = 0, pretend = 0, frame = 0
 592              		@ frame_needed = 0, uses_anonymous_args = 0
 593              		@ link register save eliminated.
 594 0000 024B     		ldr	r3, .L137
 595 0002 9868     		ldr	r0, [r3, #8]
 596 0004 C0F30D20 		ubfx	r0, r0, #8, #14
 597 0008 7047     		bx	lr
 598              	.L138:
 599 000a 00BF     		.align	2
 600              	.L137:
 601 000c 00080840 		.word	1074268160
 603              		.section	.text.evt_poll,"ax",%progbits
 604              		.align	1
 605              		.p2align 2,,3
 606              		.global	evt_poll
 607              		.syntax unified
 608              		.thumb
 609              		.thumb_func
 610              		.fpu fpv5-sp-d16
 612              	evt_poll:
 613              		@ args = 0, pretend = 0, frame = 0
 614              		@ frame_needed = 0, uses_anonymous_args = 0
 615 0000 2DE9F047 		push	{r4, r5, r6, r7, r8, r9, r10, lr}
 616 0004 0746     		mov	r7, r0
 617 0006 0E46     		mov	r6, r1
 618 0008 0024     		movs	r4, #0
 619 000a 474D     		ldr	r5, .L177
 620 000c DFF82881 		ldr	r8, .L177+16
 621 0010 4FF48059 		mov	r9, #4096
 622              	.L140:
 623 0014 6B69     		ldr	r3, [r5, #20]
 624 0016 13F48051 		ands	r1, r3, #4096
 625 001a 1ED1     		bne	.L172
 626              	.L141:
 627 001c 9804     		lsls	r0, r3, #18
 628 001e 54D4     		bmi	.L173
 629 0020 5A03     		lsls	r2, r3, #13
 630 0022 56D4     		bmi	.L174
 631 0024 D806     		lsls	r0, r3, #27
 632 0026 69D5     		bpl	.L152
 633 0028 EC69     		ldr	r4, [r5, #28]
 634 002a C4F34343 		ubfx	r3, r4, #17, #4
 635 002e 04F00F04 		and	r4, r4, #15
 636 0032 023B     		subs	r3, r3, #2
 637 0034 042B     		cmp	r3, #4
 638 0036 0BD8     		bhi	.L153
 639 0038 DFE803F0 		tbb	[pc, r3]
 640              	.L154:
 641 003c 25       		.byte	(.L159-.L154)/2
 642 003d 03       		.byte	(.L155-.L154)/2
 643 003e 03       		.byte	(.L155-.L154)/2
 644 003f 0A       		.byte	(.L153-.L154)/2
 645 0040 2C       		.byte	(.L156-.L154)/2
 646 0041 00       		.p2align 1
 647              	.L155:
 648 0042 6201     		lsls	r2, r4, #5
ARM GAS  C:\Users\Jay\AppData\Local\Temp\ccjVRGue.s 			page 12


 649 0044 52F80830 		ldr	r3, [r2, r8]
 650 0048 43F00443 		orr	r3, r3, #-2080374784
 651 004c 42F80830 		str	r3, [r2, r8]
 652              	.L153:
 653 0050 2B6A     		ldr	r3, [r5, #32]
 654 0052 6B69     		ldr	r3, [r5, #20]
 655 0054 13F48051 		ands	r1, r3, #4096
 656 0058 E0D0     		beq	.L141
 657              	.L172:
 658 005a 0020     		movs	r0, #0
 659 005c C5F81490 		str	r9, [r5, #20]
 660 0060 FFF7FEFF 		bl	ep_deconfig
 661 0064 0120     		movs	r0, #1
 662 0066 FFF7FEFF 		bl	ep_deconfig
 663 006a 0220     		movs	r0, #2
 664 006c FFF7FEFF 		bl	ep_deconfig
 665 0070 0320     		movs	r0, #3
 666 0072 FFF7FEFF 		bl	ep_deconfig
 667 0076 2B69     		ldr	r3, [r5, #16]
 668 0078 43F01003 		orr	r3, r3, #16
 669 007c 2B61     		str	r3, [r5, #16]
 670              	.L142:
 671 007e 2B69     		ldr	r3, [r5, #16]
 672 0080 DB06     		lsls	r3, r3, #27
 673 0082 FCD4     		bmi	.L142
 674 0084 C6E7     		b	.L140
 675              	.L159:
 676 0086 0521     		movs	r1, #5
 677              	.L145:
 678 0088 E2B2     		uxtb	r2, r4
 679 008a 3846     		mov	r0, r7
 680 008c 3346     		mov	r3, r6
 681 008e BDE8F047 		pop	{r4, r5, r6, r7, r8, r9, r10, lr}
 682 0092 1847     		bx	r3	@ indirect register sibling call
 683              	.L156:
 684 0094 254A     		ldr	r2, .L177+4
 685 0096 264B     		ldr	r3, .L177+8
 686 0098 02EB4412 		add	r2, r2, r4, lsl #5
 687 009c 1269     		ldr	r2, [r2, #16]
 688 009e 1340     		ands	r3, r3, r2
 689 00a0 63B1     		cbz	r3, .L160
 690 00a2 2149     		ldr	r1, .L177
 691 00a4 0B69     		ldr	r3, [r1, #16]
 692 00a6 0A46     		mov	r2, r1
 693 00a8 23F4F863 		bic	r3, r3, #1984
 694 00ac 43F02003 		orr	r3, r3, #32
 695 00b0 43EA8413 		orr	r3, r3, r4, lsl #6
 696 00b4 0B61     		str	r3, [r1, #16]
 697              	.L157:
 698 00b6 1369     		ldr	r3, [r2, #16]
 699 00b8 9906     		lsls	r1, r3, #26
 700 00ba FCD4     		bmi	.L157
 701              	.L160:
 702 00bc E2B2     		uxtb	r2, r4
 703 00be 3846     		mov	r0, r7
 704 00c0 3346     		mov	r3, r6
 705 00c2 0621     		movs	r1, #6
ARM GAS  C:\Users\Jay\AppData\Local\Temp\ccjVRGue.s 			page 13


 706 00c4 BDE8F047 		pop	{r4, r5, r6, r7, r8, r9, r10, lr}
 707 00c8 1847     		bx	r3	@ indirect register sibling call
 708              	.L173:
 709 00ca 4FF40053 		mov	r3, #8192
 710 00ce 6B61     		str	r3, [r5, #20]
 711 00d0 DAE7     		b	.L145
 712              	.L174:
 713 00d2 1648     		ldr	r0, .L177+4
 714 00d4 032C     		cmp	r4, #3
 715 00d6 00EB4410 		add	r0, r0, r4, lsl #5
 716 00da 13D8     		bhi	.L139
 717 00dc 8368     		ldr	r3, [r0, #8]
 718 00de DB07     		lsls	r3, r3, #31
 719 00e0 17D4     		bmi	.L148
 720 00e2 144B     		ldr	r3, .L177+12
 721 00e4 2344     		add	r3, r3, r4
 722 00e6 5B01     		lsls	r3, r3, #5
 723 00e8 03E0     		b	.L150
 724              	.L170:
 725 00ea 9A68     		ldr	r2, [r3, #8]
 726 00ec 2033     		adds	r3, r3, #32
 727 00ee D507     		lsls	r5, r2, #31
 728 00f0 0FD4     		bmi	.L148
 729              	.L150:
 730 00f2 0134     		adds	r4, r4, #1
 731 00f4 1846     		mov	r0, r3
 732 00f6 042C     		cmp	r4, #4
 733 00f8 F7D1     		bne	.L170
 734 00fa 03E0     		b	.L139
 735              	.L152:
 736 00fc 1A05     		lsls	r2, r3, #20
 737 00fe 03D4     		bmi	.L175
 738 0100 002B     		cmp	r3, #0
 739 0102 0CDB     		blt	.L176
 740              	.L139:
 741 0104 BDE8F087 		pop	{r4, r5, r6, r7, r8, r9, r10, pc}
 742              	.L175:
 743 0108 4FF40063 		mov	r3, #2048
 744 010c 0221     		movs	r1, #2
 745 010e 6B61     		str	r3, [r5, #20]
 746 0110 BAE7     		b	.L145
 747              	.L148:
 748 0112 0123     		movs	r3, #1
 749 0114 44F08004 		orr	r4, r4, #128
 750 0118 0421     		movs	r1, #4
 751 011a 8360     		str	r3, [r0, #8]
 752 011c B4E7     		b	.L145
 753              	.L176:
 754 011e 4FF00043 		mov	r3, #-2147483648
 755 0122 0321     		movs	r1, #3
 756 0124 6B61     		str	r3, [r5, #20]
 757 0126 AFE7     		b	.L145
 758              	.L178:
 759              		.align	2
 760              	.L177:
 761 0128 00000840 		.word	1074266112
 762 012c 00090840 		.word	1074268416
ARM GAS  C:\Users\Jay\AppData\Local\Temp\ccjVRGue.s 			page 14


 763 0130 0000F81F 		.word	536346624
 764 0134 49400002 		.word	33570889
 765 0138 000B0840 		.word	1074268928
 767              		.section	.text.get_serialno_desc,"ax",%progbits
 768              		.align	1
 769              		.p2align 2,,3
 770              		.global	get_serialno_desc
 771              		.syntax unified
 772              		.thumb
 773              		.thumb_func
 774              		.fpu fpv5-sp-d16
 776              	get_serialno_desc:
 777              		@ args = 0, pretend = 0, frame = 0
 778              		@ frame_needed = 0, uses_anonymous_args = 0
 779              		@ link register save eliminated.
 780 0000 1F4B     		ldr	r3, .L191
 781 0002 2049     		ldr	r1, .L191+4
 782 0004 1A68     		ldr	r2, [r3]
 783 0006 30B4     		push	{r4, r5}
 784 0008 0446     		mov	r4, r0
 785 000a 1F4D     		ldr	r5, .L191+8
 786 000c 0420     		movs	r0, #4
 787              	.L180:
 788 000e D3B2     		uxtb	r3, r2
 789 0010 0138     		subs	r0, r0, #1
 790 0012 4FEA1222 		lsr	r2, r2, #8
 791 0016 81EA0301 		eor	r1, r1, r3
 792 001a 05FB01F1 		mul	r1, r5, r1
 793 001e F6D1     		bne	.L180
 794 0020 1A4B     		ldr	r3, .L191+12
 795 0022 0420     		movs	r0, #4
 796 0024 184D     		ldr	r5, .L191+8
 797 0026 1A68     		ldr	r2, [r3]
 798              	.L181:
 799 0028 D3B2     		uxtb	r3, r2
 800 002a 0138     		subs	r0, r0, #1
 801 002c 4FEA1222 		lsr	r2, r2, #8
 802 0030 81EA0301 		eor	r1, r1, r3
 803 0034 05FB01F1 		mul	r1, r5, r1
 804 0038 F6D1     		bne	.L181
 805 003a 154B     		ldr	r3, .L191+16
 806 003c 0420     		movs	r0, #4
 807 003e 124D     		ldr	r5, .L191+8
 808 0040 1A68     		ldr	r2, [r3]
 809              	.L182:
 810 0042 D3B2     		uxtb	r3, r2
 811 0044 0138     		subs	r0, r0, #1
 812 0046 4FEA1222 		lsr	r2, r2, #8
 813 004a 81EA0301 		eor	r1, r1, r3
 814 004e 05FB01F1 		mul	r1, r5, r1
 815 0052 F6D1     		bne	.L182
 816 0054 2546     		mov	r5, r4
 817 0056 1C22     		movs	r2, #28
 818              	.L184:
 819 0058 21FA02F3 		lsr	r3, r1, r2
 820 005c 043A     		subs	r2, r2, #4
 821 005e 03F00F03 		and	r3, r3, #15
ARM GAS  C:\Users\Jay\AppData\Local\Temp\ccjVRGue.s 			page 15


 822 0062 0A2B     		cmp	r3, #10
 823 0064 34BF     		ite	cc
 824 0066 3020     		movcc	r0, #48
 825 0068 3720     		movcs	r0, #55
 826 006a 0344     		add	r3, r3, r0
 827 006c 25F8023F 		strh	r3, [r5, #2]!	@ movhi
 828 0070 131D     		adds	r3, r2, #4
 829 0072 F1D1     		bne	.L184
 830 0074 40F21233 		movw	r3, #786
 831 0078 1220     		movs	r0, #18
 832 007a 2380     		strh	r3, [r4]	@ movhi
 833 007c 30BC     		pop	{r4, r5}
 834 007e 7047     		bx	lr
 835              	.L192:
 836              		.align	2
 837              	.L191:
 838 0080 00E8F11F 		.word	535947264
 839 0084 C59D1C81 		.word	-2128831035
 840 0088 93010001 		.word	16777619
 841 008c 04E8F11F 		.word	535947268
 842 0090 08E8F11F 		.word	535947272
 844              		.section	.text.cdc_getdesc,"ax",%progbits
 845              		.align	1
 846              		.p2align 2,,3
 847              		.syntax unified
 848              		.thumb
 849              		.thumb_func
 850              		.fpu fpv5-sp-d16
 852              	cdc_getdesc:
 853              		@ args = 0, pretend = 0, frame = 0
 854              		@ frame_needed = 0, uses_anonymous_args = 0
 855              		@ link register save eliminated.
 856 0000 4088     		ldrh	r0, [r0, #2]
 857 0002 030A     		lsrs	r3, r0, #8
 858 0004 022B     		cmp	r3, #2
 859 0006 10B4     		push	{r4}
 860 0008 17D0     		beq	.L200
 861 000a 032B     		cmp	r3, #3
 862 000c 0DD0     		beq	.L196
 863 000e 012B     		cmp	r3, #1
 864 0010 03D0     		beq	.L204
 865              	.L201:
 866 0012 0020     		movs	r0, #0
 867 0014 5DF8044B 		ldr	r4, [sp], #4
 868 0018 7047     		bx	lr
 869              	.L204:
 870 001a 1224     		movs	r4, #18
 871 001c 084B     		ldr	r3, .L205
 872              	.L195:
 873 001e 0B60     		str	r3, [r1]
 874 0020 0120     		movs	r0, #1
 875 0022 1480     		strh	r4, [r2]	@ movhi
 876 0024 5DF8044B 		ldr	r4, [sp], #4
 877 0028 7047     		bx	lr
 878              	.L196:
 879 002a C0B2     		uxtb	r0, r0
 880 002c 0228     		cmp	r0, #2
ARM GAS  C:\Users\Jay\AppData\Local\Temp\ccjVRGue.s 			page 16


 881 002e F0D8     		bhi	.L201
 882 0030 044B     		ldr	r3, .L205+4
 883 0032 53F82030 		ldr	r3, [r3, r0, lsl #2]
 884 0036 1C78     		ldrb	r4, [r3]	@ zero_extendqisi2
 885 0038 F1E7     		b	.L195
 886              	.L200:
 887 003a 034B     		ldr	r3, .L205+8
 888 003c 4B24     		movs	r4, #75
 889 003e EEE7     		b	.L195
 890              	.L206:
 891              		.align	2
 892              	.L205:
 893 0040 00000000 		.word	.LANCHOR1
 894 0044 00000000 		.word	.LANCHOR3
 895 0048 00000000 		.word	.LANCHOR2
 897              		.section	.text.flash_sector_program,"ax",%progbits
 898              		.align	1
 899              		.p2align 2,,3
 900              		.syntax unified
 901              		.thumb
 902              		.thumb_func
 903              		.fpu fpv5-sp-d16
 905              	flash_sector_program:
 906              		@ args = 0, pretend = 0, frame = 0
 907              		@ frame_needed = 0, uses_anonymous_args = 0
 908              		@ link register save eliminated.
 909 0000 F0B4     		push	{r4, r5, r6, r7}
 910              		.syntax unified
 911              	@ 141 "stm32h7xx/cmsis/cmsis_gcc.h" 1
 912 0002 72B6     		cpsid i
 913              	@ 0 "" 2
 914              		.thumb
 915              		.syntax unified
 916 0004 C0B2     		uxtb	r0, r0
 917 0006 204C     		ldr	r4, .L224
 918 0008 204E     		ldr	r6, .L224+4
 919 000a 214D     		ldr	r5, .L224+8
 920 000c 0B28     		cmp	r0, #11
 921 000e 6660     		str	r6, [r4, #4]
 922 0010 6560     		str	r5, [r4, #4]
 923 0012 23D9     		bls	.L209
 924              	.L208:
 925 0014 1C4C     		ldr	r4, .L224
 926              	.L211:
 927 0016 2069     		ldr	r0, [r4, #16]
 928 0018 C007     		lsls	r0, r0, #31
 929 001a FCD4     		bmi	.L211
 930 001c E068     		ldr	r0, [r4, #12]
 931 001e 20F00600 		bic	r0, r0, #6
 932 0022 40F00200 		orr	r0, r0, #2
 933 0026 E060     		str	r0, [r4, #12]
 934 0028 63B1     		cbz	r3, .L212
 935 002a 1546     		mov	r5, r2
 936 002c 1648     		ldr	r0, .L224
 937              	.L214:
 938 002e 55F8044B 		ldr	r4, [r5], #4
 939 0032 0E1D     		adds	r6, r1, #4
ARM GAS  C:\Users\Jay\AppData\Local\Temp\ccjVRGue.s 			page 17


 940 0034 0C60     		str	r4, [r1]
 941              	.L213:
 942 0036 0169     		ldr	r1, [r0, #16]
 943 0038 C907     		lsls	r1, r1, #31
 944 003a FCD4     		bmi	.L213
 945 003c AC1A     		subs	r4, r5, r2
 946 003e 3146     		mov	r1, r6
 947 0040 A342     		cmp	r3, r4
 948 0042 F4D8     		bhi	.L214
 949              	.L212:
 950 0044 104B     		ldr	r3, .L224
 951 0046 DA68     		ldr	r2, [r3, #12]
 952 0048 22F00202 		bic	r2, r2, #2
 953 004c DA60     		str	r2, [r3, #12]
 954 004e DA68     		ldr	r2, [r3, #12]
 955 0050 42F00102 		orr	r2, r2, #1
 956 0054 DA60     		str	r2, [r3, #12]
 957              		.syntax unified
 958              	@ 131 "stm32h7xx/cmsis/cmsis_gcc.h" 1
 959 0056 62B6     		cpsie i
 960              	@ 0 "" 2
 961              		.thumb
 962              		.syntax unified
 963 0058 F0BC     		pop	{r4, r5, r6, r7}
 964 005a 7047     		bx	lr
 965              	.L209:
 966 005c 2569     		ldr	r5, [r4, #16]
 967 005e ED07     		lsls	r5, r5, #31
 968 0060 FCD4     		bmi	.L209
 969 0062 E768     		ldr	r7, [r4, #12]
 970 0064 0002     		lsls	r0, r0, #8
 971 0066 0B4E     		ldr	r6, .L224+12
 972 0068 00F4E060 		and	r0, r0, #1792
 973 006c 064D     		ldr	r5, .L224
 974 006e 3E40     		ands	r6, r6, r7
 975 0070 46F02406 		orr	r6, r6, #36
 976 0074 3043     		orrs	r0, r0, r6
 977 0076 E060     		str	r0, [r4, #12]
 978 0078 E068     		ldr	r0, [r4, #12]
 979 007a 40F08000 		orr	r0, r0, #128
 980 007e E060     		str	r0, [r4, #12]
 981              	.L210:
 982 0080 2869     		ldr	r0, [r5, #16]
 983 0082 C407     		lsls	r4, r0, #31
 984 0084 FCD4     		bmi	.L210
 985 0086 C5E7     		b	.L208
 986              	.L225:
 987              		.align	2
 988              	.L224:
 989 0088 00200052 		.word	1375739904
 990 008c 23016745 		.word	1164378403
 991 0090 AB89EFCD 		.word	-839939669
 992 0094 C5F8FFFF 		.word	-1851
 994              		.section	.text.buf_putchar,"ax",%progbits
 995              		.align	1
 996              		.p2align 2,,3
 997              		.syntax unified
ARM GAS  C:\Users\Jay\AppData\Local\Temp\ccjVRGue.s 			page 18


 998              		.thumb
 999              		.thumb_func
 1000              		.fpu fpv5-sp-d16
 1002              	buf_putchar:
 1003              		@ args = 0, pretend = 0, frame = 0
 1004              		@ frame_needed = 0, uses_anonymous_args = 0
 1005              		@ link register save eliminated.
 1006 0000 054B     		ldr	r3, .L228
 1007 0002 0649     		ldr	r1, .L228+4
 1008 0004 1A68     		ldr	r2, [r3]
 1009 0006 10B4     		push	{r4}
 1010 0008 0C68     		ldr	r4, [r1]
 1011 000a 511C     		adds	r1, r2, #1
 1012 000c A054     		strb	r0, [r4, r2]
 1013 000e 1960     		str	r1, [r3]
 1014 0010 5DF8044B 		ldr	r4, [sp], #4
 1015 0014 7047     		bx	lr
 1016              	.L229:
 1017 0016 00BF     		.align	2
 1018              	.L228:
 1019 0018 00000000 		.word	.LANCHOR5
 1020 001c 00000000 		.word	.LANCHOR4
 1022              		.section	.text.d64_image_type,"ax",%progbits
 1023              		.align	1
 1024              		.p2align 2,,3
 1025              		.syntax unified
 1026              		.thumb
 1027              		.thumb_func
 1028              		.fpu fpv5-sp-d16
 1030              	d64_image_type:
 1031              		@ args = 0, pretend = 0, frame = 0
 1032              		@ frame_needed = 0, uses_anonymous_args = 0
 1033              		@ link register save eliminated.
 1034 0000 154B     		ldr	r3, .L248
 1035 0002 9842     		cmp	r0, r3
 1036 0004 1ED0     		beq	.L238
 1037 0006 13D9     		bls	.L245
 1038 0008 144B     		ldr	r3, .L248+4
 1039 000a 9842     		cmp	r0, r3
 1040 000c 1CD0     		beq	.L235
 1041 000e 07D9     		bls	.L246
 1042 0010 B0F5482F 		cmp	r0, #819200
 1043 0014 02D0     		beq	.L237
 1044 0016 124B     		ldr	r3, .L248+8
 1045 0018 9842     		cmp	r0, r3
 1046 001a 07D1     		bne	.L231
 1047              	.L237:
 1048 001c 0320     		movs	r0, #3
 1049 001e 7047     		bx	lr
 1050              	.L246:
 1051 0020 104B     		ldr	r3, .L248+12
 1052 0022 9842     		cmp	r0, r3
 1053 0024 0ED0     		beq	.L238
 1054 0026 104B     		ldr	r3, .L248+16
 1055 0028 9842     		cmp	r0, r3
 1056 002a 0DD0     		beq	.L235
 1057              	.L231:
ARM GAS  C:\Users\Jay\AppData\Local\Temp\ccjVRGue.s 			page 19


 1058 002c 0020     		movs	r0, #0
 1059 002e 7047     		bx	lr
 1060              	.L245:
 1061 0030 0E4B     		ldr	r3, .L248+20
 1062 0032 9842     		cmp	r0, r3
 1063 0034 06D0     		beq	.L238
 1064 0036 09D9     		bls	.L247
 1065 0038 B0F5403F 		cmp	r0, #196608
 1066 003c 02D0     		beq	.L238
 1067 003e 0C4B     		ldr	r3, .L248+24
 1068 0040 9842     		cmp	r0, r3
 1069 0042 F3D1     		bne	.L231
 1070              	.L238:
 1071 0044 0120     		movs	r0, #1
 1072 0046 7047     		bx	lr
 1073              	.L235:
 1074 0048 0220     		movs	r0, #2
 1075 004a 7047     		bx	lr
 1076              	.L247:
 1077 004c A3F2AB23 		subw	r3, r3, #683
 1078 0050 9842     		cmp	r0, r3
 1079 0052 EBD1     		bne	.L231
 1080 0054 F6E7     		b	.L238
 1081              	.L249:
 1082 0056 00BF     		.align	2
 1083              	.L248:
 1084 0058 00220300 		.word	205312
 1085 005c 565B0500 		.word	351062
 1086 0060 808C0C00 		.word	822400
 1087 0064 22250300 		.word	206114
 1088 0068 00560500 		.word	349696
 1089 006c ABAD0200 		.word	175531
 1090 0070 00030300 		.word	197376
 1092              		.section	.text.get_file_type,"ax",%progbits
 1093              		.align	1
 1094              		.p2align 2,,3
 1095              		.syntax unified
 1096              		.thumb
 1097              		.thumb_func
 1098              		.fpu fpv5-sp-d16
 1100              	get_file_type:
 1101              		@ args = 0, pretend = 0, frame = 0
 1102              		@ frame_needed = 0, uses_anonymous_args = 0
 1103 0000 F8B5     		push	{r3, r4, r5, r6, r7, lr}
 1104 0002 037A     		ldrb	r3, [r0, #8]	@ zero_extendqisi2
 1105 0004 DB06     		lsls	r3, r3, #27
 1106 0006 00F1E580 		bmi	.L302
 1107 000a 00F11605 		add	r5, r0, #22
 1108 000e 00F21516 		addw	r6, r0, #277
 1109 0012 FE24     		movs	r4, #254
 1110 0014 2A46     		mov	r2, r5
 1111 0016 05E0     		b	.L254
 1112              	.L333:
 1113 0018 2E29     		cmp	r1, #46
 1114 001a 08BF     		it	eq
 1115 001c 1C46     		moveq	r4, r3
 1116 001e B242     		cmp	r2, r6
ARM GAS  C:\Users\Jay\AppData\Local\Temp\ccjVRGue.s 			page 20


 1117 0020 00F0DA80 		beq	.L332
 1118              	.L254:
 1119 0024 531B     		subs	r3, r2, r5
 1120 0026 12F8011B 		ldrb	r1, [r2], #1	@ zero_extendqisi2
 1121 002a DBB2     		uxtb	r3, r3
 1122 002c 0029     		cmp	r1, #0
 1123 002e F3D1     		bne	.L333
 1124              	.L255:
 1125 0030 1B1B     		subs	r3, r3, r4
 1126 0032 032B     		cmp	r3, #3
 1127 0034 40F3CC80 		ble	.L308
 1128 0038 05EB040C 		add	ip, r5, r4
 1129 003c 7C49     		ldr	r1, .L347
 1130 003e 6446     		mov	r4, ip
 1131 0040 6246     		mov	r2, ip
 1132 0042 0334     		adds	r4, r4, #3
 1133              	.L259:
 1134 0044 12F8013F 		ldrb	r3, [r2, #1]!	@ zero_extendqisi2
 1135 0048 11F8016B 		ldrb	r6, [r1], #1	@ zero_extendqisi2
 1136 004c A3F16105 		sub	r5, r3, #97
 1137 0050 A3F12007 		sub	r7, r3, #32
 1138 0054 192D     		cmp	r5, #25
 1139 0056 0CD8     		bhi	.L256
 1140 0058 BE42     		cmp	r6, r7
 1141 005a 0CD1     		bne	.L257
 1142              	.L258:
 1143 005c A242     		cmp	r2, r4
 1144 005e F1D1     		bne	.L259
 1145 0060 0068     		ldr	r0, [r0]
 1146 0062 4FF6FC73 		movw	r3, #65532
 1147 0066 0338     		subs	r0, r0, #3
 1148 0068 9842     		cmp	r0, r3
 1149 006a 8CBF     		ite	hi
 1150 006c FF20     		movhi	r0, #255
 1151 006e 0220     		movls	r0, #2
 1152 0070 F8BD     		pop	{r3, r4, r5, r6, r7, pc}
 1153              	.L256:
 1154 0072 B342     		cmp	r3, r6
 1155 0074 F2D0     		beq	.L258
 1156              	.L257:
 1157 0076 6F49     		ldr	r1, .L347+4
 1158 0078 6246     		mov	r2, ip
 1159 007a 04E0     		b	.L264
 1160              	.L335:
 1161 007c B742     		cmp	r7, r6
 1162 007e 0ED1     		bne	.L262
 1163              	.L263:
 1164 0080 A242     		cmp	r2, r4
 1165 0082 00F0AB80 		beq	.L334
 1166              	.L264:
 1167 0086 12F8013F 		ldrb	r3, [r2, #1]!	@ zero_extendqisi2
 1168 008a 11F8016B 		ldrb	r6, [r1], #1	@ zero_extendqisi2
 1169 008e A3F16105 		sub	r5, r3, #97
 1170 0092 A3F12007 		sub	r7, r3, #32
 1171 0096 192D     		cmp	r5, #25
 1172 0098 F0D9     		bls	.L335
 1173 009a B342     		cmp	r3, r6
ARM GAS  C:\Users\Jay\AppData\Local\Temp\ccjVRGue.s 			page 21


 1174 009c F0D0     		beq	.L263
 1175              	.L262:
 1176 009e 6649     		ldr	r1, .L347+8
 1177 00a0 6246     		mov	r2, ip
 1178 00a2 04E0     		b	.L269
 1179              	.L337:
 1180 00a4 AF42     		cmp	r7, r5
 1181 00a6 0ED1     		bne	.L267
 1182              	.L268:
 1183 00a8 A242     		cmp	r2, r4
 1184 00aa 00F09D80 		beq	.L336
 1185              	.L269:
 1186 00ae 12F8013F 		ldrb	r3, [r2, #1]!	@ zero_extendqisi2
 1187 00b2 11F8015B 		ldrb	r5, [r1], #1	@ zero_extendqisi2
 1188 00b6 A3F16106 		sub	r6, r3, #97
 1189 00ba A3F12007 		sub	r7, r3, #32
 1190 00be 192E     		cmp	r6, #25
 1191 00c0 F0D9     		bls	.L337
 1192 00c2 AB42     		cmp	r3, r5
 1193 00c4 F0D0     		beq	.L268
 1194              	.L267:
 1195 00c6 5D49     		ldr	r1, .L347+12
 1196 00c8 6246     		mov	r2, ip
 1197 00ca 04E0     		b	.L274
 1198              	.L338:
 1199 00cc B742     		cmp	r7, r6
 1200 00ce 0ED1     		bne	.L272
 1201              	.L273:
 1202 00d0 A242     		cmp	r2, r4
 1203 00d2 00F08F80 		beq	.L275
 1204              	.L274:
 1205 00d6 12F8013F 		ldrb	r3, [r2, #1]!	@ zero_extendqisi2
 1206 00da 11F8016B 		ldrb	r6, [r1], #1	@ zero_extendqisi2
 1207 00de A3F16105 		sub	r5, r3, #97
 1208 00e2 A3F12007 		sub	r7, r3, #32
 1209 00e6 192D     		cmp	r5, #25
 1210 00e8 F0D9     		bls	.L338
 1211 00ea B342     		cmp	r3, r6
 1212 00ec F0D0     		beq	.L273
 1213              	.L272:
 1214 00ee 5449     		ldr	r1, .L347+16
 1215 00f0 6246     		mov	r2, ip
 1216 00f2 03E0     		b	.L279
 1217              	.L339:
 1218 00f4 B742     		cmp	r7, r6
 1219 00f6 0DD1     		bne	.L277
 1220              	.L278:
 1221 00f8 A242     		cmp	r2, r4
 1222 00fa 7BD0     		beq	.L275
 1223              	.L279:
 1224 00fc 12F8013F 		ldrb	r3, [r2, #1]!	@ zero_extendqisi2
 1225 0100 11F8016B 		ldrb	r6, [r1], #1	@ zero_extendqisi2
 1226 0104 A3F16105 		sub	r5, r3, #97
 1227 0108 A3F12007 		sub	r7, r3, #32
 1228 010c 192D     		cmp	r5, #25
 1229 010e F1D9     		bls	.L339
 1230 0110 B342     		cmp	r3, r6
ARM GAS  C:\Users\Jay\AppData\Local\Temp\ccjVRGue.s 			page 22


 1231 0112 F1D0     		beq	.L278
 1232              	.L277:
 1233 0114 4B49     		ldr	r1, .L347+20
 1234 0116 6346     		mov	r3, ip
 1235 0118 03E0     		b	.L283
 1236              	.L340:
 1237 011a AF42     		cmp	r7, r5
 1238 011c 0DD1     		bne	.L281
 1239              	.L282:
 1240 011e A342     		cmp	r3, r4
 1241 0120 68D0     		beq	.L275
 1242              	.L283:
 1243 0122 13F8012F 		ldrb	r2, [r3, #1]!	@ zero_extendqisi2
 1244 0126 11F8015B 		ldrb	r5, [r1], #1	@ zero_extendqisi2
 1245 012a A2F16106 		sub	r6, r2, #97
 1246 012e A2F12007 		sub	r7, r2, #32
 1247 0132 192E     		cmp	r6, #25
 1248 0134 F1D9     		bls	.L340
 1249 0136 AA42     		cmp	r2, r5
 1250 0138 F1D0     		beq	.L282
 1251              	.L281:
 1252 013a 4349     		ldr	r1, .L347+24
 1253 013c 6346     		mov	r3, ip
 1254 013e 03E0     		b	.L287
 1255              	.L341:
 1256 0140 AF42     		cmp	r7, r5
 1257 0142 0DD1     		bne	.L285
 1258              	.L286:
 1259 0144 A342     		cmp	r3, r4
 1260 0146 5DD0     		beq	.L288
 1261              	.L287:
 1262 0148 13F8012F 		ldrb	r2, [r3, #1]!	@ zero_extendqisi2
 1263 014c 11F8015B 		ldrb	r5, [r1], #1	@ zero_extendqisi2
 1264 0150 A2F16106 		sub	r6, r2, #97
 1265 0154 A2F12007 		sub	r7, r2, #32
 1266 0158 192E     		cmp	r6, #25
 1267 015a F1D9     		bls	.L341
 1268 015c AA42     		cmp	r2, r5
 1269 015e F1D0     		beq	.L286
 1270              	.L285:
 1271 0160 3A49     		ldr	r1, .L347+28
 1272 0162 6346     		mov	r3, ip
 1273 0164 03E0     		b	.L292
 1274              	.L342:
 1275 0166 AE42     		cmp	r6, r5
 1276 0168 0DD1     		bne	.L290
 1277              	.L291:
 1278 016a A342     		cmp	r3, r4
 1279 016c 4AD0     		beq	.L288
 1280              	.L292:
 1281 016e 13F8012F 		ldrb	r2, [r3, #1]!	@ zero_extendqisi2
 1282 0172 11F8015B 		ldrb	r5, [r1], #1	@ zero_extendqisi2
 1283 0176 A2F16107 		sub	r7, r2, #97
 1284 017a A2F12006 		sub	r6, r2, #32
 1285 017e 192F     		cmp	r7, #25
 1286 0180 F1D9     		bls	.L342
 1287 0182 AA42     		cmp	r2, r5
ARM GAS  C:\Users\Jay\AppData\Local\Temp\ccjVRGue.s 			page 23


 1288 0184 F1D0     		beq	.L291
 1289              	.L290:
 1290 0186 3249     		ldr	r1, .L347+32
 1291 0188 6346     		mov	r3, ip
 1292 018a 03E0     		b	.L296
 1293              	.L344:
 1294 018c AE42     		cmp	r6, r5
 1295 018e 0DD1     		bne	.L294
 1296              	.L295:
 1297 0190 A342     		cmp	r3, r4
 1298 0192 3ED0     		beq	.L343
 1299              	.L296:
 1300 0194 13F8012F 		ldrb	r2, [r3, #1]!	@ zero_extendqisi2
 1301 0198 11F8015B 		ldrb	r5, [r1], #1	@ zero_extendqisi2
 1302 019c A2F16107 		sub	r7, r2, #97
 1303 01a0 A2F12006 		sub	r6, r2, #32
 1304 01a4 192F     		cmp	r7, #25
 1305 01a6 F1D9     		bls	.L344
 1306 01a8 AA42     		cmp	r2, r5
 1307 01aa F1D0     		beq	.L295
 1308              	.L294:
 1309 01ac 294A     		ldr	r2, .L347+36
 1310 01ae 03E0     		b	.L300
 1311              	.L346:
 1312 01b0 8D42     		cmp	r5, r1
 1313 01b2 0DD1     		bne	.L308
 1314              	.L299:
 1315 01b4 A445     		cmp	ip, r4
 1316 01b6 33D0     		beq	.L345
 1317              	.L300:
 1318 01b8 1CF8013F 		ldrb	r3, [ip, #1]!	@ zero_extendqisi2
 1319 01bc 12F8011B 		ldrb	r1, [r2], #1	@ zero_extendqisi2
 1320 01c0 A3F16106 		sub	r6, r3, #97
 1321 01c4 A3F12005 		sub	r5, r3, #32
 1322 01c8 192E     		cmp	r6, #25
 1323 01ca F1D9     		bls	.L346
 1324 01cc 8B42     		cmp	r3, r1
 1325 01ce F1D0     		beq	.L299
 1326              	.L308:
 1327 01d0 FF20     		movs	r0, #255
 1328 01d2 F8BD     		pop	{r3, r4, r5, r6, r7, pc}
 1329              	.L302:
 1330 01d4 0020     		movs	r0, #0
 1331 01d6 F8BD     		pop	{r3, r4, r5, r6, r7, pc}
 1332              	.L332:
 1333 01d8 FF23     		movs	r3, #255
 1334 01da 29E7     		b	.L255
 1335              	.L334:
 1336 01dc 0368     		ldr	r3, [r0]
 1337 01de 1B2B     		cmp	r3, #27
 1338 01e0 34BF     		ite	cc
 1339 01e2 FF20     		movcc	r0, #255
 1340 01e4 0320     		movcs	r0, #3
 1341 01e6 F8BD     		pop	{r3, r4, r5, r6, r7, pc}
 1342              	.L336:
 1343 01e8 0368     		ldr	r3, [r0]
 1344 01ea 412B     		cmp	r3, #65
ARM GAS  C:\Users\Jay\AppData\Local\Temp\ccjVRGue.s 			page 24


 1345 01ec 34BF     		ite	cc
 1346 01ee FF20     		movcc	r0, #255
 1347 01f0 0120     		movcs	r0, #1
 1348 01f2 F8BD     		pop	{r3, r4, r5, r6, r7, pc}
 1349              	.L275:
 1350 01f4 0068     		ldr	r0, [r0]
 1351 01f6 FFF7FEFF 		bl	d64_image_type
 1352 01fa 0028     		cmp	r0, #0
 1353 01fc 0CBF     		ite	eq
 1354 01fe FF20     		moveq	r0, #255
 1355 0200 0420     		movne	r0, #4
 1356 0202 F8BD     		pop	{r3, r4, r5, r6, r7, pc}
 1357              	.L288:
 1358 0204 0368     		ldr	r3, [r0]
 1359 0206 B3F5005F 		cmp	r3, #8192
 1360 020a 14BF     		ite	ne
 1361 020c FF20     		movne	r0, #255
 1362 020e 0620     		moveq	r0, #6
 1363 0210 F8BD     		pop	{r3, r4, r5, r6, r7, pc}
 1364              	.L343:
 1365 0212 0368     		ldr	r3, [r0]
 1366 0214 B3F5803F 		cmp	r3, #65536
 1367 0218 14BF     		ite	ne
 1368 021a FF20     		movne	r0, #255
 1369 021c FD20     		moveq	r0, #253
 1370 021e F8BD     		pop	{r3, r4, r5, r6, r7, pc}
 1371              	.L345:
 1372 0220 0368     		ldr	r3, [r0]
 1373 0222 B3F5823F 		cmp	r3, #66560
 1374 0226 14BF     		ite	ne
 1375 0228 FF20     		movne	r0, #255
 1376 022a FE20     		moveq	r0, #254
 1377 022c F8BD     		pop	{r3, r4, r5, r6, r7, pc}
 1378              	.L348:
 1379 022e 00BF     		.align	2
 1380              	.L347:
 1381 0230 24000000 		.word	.LC9
 1382 0234 20000000 		.word	.LC8
 1383 0238 1C000000 		.word	.LC7
 1384 023c 18000000 		.word	.LC6
 1385 0240 14000000 		.word	.LC5
 1386 0244 10000000 		.word	.LC4
 1387 0248 0C000000 		.word	.LC3
 1388 024c 08000000 		.word	.LC2
 1389 0250 04000000 		.word	.LC1
 1390 0254 00000000 		.word	.LC0
 1392              		.section	.text.ar4x_init,"ax",%progbits
 1393              		.align	1
 1394              		.p2align 2,,3
 1395              		.syntax unified
 1396              		.thumb
 1397              		.thumb_func
 1398              		.fpu fpv5-sp-d16
 1400              	ar4x_init:
 1401              		@ args = 0, pretend = 0, frame = 0
 1402              		@ frame_needed = 0, uses_anonymous_args = 0
 1403              		@ link register save eliminated.
ARM GAS  C:\Users\Jay\AppData\Local\Temp\ccjVRGue.s 			page 25


 1404 0000 044B     		ldr	r3, .L350
 1405 0002 4022     		movs	r2, #64
 1406 0004 0448     		ldr	r0, .L350+4
 1407 0006 0549     		ldr	r1, .L350+8
 1408 0008 9A61     		str	r2, [r3, #24]
 1409 000a 9861     		str	r0, [r3, #24]
 1410 000c 044A     		ldr	r2, .L350+12
 1411 000e 0B68     		ldr	r3, [r1]
 1412 0010 1360     		str	r3, [r2]
 1413 0012 7047     		bx	lr
 1414              	.L351:
 1415              		.align	2
 1416              	.L350:
 1417 0014 00100258 		.word	1476530176
 1418 0018 80000001 		.word	16777344
 1419 001c 00000000 		.word	.LANCHOR7
 1420 0020 00000000 		.word	.LANCHOR6
 1422              		.section	.text.fc3_init,"ax",%progbits
 1423              		.align	1
 1424              		.p2align 2,,3
 1425              		.syntax unified
 1426              		.thumb
 1427              		.thumb_func
 1428              		.fpu fpv5-sp-d16
 1430              	fc3_init:
 1431              		@ args = 0, pretend = 0, frame = 0
 1432              		@ frame_needed = 0, uses_anonymous_args = 0
 1433              		@ link register save eliminated.
 1434 0000 084B     		ldr	r3, .L354
 1435 0002 4021     		movs	r1, #64
 1436 0004 0848     		ldr	r0, .L354+4
 1437 0006 094A     		ldr	r2, .L354+8
 1438 0008 30B4     		push	{r4, r5}
 1439 000a 9961     		str	r1, [r3, #24]
 1440 000c 4FF0C075 		mov	r5, #25165824
 1441 0010 4FF08044 		mov	r4, #1073741824
 1442 0014 4DF6FF71 		movw	r1, #57343
 1443 0018 9D61     		str	r5, [r3, #24]
 1444 001a 8461     		str	r4, [r0, #24]
 1445 001c 1180     		strh	r1, [r2]	@ movhi
 1446 001e 30BC     		pop	{r4, r5}
 1447 0020 7047     		bx	lr
 1448              	.L355:
 1449 0022 00BF     		.align	2
 1450              	.L354:
 1451 0024 00100258 		.word	1476530176
 1452 0028 000C0258 		.word	1476529152
 1453 002c 00000000 		.word	.LANCHOR8
 1455              		.section	.text.epyx_init,"ax",%progbits
 1456              		.align	1
 1457              		.p2align 2,,3
 1458              		.syntax unified
 1459              		.thumb
 1460              		.thumb_func
 1461              		.fpu fpv5-sp-d16
 1463              	epyx_init:
 1464              		@ args = 0, pretend = 0, frame = 0
ARM GAS  C:\Users\Jay\AppData\Local\Temp\ccjVRGue.s 			page 26


 1465              		@ frame_needed = 0, uses_anonymous_args = 0
 1466              		@ link register save eliminated.
 1467 0000 024B     		ldr	r3, .L357
 1468 0002 4021     		movs	r1, #64
 1469 0004 024A     		ldr	r2, .L357+4
 1470 0006 9961     		str	r1, [r3, #24]
 1471 0008 9A61     		str	r2, [r3, #24]
 1472 000a 7047     		bx	lr
 1473              	.L358:
 1474              		.align	2
 1475              	.L357:
 1476 000c 00100258 		.word	1476530176
 1477 0010 80000001 		.word	16777344
 1479              		.section	.text.zaxxon_init,"ax",%progbits
 1480              		.align	1
 1481              		.p2align 2,,3
 1482              		.syntax unified
 1483              		.thumb
 1484              		.thumb_func
 1485              		.fpu fpv5-sp-d16
 1487              	zaxxon_init:
 1488              		@ args = 0, pretend = 0, frame = 0
 1489              		@ frame_needed = 0, uses_anonymous_args = 0
 1490              		@ link register save eliminated.
 1491 0000 10B4     		push	{r4}
 1492 0002 064B     		ldr	r3, .L361
 1493 0004 4024     		movs	r4, #64
 1494 0006 4FF0C070 		mov	r0, #25165824
 1495 000a 054A     		ldr	r2, .L361+4
 1496 000c 0549     		ldr	r1, .L361+8
 1497 000e 9C61     		str	r4, [r3, #24]
 1498 0010 9861     		str	r0, [r3, #24]
 1499 0012 5DF8044B 		ldr	r4, [sp], #4
 1500 0016 1160     		str	r1, [r2]
 1501 0018 7047     		bx	lr
 1502              	.L362:
 1503 001a 00BF     		.align	2
 1504              	.L361:
 1505 001c 00100258 		.word	1476530176
 1506 0020 00000000 		.word	.LANCHOR6
 1507 0024 00000000 		.word	dat_buffer
 1509              		.section	.text.magic_desk_init,"ax",%progbits
 1510              		.align	1
 1511              		.p2align 2,,3
 1512              		.syntax unified
 1513              		.thumb
 1514              		.thumb_func
 1515              		.fpu fpv5-sp-d16
 1517              	magic_desk_init:
 1518              		@ args = 0, pretend = 0, frame = 0
 1519              		@ frame_needed = 0, uses_anonymous_args = 0
 1520              		@ link register save eliminated.
 1521 0000 FFF7FEBF 		b	epyx_init
 1523              		.section	.text.ss5_init,"ax",%progbits
 1524              		.align	1
 1525              		.p2align 2,,3
 1526              		.syntax unified
ARM GAS  C:\Users\Jay\AppData\Local\Temp\ccjVRGue.s 			page 27


 1527              		.thumb
 1528              		.thumb_func
 1529              		.fpu fpv5-sp-d16
 1531              	ss5_init:
 1532              		@ args = 0, pretend = 0, frame = 0
 1533              		@ frame_needed = 0, uses_anonymous_args = 0
 1534              		@ link register save eliminated.
 1535 0000 064B     		ldr	r3, .L366
 1536 0002 4021     		movs	r1, #64
 1537 0004 0648     		ldr	r0, .L366+4
 1538 0006 074A     		ldr	r2, .L366+8
 1539 0008 30B4     		push	{r4, r5}
 1540 000a 9961     		str	r1, [r3, #24]
 1541 000c 064D     		ldr	r5, .L366+12
 1542 000e 074C     		ldr	r4, .L366+16
 1543 0010 0749     		ldr	r1, .L366+20
 1544 0012 9D61     		str	r5, [r3, #24]
 1545 0014 0460     		str	r4, [r0]
 1546 0016 1160     		str	r1, [r2]
 1547 0018 30BC     		pop	{r4, r5}
 1548 001a 7047     		bx	lr
 1549              	.L367:
 1550              		.align	2
 1551              	.L366:
 1552 001c 00100258 		.word	1476530176
 1553 0020 00000000 		.word	.LANCHOR6
 1554 0024 00000000 		.word	.LANCHOR7
 1555 0028 00018000 		.word	8388864
 1556 002c 00000000 		.word	dat_buffer
 1557 0030 00000000 		.word	crt_ram_buf
 1559              		.section	.text.ef_init,"ax",%progbits
 1560              		.align	1
 1561              		.p2align 2,,3
 1562              		.syntax unified
 1563              		.thumb
 1564              		.thumb_func
 1565              		.fpu fpv5-sp-d16
 1567              	ef_init:
 1568              		@ args = 0, pretend = 0, frame = 0
 1569              		@ frame_needed = 0, uses_anonymous_args = 0
 1570              		@ link register save eliminated.
 1571 0000 024B     		ldr	r3, .L369
 1572 0002 4021     		movs	r1, #64
 1573 0004 024A     		ldr	r2, .L369+4
 1574 0006 9961     		str	r1, [r3, #24]
 1575 0008 9A61     		str	r2, [r3, #24]
 1576 000a 7047     		bx	lr
 1577              	.L370:
 1578              		.align	2
 1579              	.L369:
 1580 000c 00100258 		.word	1476530176
 1581 0010 00018000 		.word	8388864
 1583              		.section	.text.comal80_init,"ax",%progbits
 1584              		.align	1
 1585              		.p2align 2,,3
 1586              		.syntax unified
 1587              		.thumb
ARM GAS  C:\Users\Jay\AppData\Local\Temp\ccjVRGue.s 			page 28


 1588              		.thumb_func
 1589              		.fpu fpv5-sp-d16
 1591              	comal80_init:
 1592              		@ args = 0, pretend = 0, frame = 0
 1593              		@ frame_needed = 0, uses_anonymous_args = 0
 1594              		@ link register save eliminated.
 1595 0000 034B     		ldr	r3, .L372
 1596 0002 4021     		movs	r1, #64
 1597 0004 4FF0C072 		mov	r2, #25165824
 1598 0008 9961     		str	r1, [r3, #24]
 1599 000a 9A61     		str	r2, [r3, #24]
 1600 000c 7047     		bx	lr
 1601              	.L373:
 1602 000e 00BF     		.align	2
 1603              	.L372:
 1604 0010 00100258 		.word	1476530176
 1606              		.section	.text.c64_send_exit_menu,"ax",%progbits
 1607              		.align	1
 1608              		.p2align 2,,3
 1609              		.syntax unified
 1610              		.thumb
 1611              		.thumb_func
 1612              		.fpu fpv5-sp-d16
 1614              	c64_send_exit_menu:
 1615              		@ args = 0, pretend = 0, frame = 0
 1616              		@ frame_needed = 0, uses_anonymous_args = 0
 1617              		@ link register save eliminated.
 1618 0000 0D4A     		ldr	r2, .L382
 1619 0002 10B4     		push	{r4}
 1620              	.L375:
 1621 0004 1378     		ldrb	r3, [r2]	@ zero_extendqisi2
 1622 0006 002B     		cmp	r3, #0
 1623 0008 FCD1     		bne	.L375
 1624 000a 0C48     		ldr	r0, .L382+4
 1625 000c 0324     		movs	r4, #3
 1626 000e 8021     		movs	r1, #128
 1627 0010 0B4B     		ldr	r3, .L382+8
 1628 0012 0470     		strb	r4, [r0]
 1629 0014 1170     		strb	r1, [r2]
 1630              	.L376:
 1631 0016 1A78     		ldrb	r2, [r3]	@ zero_extendqisi2
 1632 0018 002A     		cmp	r2, #0
 1633 001a FCD1     		bne	.L376
 1634 001c 0949     		ldr	r1, .L382+12
 1635 001e 0A78     		ldrb	r2, [r1]	@ zero_extendqisi2
 1636 0020 4022     		movs	r2, #64
 1637 0022 1A70     		strb	r2, [r3]
 1638              	.L377:
 1639 0024 1A78     		ldrb	r2, [r3]	@ zero_extendqisi2
 1640 0026 002A     		cmp	r2, #0
 1641 0028 FCD1     		bne	.L377
 1642 002a 0A78     		ldrb	r2, [r1]	@ zero_extendqisi2
 1643 002c 4022     		movs	r2, #64
 1644 002e 1A70     		strb	r2, [r3]
 1645 0030 5DF8044B 		ldr	r4, [sp], #4
 1646 0034 7047     		bx	lr
 1647              	.L383:
ARM GAS  C:\Users\Jay\AppData\Local\Temp\ccjVRGue.s 			page 29


 1648 0036 00BF     		.align	2
 1649              	.L382:
 1650 0038 00000000 		.word	.LANCHOR9
 1651 003c 00000000 		.word	.LANCHOR10
 1652 0040 00000000 		.word	.LANCHOR11
 1653 0044 00000000 		.word	.LANCHOR12
 1655              		.section	.text.options_dir_up,"ax",%progbits
 1656              		.align	1
 1657              		.p2align 2,,3
 1658              		.syntax unified
 1659              		.thumb
 1660              		.thumb_func
 1661              		.fpu fpv5-sp-d16
 1663              	options_dir_up:
 1664              		@ args = 0, pretend = 0, frame = 0
 1665              		@ frame_needed = 0, uses_anonymous_args = 0
 1666              		@ link register save eliminated.
 1667 0000 4069     		ldr	r0, [r0, #20]
 1668 0002 044B     		ldr	r3, .L387
 1669 0004 1860     		str	r0, [r3]
 1670 0006 09B9     		cbnz	r1, .L386
 1671 0008 0368     		ldr	r3, [r0]
 1672 000a 1847     		bx	r3	@ indirect register sibling call
 1673              	.L386:
 1674 000c 4368     		ldr	r3, [r0, #4]
 1675 000e 0121     		movs	r1, #1
 1676 0010 1847     		bx	r3	@ indirect register sibling call
 1677              	.L388:
 1678 0012 00BF     		.align	2
 1679              	.L387:
 1680 0014 00000000 		.word	.LANCHOR13
 1682              		.section	.text.options_prev_select,"ax",%progbits
 1683              		.align	1
 1684              		.p2align 2,,3
 1685              		.syntax unified
 1686              		.thumb
 1687              		.thumb_func
 1688              		.fpu fpv5-sp-d16
 1690              	options_prev_select:
 1691              		@ args = 0, pretend = 0, frame = 0
 1692              		@ frame_needed = 0, uses_anonymous_args = 0
 1693              		@ link register save eliminated.
 1694 0000 30B4     		push	{r4, r5}
 1695 0002 4469     		ldr	r4, [r0, #20]
 1696 0004 064D     		ldr	r5, .L391
 1697 0006 91F82C30 		ldrb	r3, [r1, #44]	@ zero_extendqisi2
 1698 000a 2046     		mov	r0, r4
 1699 000c 2C60     		str	r4, [r5]
 1700 000e 1343     		orrs	r3, r3, r2
 1701 0010 2469     		ldr	r4, [r4, #16]
 1702 0012 91F82D20 		ldrb	r2, [r1, #45]	@ zero_extendqisi2
 1703 0016 1946     		mov	r1, r3
 1704 0018 2346     		mov	r3, r4
 1705 001a 30BC     		pop	{r4, r5}
 1706 001c 1847     		bx	r3
 1707              	.L392:
 1708 001e 00BF     		.align	2
ARM GAS  C:\Users\Jay\AppData\Local\Temp\ccjVRGue.s 			page 30


 1709              	.L391:
 1710 0020 00000000 		.word	.LANCHOR13
 1712              		.section	.text.options_prev_dir,"ax",%progbits
 1713              		.align	1
 1714              		.p2align 2,,3
 1715              		.syntax unified
 1716              		.thumb
 1717              		.thumb_func
 1718              		.fpu fpv5-sp-d16
 1720              	options_prev_dir:
 1721              		@ args = 0, pretend = 0, frame = 0
 1722              		@ frame_needed = 0, uses_anonymous_args = 0
 1723 0000 08B5     		push	{r3, lr}
 1724 0002 4369     		ldr	r3, [r0, #20]
 1725 0004 0349     		ldr	r1, .L395
 1726 0006 1846     		mov	r0, r3
 1727 0008 1A68     		ldr	r2, [r3]
 1728 000a 0B60     		str	r3, [r1]
 1729 000c 9047     		blx	r2
 1730 000e 0020     		movs	r0, #0
 1731 0010 08BD     		pop	{r3, pc}
 1732              	.L396:
 1733 0012 00BF     		.align	2
 1734              	.L395:
 1735 0014 00000000 		.word	.LANCHOR13
 1737              		.section	.text.reply_page_end,"ax",%progbits
 1738              		.align	1
 1739              		.p2align 2,,3
 1740              		.syntax unified
 1741              		.thumb
 1742              		.thumb_func
 1743              		.fpu fpv5-sp-d16
 1745              	reply_page_end:
 1746              		@ args = 0, pretend = 0, frame = 0
 1747              		@ frame_needed = 0, uses_anonymous_args = 0
 1748              		@ link register save eliminated.
 1749 0000 0F4A     		ldr	r2, .L405
 1750 0002 F0B4     		push	{r4, r5, r6, r7}
 1751              	.L398:
 1752 0004 1378     		ldrb	r3, [r2]	@ zero_extendqisi2
 1753 0006 03F0FF05 		and	r5, r3, #255
 1754 000a 002B     		cmp	r3, #0
 1755 000c FAD1     		bne	.L398
 1756 000e 0D4E     		ldr	r6, .L405+4
 1757 0010 8023     		movs	r3, #128
 1758 0012 2846     		mov	r0, r5
 1759 0014 0C4C     		ldr	r4, .L405+8
 1760 0016 3146     		mov	r1, r6
 1761 0018 3570     		strb	r5, [r6]
 1762 001a 0227     		movs	r7, #2
 1763 001c 1E46     		mov	r6, r3
 1764 001e 01F12505 		add	r5, r1, #37
 1765 0022 2770     		strb	r7, [r4]
 1766 0024 1370     		strb	r3, [r2]
 1767              	.L399:
 1768 0026 1378     		ldrb	r3, [r2]	@ zero_extendqisi2
 1769 0028 002B     		cmp	r3, #0
ARM GAS  C:\Users\Jay\AppData\Local\Temp\ccjVRGue.s 			page 31


 1770 002a FCD1     		bne	.L399
 1771 002c A942     		cmp	r1, r5
 1772 002e 2070     		strb	r0, [r4]
 1773 0030 1670     		strb	r6, [r2]
 1774 0032 02D0     		beq	.L397
 1775 0034 11F8010F 		ldrb	r0, [r1, #1]!	@ zero_extendqisi2
 1776 0038 F5E7     		b	.L399
 1777              	.L397:
 1778 003a F0BC     		pop	{r4, r5, r6, r7}
 1779 003c 7047     		bx	lr
 1780              	.L406:
 1781 003e 00BF     		.align	2
 1782              	.L405:
 1783 0040 00000000 		.word	.LANCHOR9
 1784 0044 00000100 		.word	scratch_buf
 1785 0048 00000000 		.word	.LANCHOR10
 1787              		.section	.text.options_prev_next_page,"ax",%progbits
 1788              		.align	1
 1789              		.p2align 2,,3
 1790              		.syntax unified
 1791              		.thumb
 1792              		.thumb_func
 1793              		.fpu fpv5-sp-d16
 1795              	options_prev_next_page:
 1796              		@ args = 0, pretend = 0, frame = 0
 1797              		@ frame_needed = 0, uses_anonymous_args = 0
 1798              		@ link register save eliminated.
 1799 0000 FFF7FEBF 		b	reply_page_end
 1801              		.section	.text.disk_filename_match,"ax",%progbits
 1802              		.align	1
 1803              		.p2align 2,,3
 1804              		.syntax unified
 1805              		.thumb
 1806              		.thumb_func
 1807              		.fpu fpv5-sp-d16
 1809              	disk_filename_match:
 1810              		@ args = 0, pretend = 0, frame = 0
 1811              		@ frame_needed = 0, uses_anonymous_args = 0
 1812              		@ link register save eliminated.
 1813 0000 30B4     		push	{r4, r5}
 1814 0002 4A1E     		subs	r2, r1, #1
 1815 0004 051D     		adds	r5, r0, #4
 1816 0006 0F31     		adds	r1, r1, #15
 1817              	.L412:
 1818 0008 12F8013F 		ldrb	r3, [r2, #1]!	@ zero_extendqisi2
 1819 000c 15F8014F 		ldrb	r4, [r5, #1]!	@ zero_extendqisi2
 1820 0010 2A2B     		cmp	r3, #42
 1821 0012 10D0     		beq	.L414
 1822 0014 3F2B     		cmp	r3, #63
 1823 0016 00D1     		bne	.L415
 1824 0018 5CB9     		cbnz	r4, .L410
 1825              	.L415:
 1826 001a A4F1A000 		sub	r0, r4, #160
 1827 001e B0FA80F0 		clz	r0, r0
 1828 0022 4009     		lsrs	r0, r0, #5
 1829 0024 002B     		cmp	r3, #0
 1830 0026 18BF     		it	ne
ARM GAS  C:\Users\Jay\AppData\Local\Temp\ccjVRGue.s 			page 32


 1831 0028 0020     		movne	r0, #0
 1832 002a 28B9     		cbnz	r0, .L409
 1833 002c A342     		cmp	r3, r4
 1834 002e 03D1     		bne	.L409
 1835 0030 0BB1     		cbz	r3, .L414
 1836              	.L410:
 1837 0032 8A42     		cmp	r2, r1
 1838 0034 E8D1     		bne	.L412
 1839              	.L414:
 1840 0036 0120     		movs	r0, #1
 1841              	.L409:
 1842 0038 30BC     		pop	{r4, r5}
 1843 003a 7047     		bx	lr
 1845              		.section	.text.disk_parse_filename,"ax",%progbits
 1846              		.align	1
 1847              		.p2align 2,,3
 1848              		.syntax unified
 1849              		.thumb
 1850              		.thumb_func
 1851              		.fpu fpv5-sp-d16
 1853              	disk_parse_filename:
 1854              		@ args = 0, pretend = 0, frame = 0
 1855              		@ frame_needed = 0, uses_anonymous_args = 0
 1856              		@ link register save eliminated.
 1857 0000 F0B4     		push	{r4, r5, r6, r7}
 1858 0002 0024     		movs	r4, #0
 1859 0004 0246     		mov	r2, r0
 1860 0006 0C71     		strb	r4, [r1, #4]
 1861 0008 02E0     		b	.L422
 1862              	.L424:
 1863 000a 3A2B     		cmp	r3, #58
 1864 000c 31D0     		beq	.L438
 1865 000e 1C46     		mov	r4, r3
 1866              	.L422:
 1867 0010 12F8013B 		ldrb	r3, [r2], #1	@ zero_extendqisi2
 1868 0014 002B     		cmp	r3, #0
 1869 0016 F8D1     		bne	.L424
 1870              	.L423:
 1871 0018 0023     		movs	r3, #0
 1872 001a 0860     		str	r0, [r1]
 1873 001c 0127     		movs	r7, #1
 1874 001e 0326     		movs	r6, #3
 1875 0020 4B71     		strb	r3, [r1, #5]
 1876 0022 1C46     		mov	r4, r3
 1877 0024 8B71     		strb	r3, [r1, #6]
 1878 0026 4FF0020C 		mov	ip, #2
 1879 002a 0378     		ldrb	r3, [r0]	@ zero_extendqisi2
 1880 002c 0425     		movs	r5, #4
 1881 002e 421C     		adds	r2, r0, #1
 1882 0030 33B1     		cbz	r3, .L421
 1883              	.L434:
 1884 0032 2C2B     		cmp	r3, #44
 1885 0034 06D0     		beq	.L439
 1886              	.L432:
 1887 0036 1046     		mov	r0, r2
 1888              	.L440:
 1889 0038 0378     		ldrb	r3, [r0]	@ zero_extendqisi2
ARM GAS  C:\Users\Jay\AppData\Local\Temp\ccjVRGue.s 			page 33


 1890 003a 421C     		adds	r2, r0, #1
 1891 003c 002B     		cmp	r3, #0
 1892 003e F8D1     		bne	.L434
 1893              	.L421:
 1894 0040 F0BC     		pop	{r4, r5, r6, r7}
 1895 0042 7047     		bx	lr
 1896              	.L439:
 1897 0044 02F8014C 		strb	r4, [r2, #-1]
 1898 0048 4B79     		ldrb	r3, [r1, #5]	@ zero_extendqisi2
 1899 004a 5BB9     		cbnz	r3, .L427
 1900 004c 1378     		ldrb	r3, [r2]	@ zero_extendqisi2
 1901 004e 532B     		cmp	r3, #83
 1902 0050 19D0     		beq	.L429
 1903 0052 552B     		cmp	r3, #85
 1904 0054 14D0     		beq	.L430
 1905 0056 4C2B     		cmp	r3, #76
 1906 0058 1046     		mov	r0, r2
 1907 005a 0CBF     		ite	eq
 1908 005c 2B46     		moveq	r3, r5
 1909 005e 6346     		movne	r3, ip
 1910 0060 4B71     		strb	r3, [r1, #5]
 1911 0062 E9E7     		b	.L440
 1912              	.L427:
 1913 0064 8B79     		ldrb	r3, [r1, #6]	@ zero_extendqisi2
 1914 0066 002B     		cmp	r3, #0
 1915 0068 E5D1     		bne	.L432
 1916 006a 4378     		ldrb	r3, [r0, #1]	@ zero_extendqisi2
 1917 006c F0BC     		pop	{r4, r5, r6, r7}
 1918 006e 8B71     		strb	r3, [r1, #6]
 1919 0070 7047     		bx	lr
 1920              	.L438:
 1921 0072 303C     		subs	r4, r4, #48
 1922 0074 E4B2     		uxtb	r4, r4
 1923 0076 092C     		cmp	r4, #9
 1924 0078 08D8     		bhi	.L436
 1925 007a 0C71     		strb	r4, [r1, #4]
 1926 007c 1046     		mov	r0, r2
 1927 007e CBE7     		b	.L423
 1928              	.L430:
 1929 0080 4E71     		strb	r6, [r1, #5]
 1930 0082 1046     		mov	r0, r2
 1931 0084 D8E7     		b	.L440
 1932              	.L429:
 1933 0086 4F71     		strb	r7, [r1, #5]
 1934 0088 1046     		mov	r0, r2
 1935 008a D5E7     		b	.L440
 1936              	.L436:
 1937 008c 1046     		mov	r0, r2
 1938 008e C3E7     		b	.L423
 1940              		.section	.text.disk_send_prg,"ax",%progbits
 1941              		.align	1
 1942              		.p2align 2,,3
 1943              		.syntax unified
 1944              		.thumb
 1945              		.thumb_func
 1946              		.fpu fpv5-sp-d16
 1948              	disk_send_prg:
ARM GAS  C:\Users\Jay\AppData\Local\Temp\ccjVRGue.s 			page 34


 1949              		@ args = 0, pretend = 0, frame = 0
 1950              		@ frame_needed = 0, uses_anonymous_args = 0
 1951              		@ link register save eliminated.
 1952 0000 0D4B     		ldr	r3, .L449
 1953 0002 10B4     		push	{r4}
 1954              	.L442:
 1955 0004 1A78     		ldrb	r2, [r3]	@ zero_extendqisi2
 1956 0006 002A     		cmp	r2, #0
 1957 0008 FCD1     		bne	.L442
 1958 000a 8022     		movs	r2, #128
 1959 000c 0B49     		ldr	r1, .L449+4
 1960 000e C4B2     		uxtb	r4, r0
 1961 0010 0A70     		strb	r2, [r1]
 1962 0012 1A70     		strb	r2, [r3]
 1963              	.L443:
 1964 0014 1A78     		ldrb	r2, [r3]	@ zero_extendqisi2
 1965 0016 002A     		cmp	r2, #0
 1966 0018 FCD1     		bne	.L443
 1967 001a 8022     		movs	r2, #128
 1968 001c C0F30720 		ubfx	r0, r0, #8, #8
 1969 0020 0C70     		strb	r4, [r1]
 1970 0022 1A70     		strb	r2, [r3]
 1971              	.L444:
 1972 0024 1A78     		ldrb	r2, [r3]	@ zero_extendqisi2
 1973 0026 002A     		cmp	r2, #0
 1974 0028 FCD1     		bne	.L444
 1975 002a 8022     		movs	r2, #128
 1976 002c 0870     		strb	r0, [r1]
 1977 002e 1A70     		strb	r2, [r3]
 1978 0030 5DF8044B 		ldr	r4, [sp], #4
 1979 0034 7047     		bx	lr
 1980              	.L450:
 1981 0036 00BF     		.align	2
 1982              	.L449:
 1983 0038 00000000 		.word	.LANCHOR9
 1984 003c 00000000 		.word	.LANCHOR10
 1986              		.section	.text.disk_send_prg_bank,"ax",%progbits
 1987              		.align	1
 1988              		.p2align 2,,3
 1989              		.syntax unified
 1990              		.thumb
 1991              		.thumb_func
 1992              		.fpu fpv5-sp-d16
 1994              	disk_send_prg_bank:
 1995              		@ args = 0, pretend = 0, frame = 0
 1996              		@ frame_needed = 0, uses_anonymous_args = 0
 1997              		@ link register save eliminated.
 1998 0000 0D4B     		ldr	r3, .L459
 1999 0002 30B4     		push	{r4, r5}
 2000              	.L452:
 2001 0004 1A78     		ldrb	r2, [r3]	@ zero_extendqisi2
 2002 0006 002A     		cmp	r2, #0
 2003 0008 FCD1     		bne	.L452
 2004 000a 0C49     		ldr	r1, .L459+4
 2005 000c 8124     		movs	r4, #129
 2006 000e 8022     		movs	r2, #128
 2007 0010 C5B2     		uxtb	r5, r0
ARM GAS  C:\Users\Jay\AppData\Local\Temp\ccjVRGue.s 			page 35


 2008 0012 0C70     		strb	r4, [r1]
 2009 0014 1A70     		strb	r2, [r3]
 2010              	.L453:
 2011 0016 1A78     		ldrb	r2, [r3]	@ zero_extendqisi2
 2012 0018 002A     		cmp	r2, #0
 2013 001a FCD1     		bne	.L453
 2014 001c 8022     		movs	r2, #128
 2015 001e C0F30720 		ubfx	r0, r0, #8, #8
 2016 0022 0D70     		strb	r5, [r1]
 2017 0024 1A70     		strb	r2, [r3]
 2018              	.L454:
 2019 0026 1A78     		ldrb	r2, [r3]	@ zero_extendqisi2
 2020 0028 002A     		cmp	r2, #0
 2021 002a FCD1     		bne	.L454
 2022 002c 8022     		movs	r2, #128
 2023 002e 0870     		strb	r0, [r1]
 2024 0030 1A70     		strb	r2, [r3]
 2025 0032 30BC     		pop	{r4, r5}
 2026 0034 7047     		bx	lr
 2027              	.L460:
 2028 0036 00BF     		.align	2
 2029              	.L459:
 2030 0038 00000000 		.word	.LANCHOR9
 2031 003c 00000000 		.word	.LANCHOR10
 2033              		.section	.text.c64_send_command,"ax",%progbits
 2034              		.align	1
 2035              		.p2align 2,,3
 2036              		.syntax unified
 2037              		.thumb
 2038              		.thumb_func
 2039              		.fpu fpv5-sp-d16
 2041              	c64_send_command:
 2042              		@ args = 0, pretend = 0, frame = 8
 2043              		@ frame_needed = 0, uses_anonymous_args = 0
 2044 0000 F0B5     		push	{r4, r5, r6, r7, lr}
 2045 0002 1B4C     		ldr	r4, .L475
 2046 0004 83B0     		sub	sp, sp, #12
 2047 0006 1B4A     		ldr	r2, .L475+4
 2048 0008 8027     		movs	r7, #128
 2049 000a 04F1080C 		add	ip, r4, #8
 2050 000e 1A4E     		ldr	r6, .L475+8
 2051              	.L463:
 2052 0010 14F8015B 		ldrb	r5, [r4], #1	@ zero_extendqisi2
 2053              	.L462:
 2054 0014 1378     		ldrb	r3, [r2]	@ zero_extendqisi2
 2055 0016 002B     		cmp	r3, #0
 2056 0018 FCD1     		bne	.L462
 2057 001a 6445     		cmp	r4, ip
 2058 001c 3570     		strb	r5, [r6]
 2059 001e 1770     		strb	r7, [r2]
 2060 0020 F6D1     		bne	.L463
 2061 0022 071D     		adds	r7, r0, #4
 2062 0024 8025     		movs	r5, #128
 2063              	.L465:
 2064 0026 10F8014B 		ldrb	r4, [r0], #1	@ zero_extendqisi2
 2065              	.L464:
 2066 002a 1378     		ldrb	r3, [r2]	@ zero_extendqisi2
ARM GAS  C:\Users\Jay\AppData\Local\Temp\ccjVRGue.s 			page 36


 2067 002c 002B     		cmp	r3, #0
 2068 002e FCD1     		bne	.L464
 2069 0030 B842     		cmp	r0, r7
 2070 0032 3470     		strb	r4, [r6]
 2071 0034 1570     		strb	r5, [r2]
 2072 0036 F6D1     		bne	.L465
 2073 0038 104A     		ldr	r2, .L475+12
 2074 003a 0DF10506 		add	r6, sp, #5
 2075 003e 104F     		ldr	r7, .L475+16
 2076 0040 6846     		mov	r0, sp
 2077 0042 4025     		movs	r5, #64
 2078              	.L466:
 2079 0044 1378     		ldrb	r3, [r2]	@ zero_extendqisi2
 2080 0046 03F0FF04 		and	r4, r3, #255
 2081 004a 002B     		cmp	r3, #0
 2082 004c FAD1     		bne	.L466
 2083 004e 3B78     		ldrb	r3, [r7]	@ zero_extendqisi2
 2084 0050 DBB2     		uxtb	r3, r3
 2085 0052 00F8013B 		strb	r3, [r0], #1
 2086 0056 B042     		cmp	r0, r6
 2087 0058 1570     		strb	r5, [r2]
 2088 005a F3D1     		bne	.L466
 2089 005c 6846     		mov	r0, sp
 2090 005e 8DF80540 		strb	r4, [sp, #5]
 2091 0062 FFF7FEFF 		bl	strcmp
 2092 0066 B0FA80F0 		clz	r0, r0
 2093 006a 4009     		lsrs	r0, r0, #5
 2094 006c 03B0     		add	sp, sp, #12
 2095              		@ sp needed
 2096 006e F0BD     		pop	{r4, r5, r6, r7, pc}
 2097              	.L476:
 2098              		.align	2
 2099              	.L475:
 2100 0070 00000000 		.word	.LC10
 2101 0074 00000000 		.word	.LANCHOR9
 2102 0078 00000000 		.word	.LANCHOR10
 2103 007c 00000000 		.word	.LANCHOR11
 2104 0080 00000000 		.word	.LANCHOR12
 2106              		.section	.text.c64_receive_command,"ax",%progbits
 2107              		.align	1
 2108              		.p2align 2,,3
 2109              		.syntax unified
 2110              		.thumb
 2111              		.thumb_func
 2112              		.fpu fpv5-sp-d16
 2114              	c64_receive_command:
 2115              		@ args = 0, pretend = 0, frame = 8
 2116              		@ frame_needed = 0, uses_anonymous_args = 0
 2117              		@ link register save eliminated.
 2118 0000 70B4     		push	{r4, r5, r6}
 2119 0002 83B0     		sub	sp, sp, #12
 2120 0004 0D4A     		ldr	r2, .L485
 2121 0006 0E4E     		ldr	r6, .L485+4
 2122 0008 4024     		movs	r4, #64
 2123 000a 6946     		mov	r1, sp
 2124 000c 0DF10505 		add	r5, sp, #5
 2125              	.L478:
ARM GAS  C:\Users\Jay\AppData\Local\Temp\ccjVRGue.s 			page 37


 2126 0010 1378     		ldrb	r3, [r2]	@ zero_extendqisi2
 2127 0012 03F0FF00 		and	r0, r3, #255
 2128 0016 002B     		cmp	r3, #0
 2129 0018 FAD1     		bne	.L478
 2130 001a 3378     		ldrb	r3, [r6]	@ zero_extendqisi2
 2131 001c DBB2     		uxtb	r3, r3
 2132 001e 01F8013B 		strb	r3, [r1], #1
 2133 0022 A942     		cmp	r1, r5
 2134 0024 1470     		strb	r4, [r2]
 2135 0026 F3D1     		bne	.L478
 2136 0028 064B     		ldr	r3, .L485+8
 2137 002a 009A     		ldr	r2, [sp]
 2138 002c 9A42     		cmp	r2, r3
 2139 002e 08BF     		it	eq
 2140 0030 9DF80400 		ldrbeq	r0, [sp, #4]	@ zero_extendqisi2
 2141 0034 03B0     		add	sp, sp, #12
 2142              		@ sp needed
 2143 0036 70BC     		pop	{r4, r5, r6}
 2144 0038 7047     		bx	lr
 2145              	.L486:
 2146 003a 00BF     		.align	2
 2147              	.L485:
 2148 003c 00000000 		.word	.LANCHOR11
 2149 0040 00000000 		.word	.LANCHOR12
 2150 0044 4B46463A 		.word	977684043
 2152              		.section	.text.prg_load_file,"ax",%progbits
 2153              		.align	1
 2154              		.p2align 2,,3
 2155              		.syntax unified
 2156              		.thumb
 2157              		.thumb_func
 2158              		.fpu fpv5-sp-d16
 2160              	prg_load_file:
 2161              		@ args = 0, pretend = 0, frame = 8
 2162              		@ frame_needed = 0, uses_anonymous_args = 0
 2163 0000 00B5     		push	{lr}
 2164 0002 83B0     		sub	sp, sp, #12
 2165 0004 4FF48032 		mov	r2, #65536
 2166 0008 0F49     		ldr	r1, .L492
 2167 000a 01AB     		add	r3, sp, #4
 2168 000c FFF7FEFF 		bl	f_read
 2169 0010 58B1     		cbz	r0, .L488
 2170 0012 0E4B     		ldr	r3, .L492+4
 2171 0014 4FF48002 		mov	r2, #4194304
 2172 0018 9A61     		str	r2, [r3, #24]
 2173              	.L489:
 2174 001a 0023     		movs	r3, #0
 2175 001c 0C4A     		ldr	r2, .L492+8
 2176 001e 1846     		mov	r0, r3
 2177 0020 D372     		strb	r3, [r2, #11]
 2178 0022 1373     		strb	r3, [r2, #12]
 2179 0024 03B0     		add	sp, sp, #12
 2180              		@ sp needed
 2181 0026 5DF804FB 		ldr	pc, [sp], #4
 2182              	.L488:
 2183 002a BDF80430 		ldrh	r3, [sp, #4]
 2184 002e 4FF48001 		mov	r1, #4194304
ARM GAS  C:\Users\Jay\AppData\Local\Temp\ccjVRGue.s 			page 38


 2185 0032 064A     		ldr	r2, .L492+4
 2186 0034 022B     		cmp	r3, #2
 2187 0036 9161     		str	r1, [r2, #24]
 2188 0038 EFD9     		bls	.L489
 2189 003a 054A     		ldr	r2, .L492+8
 2190 003c 0120     		movs	r0, #1
 2191 003e A2F80B30 		strh	r3, [r2, #11]	@ unaligned
 2192 0042 03B0     		add	sp, sp, #12
 2193              		@ sp needed
 2194 0044 5DF804FB 		ldr	pc, [sp], #4
 2195              	.L493:
 2196              		.align	2
 2197              	.L492:
 2198 0048 00000000 		.word	dat_buffer
 2199 004c 00100258 		.word	1476530176
 2200 0050 00000000 		.word	dat_file
 2202              		.section	.text.auto_boot,"ax",%progbits
 2203              		.align	1
 2204              		.p2align 2,,3
 2205              		.syntax unified
 2206              		.thumb
 2207              		.thumb_func
 2208              		.fpu fpv5-sp-d16
 2210              	auto_boot:
 2211              		@ args = 0, pretend = 0, frame = 560
 2212              		@ frame_needed = 0, uses_anonymous_args = 0
 2213 0000 10B5     		push	{r4, lr}
 2214 0002 ADF50C7D 		sub	sp, sp, #560
 2215 0006 0122     		movs	r2, #1
 2216 0008 3349     		ldr	r1, .L517
 2217 000a 02A8     		add	r0, sp, #8
 2218 000c FFF7FEFF 		bl	f_open
 2219 0010 38B3     		cbz	r0, .L495
 2220 0012 324B     		ldr	r3, .L517+4
 2221 0014 4FF48002 		mov	r2, #4194304
 2222 0018 9A61     		str	r2, [r3, #24]
 2223              	.L496:
 2224 001a 314C     		ldr	r4, .L517+8
 2225 001c 0021     		movs	r1, #0
 2226 001e 4FF48062 		mov	r2, #1024
 2227 0022 2046     		mov	r0, r4
 2228 0024 FFF7FEFF 		bl	memset
 2229 0028 2E4B     		ldr	r3, .L517+12
 2230 002a 03CB     		ldmia	r3!, {r0, r1}
 2231 002c 2060     		str	r0, [r4]	@ unaligned
 2232 002e 6160     		str	r1, [r4, #4]	@ unaligned
 2233              	.L500:
 2234 0030 02A8     		add	r0, sp, #8
 2235 0032 FFF7FEFF 		bl	f_close
 2236 0036 2949     		ldr	r1, .L517+4
 2237 0038 4FF48000 		mov	r0, #4194304
 2238 003c 2A4A     		ldr	r2, .L517+16
 2239 003e 2B4B     		ldr	r3, .L517+20
 2240 0040 8861     		str	r0, [r1, #24]
 2241 0042 1168     		ldr	r1, [r2]
 2242 0044 9942     		cmp	r1, r3
 2243 0046 38D0     		beq	.L516
ARM GAS  C:\Users\Jay\AppData\Local\Temp\ccjVRGue.s 			page 39


 2244              	.L501:
 2245 0048 294B     		ldr	r3, .L517+24
 2246 004a 1B69     		ldr	r3, [r3, #16]
 2247 004c DB06     		lsls	r3, r3, #27
 2248 004e 41D5     		bpl	.L507
 2249              	.L503:
 2250 0050 274B     		ldr	r3, .L517+24
 2251              	.L511:
 2252 0052 1869     		ldr	r0, [r3, #16]
 2253 0054 10F01000 		ands	r0, r0, #16
 2254 0058 FBD1     		bne	.L511
 2255 005a 1070     		strb	r0, [r2]
 2256              	.L514:
 2257 005c 0DF50C7D 		add	sp, sp, #560
 2258              		@ sp needed
 2259 0060 10BD     		pop	{r4, pc}
 2260              	.L495:
 2261 0062 0446     		mov	r4, r0
 2262 0064 4FF48062 		mov	r2, #1024
 2263 0068 1D49     		ldr	r1, .L517+8
 2264 006a 02A8     		add	r0, sp, #8
 2265 006c 01AB     		add	r3, sp, #4
 2266 006e FFF7FEFF 		bl	f_read
 2267 0072 00B1     		cbz	r0, .L506
 2268 0074 0194     		str	r4, [sp, #4]
 2269              	.L506:
 2270 0076 019B     		ldr	r3, [sp, #4]
 2271 0078 4FF48001 		mov	r1, #4194304
 2272 007c 174A     		ldr	r2, .L517+4
 2273 007e B3F5806F 		cmp	r3, #1024
 2274 0082 9161     		str	r1, [r2, #24]
 2275 0084 C9D1     		bne	.L496
 2276 0086 01AB     		add	r3, sp, #4
 2277 0088 4FF48032 		mov	r2, #65536
 2278 008c 1949     		ldr	r1, .L517+28
 2279 008e 02A8     		add	r0, sp, #8
 2280 0090 FFF7FEFF 		bl	f_read
 2281 0094 08B1     		cbz	r0, .L498
 2282 0096 0023     		movs	r3, #0
 2283 0098 0193     		str	r3, [sp, #4]
 2284              	.L498:
 2285 009a 019B     		ldr	r3, [sp, #4]
 2286 009c 4FF48001 		mov	r1, #4194304
 2287 00a0 0E4A     		ldr	r2, .L517+4
 2288 00a2 B3F5803F 		cmp	r3, #65536
 2289 00a6 9161     		str	r1, [r2, #24]
 2290 00a8 B7D1     		bne	.L496
 2291 00aa 0822     		movs	r2, #8
 2292 00ac 0C49     		ldr	r1, .L517+8
 2293 00ae 0D48     		ldr	r0, .L517+12
 2294 00b0 FFF7FEFF 		bl	memcmp
 2295 00b4 0028     		cmp	r0, #0
 2296 00b6 BBD0     		beq	.L500
 2297 00b8 AFE7     		b	.L496
 2298              	.L516:
 2299 00ba A3F1D153 		sub	r3, r3, #438304768
 2300 00be 5168     		ldr	r1, [r2, #4]
ARM GAS  C:\Users\Jay\AppData\Local\Temp\ccjVRGue.s 			page 40


 2301 00c0 A3F5A013 		sub	r3, r3, #1310720
 2302 00c4 053B     		subs	r3, r3, #5
 2303 00c6 9942     		cmp	r1, r3
 2304 00c8 BED1     		bne	.L501
 2305 00ca 0B4B     		ldr	r3, .L517+32
 2306 00cc 9168     		ldr	r1, [r2, #8]
 2307 00ce 9942     		cmp	r1, r3
 2308 00d0 BAD1     		bne	.L501
 2309 00d2 BDE7     		b	.L503
 2310              	.L507:
 2311 00d4 0120     		movs	r0, #1
 2312 00d6 C1E7     		b	.L514
 2313              	.L518:
 2314              		.align	2
 2315              	.L517:
 2316 00d8 00000000 		.word	.LC11
 2317 00dc 00100258 		.word	1476530176
 2318 00e0 00000000 		.word	dat_file
 2319 00e4 14000000 		.word	.LC12
 2320 00e8 00000100 		.word	scratch_buf
 2321 00ec 4B756E67 		.word	1735292235
 2322 00f0 00000258 		.word	1476526080
 2323 00f4 00000000 		.word	dat_buffer
 2324 00f8 656E7500 		.word	7695973
 2326              		.section	.text.d64_read_next_sector,"ax",%progbits
 2327              		.align	1
 2328              		.p2align 2,,3
 2329              		.syntax unified
 2330              		.thumb
 2331              		.thumb_func
 2332              		.fpu fpv5-sp-d16
 2334              	d64_read_next_sector:
 2335              		@ args = 0, pretend = 0, frame = 8
 2336              		@ frame_needed = 0, uses_anonymous_args = 0
 2337 0000 F0B5     		push	{r4, r5, r6, r7, lr}
 2338 0002 90F82822 		ldrb	r2, [r0, #552]	@ zero_extendqisi2
 2339 0006 0546     		mov	r5, r0
 2340 0008 83B0     		sub	sp, sp, #12
 2341 000a 0C46     		mov	r4, r1
 2342 000c 032A     		cmp	r2, #3
 2343 000e 0B78     		ldrb	r3, [r1]	@ zero_extendqisi2
 2344 0010 4878     		ldrb	r0, [r1, #1]	@ zero_extendqisi2
 2345 0012 1CD0     		beq	.L537
 2346 0014 232B     		cmp	r3, #35
 2347 0016 01D9     		bls	.L528
 2348 0018 022A     		cmp	r2, #2
 2349 001a 34D0     		beq	.L538
 2350              	.L528:
 2351 001c 0021     		movs	r1, #0
 2352              	.L522:
 2353 001e 013B     		subs	r3, r3, #1
 2354 0020 DAB2     		uxtb	r2, r3
 2355 0022 292A     		cmp	r2, #41
 2356 0024 0CD9     		bls	.L539
 2357              	.L529:
 2358 0026 0021     		movs	r1, #0
 2359              	.L521:
ARM GAS  C:\Users\Jay\AppData\Local\Temp\ccjVRGue.s 			page 41


 2360 0028 194E     		ldr	r6, .L541
 2361 002a 4FF48007 		mov	r7, #4194304
 2362 002e 2846     		mov	r0, r5
 2363 0030 FFF7FEFF 		bl	f_lseek
 2364 0034 B761     		str	r7, [r6, #24]
 2365 0036 A0B1     		cbz	r0, .L523
 2366              	.L526:
 2367 0038 0020     		movs	r0, #0
 2368 003a 2070     		strb	r0, [r4]
 2369 003c 03B0     		add	sp, sp, #12
 2370              		@ sp needed
 2371 003e F0BD     		pop	{r4, r5, r6, r7, pc}
 2372              	.L539:
 2373 0040 144A     		ldr	r2, .L541+4
 2374 0042 32F81330 		ldrh	r3, [r2, r3, lsl #1]
 2375 0046 1844     		add	r0, r0, r3
 2376 0048 01EB0021 		add	r1, r1, r0, lsl #8
 2377 004c ECE7     		b	.L521
 2378              	.L537:
 2379 004e 013B     		subs	r3, r3, #1
 2380 0050 DAB2     		uxtb	r2, r3
 2381 0052 4F2A     		cmp	r2, #79
 2382 0054 E7D8     		bhi	.L529
 2383 0056 03EB8303 		add	r3, r3, r3, lsl #2
 2384 005a 00EBC303 		add	r3, r0, r3, lsl #3
 2385 005e 1902     		lsls	r1, r3, #8
 2386 0060 E2E7     		b	.L521
 2387              	.L523:
 2388 0062 2846     		mov	r0, r5
 2389 0064 01AB     		add	r3, sp, #4
 2390 0066 4FF48072 		mov	r2, #256
 2391 006a 2146     		mov	r1, r4
 2392 006c FFF7FEFF 		bl	f_read
 2393 0070 38B9     		cbnz	r0, .L540
 2394 0072 019B     		ldr	r3, [sp, #4]
 2395 0074 B761     		str	r7, [r6, #24]
 2396 0076 B3F5807F 		cmp	r3, #256
 2397 007a DDD1     		bne	.L526
 2398 007c 0120     		movs	r0, #1
 2399 007e 03B0     		add	sp, sp, #12
 2400              		@ sp needed
 2401 0080 F0BD     		pop	{r4, r5, r6, r7, pc}
 2402              	.L540:
 2403 0082 B761     		str	r7, [r6, #24]
 2404 0084 D8E7     		b	.L526
 2405              	.L538:
 2406 0086 233B     		subs	r3, r3, #35
 2407 0088 0349     		ldr	r1, .L541+8
 2408 008a DBB2     		uxtb	r3, r3
 2409 008c C7E7     		b	.L522
 2410              	.L542:
 2411 008e 00BF     		.align	2
 2412              	.L541:
 2413 0090 00100258 		.word	1476530176
 2414 0094 00000000 		.word	.LANCHOR14
 2415 0098 00AB0200 		.word	174848
 2417              		.section	.text.d64_read_dir,"ax",%progbits
ARM GAS  C:\Users\Jay\AppData\Local\Temp\ccjVRGue.s 			page 42


 2418              		.align	1
 2419              		.p2align 2,,3
 2420              		.syntax unified
 2421              		.thumb
 2422              		.thumb_func
 2423              		.fpu fpv5-sp-d16
 2425              	d64_read_dir:
 2426              		@ args = 0, pretend = 0, frame = 0
 2427              		@ frame_needed = 0, uses_anonymous_args = 0
 2428 0000 2DE9F041 		push	{r4, r5, r6, r7, r8, lr}
 2429 0004 0546     		mov	r5, r0
 2430 0006 0027     		movs	r7, #0
 2431 0008 00F20A38 		addw	r8, r0, #778
 2432 000c 00F22A26 		addw	r6, r0, #554
 2433              	.L544:
 2434 0010 D5F83043 		ldr	r4, [r5, #816]
 2435 0014 3146     		mov	r1, r6
 2436 0016 2846     		mov	r0, r5
 2437 0018 2034     		adds	r4, r4, #32
 2438 001a 4445     		cmp	r4, r8
 2439 001c 11D8     		bhi	.L545
 2440              	.L559:
 2441 001e C5F83043 		str	r4, [r5, #816]
 2442              	.L546:
 2443 0022 6079     		ldrb	r0, [r4, #5]	@ zero_extendqisi2
 2444 0024 A028     		cmp	r0, #160
 2445 0026 18BF     		it	ne
 2446 0028 0028     		cmpne	r0, #0
 2447 002a 14BF     		ite	ne
 2448 002c 0120     		movne	r0, #1
 2449 002e 0020     		moveq	r0, #0
 2450 0030 1CD1     		bne	.L550
 2451 0032 6075     		strb	r0, [r4, #21]
 2452 0034 3146     		mov	r1, r6
 2453 0036 D5F83043 		ldr	r4, [r5, #816]
 2454 003a 2846     		mov	r0, r5
 2455 003c 2034     		adds	r4, r4, #32
 2456 003e 4445     		cmp	r4, r8
 2457 0040 EDD9     		bls	.L559
 2458              	.L545:
 2459 0042 95F82A32 		ldrb	r3, [r5, #554]	@ zero_extendqisi2
 2460 0046 3446     		mov	r4, r6
 2461 0048 C5F83063 		str	r6, [r5, #816]
 2462 004c 5BB1     		cbz	r3, .L549
 2463 004e 95F82932 		ldrb	r3, [r5, #553]	@ zero_extendqisi2
 2464 0052 272B     		cmp	r3, #39
 2465 0054 03F10102 		add	r2, r3, #1
 2466 0058 05D8     		bhi	.L549
 2467 005a 85F82922 		strb	r2, [r5, #553]
 2468 005e FFF7FEFF 		bl	d64_read_next_sector
 2469 0062 0028     		cmp	r0, #0
 2470 0064 DDD1     		bne	.L546
 2471              	.L549:
 2472 0066 0020     		movs	r0, #0
 2473 0068 BDE8F081 		pop	{r4, r5, r6, r7, r8, pc}
 2474              	.L550:
 2475 006c A378     		ldrb	r3, [r4, #2]	@ zero_extendqisi2
ARM GAS  C:\Users\Jay\AppData\Local\Temp\ccjVRGue.s 			page 43


 2476 006e 6775     		strb	r7, [r4, #21]
 2477 0070 002B     		cmp	r3, #0
 2478 0072 CDD0     		beq	.L544
 2479 0074 BDE8F081 		pop	{r4, r5, r6, r7, r8, pc}
 2481              		.section	.text.save_dat,"ax",%progbits
 2482              		.align	1
 2483              		.p2align 2,,3
 2484              		.syntax unified
 2485              		.thumb
 2486              		.thumb_func
 2487              		.fpu fpv5-sp-d16
 2489              	save_dat:
 2490              		@ args = 0, pretend = 0, frame = 560
 2491              		@ frame_needed = 0, uses_anonymous_args = 0
 2492 0000 10B5     		push	{r4, lr}
 2493 0002 ADF50C7D 		sub	sp, sp, #560
 2494 0006 0A22     		movs	r2, #10
 2495 0008 1E49     		ldr	r1, .L574
 2496 000a 02A8     		add	r0, sp, #8
 2497 000c FFF7FEFF 		bl	f_open
 2498 0010 40B1     		cbz	r0, .L561
 2499 0012 1D4B     		ldr	r3, .L574+4
 2500 0014 4FF48002 		mov	r2, #4194304
 2501 0018 0024     		movs	r4, #0
 2502 001a 9A61     		str	r2, [r3, #24]
 2503              	.L571:
 2504 001c 2046     		mov	r0, r4
 2505 001e 0DF50C7D 		add	sp, sp, #560
 2506              		@ sp needed
 2507 0022 10BD     		pop	{r4, pc}
 2508              	.L561:
 2509 0024 0446     		mov	r4, r0
 2510 0026 4FF48062 		mov	r2, #1024
 2511 002a 1849     		ldr	r1, .L574+8
 2512 002c 02A8     		add	r0, sp, #8
 2513 002e 01AB     		add	r3, sp, #4
 2514 0030 FFF7FEFF 		bl	f_write
 2515 0034 80B9     		cbnz	r0, .L565
 2516              	.L566:
 2517 0036 019B     		ldr	r3, [sp, #4]
 2518 0038 4FF48001 		mov	r1, #4194304
 2519 003c 124A     		ldr	r2, .L574+4
 2520 003e B3F5806F 		cmp	r3, #1024
 2521 0042 9161     		str	r1, [r2, #24]
 2522 0044 0AD0     		beq	.L573
 2523 0046 0024     		movs	r4, #0
 2524              	.L563:
 2525 0048 02A8     		add	r0, sp, #8
 2526 004a FFF7FEFF 		bl	f_close
 2527 004e 0E4B     		ldr	r3, .L574+4
 2528 0050 4FF48002 		mov	r2, #4194304
 2529 0054 9A61     		str	r2, [r3, #24]
 2530 0056 E1E7     		b	.L571
 2531              	.L565:
 2532 0058 0194     		str	r4, [sp, #4]
 2533 005a ECE7     		b	.L566
 2534              	.L573:
ARM GAS  C:\Users\Jay\AppData\Local\Temp\ccjVRGue.s 			page 44


 2535 005c 01AB     		add	r3, sp, #4
 2536 005e 4FF48032 		mov	r2, #65536
 2537 0062 0B49     		ldr	r1, .L574+12
 2538 0064 02A8     		add	r0, sp, #8
 2539 0066 FFF7FEFF 		bl	f_write
 2540 006a 08B1     		cbz	r0, .L564
 2541 006c 0023     		movs	r3, #0
 2542 006e 0193     		str	r3, [sp, #4]
 2543              	.L564:
 2544 0070 019C     		ldr	r4, [sp, #4]
 2545 0072 4FF48002 		mov	r2, #4194304
 2546 0076 044B     		ldr	r3, .L574+4
 2547 0078 A4F58031 		sub	r1, r4, #65536
 2548 007c 9A61     		str	r2, [r3, #24]
 2549 007e 4C42     		rsbs	r4, r1, #0
 2550 0080 4C41     		adcs	r4, r4, r1
 2551 0082 E1E7     		b	.L563
 2552              	.L575:
 2553              		.align	2
 2554              	.L574:
 2555 0084 00000000 		.word	.LC11
 2556 0088 00100258 		.word	1476530176
 2557 008c 00000000 		.word	dat_file
 2558 0090 00000000 		.word	dat_buffer
 2560              		.section	.text.usbd_process_eptx,"ax",%progbits
 2561              		.align	1
 2562              		.p2align 2,,3
 2563              		.syntax unified
 2564              		.thumb
 2565              		.thumb_func
 2566              		.fpu fpv5-sp-d16
 2568              	usbd_process_eptx:
 2569              		@ args = 0, pretend = 0, frame = 0
 2570              		@ frame_needed = 0, uses_anonymous_args = 0
 2571 0000 38B5     		push	{r3, r4, r5, lr}
 2572 0002 90F86330 		ldrb	r3, [r0, #99]	@ zero_extendqisi2
 2573 0006 0446     		mov	r4, r0
 2574 0008 023B     		subs	r3, r3, #2
 2575 000a 032B     		cmp	r3, #3
 2576 000c 25D8     		bhi	.L576
 2577 000e DFE803F0 		tbb	[pc, r3]
 2578              	.L579:
 2579 0012 02       		.byte	(.L578-.L579)/2
 2580 0013 02       		.byte	(.L578-.L579)/2
 2581 0014 2F       		.byte	(.L580-.L579)/2
 2582 0015 25       		.byte	(.L581-.L579)/2
 2583              		.p2align 1
 2584              	.L578:
 2585 0016 90F86050 		ldrb	r5, [r0, #96]	@ zero_extendqisi2
 2586 001a 0846     		mov	r0, r1
 2587 001c B4F85C20 		ldrh	r2, [r4, #92]
 2588 0020 2368     		ldr	r3, [r4]
 2589 0022 9542     		cmp	r5, r2
 2590 0024 A16D     		ldr	r1, [r4, #88]
 2591 0026 DB69     		ldr	r3, [r3, #28]
 2592 0028 28BF     		it	cs
 2593 002a 1546     		movcs	r5, r2
ARM GAS  C:\Users\Jay\AppData\Local\Temp\ccjVRGue.s 			page 45


 2594 002c 2A46     		mov	r2, r5
 2595 002e 9847     		blx	r3
 2596 0030 B4F85C30 		ldrh	r3, [r4, #92]
 2597 0034 A26D     		ldr	r2, [r4, #88]
 2598 0036 5B1B     		subs	r3, r3, r5
 2599 0038 2A44     		add	r2, r2, r5
 2600 003a 9BB2     		uxth	r3, r3
 2601 003c A265     		str	r2, [r4, #88]
 2602 003e A4F85C30 		strh	r3, [r4, #92]	@ movhi
 2603 0042 53B9     		cbnz	r3, .L576
 2604 0044 94F86330 		ldrb	r3, [r4, #99]	@ zero_extendqisi2
 2605 0048 022B     		cmp	r3, #2
 2606 004a 03D0     		beq	.L583
 2607 004c 94F86030 		ldrb	r3, [r4, #96]	@ zero_extendqisi2
 2608 0050 AB42     		cmp	r3, r5
 2609 0052 02D0     		beq	.L576
 2610              	.L583:
 2611 0054 0423     		movs	r3, #4
 2612 0056 84F86330 		strb	r3, [r4, #99]
 2613              	.L576:
 2614 005a 38BD     		pop	{r3, r4, r5, pc}
 2615              	.L581:
 2616 005c 0025     		movs	r5, #0
 2617 005e 8368     		ldr	r3, [r0, #8]
 2618 0060 80F86350 		strb	r5, [r0, #99]
 2619 0064 002B     		cmp	r3, #0
 2620 0066 F8D0     		beq	.L576
 2621 0068 416D     		ldr	r1, [r0, #84]
 2622 006a 9847     		blx	r3
 2623 006c A560     		str	r5, [r4, #8]
 2624 006e 38BD     		pop	{r3, r4, r5, pc}
 2625              	.L580:
 2626 0070 0623     		movs	r3, #6
 2627 0072 80F86330 		strb	r3, [r0, #99]
 2628 0076 38BD     		pop	{r3, r4, r5, pc}
 2630              		.section	.text.usbd_process_ep0,"ax",%progbits
 2631              		.align	1
 2632              		.p2align 2,,3
 2633              		.syntax unified
 2634              		.thumb
 2635              		.thumb_func
 2636              		.fpu fpv5-sp-d16
 2638              	usbd_process_ep0:
 2639              		@ args = 0, pretend = 0, frame = 0
 2640              		@ frame_needed = 0, uses_anonymous_args = 0
 2641 0000 0529     		cmp	r1, #5
 2642 0002 2DE9F041 		push	{r4, r5, r6, r7, r8, lr}
 2643 0006 1546     		mov	r5, r2
 2644 0008 0446     		mov	r4, r0
 2645 000a 29D0     		beq	.L594
 2646 000c 0629     		cmp	r1, #6
 2647 000e 08D0     		beq	.L595
 2648 0010 0429     		cmp	r1, #4
 2649 0012 01D0     		beq	.L652
 2650              	.L592:
 2651 0014 BDE8F081 		pop	{r4, r5, r6, r7, r8, pc}
 2652              	.L652:
ARM GAS  C:\Users\Jay\AppData\Local\Temp\ccjVRGue.s 			page 46


 2653 0018 1146     		mov	r1, r2
 2654 001a BDE8F041 		pop	{r4, r5, r6, r7, r8, lr}
 2655 001e FFF7FEBF 		b	usbd_process_eptx
 2656              	.L595:
 2657 0022 0022     		movs	r2, #0
 2658 0024 476D     		ldr	r7, [r0, #84]
 2659 0026 0368     		ldr	r3, [r0]
 2660 0028 80F86320 		strb	r2, [r0, #99]
 2661 002c 8260     		str	r2, [r0, #8]
 2662              	.L597:
 2663 002e 9B69     		ldr	r3, [r3, #24]
 2664 0030 3946     		mov	r1, r7
 2665 0032 B4F85E20 		ldrh	r2, [r4, #94]
 2666 0036 2846     		mov	r0, r5
 2667 0038 9847     		blx	r3
 2668 003a 0828     		cmp	r0, #8
 2669 003c 4CD0     		beq	.L601
 2670 003e 2368     		ldr	r3, [r4]
 2671 0040 0121     		movs	r1, #1
 2672 0042 05F07F00 		and	r0, r5, #127
 2673 0046 1B6A     		ldr	r3, [r3, #32]
 2674              	.L651:
 2675 0048 9847     		blx	r3
 2676 004a 2368     		ldr	r3, [r4]
 2677 004c 45F08000 		orr	r0, r5, #128
 2678 0050 0121     		movs	r1, #1
 2679 0052 1B6A     		ldr	r3, [r3, #32]
 2680 0054 9847     		blx	r3
 2681 0056 0023     		movs	r3, #0
 2682 0058 84F86330 		strb	r3, [r4, #99]
 2683 005c BDE8F081 		pop	{r4, r5, r6, r7, r8, pc}
 2684              	.L594:
 2685 0060 90F86360 		ldrb	r6, [r0, #99]	@ zero_extendqisi2
 2686 0064 476D     		ldr	r7, [r0, #84]
 2687 0066 012E     		cmp	r6, #1
 2688 0068 0368     		ldr	r3, [r0]
 2689 006a 13D0     		beq	.L599
 2690 006c DFD3     		bcc	.L597
 2691 006e 062E     		cmp	r6, #6
 2692 0070 2DD1     		bne	.L645
 2693 0072 0022     		movs	r2, #0
 2694 0074 9B69     		ldr	r3, [r3, #24]
 2695 0076 2846     		mov	r0, r5
 2696 0078 1146     		mov	r1, r2
 2697 007a 1546     		mov	r5, r2
 2698 007c 9847     		blx	r3
 2699 007e A368     		ldr	r3, [r4, #8]
 2700 0080 84F86350 		strb	r5, [r4, #99]
 2701 0084 002B     		cmp	r3, #0
 2702 0086 C5D0     		beq	.L592
 2703 0088 616D     		ldr	r1, [r4, #84]
 2704 008a 2046     		mov	r0, r4
 2705 008c 9847     		blx	r3
 2706 008e A560     		str	r5, [r4, #8]
 2707 0090 BDE8F081 		pop	{r4, r5, r6, r7, r8, pc}
 2708              	.L599:
 2709 0094 9B69     		ldr	r3, [r3, #24]
ARM GAS  C:\Users\Jay\AppData\Local\Temp\ccjVRGue.s 			page 47


 2710 0096 1046     		mov	r0, r2
 2711 0098 A16D     		ldr	r1, [r4, #88]
 2712 009a B4F85C20 		ldrh	r2, [r4, #92]
 2713 009e 9847     		blx	r3
 2714 00a0 B4F85C30 		ldrh	r3, [r4, #92]
 2715 00a4 82B2     		uxth	r2, r0
 2716 00a6 9A42     		cmp	r2, r3
 2717 00a8 3AD9     		bls	.L604
 2718 00aa 2368     		ldr	r3, [r4]
 2719 00ac 3146     		mov	r1, r6
 2720 00ae 05F07F00 		and	r0, r5, #127
 2721 00b2 1B6A     		ldr	r3, [r3, #32]
 2722 00b4 9847     		blx	r3
 2723 00b6 2368     		ldr	r3, [r4]
 2724 00b8 3146     		mov	r1, r6
 2725 00ba 45F08000 		orr	r0, r5, #128
 2726 00be 1B6A     		ldr	r3, [r3, #32]
 2727 00c0 9847     		blx	r3
 2728 00c2 0023     		movs	r3, #0
 2729 00c4 84F86330 		strb	r3, [r4, #99]
 2730 00c8 BDE8F081 		pop	{r4, r5, r6, r7, r8, pc}
 2731              	.L650:
 2732 00cc 2368     		ldr	r3, [r4]
 2733              	.L645:
 2734 00ce 1B6A     		ldr	r3, [r3, #32]
 2735 00d0 0121     		movs	r1, #1
 2736 00d2 05F07F00 		and	r0, r5, #127
 2737 00d6 B7E7     		b	.L651
 2738              	.L601:
 2739 00d8 FB88     		ldrh	r3, [r7, #6]
 2740 00da 07F10806 		add	r6, r7, #8
 2741 00de B4F85E20 		ldrh	r2, [r4, #94]
 2742 00e2 A665     		str	r6, [r4, #88]
 2743 00e4 A4F85C30 		strh	r3, [r4, #92]	@ movhi
 2744 00e8 3978     		ldrb	r1, [r7]	@ zero_extendqisi2
 2745 00ea C909     		lsrs	r1, r1, #7
 2746 00ec 25D1     		bne	.L602
 2747 00ee B3FA83F8 		clz	r8, r3
 2748 00f2 4FEA5818 		lsr	r8, r8, #5
 2749 00f6 B8F1000F 		cmp	r8, #0
 2750 00fa 1ED1     		bne	.L602
 2751 00fc 9342     		cmp	r3, r2
 2752 00fe 40F2BA80 		bls	.L603
 2753 0102 2368     		ldr	r3, [r4]
 2754 0104 0121     		movs	r1, #1
 2755 0106 05F07F00 		and	r0, r5, #127
 2756 010a 1B6A     		ldr	r3, [r3, #32]
 2757 010c 9847     		blx	r3
 2758 010e 2368     		ldr	r3, [r4]
 2759 0110 45F08000 		orr	r0, r5, #128
 2760 0114 0121     		movs	r1, #1
 2761 0116 1B6A     		ldr	r3, [r3, #32]
 2762 0118 9847     		blx	r3
 2763 011a 84F86380 		strb	r8, [r4, #99]
 2764 011e 79E7     		b	.L592
 2765              	.L604:
 2766 0120 07D0     		beq	.L653
ARM GAS  C:\Users\Jay\AppData\Local\Temp\ccjVRGue.s 			page 48


 2767 0122 A16D     		ldr	r1, [r4, #88]
 2768 0124 9B1A     		subs	r3, r3, r2
 2769 0126 11FA80F0 		uxtah	r0, r1, r0
 2770 012a A4F85C30 		strh	r3, [r4, #92]	@ movhi
 2771 012e A065     		str	r0, [r4, #88]
 2772 0130 70E7     		b	.L592
 2773              	.L653:
 2774 0132 07F10806 		add	r6, r7, #8
 2775 0136 B4F85E20 		ldrh	r2, [r4, #94]
 2776              	.L602:
 2777 013a 6368     		ldr	r3, [r4, #4]
 2778 013c A665     		str	r6, [r4, #88]
 2779 013e A4F85C20 		strh	r2, [r4, #92]	@ movhi
 2780 0142 2BB1     		cbz	r3, .L612
 2781 0144 04F10802 		add	r2, r4, #8
 2782 0148 3946     		mov	r1, r7
 2783 014a 2046     		mov	r0, r4
 2784 014c 9847     		blx	r3
 2785 014e 68BB     		cbnz	r0, .L611
 2786              	.L612:
 2787 0150 3B78     		ldrb	r3, [r7]	@ zero_extendqisi2
 2788 0152 03F06302 		and	r2, r3, #99
 2789 0156 012A     		cmp	r2, #1
 2790 0158 00F08580 		beq	.L608
 2791 015c 2ED3     		bcc	.L609
 2792 015e 022A     		cmp	r2, #2
 2793 0160 B4D1     		bne	.L650
 2794 0162 7A78     		ldrb	r2, [r7, #1]	@ zero_extendqisi2
 2795 0164 2368     		ldr	r3, [r4]
 2796 0166 012A     		cmp	r2, #1
 2797 0168 00F08980 		beq	.L628
 2798 016c C0F09D80 		bcc	.L629
 2799 0170 032A     		cmp	r2, #3
 2800 0172 ACD1     		bne	.L645
 2801 0174 1B6A     		ldr	r3, [r3, #32]
 2802 0176 0121     		movs	r1, #1
 2803 0178 3879     		ldrb	r0, [r7, #4]	@ zero_extendqisi2
 2804 017a 9847     		blx	r3
 2805 017c 3B78     		ldrb	r3, [r7]	@ zero_extendqisi2
 2806              	.L619:
 2807 017e 1B06     		lsls	r3, r3, #24
 2808 0180 45F08000 		orr	r0, r5, #128
 2809 0184 00F18180 		bmi	.L654
 2810 0188 2368     		ldr	r3, [r4]
 2811 018a 0022     		movs	r2, #0
 2812 018c DB69     		ldr	r3, [r3, #28]
 2813 018e 1146     		mov	r1, r2
 2814 0190 9847     		blx	r3
 2815 0192 0523     		movs	r3, #5
 2816 0194 84F86330 		strb	r3, [r4, #99]
 2817 0198 3CE7     		b	.L592
 2818              	.L620:
 2819 019a 2369     		ldr	r3, [r4, #16]
 2820 019c 002B     		cmp	r3, #0
 2821 019e 95D0     		beq	.L650
 2822 01a0 04F15C02 		add	r2, r4, #92
 2823 01a4 04F15801 		add	r1, r4, #88
ARM GAS  C:\Users\Jay\AppData\Local\Temp\ccjVRGue.s 			page 49


 2824 01a8 3846     		mov	r0, r7
 2825 01aa 9847     		blx	r3
 2826              	.L611:
 2827 01ac 0128     		cmp	r0, #1
 2828 01ae 60D0     		beq	.L631
 2829 01b0 0228     		cmp	r0, #2
 2830 01b2 8BD1     		bne	.L650
 2831 01b4 0523     		movs	r3, #5
 2832 01b6 84F86330 		strb	r3, [r4, #99]
 2833 01ba 2BE7     		b	.L592
 2834              	.L609:
 2835 01bc 7A78     		ldrb	r2, [r7, #1]	@ zero_extendqisi2
 2836 01be 092A     		cmp	r2, #9
 2837 01c0 84D8     		bhi	.L650
 2838 01c2 01A1     		adr	r1, .L614
 2839 01c4 51F822F0 		ldr	pc, [r1, r2, lsl #2]
 2840              		.p2align 2
 2841              	.L614:
 2842 01c8 37020000 		.word	.L613+1
 2843 01cc CD000000 		.word	.L650+1
 2844 01d0 CD000000 		.word	.L650+1
 2845 01d4 CD000000 		.word	.L650+1
 2846 01d8 CD000000 		.word	.L650+1
 2847 01dc 0B020000 		.word	.L615+1
 2848 01e0 F1010000 		.word	.L616+1
 2849 01e4 CD000000 		.word	.L650+1
 2850 01e8 2F020000 		.word	.L617+1
 2851 01ec 3D020000 		.word	.L618+1
 2852              		.p2align 1
 2853              	.L616:
 2854 01f0 7A88     		ldrh	r2, [r7, #2]
 2855 01f2 40F2FE33 		movw	r3, #1022
 2856 01f6 9A42     		cmp	r2, r3
 2857 01f8 CFD1     		bne	.L620
 2858 01fa 2368     		ldr	r3, [r4]
 2859 01fc 3046     		mov	r0, r6
 2860 01fe 1B6B     		ldr	r3, [r3, #48]
 2861 0200 9847     		blx	r3
 2862 0202 A4F85C00 		strh	r0, [r4, #92]	@ movhi
 2863 0206 3B78     		ldrb	r3, [r7]	@ zero_extendqisi2
 2864 0208 B9E7     		b	.L619
 2865              	.L615:
 2866 020a 2368     		ldr	r3, [r4]
 2867 020c 1B68     		ldr	r3, [r3]
 2868 020e 9847     		blx	r3
 2869 0210 C207     		lsls	r2, r0, #31
 2870 0212 56D5     		bpl	.L623
 2871 0214 2368     		ldr	r3, [r4]
 2872 0216 B878     		ldrb	r0, [r7, #2]	@ zero_extendqisi2
 2873 0218 DB68     		ldr	r3, [r3, #12]
 2874 021a 9847     		blx	r3
 2875 021c 7B88     		ldrh	r3, [r7, #2]
 2876 021e 002B     		cmp	r3, #0
 2877 0220 0CBF     		ite	eq
 2878 0222 0223     		moveq	r3, #2
 2879 0224 0323     		movne	r3, #3
 2880 0226 84F86230 		strb	r3, [r4, #98]
ARM GAS  C:\Users\Jay\AppData\Local\Temp\ccjVRGue.s 			page 50


 2881 022a 3B78     		ldrb	r3, [r7]	@ zero_extendqisi2
 2882 022c A7E7     		b	.L619
 2883              	.L617:
 2884 022e 94F86120 		ldrb	r2, [r4, #97]	@ zero_extendqisi2
 2885 0232 3A72     		strb	r2, [r7, #8]
 2886 0234 A3E7     		b	.L619
 2887              	.L613:
 2888 0236 0022     		movs	r2, #0
 2889 0238 3A81     		strh	r2, [r7, #8]	@ movhi
 2890 023a A0E7     		b	.L619
 2891              	.L618:
 2892 023c E368     		ldr	r3, [r4, #12]
 2893 023e BE78     		ldrb	r6, [r7, #2]	@ zero_extendqisi2
 2894 0240 002B     		cmp	r3, #0
 2895 0242 3FF443AF 		beq	.L650
 2896 0246 3146     		mov	r1, r6
 2897 0248 2046     		mov	r0, r4
 2898 024a 9847     		blx	r3
 2899 024c 0128     		cmp	r0, #1
 2900 024e 7FF43DAF 		bne	.L650
 2901 0252 002E     		cmp	r6, #0
 2902 0254 84F86160 		strb	r6, [r4, #97]
 2903 0258 0CBF     		ite	eq
 2904 025a 0323     		moveq	r3, #3
 2905 025c 0423     		movne	r3, #4
 2906 025e 84F86230 		strb	r3, [r4, #98]
 2907 0262 3B78     		ldrb	r3, [r7]	@ zero_extendqisi2
 2908 0264 8BE7     		b	.L619
 2909              	.L608:
 2910 0266 7A78     		ldrb	r2, [r7, #1]	@ zero_extendqisi2
 2911 0268 002A     		cmp	r2, #0
 2912 026a 7FF42FAF 		bne	.L650
 2913 026e 3A81     		strh	r2, [r7, #8]	@ movhi
 2914 0270 85E7     		b	.L619
 2915              	.L631:
 2916 0272 3B78     		ldrb	r3, [r7]	@ zero_extendqisi2
 2917 0274 83E7     		b	.L619
 2918              	.L603:
 2919 0276 0123     		movs	r3, #1
 2920 0278 84F86330 		strb	r3, [r4, #99]
 2921 027c CAE6     		b	.L592
 2922              	.L628:
 2923 027e 1B6A     		ldr	r3, [r3, #32]
 2924 0280 0021     		movs	r1, #0
 2925 0282 3879     		ldrb	r0, [r7, #4]	@ zero_extendqisi2
 2926 0284 9847     		blx	r3
 2927 0286 3B78     		ldrb	r3, [r7]	@ zero_extendqisi2
 2928 0288 79E7     		b	.L619
 2929              	.L654:
 2930 028a FB88     		ldrh	r3, [r7, #6]
 2931 028c B4F85C20 		ldrh	r2, [r4, #92]
 2932 0290 9A42     		cmp	r2, r3
 2933 0292 12D3     		bcc	.L634
 2934 0294 0222     		movs	r2, #2
 2935 0296 A4F85C30 		strh	r3, [r4, #92]	@ movhi
 2936 029a 84F86320 		strb	r2, [r4, #99]
 2937              	.L635:
ARM GAS  C:\Users\Jay\AppData\Local\Temp\ccjVRGue.s 			page 51


 2938 029e 0146     		mov	r1, r0
 2939 02a0 2046     		mov	r0, r4
 2940 02a2 BDE8F041 		pop	{r4, r5, r6, r7, r8, lr}
 2941 02a6 FFF7FEBF 		b	usbd_process_eptx
 2942              	.L629:
 2943 02aa 5B6A     		ldr	r3, [r3, #36]
 2944 02ac 3879     		ldrb	r0, [r7, #4]	@ zero_extendqisi2
 2945 02ae 9847     		blx	r3
 2946 02b0 0023     		movs	r3, #0
 2947 02b2 3872     		strb	r0, [r7, #8]
 2948 02b4 7B72     		strb	r3, [r7, #9]
 2949 02b6 3B78     		ldrb	r3, [r7]	@ zero_extendqisi2
 2950 02b8 61E7     		b	.L619
 2951              	.L634:
 2952 02ba 0323     		movs	r3, #3
 2953 02bc 84F86330 		strb	r3, [r4, #99]
 2954 02c0 EDE7     		b	.L635
 2955              	.L623:
 2956 02c2 024B     		ldr	r3, .L655
 2957 02c4 A360     		str	r3, [r4, #8]
 2958 02c6 3B78     		ldrb	r3, [r7]	@ zero_extendqisi2
 2959 02c8 59E7     		b	.L619
 2960              	.L656:
 2961 02ca 00BF     		.align	2
 2962              	.L655:
 2963 02cc 00000000 		.word	usbd_set_address
 2965              		.section	.text.getinfo,"ax",%progbits
 2966              		.align	1
 2967              		.p2align 2,,3
 2968              		.global	getinfo
 2969              		.syntax unified
 2970              		.thumb
 2971              		.thumb_func
 2972              		.fpu fpv5-sp-d16
 2974              	getinfo:
 2975              		@ args = 0, pretend = 0, frame = 0
 2976              		@ frame_needed = 0, uses_anonymous_args = 0
 2977              		@ link register save eliminated.
 2978 0000 074B     		ldr	r3, .L661
 2979 0002 D3F8D830 		ldr	r3, [r3, #216]
 2980 0006 1B01     		lsls	r3, r3, #4
 2981 0008 07D5     		bpl	.L659
 2982 000a 064B     		ldr	r3, .L661+4
 2983 000c 5B68     		ldr	r3, [r3, #4]
 2984 000e 13F0020F 		tst	r3, #2
 2985 0012 0CBF     		ite	eq
 2986 0014 2920     		moveq	r0, #41
 2987 0016 0920     		movne	r0, #9
 2988 0018 7047     		bx	lr
 2989              	.L659:
 2990 001a 0120     		movs	r0, #1
 2991 001c 7047     		bx	lr
 2992              	.L662:
 2993 001e 00BF     		.align	2
 2994              	.L661:
 2995 0020 00440258 		.word	1476543488
 2996 0024 00080840 		.word	1074268160
ARM GAS  C:\Users\Jay\AppData\Local\Temp\ccjVRGue.s 			page 52


 2998              		.section	.text.ep_setstall,"ax",%progbits
 2999              		.align	1
 3000              		.p2align 2,,3
 3001              		.global	ep_setstall
 3002              		.syntax unified
 3003              		.thumb
 3004              		.thumb_func
 3005              		.fpu fpv5-sp-d16
 3007              	ep_setstall:
 3008              		@ args = 0, pretend = 0, frame = 0
 3009              		@ frame_needed = 0, uses_anonymous_args = 0
 3010              		@ link register save eliminated.
 3011 0000 0306     		lsls	r3, r0, #24
 3012 0002 0AD4     		bmi	.L677
 3013 0004 4001     		lsls	r0, r0, #5
 3014 0006 0F4A     		ldr	r2, .L678
 3015 0008 8358     		ldr	r3, [r0, r2]
 3016 000a 13F4004F 		tst	r3, #32768
 3017 000e 03D0     		beq	.L663
 3018 0010 91B1     		cbz	r1, .L668
 3019              	.L676:
 3020 0012 43F40013 		orr	r3, r3, #2097152
 3021              	.L669:
 3022 0016 8350     		str	r3, [r0, r2]
 3023              	.L663:
 3024 0018 7047     		bx	lr
 3025              	.L677:
 3026 001a 00F07F00 		and	r0, r0, #127
 3027 001e 0A4A     		ldr	r2, .L678+4
 3028 0020 4001     		lsls	r0, r0, #5
 3029 0022 8358     		ldr	r3, [r0, r2]
 3030 0024 13F4004F 		tst	r3, #32768
 3031 0028 F6D0     		beq	.L663
 3032 002a 0029     		cmp	r1, #0
 3033 002c F1D1     		bne	.L676
 3034 002e 23F0C153 		bic	r3, r3, #404750336
 3035 0032 43F0C053 		orr	r3, r3, #402653184
 3036 0036 EEE7     		b	.L669
 3037              	.L668:
 3038 0038 23F0A153 		bic	r3, r3, #337641472
 3039 003c 43F0A053 		orr	r3, r3, #335544320
 3040 0040 E9E7     		b	.L669
 3041              	.L679:
 3042 0042 00BF     		.align	2
 3043              	.L678:
 3044 0044 000B0840 		.word	1074268928
 3045 0048 00090840 		.word	1074268416
 3047              		.section	.text.ep_isstalled,"ax",%progbits
 3048              		.align	1
 3049              		.p2align 2,,3
 3050              		.global	ep_isstalled
 3051              		.syntax unified
 3052              		.thumb
 3053              		.thumb_func
 3054              		.fpu fpv5-sp-d16
 3056              	ep_isstalled:
 3057              		@ args = 0, pretend = 0, frame = 0
ARM GAS  C:\Users\Jay\AppData\Local\Temp\ccjVRGue.s 			page 53


 3058              		@ frame_needed = 0, uses_anonymous_args = 0
 3059              		@ link register save eliminated.
 3060 0000 0306     		lsls	r3, r0, #24
 3061 0002 05D4     		bmi	.L683
 3062 0004 064B     		ldr	r3, .L684
 3063 0006 4001     		lsls	r0, r0, #5
 3064 0008 C058     		ldr	r0, [r0, r3]
 3065 000a C0F34050 		ubfx	r0, r0, #21, #1
 3066 000e 7047     		bx	lr
 3067              	.L683:
 3068 0010 00F07F00 		and	r0, r0, #127
 3069 0014 034B     		ldr	r3, .L684+4
 3070 0016 4001     		lsls	r0, r0, #5
 3071 0018 C058     		ldr	r0, [r0, r3]
 3072 001a C0F34050 		ubfx	r0, r0, #21, #1
 3073 001e 7047     		bx	lr
 3074              	.L685:
 3075              		.align	2
 3076              	.L684:
 3077 0020 000B0840 		.word	1074268928
 3078 0024 00090840 		.word	1074268416
 3080              		.section	.text.enable,"ax",%progbits
 3081              		.align	1
 3082              		.p2align 2,,3
 3083              		.global	enable
 3084              		.syntax unified
 3085              		.thumb
 3086              		.thumb_func
 3087              		.fpu fpv5-sp-d16
 3089              	enable:
 3090              		@ args = 0, pretend = 0, frame = 0
 3091              		@ frame_needed = 0, uses_anonymous_args = 0
 3092              		@ link register save eliminated.
 3093 0000 0028     		cmp	r0, #0
 3094 0002 34D0     		beq	.L687
 3095 0004 294A     		ldr	r2, .L698
 3096 0006 D2F8D830 		ldr	r3, [r2, #216]
 3097 000a 43F00063 		orr	r3, r3, #134217728
 3098 000e F0B4     		push	{r4, r5, r6, r7}
 3099 0010 C2F8D830 		str	r3, [r2, #216]
 3100              		.syntax unified
 3101              	@ 878 "stm32h7xx/cmsis/cmsis_gcc.h" 1
 3102 0014 BFF34F8F 		dsb 0xF
 3103              	@ 0 "" 2
 3104              		.thumb
 3105              		.syntax unified
 3106 0018 254B     		ldr	r3, .L698+4
 3107              	.L688:
 3108 001a 1A69     		ldr	r2, [r3, #16]
 3109 001c 002A     		cmp	r2, #0
 3110 001e FCDA     		bge	.L688
 3111 0020 D868     		ldr	r0, [r3, #12]
 3112 0022 4FF40025 		mov	r5, #524288
 3113 0026 234A     		ldr	r2, .L698+8
 3114 0028 0024     		movs	r4, #0
 3115 002a 2349     		ldr	r1, .L698+12
 3116 002c 3427     		movs	r7, #52
ARM GAS  C:\Users\Jay\AppData\Local\Temp\ccjVRGue.s 			page 54


 3117 002e 0240     		ands	r2, r2, r0
 3118 0030 2248     		ldr	r0, .L698+16
 3119 0032 234E     		ldr	r6, .L698+20
 3120 0034 1143     		orrs	r1, r1, r2
 3121 0036 234A     		ldr	r2, .L698+24
 3122 0038 D960     		str	r1, [r3, #12]
 3123 003a 9D63     		str	r5, [r3, #56]
 3124 003c 0125     		movs	r5, #1
 3125 003e 0460     		str	r4, [r0]
 3126 0040 5068     		ldr	r0, [r2, #4]
 3127 0042 2149     		ldr	r1, .L698+28
 3128 0044 40F00200 		orr	r0, r0, #2
 3129 0048 204C     		ldr	r4, .L698+32
 3130 004a 5060     		str	r0, [r2, #4]
 3131 004c 1068     		ldr	r0, [r2]
 3132 004e 0140     		ands	r1, r1, r0
 3133 0050 4FF0FF30 		mov	r0, #-1
 3134 0054 41F00301 		orr	r1, r1, #3
 3135 0058 1160     		str	r1, [r2]
 3136 005a 5F62     		str	r7, [r3, #36]
 3137 005c 9E62     		str	r6, [r3, #40]
 3138 005e 1561     		str	r5, [r2, #16]
 3139 0060 9C61     		str	r4, [r3, #24]
 3140 0062 5861     		str	r0, [r3, #20]
 3141 0064 9A68     		ldr	r2, [r3, #8]
 3142 0066 2A43     		orrs	r2, r2, r5
 3143 0068 F0BC     		pop	{r4, r5, r6, r7}
 3144 006a 9A60     		str	r2, [r3, #8]
 3145 006c 7047     		bx	lr
 3146              	.L687:
 3147 006e 0F4B     		ldr	r3, .L698
 3148 0070 D3F8D820 		ldr	r2, [r3, #216]
 3149 0074 1201     		lsls	r2, r2, #4
 3150 0076 18D5     		bpl	.L695
 3151 0078 D3F88020 		ldr	r2, [r3, #128]
 3152 007c 42F00062 		orr	r2, r2, #134217728
 3153 0080 C3F88020 		str	r2, [r3, #128]
 3154              		.syntax unified
 3155              	@ 878 "stm32h7xx/cmsis/cmsis_gcc.h" 1
 3156 0084 BFF34F8F 		dsb 0xF
 3157              	@ 0 "" 2
 3158              		.thumb
 3159              		.syntax unified
 3160 0088 D3F88020 		ldr	r2, [r3, #128]
 3161 008c 22F00062 		bic	r2, r2, #134217728
 3162 0090 C3F88020 		str	r2, [r3, #128]
 3163              		.syntax unified
 3164              	@ 878 "stm32h7xx/cmsis/cmsis_gcc.h" 1
 3165 0094 BFF34F8F 		dsb 0xF
 3166              	@ 0 "" 2
 3167              		.thumb
 3168              		.syntax unified
 3169 0098 D3F8D820 		ldr	r2, [r3, #216]
 3170 009c 22F00062 		bic	r2, r2, #134217728
 3171 00a0 C3F8D820 		str	r2, [r3, #216]
 3172              		.syntax unified
 3173              	@ 878 "stm32h7xx/cmsis/cmsis_gcc.h" 1
ARM GAS  C:\Users\Jay\AppData\Local\Temp\ccjVRGue.s 			page 55


 3174 00a4 BFF34F8F 		dsb 0xF
 3175              	@ 0 "" 2
 3176              		.thumb
 3177              		.syntax unified
 3178 00a8 7047     		bx	lr
 3179              	.L695:
 3180 00aa 7047     		bx	lr
 3181              	.L699:
 3182              		.align	2
 3183              	.L698:
 3184 00ac 00440258 		.word	1476543488
 3185 00b0 00000840 		.word	1074266112
 3186 00b4 FFC2FFBF 		.word	-1073757441
 3187 00b8 00180040 		.word	1073747968
 3188 00bc 000E0840 		.word	1074269696
 3189 00c0 34001000 		.word	1048628
 3190 00c4 00080840 		.word	1074268160
 3191 00c8 FCFFFFFC 		.word	-50331652
 3192 00cc 10380480 		.word	-2147207152
 3194              		.section	.text.connect,"ax",%progbits
 3195              		.align	1
 3196              		.p2align 2,,3
 3197              		.global	connect
 3198              		.syntax unified
 3199              		.thumb
 3200              		.thumb_func
 3201              		.fpu fpv5-sp-d16
 3203              	connect:
 3204              		@ args = 0, pretend = 0, frame = 0
 3205              		@ frame_needed = 0, uses_anonymous_args = 0
 3206              		@ link register save eliminated.
 3207 0000 58B9     		cbnz	r0, .L703
 3208 0002 0C49     		ldr	r1, .L704
 3209 0004 0020     		movs	r0, #0
 3210 0006 0C4A     		ldr	r2, .L704+4
 3211 0008 4B68     		ldr	r3, [r1, #4]
 3212 000a 43F00203 		orr	r3, r3, #2
 3213 000e 4B60     		str	r3, [r1, #4]
 3214 0010 936B     		ldr	r3, [r2, #56]
 3215 0012 23F48033 		bic	r3, r3, #65536
 3216 0016 9363     		str	r3, [r2, #56]
 3217 0018 7047     		bx	lr
 3218              	.L703:
 3219 001a 0749     		ldr	r1, .L704+4
 3220 001c 0020     		movs	r0, #0
 3221 001e 054A     		ldr	r2, .L704
 3222 0020 8B6B     		ldr	r3, [r1, #56]
 3223 0022 43F48033 		orr	r3, r3, #65536
 3224 0026 8B63     		str	r3, [r1, #56]
 3225 0028 5368     		ldr	r3, [r2, #4]
 3226 002a 23F00203 		bic	r3, r3, #2
 3227 002e 5360     		str	r3, [r2, #4]
 3228 0030 7047     		bx	lr
 3229              	.L705:
 3230 0032 00BF     		.align	2
 3231              	.L704:
 3232 0034 00080840 		.word	1074268160
ARM GAS  C:\Users\Jay\AppData\Local\Temp\ccjVRGue.s 			page 56


 3233 0038 00000840 		.word	1074266112
 3235              		.section	.text.ep_config,"ax",%progbits
 3236              		.align	1
 3237              		.p2align 2,,3
 3238              		.global	ep_config
 3239              		.syntax unified
 3240              		.thumb
 3241              		.thumb_func
 3242              		.fpu fpv5-sp-d16
 3244              	ep_config:
 3245              		@ args = 0, pretend = 0, frame = 0
 3246              		@ frame_needed = 0, uses_anonymous_args = 0
 3247 0000 F8B5     		push	{r3, r4, r5, r6, r7, lr}
 3248 0002 80B9     		cbnz	r0, .L707
 3249 0004 082A     		cmp	r2, #8
 3250 0006 1ED9     		bls	.L721
 3251 0008 102A     		cmp	r2, #16
 3252 000a 52D9     		bls	.L722
 3253 000c 202A     		cmp	r2, #32
 3254 000e 3B4B     		ldr	r3, .L746
 3255 0010 3B4D     		ldr	r5, .L746+4
 3256 0012 3C4C     		ldr	r4, .L746+8
 3257 0014 98BF     		it	ls
 3258 0016 1D46     		movls	r5, r3
 3259 0018 3B4E     		ldr	r6, .L746+12
 3260 001a 84BF     		itt	hi
 3261 001c 4FF00444 		movhi	r4, #-2080374784
 3262 0020 4FF00066 		movhi	r6, #134217728
 3263 0024 12E0     		b	.L708
 3264              	.L707:
 3265 0026 0306     		lsls	r3, r0, #24
 3266 0028 1CD4     		bmi	.L743
 3267 002a 0229     		cmp	r1, #2
 3268 002c 4FEA4013 		lsl	r3, r0, #5
 3269 0030 364C     		ldr	r4, .L746+16
 3270 0032 50D0     		beq	.L719
 3271 0034 0629     		cmp	r1, #6
 3272 0036 4ED0     		beq	.L719
 3273 0038 0129     		cmp	r1, #1
 3274 003a 3ED0     		beq	.L744
 3275 003c 3449     		ldr	r1, .L746+20
 3276 003e 0120     		movs	r0, #1
 3277 0040 1143     		orrs	r1, r1, r2
 3278 0042 1951     		str	r1, [r3, r4]
 3279 0044 F8BD     		pop	{r3, r4, r5, r6, r7, pc}
 3280              	.L721:
 3281 0046 334C     		ldr	r4, .L746+24
 3282 0048 334D     		ldr	r5, .L746+28
 3283 004a 344E     		ldr	r6, .L746+32
 3284              	.L708:
 3285 004c 3449     		ldr	r1, .L746+36
 3286 004e 0120     		movs	r0, #1
 3287 0050 2E4A     		ldr	r2, .L746+16
 3288 0052 CB69     		ldr	r3, [r1, #28]
 3289 0054 334F     		ldr	r7, .L746+40
 3290 0056 43F00113 		orr	r3, r3, #65537
 3291 005a CB61     		str	r3, [r1, #28]
ARM GAS  C:\Users\Jay\AppData\Local\Temp\ccjVRGue.s 			page 57


 3292 005c 3E60     		str	r6, [r7]
 3293 005e 1561     		str	r5, [r2, #16]
 3294 0060 1460     		str	r4, [r2]
 3295 0062 F8BD     		pop	{r3, r4, r5, r6, r7, pc}
 3296              	.L743:
 3297 0064 0129     		cmp	r1, #1
 3298 0066 1546     		mov	r5, r2
 3299 0068 0E46     		mov	r6, r1
 3300 006a 00F07F04 		and	r4, r0, #127
 3301 006e 29D0     		beq	.L724
 3302 0070 0629     		cmp	r1, #6
 3303 0072 27D0     		beq	.L724
 3304 0074 1146     		mov	r1, r2
 3305 0076 2046     		mov	r0, r4
 3306 0078 FFF7FEFF 		bl	set_tx_fifo
 3307 007c 48B3     		cbz	r0, .L713
 3308              	.L717:
 3309 007e 284A     		ldr	r2, .L746+36
 3310 0080 0121     		movs	r1, #1
 3311 0082 022E     		cmp	r6, #2
 3312 0084 4FEA441C 		lsl	ip, r4, #5
 3313 0088 D069     		ldr	r0, [r2, #28]
 3314 008a 01FA04F3 		lsl	r3, r1, r4
 3315 008e 254F     		ldr	r7, .L746+40
 3316 0090 4FEA8454 		lsl	r4, r4, #22
 3317 0094 43EA0003 		orr	r3, r3, r0
 3318 0098 D361     		str	r3, [r2, #28]
 3319 009a 28D0     		beq	.L715
 3320 009c 062E     		cmp	r6, #6
 3321 009e 26D0     		beq	.L715
 3322 00a0 8E42     		cmp	r6, r1
 3323 00a2 1DD0     		beq	.L745
 3324 00a4 204B     		ldr	r3, .L746+44
 3325 00a6 0846     		mov	r0, r1
 3326 00a8 2B43     		orrs	r3, r3, r5
 3327 00aa 1C43     		orrs	r4, r4, r3
 3328 00ac 4CF80740 		str	r4, [ip, r7]
 3329 00b0 F8BD     		pop	{r3, r4, r5, r6, r7, pc}
 3330              	.L722:
 3331 00b2 1E4C     		ldr	r4, .L746+48
 3332 00b4 1E4D     		ldr	r5, .L746+52
 3333 00b6 1F4E     		ldr	r6, .L746+56
 3334 00b8 C8E7     		b	.L708
 3335              	.L744:
 3336 00ba 1F4D     		ldr	r5, .L746+60
 3337 00bc 0846     		mov	r0, r1
 3338 00be 1543     		orrs	r5, r5, r2
 3339 00c0 1D51     		str	r5, [r3, r4]
 3340 00c2 F8BD     		pop	{r3, r4, r5, r6, r7, pc}
 3341              	.L724:
 3342 00c4 6900     		lsls	r1, r5, #1
 3343 00c6 2046     		mov	r0, r4
 3344 00c8 89B2     		uxth	r1, r1
 3345 00ca FFF7FEFF 		bl	set_tx_fifo
 3346 00ce 0028     		cmp	r0, #0
 3347 00d0 D5D1     		bne	.L717
 3348              	.L713:
ARM GAS  C:\Users\Jay\AppData\Local\Temp\ccjVRGue.s 			page 58


 3349 00d2 0020     		movs	r0, #0
 3350 00d4 F8BD     		pop	{r3, r4, r5, r6, r7, pc}
 3351              	.L719:
 3352 00d6 1949     		ldr	r1, .L746+64
 3353 00d8 0120     		movs	r0, #1
 3354 00da 1143     		orrs	r1, r1, r2
 3355 00dc 1951     		str	r1, [r3, r4]
 3356 00de F8BD     		pop	{r3, r4, r5, r6, r7, pc}
 3357              	.L745:
 3358 00e0 154B     		ldr	r3, .L746+60
 3359 00e2 3046     		mov	r0, r6
 3360 00e4 2B43     		orrs	r3, r3, r5
 3361 00e6 1C43     		orrs	r4, r4, r3
 3362 00e8 4CF80740 		str	r4, [ip, r7]
 3363 00ec F8BD     		pop	{r3, r4, r5, r6, r7, pc}
 3364              	.L715:
 3365 00ee 144B     		ldr	r3, .L746+68
 3366 00f0 0120     		movs	r0, #1
 3367 00f2 2B43     		orrs	r3, r3, r5
 3368 00f4 1C43     		orrs	r4, r4, r3
 3369 00f6 4CF80740 		str	r4, [ip, r7]
 3370 00fa F8BD     		pop	{r3, r4, r5, r6, r7, pc}
 3371              	.L747:
 3372              		.align	2
 3373              	.L746:
 3374 00fc 20000820 		.word	537395232
 3375 0100 40000820 		.word	537395264
 3376 0104 01000084 		.word	-2080374783
 3377 0108 01000008 		.word	134217729
 3378 010c 000B0840 		.word	1074268928
 3379 0110 00800C94 		.word	-1811120128
 3380 0114 03000084 		.word	-2080374781
 3381 0118 08000820 		.word	537395208
 3382 011c 03000008 		.word	134217731
 3383 0120 00080840 		.word	1074268160
 3384 0124 00090840 		.word	1074268416
 3385 0128 00800C18 		.word	403472384
 3386 012c 02000084 		.word	-2080374782
 3387 0130 10000820 		.word	537395216
 3388 0134 02000008 		.word	134217730
 3389 0138 00800494 		.word	-1811644416
 3390 013c 00800894 		.word	-1811382272
 3391 0140 00800818 		.word	403210240
 3393              		.section	.text.cdc_control,"ax",%progbits
 3394              		.align	1
 3395              		.p2align 2,,3
 3396              		.syntax unified
 3397              		.thumb
 3398              		.thumb_func
 3399              		.fpu fpv5-sp-d16
 3401              	cdc_control:
 3402              		@ args = 0, pretend = 0, frame = 0
 3403              		@ frame_needed = 0, uses_anonymous_args = 0
 3404              		@ link register save eliminated.
 3405 0000 0B78     		ldrb	r3, [r1]	@ zero_extendqisi2
 3406 0002 03F06303 		and	r3, r3, #99
 3407 0006 212B     		cmp	r3, #33
ARM GAS  C:\Users\Jay\AppData\Local\Temp\ccjVRGue.s 			page 59


 3408 0008 02D0     		beq	.L760
 3409              	.L754:
 3410 000a 0023     		movs	r3, #0
 3411              	.L757:
 3412 000c 1846     		mov	r0, r3
 3413 000e 7047     		bx	lr
 3414              	.L760:
 3415 0010 8B88     		ldrh	r3, [r1, #4]
 3416 0012 002B     		cmp	r3, #0
 3417 0014 F9D1     		bne	.L754
 3418 0016 4A78     		ldrb	r2, [r1, #1]	@ zero_extendqisi2
 3419 0018 212A     		cmp	r2, #33
 3420 001a 12D0     		beq	.L751
 3421 001c 222A     		cmp	r2, #34
 3422 001e 17D0     		beq	.L755
 3423 0020 202A     		cmp	r2, #32
 3424 0022 F3D1     		bne	.L757
 3425 0024 0B4A     		ldr	r2, .L761
 3426 0026 0123     		movs	r3, #1
 3427 0028 10B4     		push	{r4}
 3428 002a 1068     		ldr	r0, [r2]
 3429 002c 01F10804 		add	r4, r1, #8
 3430 0030 8860     		str	r0, [r1, #8]	@ unaligned
 3431 0032 1846     		mov	r0, r3
 3432 0034 9188     		ldrh	r1, [r2, #4]	@ unaligned
 3433 0036 9279     		ldrb	r2, [r2, #6]	@ zero_extendqisi2
 3434 0038 A180     		strh	r1, [r4, #4]	@ unaligned
 3435 003a A271     		strb	r2, [r4, #6]
 3436 003c 5DF8044B 		ldr	r4, [sp], #4
 3437 0040 7047     		bx	lr
 3438              	.L751:
 3439 0042 0449     		ldr	r1, .L761
 3440 0044 0722     		movs	r2, #7
 3441 0046 0123     		movs	r3, #1
 3442 0048 8165     		str	r1, [r0, #88]
 3443 004a A0F85C20 		strh	r2, [r0, #92]	@ movhi
 3444 004e DDE7     		b	.L757
 3445              	.L755:
 3446 0050 0123     		movs	r3, #1
 3447 0052 DBE7     		b	.L757
 3448              	.L762:
 3449              		.align	2
 3450              	.L761:
 3451 0054 00000000 		.word	.LANCHOR15
 3453              		.section	.text.cdc_setconf,"ax",%progbits
 3454              		.align	1
 3455              		.p2align 2,,3
 3456              		.syntax unified
 3457              		.thumb
 3458              		.thumb_func
 3459              		.fpu fpv5-sp-d16
 3461              	cdc_setconf:
 3462              		@ args = 0, pretend = 0, frame = 0
 3463              		@ frame_needed = 0, uses_anonymous_args = 0
 3464 0000 38B5     		push	{r3, r4, r5, lr}
 3465 0002 0546     		mov	r5, r0
 3466 0004 0C46     		mov	r4, r1
ARM GAS  C:\Users\Jay\AppData\Local\Temp\ccjVRGue.s 			page 60


 3467 0006 F9B1     		cbz	r1, .L765
 3468 0008 0129     		cmp	r1, #1
 3469 000a 1BD1     		bne	.L770
 3470 000c 0368     		ldr	r3, [r0]
 3471 000e 4022     		movs	r2, #64
 3472 0010 0221     		movs	r1, #2
 3473 0012 2046     		mov	r0, r4
 3474 0014 1B69     		ldr	r3, [r3, #16]
 3475 0016 9847     		blx	r3
 3476 0018 2B68     		ldr	r3, [r5]
 3477 001a 4022     		movs	r2, #64
 3478 001c 0221     		movs	r1, #2
 3479 001e 1B69     		ldr	r3, [r3, #16]
 3480 0020 8120     		movs	r0, #129
 3481 0022 9847     		blx	r3
 3482 0024 2B68     		ldr	r3, [r5]
 3483 0026 0822     		movs	r2, #8
 3484 0028 0321     		movs	r1, #3
 3485 002a 1B69     		ldr	r3, [r3, #16]
 3486 002c 8220     		movs	r0, #130
 3487 002e 9847     		blx	r3
 3488 0030 2B68     		ldr	r3, [r5]
 3489 0032 0022     		movs	r2, #0
 3490 0034 0C49     		ldr	r1, .L771
 3491 0036 DB69     		ldr	r3, [r3, #28]
 3492 0038 8120     		movs	r0, #129
 3493 003a A963     		str	r1, [r5, #56]
 3494 003c 1146     		mov	r1, r2
 3495 003e 9847     		blx	r3
 3496 0040 2046     		mov	r0, r4
 3497 0042 38BD     		pop	{r3, r4, r5, pc}
 3498              	.L770:
 3499 0044 0020     		movs	r0, #0
 3500 0046 38BD     		pop	{r3, r4, r5, pc}
 3501              	.L765:
 3502 0048 0368     		ldr	r3, [r0]
 3503 004a 8220     		movs	r0, #130
 3504 004c 5B69     		ldr	r3, [r3, #20]
 3505 004e 9847     		blx	r3
 3506 0050 2B68     		ldr	r3, [r5]
 3507 0052 8120     		movs	r0, #129
 3508 0054 5B69     		ldr	r3, [r3, #20]
 3509 0056 9847     		blx	r3
 3510 0058 2B68     		ldr	r3, [r5]
 3511 005a 0120     		movs	r0, #1
 3512 005c 5B69     		ldr	r3, [r3, #20]
 3513 005e 9847     		blx	r3
 3514 0060 AC63     		str	r4, [r5, #56]
 3515 0062 0120     		movs	r0, #1
 3516 0064 38BD     		pop	{r3, r4, r5, pc}
 3517              	.L772:
 3518 0066 00BF     		.align	2
 3519              	.L771:
 3520 0068 00000000 		.word	cdc_rx_tx
 3522              		.section	.text.c64_interface.part.23,"ax",%progbits
 3523              		.align	1
 3524              		.p2align 2,,3
ARM GAS  C:\Users\Jay\AppData\Local\Temp\ccjVRGue.s 			page 61


 3525              		.syntax unified
 3526              		.thumb
 3527              		.thumb_func
 3528              		.fpu fpv5-sp-d16
 3530              	c64_interface.part.23:
 3531              		@ args = 0, pretend = 0, frame = 0
 3532              		@ frame_needed = 0, uses_anonymous_args = 0
 3533 0000 0021     		movs	r1, #0
 3534 0002 47F2305C 		movw	ip, #30000
 3535 0006 174A     		ldr	r2, .L784
 3536 0008 0846     		mov	r0, r1
 3537 000a F0B5     		push	{r4, r5, r6, r7, lr}
 3538 000c 164C     		ldr	r4, .L784+4
 3539 000e 0E46     		mov	r6, r1
 3540 0010 164F     		ldr	r7, .L784+8
 3541 0012 4FF4800E 		mov	lr, #4194304
 3542 0016 1525     		movs	r5, #21
 3543              	.L779:
 3544 0018 636B     		ldr	r3, [r4, #52]
 3545 001a A72B     		cmp	r3, #167
 3546 001c 16D9     		bls	.L774
 3547 001e 636B     		ldr	r3, [r4, #52]
 3548 0020 A92B     		cmp	r3, #169
 3549 0022 13D8     		bhi	.L774
 3550 0024 0131     		adds	r1, r1, #1
 3551 0026 C7F818E0 		str	lr, [r7, #24]
 3552 002a C9B2     		uxtb	r1, r1
 3553              	.L777:
 3554 002c 5560     		str	r5, [r2, #4]
 3555 002e 9660     		str	r6, [r2, #8]
 3556              	.L778:
 3557 0030 1368     		ldr	r3, [r2]
 3558 0032 DB03     		lsls	r3, r3, #15
 3559 0034 FCD5     		bpl	.L778
 3560 0036 0329     		cmp	r1, #3
 3561 0038 EED1     		bne	.L779
 3562 003a 0B4B     		ldr	r3, .L784+4
 3563 003c 6FF00802 		mvn	r2, #8
 3564 0040 1A61     		str	r2, [r3, #16]
 3565 0042 DA68     		ldr	r2, [r3, #12]
 3566 0044 42F00802 		orr	r2, r2, #8
 3567 0048 DA60     		str	r2, [r3, #12]
 3568 004a F0BD     		pop	{r4, r5, r6, r7, pc}
 3569              	.L774:
 3570 004c 6045     		cmp	r0, ip
 3571 004e 02D8     		bhi	.L776
 3572 0050 0130     		adds	r0, r0, #1
 3573 0052 0021     		movs	r1, #0
 3574 0054 EAE7     		b	.L777
 3575              	.L776:
 3576 0056 7B69     		ldr	r3, [r7, #20]
 3577 0058 0020     		movs	r0, #0
 3578 005a 83F04003 		eor	r3, r3, #64
 3579 005e 0146     		mov	r1, r0
 3580 0060 7B61     		str	r3, [r7, #20]
 3581 0062 E3E7     		b	.L777
 3582              	.L785:
ARM GAS  C:\Users\Jay\AppData\Local\Temp\ccjVRGue.s 			page 62


 3583              		.align	2
 3584              	.L784:
 3585 0064 10E000E0 		.word	-536813552
 3586 0068 00000140 		.word	1073807360
 3587 006c 00100258 		.word	1476530176
 3589              		.section	.text.c64_reset.part.24,"ax",%progbits
 3590              		.align	1
 3591              		.p2align 2,,3
 3592              		.syntax unified
 3593              		.thumb
 3594              		.thumb_func
 3595              		.fpu fpv5-sp-d16
 3597              	c64_reset.part.24:
 3598              		@ args = 0, pretend = 0, frame = 0
 3599              		@ frame_needed = 0, uses_anonymous_args = 0
 3600              		@ link register save eliminated.
 3601 0000 074B     		ldr	r3, .L791
 3602 0002 41F26800 		movw	r0, #4200
 3603 0006 0021     		movs	r1, #0
 3604 0008 1A46     		mov	r2, r3
 3605 000a 30B4     		push	{r4, r5}
 3606 000c 2025     		movs	r5, #32
 3607 000e 054C     		ldr	r4, .L791+4
 3608 0010 A561     		str	r5, [r4, #24]
 3609 0012 5860     		str	r0, [r3, #4]
 3610 0014 9960     		str	r1, [r3, #8]
 3611              	.L787:
 3612 0016 1368     		ldr	r3, [r2]
 3613 0018 DB03     		lsls	r3, r3, #15
 3614 001a FCD5     		bpl	.L787
 3615 001c 30BC     		pop	{r4, r5}
 3616 001e 7047     		bx	lr
 3617              	.L792:
 3618              		.align	2
 3619              	.L791:
 3620 0020 10E000E0 		.word	-536813552
 3621 0024 00100258 		.word	1476530176
 3623              		.section	.text.system_restart,"ax",%progbits
 3624              		.align	1
 3625              		.p2align 2,,3
 3626              		.syntax unified
 3627              		.thumb
 3628              		.thumb_func
 3629              		.fpu fpv5-sp-d16
 3631              	system_restart:
 3632              		@ Volatile: function does not return.
 3633              		@ args = 0, pretend = 0, frame = 0
 3634              		@ frame_needed = 0, uses_anonymous_args = 0
 3635 0000 0022     		movs	r2, #0
 3636 0002 0F49     		ldr	r1, .L796
 3637 0004 08B5     		push	{r3, lr}
 3638 0006 1046     		mov	r0, r2
 3639 0008 FFF7FEFF 		bl	f_mount
 3640 000c 0D4B     		ldr	r3, .L796+4
 3641 000e 4020     		movs	r0, #64
 3642 0010 0D4A     		ldr	r2, .L796+8
 3643 0012 6FF00801 		mvn	r1, #8
ARM GAS  C:\Users\Jay\AppData\Local\Temp\ccjVRGue.s 			page 63


 3644 0016 9061     		str	r0, [r2, #24]
 3645 0018 DA68     		ldr	r2, [r3, #12]
 3646 001a 0A40     		ands	r2, r2, r1
 3647 001c DA60     		str	r2, [r3, #12]
 3648 001e 1961     		str	r1, [r3, #16]
 3649 0020 FFF7FEFF 		bl	c64_reset.part.24
 3650              		.syntax unified
 3651              	@ 878 "stm32h7xx/cmsis/cmsis_gcc.h" 1
 3652 0024 BFF34F8F 		dsb 0xF
 3653              	@ 0 "" 2
 3654              		.thumb
 3655              		.syntax unified
 3656 0028 0849     		ldr	r1, .L796+12
 3657 002a 094B     		ldr	r3, .L796+16
 3658 002c CA68     		ldr	r2, [r1, #12]
 3659 002e 02F4E062 		and	r2, r2, #1792
 3660 0032 1343     		orrs	r3, r3, r2
 3661 0034 CB60     		str	r3, [r1, #12]
 3662              		.syntax unified
 3663              	@ 878 "stm32h7xx/cmsis/cmsis_gcc.h" 1
 3664 0036 BFF34F8F 		dsb 0xF
 3665              	@ 0 "" 2
 3666              		.thumb
 3667              		.syntax unified
 3668              	.L794:
 3669              		.syntax unified
 3670              	@ 2158 "stm32h7xx/cmsis/core_cm7.h" 1
 3671 003a 00BF     		nop
 3672              	@ 0 "" 2
 3673              		.thumb
 3674              		.syntax unified
 3675 003c FDE7     		b	.L794
 3676              	.L797:
 3677 003e 00BF     		.align	2
 3678              	.L796:
 3679 0040 00000000 		.word	.LC14
 3680 0044 00000140 		.word	1073807360
 3681 0048 00100258 		.word	1476530176
 3682 004c 00ED00E0 		.word	-536810240
 3683 0050 0400FA05 		.word	100270084
 3685              		.section	.text.restart_to_menu,"ax",%progbits
 3686              		.align	1
 3687              		.p2align 2,,3
 3688              		.syntax unified
 3689              		.thumb
 3690              		.thumb_func
 3691              		.fpu fpv5-sp-d16
 3693              	restart_to_menu:
 3694              		@ Volatile: function does not return.
 3695              		@ args = 0, pretend = 0, frame = 0
 3696              		@ frame_needed = 0, uses_anonymous_args = 0
 3697 0000 034A     		ldr	r2, .L800
 3698 0002 08B5     		push	{r3, lr}
 3699 0004 07CA     		ldm	r2, {r0, r1, r2}
 3700 0006 034B     		ldr	r3, .L800+4
 3701 0008 83E80700 		stm	r3, {r0, r1, r2}
 3702 000c FFF7FEFF 		bl	system_restart
ARM GAS  C:\Users\Jay\AppData\Local\Temp\ccjVRGue.s 			page 64


 3703              	.L801:
 3704              		.align	2
 3705              	.L800:
 3706 0010 20000000 		.word	.LC13
 3707 0014 00000100 		.word	scratch_buf
 3709              		.section	.text.simons_basic_handler.part.37,"ax",%progbits
 3710              		.align	1
 3711              		.p2align 2,,3
 3712              		.syntax unified
 3713              		.thumb
 3714              		.thumb_func
 3715              		.fpu fpv5-sp-d16
 3717              	simons_basic_handler.part.37:
 3718              		@ args = 0, pretend = 0, frame = 0
 3719              		@ frame_needed = 0, uses_anonymous_args = 0
 3720              		@ link register save eliminated.
 3721 0000 0B4A     		ldr	r2, .L807
 3722 0002 10B4     		push	{r4}
 3723              	.L803:
 3724 0004 1369     		ldr	r3, [r2, #16]
 3725 0006 DB06     		lsls	r3, r3, #27
 3726 0008 FCD5     		bpl	.L803
 3727 000a 0A4C     		ldr	r4, .L807+4
 3728 000c 0A48     		ldr	r0, .L807+8
 3729 000e 2268     		ldr	r2, [r4]
 3730 0010 0A4B     		ldr	r3, .L807+12
 3731 0012 22F00F02 		bic	r2, r2, #15
 3732 0016 0A49     		ldr	r1, .L807+16
 3733 0018 2260     		str	r2, [r4]
 3734 001a 0268     		ldr	r2, [r0]
 3735 001c 5DF8044B 		ldr	r4, [sp], #4
 3736 0020 1340     		ands	r3, r3, r2
 3737 0022 0360     		str	r3, [r0]
 3738 0024 0B68     		ldr	r3, [r1]
 3739 0026 23F44063 		bic	r3, r3, #3072
 3740 002a 0B60     		str	r3, [r1]
 3741 002c 7047     		bx	lr
 3742              	.L808:
 3743 002e 00BF     		.align	2
 3744              	.L807:
 3745 0030 00000140 		.word	1073807360
 3746 0034 00100258 		.word	1476530176
 3747 0038 00040258 		.word	1476527104
 3748 003c FF03F0FF 		.word	-1047553
 3749 0040 000C0258 		.word	1476529152
 3751              		.thumb_set ef_launcher_handler.part.51,simons_basic_handler.part.37
 3752              		.thumb_set zaxxon_handler.part.44,simons_basic_handler.part.37
 3753              		.thumb_set dinamic_handler.part.42,simons_basic_handler.part.37
 3754              		.thumb_set c64gs_handler.part.40,simons_basic_handler.part.37
 3755              		.thumb_set epyx_handler.part.38,simons_basic_handler.part.37
 3756              		.section	.text.to_petscii_pad,"ax",%progbits
 3757              		.align	1
 3758              		.p2align 2,,3
 3759              		.syntax unified
 3760              		.thumb
 3761              		.thumb_func
 3762              		.fpu fpv5-sp-d16
ARM GAS  C:\Users\Jay\AppData\Local\Temp\ccjVRGue.s 			page 65


 3764              	to_petscii_pad:
 3765              		@ args = 0, pretend = 0, frame = 0
 3766              		@ frame_needed = 0, uses_anonymous_args = 0
 3767              		@ link register save eliminated.
 3768 0000 013A     		subs	r2, r2, #1
 3769 0002 70B4     		push	{r4, r5, r6}
 3770 0004 D4B2     		uxtb	r4, r2
 3771 0006 2026     		movs	r6, #32
 3772 0008 0134     		adds	r4, r4, #1
 3773 000a 0444     		add	r4, r4, r0
 3774 000c 0DE0     		b	.L815
 3775              	.L820:
 3776 000e A3F16102 		sub	r2, r3, #97
 3777 0012 192D     		cmp	r5, #25
 3778 0014 01F10101 		add	r1, r1, #1
 3779 0018 03F12005 		add	r5, r3, #32
 3780 001c D2B2     		uxtb	r2, r2
 3781 001e 11D8     		bhi	.L811
 3782 0020 EBB2     		uxtb	r3, r5
 3783              	.L812:
 3784 0022 8442     		cmp	r4, r0
 3785 0024 00F8013C 		strb	r3, [r0, #-1]
 3786 0028 09D0     		beq	.L819
 3787              	.L815:
 3788 002a 0B78     		ldrb	r3, [r1]	@ zero_extendqisi2
 3789 002c 0130     		adds	r0, r0, #1
 3790 002e A3F14105 		sub	r5, r3, #65
 3791 0032 002B     		cmp	r3, #0
 3792 0034 EBD1     		bne	.L820
 3793 0036 8442     		cmp	r4, r0
 3794 0038 00F8016C 		strb	r6, [r0, #-1]
 3795 003c F5D1     		bne	.L815
 3796              	.L819:
 3797 003e 0846     		mov	r0, r1
 3798 0040 70BC     		pop	{r4, r5, r6}
 3799 0042 7047     		bx	lr
 3800              	.L811:
 3801 0044 192A     		cmp	r2, #25
 3802 0046 A3F12002 		sub	r2, r3, #32
 3803 004a 03D9     		bls	.L821
 3804 004c 5F2B     		cmp	r3, #95
 3805 004e 08BF     		it	eq
 3806 0050 A423     		moveq	r3, #164
 3807 0052 E6E7     		b	.L812
 3808              	.L821:
 3809 0054 D3B2     		uxtb	r3, r2
 3810 0056 E4E7     		b	.L812
 3812              		.section	.text.options_add_text_element,"ax",%progbits
 3813              		.align	1
 3814              		.p2align 2,,3
 3815              		.syntax unified
 3816              		.thumb
 3817              		.thumb_func
 3818              		.fpu fpv5-sp-d16
 3820              	options_add_text_element:
 3821              		@ args = 0, pretend = 0, frame = 0
 3822              		@ frame_needed = 0, uses_anonymous_args = 0
ARM GAS  C:\Users\Jay\AppData\Local\Temp\ccjVRGue.s 			page 66


 3823 0000 F8B5     		push	{r3, r4, r5, r6, r7, lr}
 3824 0002 457F     		ldrb	r5, [r0, #29]	@ zero_extendqisi2
 3825 0004 162D     		cmp	r5, #22
 3826 0006 1CD0     		beq	.L823
 3827 0008 05EB4503 		add	r3, r5, r5, lsl #1
 3828 000c 6E1C     		adds	r6, r5, #1
 3829 000e 134F     		ldr	r7, .L830
 3830 0010 1B01     		lsls	r3, r3, #4
 3831 0012 F6B2     		uxtb	r6, r6
 3832 0014 DC19     		adds	r4, r3, r7
 3833 0016 F1B1     		cbz	r1, .L825
 3834              	.L829:
 3835 0018 4FF0200C 		mov	ip, #32
 3836 001c 03F807C0 		strb	ip, [r3, r7]
 3837 0020 037F     		ldrb	r3, [r0, #28]	@ zero_extendqisi2
 3838 0022 162B     		cmp	r3, #22
 3839 0024 0BD0     		beq	.L828
 3840              	.L826:
 3841 0026 A162     		str	r1, [r4, #40]
 3842 0028 1146     		mov	r1, r2
 3843 002a 4677     		strb	r6, [r0, #29]
 3844 002c 2422     		movs	r2, #36
 3845 002e 601C     		adds	r0, r4, #1
 3846 0030 FFF7FEFF 		bl	to_petscii_pad
 3847 0034 2023     		movs	r3, #32
 3848 0036 2046     		mov	r0, r4
 3849 0038 84F82530 		strb	r3, [r4, #37]
 3850 003c F8BD     		pop	{r3, r4, r5, r6, r7, pc}
 3851              	.L828:
 3852 003e 0577     		strb	r5, [r0, #28]
 3853 0040 F1E7     		b	.L826
 3854              	.L823:
 3855 0042 1524     		movs	r4, #21
 3856 0044 4FF47C73 		mov	r3, #1008
 3857 0048 044F     		ldr	r7, .L830
 3858 004a 2E46     		mov	r6, r5
 3859 004c 4477     		strb	r4, [r0, #29]
 3860 004e 2546     		mov	r5, r4
 3861 0050 DC19     		adds	r4, r3, r7
 3862 0052 0029     		cmp	r1, #0
 3863 0054 E0D1     		bne	.L829
 3864              	.L825:
 3865 0056 E025     		movs	r5, #224
 3866 0058 DD55     		strb	r5, [r3, r7]
 3867 005a E4E7     		b	.L826
 3868              	.L831:
 3869              		.align	2
 3870              	.L830:
 3871 005c 00200100 		.word	scratch_buf+8192
 3873              		.section	.text.options_add_text_block,"ax",%progbits
 3874              		.align	1
 3875              		.p2align 2,,3
 3876              		.syntax unified
 3877              		.thumb
 3878              		.thumb_func
 3879              		.fpu fpv5-sp-d16
 3881              	options_add_text_block:
ARM GAS  C:\Users\Jay\AppData\Local\Temp\ccjVRGue.s 			page 67


 3882              		@ args = 0, pretend = 0, frame = 0
 3883              		@ frame_needed = 0, uses_anonymous_args = 0
 3884 0000 2DE9F843 		push	{r3, r4, r5, r6, r7, r8, r9, lr}
 3885 0004 0646     		mov	r6, r0
 3886 0006 DFF85490 		ldr	r9, .L840+4
 3887 000a 4FF0E008 		mov	r8, #224
 3888 000e 0027     		movs	r7, #0
 3889 0010 11E0     		b	.L834
 3890              	.L839:
 3891 0012 2401     		lsls	r4, r4, #4
 3892 0014 D3B2     		uxtb	r3, r2
 3893              	.L833:
 3894 0016 09EB0405 		add	r5, r9, r4
 3895 001a 09F80480 		strb	r8, [r9, r4]
 3896 001e 2422     		movs	r2, #36
 3897 0020 AF62     		str	r7, [r5, #40]
 3898 0022 681C     		adds	r0, r5, #1
 3899 0024 7377     		strb	r3, [r6, #29]
 3900 0026 FFF7FEFF 		bl	to_petscii_pad
 3901 002a 2023     		movs	r3, #32
 3902 002c 0146     		mov	r1, r0
 3903 002e 85F82530 		strb	r3, [r5, #37]
 3904 0032 0378     		ldrb	r3, [r0]	@ zero_extendqisi2
 3905 0034 4BB1     		cbz	r3, .L838
 3906              	.L834:
 3907 0036 737F     		ldrb	r3, [r6, #29]	@ zero_extendqisi2
 3908 0038 162B     		cmp	r3, #22
 3909 003a 03EB4304 		add	r4, r3, r3, lsl #1
 3910 003e 03F10102 		add	r2, r3, #1
 3911 0042 E6D1     		bne	.L839
 3912 0044 4FF47C74 		mov	r4, #1008
 3913 0048 E5E7     		b	.L833
 3914              	.L838:
 3915 004a 1946     		mov	r1, r3
 3916 004c 3046     		mov	r0, r6
 3917 004e 024A     		ldr	r2, .L840
 3918 0050 BDE8F843 		pop	{r3, r4, r5, r6, r7, r8, r9, lr}
 3919 0054 FFF7FEBF 		b	options_add_text_element
 3920              	.L841:
 3921              		.align	2
 3922              	.L840:
 3923 0058 00000000 		.word	.LC14
 3924 005c 00200100 		.word	scratch_buf+8192
 3926              		.section	.text.build_options,"ax",%progbits
 3927              		.align	1
 3928              		.p2align 2,,3
 3929              		.syntax unified
 3930              		.thumb
 3931              		.thumb_func
 3932              		.fpu fpv5-sp-d16
 3934              	build_options:
 3935              		@ args = 0, pretend = 0, frame = 0
 3936              		@ frame_needed = 0, uses_anonymous_args = 0
 3937 0000 38B5     		push	{r3, r4, r5, lr}
 3938 0002 104B     		ldr	r3, .L847
 3939 0004 0C46     		mov	r4, r1
 3940 0006 1A68     		ldr	r2, [r3]
ARM GAS  C:\Users\Jay\AppData\Local\Temp\ccjVRGue.s 			page 68


 3941 0008 92B1     		cbz	r2, .L846
 3942              	.L843:
 3943 000a 0F4A     		ldr	r2, .L847+4
 3944 000c 1625     		movs	r5, #22
 3945 000e 9861     		str	r0, [r3, #24]
 3946 0010 0021     		movs	r1, #0
 3947 0012 1268     		ldr	r2, [r2]
 3948 0014 9D83     		strh	r5, [r3, #28]	@ movhi
 3949 0016 9A42     		cmp	r2, r3
 3950 0018 0A48     		ldr	r0, .L847
 3951 001a 18BF     		it	ne
 3952 001c 5A61     		strne	r2, [r3, #20]
 3953 001e 0B4A     		ldr	r2, .L847+8
 3954 0020 FFF7FEFF 		bl	options_add_text_element
 3955 0024 2146     		mov	r1, r4
 3956 0026 0748     		ldr	r0, .L847
 3957 0028 FFF7FEFF 		bl	options_add_text_block
 3958 002c 0548     		ldr	r0, .L847
 3959 002e 38BD     		pop	{r3, r4, r5, pc}
 3960              	.L846:
 3961 0030 0749     		ldr	r1, .L847+12
 3962 0032 084A     		ldr	r2, .L847+16
 3963 0034 084D     		ldr	r5, .L847+20
 3964 0036 1960     		str	r1, [r3]
 3965 0038 0849     		ldr	r1, .L847+24
 3966 003a C3E90152 		strd	r5, r2, [r3, #4]
 3967 003e C3E90321 		strd	r2, r1, [r3, #12]
 3968 0042 E2E7     		b	.L843
 3969              	.L848:
 3970              		.align	2
 3971              	.L847:
 3972 0044 00000000 		.word	.LANCHOR16
 3973 0048 00000000 		.word	.LANCHOR13
 3974 004c 00000000 		.word	.LC14
 3975 0050 00000000 		.word	options_dir
 3976 0054 00000000 		.word	options_prev_next_page
 3977 0058 00000000 		.word	options_dir_up
 3978 005c 00000000 		.word	options_select
 3980              		.section	.text.handle_file_options,"ax",%progbits
 3981              		.align	1
 3982              		.p2align 2,,3
 3983              		.syntax unified
 3984              		.thumb
 3985              		.thumb_func
 3986              		.fpu fpv5-sp-d16
 3988              	handle_file_options:
 3989              		@ args = 0, pretend = 0, frame = 0
 3990              		@ frame_needed = 0, uses_anonymous_args = 0
 3991 0000 0B46     		mov	r3, r1
 3992 0002 0146     		mov	r1, r0
 3993 0004 052B     		cmp	r3, #5
 3994 0006 2DE9F041 		push	{r4, r5, r6, r7, r8, lr}
 3995 000a 1546     		mov	r5, r2
 3996 000c 2BD8     		bhi	.L850
 3997 000e 1D4C     		ldr	r4, .L856
 3998 0010 1D48     		ldr	r0, .L856+4
 3999 0012 54F82370 		ldr	r7, [r4, r3, lsl #2]
ARM GAS  C:\Users\Jay\AppData\Local\Temp\ccjVRGue.s 			page 69


 4000 0016 1D4A     		ldr	r2, .L856+8
 4001 0018 50F82300 		ldr	r0, [r0, r3, lsl #2]
 4002 001c 52F82360 		ldr	r6, [r2, r3, lsl #2]
 4003 0020 FFF7FEFF 		bl	build_options
 4004 0024 3A46     		mov	r2, r7
 4005 0026 1A49     		ldr	r1, .L856+12
 4006 0028 0446     		mov	r4, r0
 4007 002a FFF7FEFF 		bl	options_add_text_element
 4008 002e 0023     		movs	r3, #0
 4009 0030 80F82D50 		strb	r5, [r0, #45]
 4010 0034 80F82C30 		strb	r3, [r0, #44]
 4011 0038 4EB1     		cbz	r6, .L851
 4012 003a 3246     		mov	r2, r6
 4013 003c 1449     		ldr	r1, .L856+12
 4014 003e 2046     		mov	r0, r4
 4015 0040 FFF7FEFF 		bl	options_add_text_element
 4016 0044 0223     		movs	r3, #2
 4017 0046 80F82D50 		strb	r5, [r0, #45]
 4018 004a 80F82C30 		strb	r3, [r0, #44]
 4019              	.L851:
 4020 004e 114A     		ldr	r2, .L856+16
 4021 0050 2046     		mov	r0, r4
 4022 0052 1149     		ldr	r1, .L856+20
 4023 0054 FFF7FEFF 		bl	options_add_text_element
 4024 0058 104A     		ldr	r2, .L856+24
 4025 005a 2368     		ldr	r3, [r4]
 4026 005c 2046     		mov	r0, r4
 4027 005e 1460     		str	r4, [r2]
 4028 0060 BDE8F041 		pop	{r4, r5, r6, r7, r8, lr}
 4029 0064 1847     		bx	r3	@ indirect register sibling call
 4030              	.L850:
 4031 0066 0E48     		ldr	r0, .L856+28
 4032 0068 FFF7FEFF 		bl	build_options
 4033 006c 0D4A     		ldr	r2, .L856+32
 4034 006e 0849     		ldr	r1, .L856+12
 4035 0070 0446     		mov	r4, r0
 4036 0072 FFF7FEFF 		bl	options_add_text_element
 4037 0076 0023     		movs	r3, #0
 4038 0078 80F82D50 		strb	r5, [r0, #45]
 4039 007c 80F82C30 		strb	r3, [r0, #44]
 4040 0080 E5E7     		b	.L851
 4041              	.L857:
 4042 0082 00BF     		.align	2
 4043              	.L856:
 4044 0084 00000000 		.word	.LANCHOR17
 4045 0088 00000000 		.word	.LANCHOR19
 4046 008c 00000000 		.word	.LANCHOR18
 4047 0090 00000000 		.word	options_prev_select
 4048 0094 00000000 		.word	.LC15
 4049 0098 00000000 		.word	options_prev_dir
 4050 009c 00000000 		.word	.LANCHOR13
 4051 00a0 08000000 		.word	.LC16
 4052 00a4 18000000 		.word	.LC17
 4054              		.section	.text.handle_unsupported_ex,"ax",%progbits
 4055              		.align	1
 4056              		.p2align 2,,3
 4057              		.syntax unified
ARM GAS  C:\Users\Jay\AppData\Local\Temp\ccjVRGue.s 			page 70


 4058              		.thumb
 4059              		.thumb_func
 4060              		.fpu fpv5-sp-d16
 4062              	handle_unsupported_ex:
 4063              		@ args = 0, pretend = 0, frame = 0
 4064              		@ frame_needed = 0, uses_anonymous_args = 0
 4065 0000 70B5     		push	{r4, r5, r6, lr}
 4066 0002 1546     		mov	r5, r2
 4067 0004 FFF7FEFF 		bl	build_options
 4068 0008 0446     		mov	r4, r0
 4069 000a 2946     		mov	r1, r5
 4070 000c FFF7FEFF 		bl	options_add_text_block
 4071 0010 2046     		mov	r0, r4
 4072 0012 054A     		ldr	r2, .L860
 4073 0014 0549     		ldr	r1, .L860+4
 4074 0016 FFF7FEFF 		bl	options_add_text_element
 4075 001a 054A     		ldr	r2, .L860+8
 4076 001c 2368     		ldr	r3, [r4]
 4077 001e 2046     		mov	r0, r4
 4078 0020 1460     		str	r4, [r2]
 4079 0022 BDE87040 		pop	{r4, r5, r6, lr}
 4080 0026 1847     		bx	r3	@ indirect register sibling call
 4081              	.L861:
 4082              		.align	2
 4083              	.L860:
 4084 0028 00000000 		.word	.LC18
 4085 002c 00000000 		.word	options_prev_dir
 4086 0030 00000000 		.word	.LANCHOR13
 4088              		.section	.text.options_dir,"ax",%progbits
 4089              		.align	1
 4090              		.p2align 2,,3
 4091              		.syntax unified
 4092              		.thumb
 4093              		.thumb_func
 4094              		.fpu fpv5-sp-d16
 4096              	options_dir:
 4097              		@ args = 0, pretend = 0, frame = 0
 4098              		@ frame_needed = 0, uses_anonymous_args = 0
 4099 0000 2DE9F843 		push	{r3, r4, r5, r6, r7, r8, r9, lr}
 4100 0004 0646     		mov	r6, r0
 4101 0006 2C4C     		ldr	r4, .L886
 4102              	.L863:
 4103 0008 2378     		ldrb	r3, [r4]	@ zero_extendqisi2
 4104 000a 002B     		cmp	r3, #0
 4105 000c FCD1     		bne	.L863
 4106 000e 0123     		movs	r3, #1
 4107 0010 2A4D     		ldr	r5, .L886+4
 4108 0012 8027     		movs	r7, #128
 4109 0014 B169     		ldr	r1, [r6, #24]
 4110 0016 2222     		movs	r2, #34
 4111 0018 2948     		ldr	r0, .L886+8
 4112 001a 2B70     		strb	r3, [r5]
 4113 001c 2770     		strb	r7, [r4]
 4114 001e FFF7FEFF 		bl	to_petscii_pad
 4115 0022 DFF89CC0 		ldr	ip, .L886+8
 4116 0026 6146     		mov	r1, ip
 4117 0028 0CF1220E 		add	lr, ip, #34
ARM GAS  C:\Users\Jay\AppData\Local\Temp\ccjVRGue.s 			page 71


 4118              	.L865:
 4119 002c 11F8010B 		ldrb	r0, [r1], #1	@ zero_extendqisi2
 4120              	.L864:
 4121 0030 2378     		ldrb	r3, [r4]	@ zero_extendqisi2
 4122 0032 03F0FF02 		and	r2, r3, #255
 4123 0036 002B     		cmp	r3, #0
 4124 0038 FAD1     		bne	.L864
 4125 003a 7145     		cmp	r1, lr
 4126 003c 2870     		strb	r0, [r5]
 4127 003e 2770     		strb	r7, [r4]
 4128 0040 F4D1     		bne	.L865
 4129 0042 96F81DE0 		ldrb	lr, [r6, #29]	@ zero_extendqisi2
 4130 0046 BEF1000F 		cmp	lr, #0
 4131 004a 1CD0     		beq	.L866
 4132 004c 96F81C80 		ldrb	r8, [r6, #28]	@ zero_extendqisi2
 4133 0050 1046     		mov	r0, r2
 4134 0052 1C4E     		ldr	r6, .L886+12
 4135 0054 4FF0A009 		mov	r9, #160
 4136 0058 1346     		mov	r3, r2
 4137 005a 8027     		movs	r7, #128
 4138              	.L872:
 4139 005c 9845     		cmp	r8, r3
 4140 005e 24D0     		beq	.L867
 4141 0060 16F8251C 		ldrb	r1, [r6, #-37]	@ zero_extendqisi2
 4142              	.L868:
 4143 0064 A6F12502 		sub	r2, r6, #37
 4144              	.L869:
 4145 0068 2378     		ldrb	r3, [r4]	@ zero_extendqisi2
 4146 006a 002B     		cmp	r3, #0
 4147 006c FCD1     		bne	.L869
 4148 006e 9642     		cmp	r6, r2
 4149 0070 2970     		strb	r1, [r5]
 4150 0072 2770     		strb	r7, [r4]
 4151 0074 02D0     		beq	.L870
 4152 0076 12F8011F 		ldrb	r1, [r2, #1]!	@ zero_extendqisi2
 4153 007a F5E7     		b	.L869
 4154              	.L870:
 4155 007c 0130     		adds	r0, r0, #1
 4156 007e 3036     		adds	r6, r6, #48
 4157 0080 C3B2     		uxtb	r3, r0
 4158 0082 9E45     		cmp	lr, r3
 4159 0084 EAD8     		bhi	.L872
 4160              	.L866:
 4161 0086 0023     		movs	r3, #0
 4162 0088 0D4A     		ldr	r2, .L886+8
 4163 008a 8026     		movs	r6, #128
 4164 008c 1946     		mov	r1, r3
 4165 008e 02F12500 		add	r0, r2, #37
 4166 0092 8CF80030 		strb	r3, [ip]
 4167              	.L873:
 4168 0096 2378     		ldrb	r3, [r4]	@ zero_extendqisi2
 4169 0098 002B     		cmp	r3, #0
 4170 009a FCD1     		bne	.L873
 4171 009c 9042     		cmp	r0, r2
 4172 009e 2970     		strb	r1, [r5]
 4173 00a0 2670     		strb	r6, [r4]
 4174 00a2 06D0     		beq	.L862
ARM GAS  C:\Users\Jay\AppData\Local\Temp\ccjVRGue.s 			page 72


 4175 00a4 12F8011F 		ldrb	r1, [r2, #1]!	@ zero_extendqisi2
 4176 00a8 F5E7     		b	.L873
 4177              	.L867:
 4178 00aa A021     		movs	r1, #160
 4179 00ac 06F8259C 		strb	r9, [r6, #-37]
 4180 00b0 D8E7     		b	.L868
 4181              	.L862:
 4182 00b2 BDE8F883 		pop	{r3, r4, r5, r6, r7, r8, r9, pc}
 4183              	.L887:
 4184 00b6 00BF     		.align	2
 4185              	.L886:
 4186 00b8 00000000 		.word	.LANCHOR9
 4187 00bc 00000000 		.word	.LANCHOR10
 4188 00c0 00000100 		.word	scratch_buf
 4189 00c4 25200100 		.word	scratch_buf+8229
 4191              		.section	.text.options_select,"ax",%progbits
 4192              		.align	1
 4193              		.p2align 2,,3
 4194              		.syntax unified
 4195              		.thumb
 4196              		.thumb_func
 4197              		.fpu fpv5-sp-d16
 4199              	options_select:
 4200              		@ args = 0, pretend = 0, frame = 0
 4201              		@ frame_needed = 0, uses_anonymous_args = 0
 4202 0000 70B5     		push	{r4, r5, r6, lr}
 4203 0002 447F     		ldrb	r4, [r0, #29]	@ zero_extendqisi2
 4204 0004 0346     		mov	r3, r0
 4205 0006 9442     		cmp	r4, r2
 4206 0008 0ED9     		bls	.L889
 4207 000a 0A4D     		ldr	r5, .L894
 4208 000c 02EB4204 		add	r4, r2, r2, lsl #1
 4209 0010 05EB0414 		add	r4, r5, r4, lsl #4
 4210 0014 A56A     		ldr	r5, [r4, #40]
 4211 0016 3DB1     		cbz	r5, .L889
 4212 0018 0277     		strb	r2, [r0, #28]
 4213 001a 2B46     		mov	r3, r5
 4214 001c 01F0BF02 		and	r2, r1, #191
 4215 0020 2146     		mov	r1, r4
 4216 0022 BDE87040 		pop	{r4, r5, r6, lr}
 4217 0026 1847     		bx	r3
 4218              	.L889:
 4219 0028 1846     		mov	r0, r3
 4220 002a FFF7FEFF 		bl	options_dir
 4221 002e 0020     		movs	r0, #0
 4222 0030 70BD     		pop	{r4, r5, r6, pc}
 4223              	.L895:
 4224 0032 00BF     		.align	2
 4225              	.L894:
 4226 0034 00200100 		.word	scratch_buf+8192
 4228              		.section	.text.cdc_rx_tx,"ax",%progbits
 4229              		.align	1
 4230              		.p2align 2,,3
 4231              		.syntax unified
 4232              		.thumb
 4233              		.thumb_func
 4234              		.fpu fpv5-sp-d16
ARM GAS  C:\Users\Jay\AppData\Local\Temp\ccjVRGue.s 			page 73


 4236              	cdc_rx_tx:
 4237              		@ args = 0, pretend = 0, frame = 0
 4238              		@ frame_needed = 0, uses_anonymous_args = 0
 4239 0000 0429     		cmp	r1, #4
 4240 0002 38B5     		push	{r3, r4, r5, lr}
 4241 0004 14D0     		beq	.L898
 4242 0006 0529     		cmp	r1, #5
 4243 0008 11D1     		bne	.L896
 4244 000a 194C     		ldr	r4, .L907
 4245 000c 2368     		ldr	r3, [r4]
 4246 000e B3F5E07F 		cmp	r3, #448
 4247 0012 27D2     		bcs	.L902
 4248 0014 0368     		ldr	r3, [r0]
 4249 0016 4022     		movs	r2, #64
 4250 0018 2168     		ldr	r1, [r4]
 4251 001a 0120     		movs	r0, #1
 4252 001c 154D     		ldr	r5, .L907+4
 4253 001e 9B69     		ldr	r3, [r3, #24]
 4254 0020 2944     		add	r1, r1, r5
 4255 0022 9847     		blx	r3
 4256 0024 0028     		cmp	r0, #0
 4257 0026 02DD     		ble	.L896
 4258 0028 2368     		ldr	r3, [r4]
 4259 002a 1844     		add	r0, r0, r3
 4260 002c 2060     		str	r0, [r4]
 4261              	.L896:
 4262 002e 38BD     		pop	{r3, r4, r5, pc}
 4263              	.L898:
 4264 0030 114C     		ldr	r4, .L907+8
 4265 0032 2368     		ldr	r3, [r4]
 4266 0034 3F2B     		cmp	r3, #63
 4267 0036 12D9     		bls	.L906
 4268 0038 4022     		movs	r2, #64
 4269              	.L900:
 4270 003a 0368     		ldr	r3, [r0]
 4271 003c 8120     		movs	r0, #129
 4272 003e 0F4D     		ldr	r5, .L907+12
 4273 0040 DB69     		ldr	r3, [r3, #28]
 4274 0042 2946     		mov	r1, r5
 4275 0044 9847     		blx	r3
 4276 0046 031E     		subs	r3, r0, #0
 4277 0048 F1DD     		ble	.L896
 4278 004a 2268     		ldr	r2, [r4]
 4279 004c E918     		adds	r1, r5, r3
 4280 004e 2846     		mov	r0, r5
 4281 0050 D31A     		subs	r3, r2, r3
 4282 0052 2360     		str	r3, [r4]
 4283 0054 2268     		ldr	r2, [r4]
 4284 0056 BDE83840 		pop	{r3, r4, r5, lr}
 4285 005a FFF7FEBF 		b	memmove
 4286              	.L906:
 4287 005e 2268     		ldr	r2, [r4]
 4288 0060 92B2     		uxth	r2, r2
 4289 0062 EAE7     		b	.L900
 4290              	.L902:
 4291 0064 064A     		ldr	r2, .L907+16
 4292 0066 9368     		ldr	r3, [r2, #8]
ARM GAS  C:\Users\Jay\AppData\Local\Temp\ccjVRGue.s 			page 74


 4293 0068 23F00103 		bic	r3, r3, #1
 4294 006c 9360     		str	r3, [r2, #8]
 4295 006e 38BD     		pop	{r3, r4, r5, pc}
 4296              	.L908:
 4297              		.align	2
 4298              	.L907:
 4299 0070 00000000 		.word	.LANCHOR22
 4300 0074 00000000 		.word	.LANCHOR23
 4301 0078 00000000 		.word	.LANCHOR20
 4302 007c 00000000 		.word	.LANCHOR21
 4303 0080 00000840 		.word	1074266112
 4305              		.section	.text.chdir_last.part.66,"ax",%progbits
 4306              		.align	1
 4307              		.p2align 2,,3
 4308              		.syntax unified
 4309              		.thumb
 4310              		.thumb_func
 4311              		.fpu fpv5-sp-d16
 4313              	chdir_last.part.66:
 4314              		@ args = 0, pretend = 0, frame = 0
 4315              		@ frame_needed = 0, uses_anonymous_args = 0
 4316 0000 08B5     		push	{r3, lr}
 4317 0002 0948     		ldr	r0, .L915
 4318 0004 FFF7FEFF 		bl	f_chdir
 4319 0008 084B     		ldr	r3, .L915+4
 4320 000a 0028     		cmp	r0, #0
 4321 000c 4FF48002 		mov	r2, #4194304
 4322 0010 0CBF     		ite	eq
 4323 0012 0120     		moveq	r0, #1
 4324 0014 0020     		movne	r0, #0
 4325 0016 9A61     		str	r2, [r3, #24]
 4326 0018 05D0     		beq	.L910
 4327 001a 054B     		ldr	r3, .L915+8
 4328 001c 0022     		movs	r2, #0
 4329 001e 83F82020 		strb	r2, [r3, #32]
 4330 0022 83F80023 		strb	r2, [r3, #768]
 4331              	.L910:
 4332 0026 08BD     		pop	{r3, pc}
 4333              	.L916:
 4334              		.align	2
 4335              	.L915:
 4336 0028 20000000 		.word	dat_file+32
 4337 002c 00100258 		.word	1476530176
 4338 0030 00000000 		.word	dat_file
 4340              		.section	.text.d64_dir_up,"ax",%progbits
 4341              		.align	1
 4342              		.p2align 2,,3
 4343              		.syntax unified
 4344              		.thumb
 4345              		.thumb_func
 4346              		.fpu fpv5-sp-d16
 4348              	d64_dir_up:
 4349              		@ args = 0, pretend = 0, frame = 0
 4350              		@ frame_needed = 0, uses_anonymous_args = 0
 4351 0000 0D4B     		ldr	r3, .L921
 4352 0002 4FF0FF32 		mov	r2, #-1
 4353 0006 0D48     		ldr	r0, .L921+4
ARM GAS  C:\Users\Jay\AppData\Local\Temp\ccjVRGue.s 			page 75


 4354 0008 10B5     		push	{r4, lr}
 4355 000a 5A73     		strb	r2, [r3, #13]
 4356 000c 0C46     		mov	r4, r1
 4357 000e 9A73     		strb	r2, [r3, #14]
 4358 0010 FFF7FEFF 		bl	f_close
 4359 0014 0A4A     		ldr	r2, .L921+8
 4360 0016 4FF48001 		mov	r1, #4194304
 4361 001a 0A4B     		ldr	r3, .L921+12
 4362 001c 0A48     		ldr	r0, .L921+16
 4363 001e 9161     		str	r1, [r2, #24]
 4364 0020 1860     		str	r0, [r3]
 4365 0022 1CB9     		cbnz	r4, .L920
 4366 0024 0368     		ldr	r3, [r0]
 4367 0026 BDE81040 		pop	{r4, lr}
 4368 002a 1847     		bx	r3	@ indirect register sibling call
 4369              	.L920:
 4370 002c 4368     		ldr	r3, [r0, #4]
 4371 002e 0121     		movs	r1, #1
 4372 0030 BDE81040 		pop	{r4, lr}
 4373 0034 1847     		bx	r3	@ indirect register sibling call
 4374              	.L922:
 4375 0036 00BF     		.align	2
 4376              	.L921:
 4377 0038 00000000 		.word	dat_file
 4378 003c 14000000 		.word	.LANCHOR24+20
 4379 0040 00100258 		.word	1476530176
 4380 0044 00000000 		.word	.LANCHOR13
 4381 0048 00000000 		.word	.LANCHOR25
 4383              		.section	.text.d64_read_file_sector,"ax",%progbits
 4384              		.align	1
 4385              		.p2align 2,,3
 4386              		.syntax unified
 4387              		.thumb
 4388              		.thumb_func
 4389              		.fpu fpv5-sp-d16
 4391              	d64_read_file_sector:
 4392              		@ args = 0, pretend = 0, frame = 0
 4393              		@ frame_needed = 0, uses_anonymous_args = 0
 4394 0000 0A78     		ldrb	r2, [r1]	@ zero_extendqisi2
 4395 0002 0AB9     		cbnz	r2, .L924
 4396 0004 0020     		movs	r0, #0
 4397 0006 7047     		bx	lr
 4398              	.L924:
 4399 0008 10B5     		push	{r4, lr}
 4400 000a 0C46     		mov	r4, r1
 4401 000c FFF7FEFF 		bl	d64_read_next_sector
 4402 0010 30B1     		cbz	r0, .L926
 4403 0012 2378     		ldrb	r3, [r4]	@ zero_extendqisi2
 4404 0014 33B9     		cbnz	r3, .L927
 4405 0016 6078     		ldrb	r0, [r4, #1]	@ zero_extendqisi2
 4406 0018 10B1     		cbz	r0, .L926
 4407 001a 0138     		subs	r0, r0, #1
 4408 001c C0B2     		uxtb	r0, r0
 4409 001e 10BD     		pop	{r4, pc}
 4410              	.L926:
 4411 0020 0020     		movs	r0, #0
 4412 0022 10BD     		pop	{r4, pc}
ARM GAS  C:\Users\Jay\AppData\Local\Temp\ccjVRGue.s 			page 76


 4413              	.L927:
 4414 0024 FE20     		movs	r0, #254
 4415 0026 10BD     		pop	{r4, pc}
 4417              		.section	.text.d64_read_disk_header,"ax",%progbits
 4418              		.align	1
 4419              		.p2align 2,,3
 4420              		.syntax unified
 4421              		.thumb
 4422              		.thumb_func
 4423              		.fpu fpv5-sp-d16
 4425              	d64_read_disk_header:
 4426              		@ args = 0, pretend = 0, frame = 0
 4427              		@ frame_needed = 0, uses_anonymous_args = 0
 4428 0000 10B5     		push	{r4, lr}
 4429 0002 90F82832 		ldrb	r3, [r0, #552]	@ zero_extendqisi2
 4430 0006 00F22A21 		addw	r1, r0, #554
 4431 000a 0446     		mov	r4, r0
 4432 000c 032B     		cmp	r3, #3
 4433 000e 4FF00003 		mov	r3, #0
 4434 0012 0CBF     		ite	eq
 4435 0014 2822     		moveq	r2, #40
 4436 0016 1222     		movne	r2, #18
 4437 0018 80F82B32 		strb	r3, [r0, #555]
 4438 001c 80F82A22 		strb	r2, [r0, #554]
 4439 0020 FFF7FEFF 		bl	d64_read_next_sector
 4440 0024 E0B1     		cbz	r0, .L940
 4441 0026 94F82832 		ldrb	r3, [r4, #552]	@ zero_extendqisi2
 4442 002a 0022     		movs	r2, #0
 4443 002c 032B     		cmp	r3, #3
 4444 002e 0CBF     		ite	eq
 4445 0030 04F22E23 		addweq	r3, r4, #558
 4446 0034 04F2BA23 		addwne	r3, r4, #698
 4447 0038 C4F82C33 		str	r3, [r4, #812]
 4448 003c DA75     		strb	r2, [r3, #23]
 4449 003e 94F82832 		ldrb	r3, [r4, #552]	@ zero_extendqisi2
 4450 0042 032B     		cmp	r3, #3
 4451 0044 0DD0     		beq	.L949
 4452 0046 1222     		movs	r2, #18
 4453 0048 0123     		movs	r3, #1
 4454 004a 84F82A22 		strb	r2, [r4, #554]
 4455 004e 84F82B32 		strb	r3, [r4, #555]
 4456              	.L944:
 4457 0052 0022     		movs	r2, #0
 4458 0054 04F22A33 		addw	r3, r4, #810
 4459 0058 84F82922 		strb	r2, [r4, #553]
 4460 005c C4F83033 		str	r3, [r4, #816]
 4461              	.L940:
 4462 0060 10BD     		pop	{r4, pc}
 4463              	.L949:
 4464 0062 2822     		movs	r2, #40
 4465 0064 84F82B32 		strb	r3, [r4, #555]
 4466 0068 84F82A22 		strb	r2, [r4, #554]
 4467 006c F1E7     		b	.L944
 4469 006e 00BF     		.section	.text.disk_find_file.constprop.81,"ax",%progbits
 4470              		.align	1
 4471              		.p2align 2,,3
 4472              		.syntax unified
ARM GAS  C:\Users\Jay\AppData\Local\Temp\ccjVRGue.s 			page 77


 4473              		.thumb
 4474              		.thumb_func
 4475              		.fpu fpv5-sp-d16
 4477              	disk_find_file.constprop.81:
 4478              		@ args = 0, pretend = 0, frame = 0
 4479              		@ frame_needed = 0, uses_anonymous_args = 0
 4480 0000 F8B5     		push	{r3, r4, r5, r6, r7, lr}
 4481 0002 134C     		ldr	r4, .L962
 4482 0004 0022     		movs	r2, #0
 4483 0006 0746     		mov	r7, r0
 4484 0008 0D46     		mov	r5, r1
 4485 000a 94F83C32 		ldrb	r3, [r4, #572]	@ zero_extendqisi2
 4486 000e 84F83D22 		strb	r2, [r4, #573]
 4487 0012 032B     		cmp	r3, #3
 4488 0014 0CBF     		ite	eq
 4489 0016 4FF44A73 		moveq	r3, #808
 4490 001a 4FF48973 		movne	r3, #274
 4491 001e A4F83E32 		strh	r3, [r4, #574]	@ movhi
 4492 0022 0C4B     		ldr	r3, .L962+4
 4493 0024 A3F22A36 		subw	r6, r3, #810
 4494 0028 C4F84433 		str	r3, [r4, #836]
 4495              	.L959:
 4496 002c 3046     		mov	r0, r6
 4497 002e FFF7FEFF 		bl	d64_read_dir
 4498 0032 3946     		mov	r1, r7
 4499 0034 58B1     		cbz	r0, .L955
 4500 0036 D4F84403 		ldr	r0, [r4, #836]
 4501 003a 25B1     		cbz	r5, .L954
 4502 003c 8378     		ldrb	r3, [r0, #2]	@ zero_extendqisi2
 4503 003e 03F00703 		and	r3, r3, #7
 4504 0042 9D42     		cmp	r5, r3
 4505 0044 F2D1     		bne	.L959
 4506              	.L954:
 4507 0046 FFF7FEFF 		bl	disk_filename_match
 4508 004a 0028     		cmp	r0, #0
 4509 004c EED0     		beq	.L959
 4510              	.L955:
 4511 004e F8BD     		pop	{r3, r4, r5, r6, r7, pc}
 4512              	.L963:
 4513              		.align	2
 4514              	.L962:
 4515 0050 00000000 		.word	.LANCHOR24
 4516 0054 3E030000 		.word	.LANCHOR24+830
 4518              		.section	.text.format_path.constprop.88,"ax",%progbits
 4519              		.align	1
 4520              		.p2align 2,,3
 4521              		.syntax unified
 4522              		.thumb
 4523              		.thumb_func
 4524              		.fpu fpv5-sp-d16
 4526              	format_path.constprop.88:
 4527              		@ args = 0, pretend = 0, frame = 0
 4528              		@ frame_needed = 0, uses_anonymous_args = 0
 4529 0000 F8B5     		push	{r3, r4, r5, r6, r7, lr}
 4530 0002 374F     		ldr	r7, .L989
 4531 0004 0023     		movs	r3, #0
 4532 0006 374D     		ldr	r5, .L989+4
ARM GAS  C:\Users\Jay\AppData\Local\Temp\ccjVRGue.s 			page 78


 4533 0008 3A46     		mov	r2, r7
 4534 000a 04E0     		b	.L965
 4535              	.L967:
 4536 000c B3F5387F 		cmp	r3, #736
 4537 0010 02F8011B 		strb	r1, [r2], #1
 4538 0014 56D0     		beq	.L966
 4539              	.L965:
 4540 0016 15F8011F 		ldrb	r1, [r5, #1]!	@ zero_extendqisi2
 4541 001a 9CB2     		uxth	r4, r3
 4542 001c 1646     		mov	r6, r2
 4543 001e 0133     		adds	r3, r3, #1
 4544 0020 0029     		cmp	r1, #0
 4545 0022 F3D1     		bne	.L967
 4546 0024 98B1     		cbz	r0, .L968
 4547 0026 012C     		cmp	r4, #1
 4548 0028 46D9     		bls	.L969
 4549 002a 0134     		adds	r4, r4, #1
 4550 002c A4B2     		uxth	r4, r4
 4551 002e 2146     		mov	r1, r4
 4552              	.L976:
 4553 0030 2D4B     		ldr	r3, .L989+8
 4554 0032 2F22     		movs	r2, #47
 4555 0034 93F80033 		ldrb	r3, [r3, #768]	@ zero_extendqisi2
 4556 0038 3270     		strb	r2, [r6]
 4557 003a A3B1     		cbz	r3, .L970
 4558              	.L972:
 4559 003c 2B4A     		ldr	r2, .L989+12
 4560              	.L971:
 4561 003e 3B55     		strb	r3, [r7, r4]
 4562 0040 0134     		adds	r4, r4, #1
 4563 0042 12F8013F 		ldrb	r3, [r2, #1]!	@ zero_extendqisi2
 4564 0046 A4B2     		uxth	r4, r4
 4565 0048 002B     		cmp	r3, #0
 4566 004a F8D1     		bne	.L971
 4567 004c 3E19     		adds	r6, r7, r4
 4568              	.L968:
 4569 004e 0023     		movs	r3, #0
 4570 0050 3370     		strb	r3, [r6]
 4571 0052 4CB9     		cbnz	r4, .L973
 4572 0054 2E23     		movs	r3, #46
 4573 0056 2249     		ldr	r1, .L989
 4574 0058 2222     		movs	r2, #34
 4575 005a 2148     		ldr	r0, .L989
 4576 005c 3B80     		strh	r3, [r7]	@ movhi
 4577 005e FFF7FEFF 		bl	to_petscii_pad
 4578 0062 2046     		mov	r0, r4
 4579 0064 F8BD     		pop	{r3, r4, r5, r6, r7, pc}
 4580              	.L970:
 4581 0066 7B54     		strb	r3, [r7, r1]
 4582              	.L973:
 4583 0068 222C     		cmp	r4, #34
 4584 006a 16D8     		bhi	.L987
 4585 006c 012C     		cmp	r4, #1
 4586 006e 07D0     		beq	.L988
 4587 0070 0024     		movs	r4, #0
 4588 0072 1B49     		ldr	r1, .L989
 4589 0074 2222     		movs	r2, #34
ARM GAS  C:\Users\Jay\AppData\Local\Temp\ccjVRGue.s 			page 79


 4590 0076 1A48     		ldr	r0, .L989
 4591 0078 FFF7FEFF 		bl	to_petscii_pad
 4592 007c 2046     		mov	r0, r4
 4593 007e F8BD     		pop	{r3, r4, r5, r6, r7, pc}
 4594              	.L988:
 4595 0080 3C78     		ldrb	r4, [r7]	@ zero_extendqisi2
 4596 0082 2222     		movs	r2, #34
 4597 0084 1649     		ldr	r1, .L989
 4598 0086 A4F12F04 		sub	r4, #47
 4599 008a 1548     		ldr	r0, .L989
 4600 008c FFF7FEFF 		bl	to_petscii_pad
 4601 0090 B4FA84F4 		clz	r4, r4
 4602 0094 6409     		lsrs	r4, r4, #5
 4603 0096 2046     		mov	r0, r4
 4604 0098 F8BD     		pop	{r3, r4, r5, r6, r7, pc}
 4605              	.L987:
 4606 009a A4F12203 		sub	r3, r4, #34
 4607 009e 9BB2     		uxth	r3, r3
 4608 00a0 581C     		adds	r0, r3, #1
 4609              	.L977:
 4610 00a2 2E22     		movs	r2, #46
 4611 00a4 0024     		movs	r4, #0
 4612 00a6 F918     		adds	r1, r7, r3
 4613 00a8 FA54     		strb	r2, [r7, r3]
 4614 00aa 3A54     		strb	r2, [r7, r0]
 4615 00ac 2222     		movs	r2, #34
 4616 00ae 0C48     		ldr	r0, .L989
 4617 00b0 FFF7FEFF 		bl	to_petscii_pad
 4618 00b4 2046     		mov	r0, r4
 4619 00b6 F8BD     		pop	{r3, r4, r5, r6, r7, pc}
 4620              	.L969:
 4621 00b8 0B4B     		ldr	r3, .L989+8
 4622 00ba 93F80033 		ldrb	r3, [r3, #768]	@ zero_extendqisi2
 4623 00be 002B     		cmp	r3, #0
 4624 00c0 BCD1     		bne	.L972
 4625 00c2 C4E7     		b	.L968
 4626              	.L966:
 4627 00c4 30B9     		cbnz	r0, .L979
 4628 00c6 87F8E002 		strb	r0, [r7, #736]
 4629 00ca 40F2BE23 		movw	r3, #702
 4630 00ce 40F2BF20 		movw	r0, #703
 4631 00d2 E6E7     		b	.L977
 4632              	.L979:
 4633 00d4 40F2E121 		movw	r1, #737
 4634 00d8 054E     		ldr	r6, .L989+16
 4635 00da 0C46     		mov	r4, r1
 4636 00dc A8E7     		b	.L976
 4637              	.L990:
 4638 00de 00BF     		.align	2
 4639              	.L989:
 4640 00e0 00000100 		.word	scratch_buf
 4641 00e4 1F000000 		.word	dat_file+31
 4642 00e8 00000000 		.word	dat_file
 4643 00ec 00030000 		.word	dat_file+768
 4644 00f0 E0020100 		.word	scratch_buf+736
 4646              		.section	.text.d64_open.constprop.89,"ax",%progbits
 4647              		.align	1
ARM GAS  C:\Users\Jay\AppData\Local\Temp\ccjVRGue.s 			page 80


 4648              		.p2align 2,,3
 4649              		.syntax unified
 4650              		.thumb
 4651              		.thumb_func
 4652              		.fpu fpv5-sp-d16
 4654              	d64_open.constprop.89:
 4655              		@ args = 0, pretend = 0, frame = 0
 4656              		@ frame_needed = 0, uses_anonymous_args = 0
 4657 0000 38B5     		push	{r3, r4, r5, lr}
 4658 0002 184C     		ldr	r4, .L1002
 4659 0004 0146     		mov	r1, r0
 4660 0006 0122     		movs	r2, #1
 4661 0008 04F11400 		add	r0, r4, #20
 4662 000c FFF7FEFF 		bl	f_open
 4663 0010 28B1     		cbz	r0, .L992
 4664 0012 154B     		ldr	r3, .L1002+4
 4665 0014 4FF48002 		mov	r2, #4194304
 4666 0018 0020     		movs	r0, #0
 4667 001a 9A61     		str	r2, [r3, #24]
 4668 001c 38BD     		pop	{r3, r4, r5, pc}
 4669              	.L992:
 4670 001e 206A     		ldr	r0, [r4, #32]
 4671 0020 FFF7FEFF 		bl	d64_image_type
 4672 0024 0546     		mov	r5, r0
 4673 0026 84F83C02 		strb	r0, [r4, #572]
 4674 002a 88B1     		cbz	r0, .L1001
 4675 002c 032D     		cmp	r5, #3
 4676 002e 4FF00002 		mov	r2, #0
 4677 0032 4FF00100 		mov	r0, #1
 4678 0036 0CBF     		ite	eq
 4679 0038 4FF44A73 		moveq	r3, #808
 4680 003c 4FF48973 		movne	r3, #274
 4681 0040 84F83D22 		strb	r2, [r4, #573]
 4682 0044 A4F83E32 		strh	r3, [r4, #574]	@ movhi
 4683 0048 084B     		ldr	r3, .L1002+8
 4684 004a C4F84433 		str	r3, [r4, #836]
 4685 004e 38BD     		pop	{r3, r4, r5, pc}
 4686              	.L1001:
 4687 0050 04F11400 		add	r0, r4, #20
 4688 0054 FFF7FEFF 		bl	f_close
 4689 0058 034B     		ldr	r3, .L1002+4
 4690 005a 4FF48002 		mov	r2, #4194304
 4691 005e 2846     		mov	r0, r5
 4692 0060 9A61     		str	r2, [r3, #24]
 4693 0062 38BD     		pop	{r3, r4, r5, pc}
 4694              	.L1003:
 4695              		.align	2
 4696              	.L1002:
 4697 0064 00000000 		.word	.LANCHOR24
 4698 0068 00100258 		.word	1476530176
 4699 006c 3E030000 		.word	.LANCHOR24+830
 4701              		.section	.text.printhex.constprop.94,"ax",%progbits
 4702              		.align	1
 4703              		.p2align 2,,3
 4704              		.syntax unified
 4705              		.thumb
 4706              		.thumb_func
ARM GAS  C:\Users\Jay\AppData\Local\Temp\ccjVRGue.s 			page 81


 4707              		.fpu fpv5-sp-d16
 4709              	printhex.constprop.94:
 4710              		@ args = 0, pretend = 0, frame = 8
 4711              		@ frame_needed = 0, uses_anonymous_args = 0
 4712 0000 0029     		cmp	r1, #0
 4713 0002 4FF00002 		mov	r2, #0
 4714 0006 2DE9F043 		push	{r4, r5, r6, r7, r8, r9, lr}
 4715 000a B4BF     		ite	lt
 4716 000c 01F10108 		addlt	r8, r1, #1
 4717 0010 8846     		movge	r8, r1
 4718 0012 83B0     		sub	sp, sp, #12
 4719 0014 8946     		mov	r9, r1
 4720 0016 4FEA6808 		asr	r8, r8, #1
 4721 001a 124F     		ldr	r7, .L1020
 4722 001c 0DF10706 		add	r6, sp, #7
 4723 0020 1546     		mov	r5, r2
 4724 0022 C8F10408 		rsb	r8, r8, #4
 4725 0026 0190     		str	r0, [sp, #4]
 4726              	.L1010:
 4727 0028 16F80149 		ldrb	r4, [r6], #-1	@ zero_extendqisi2
 4728 002c 2309     		lsrs	r3, r4, #4
 4729 002e 74B1     		cbz	r4, .L1018
 4730              	.L1006:
 4731 0030 04F00F04 		and	r4, r4, #15
 4732 0034 F85C     		ldrb	r0, [r7, r3]	@ zero_extendqisi2
 4733 0036 FFF7FEFF 		bl	buf_putchar
 4734 003a 385D     		ldrb	r0, [r7, r4]	@ zero_extendqisi2
 4735 003c FFF7FEFF 		bl	buf_putchar
 4736 0040 0122     		movs	r2, #1
 4737              	.L1008:
 4738 0042 0135     		adds	r5, r5, #1
 4739 0044 042D     		cmp	r5, #4
 4740 0046 EFD1     		bne	.L1010
 4741 0048 03B0     		add	sp, sp, #12
 4742              		@ sp needed
 4743 004a BDE8F083 		pop	{r4, r5, r6, r7, r8, r9, pc}
 4744              	.L1018:
 4745 004e B9F1000F 		cmp	r9, #0
 4746 0052 04D1     		bne	.L1019
 4747              	.L1007:
 4748 0054 032D     		cmp	r5, #3
 4749 0056 EBD0     		beq	.L1006
 4750 0058 002A     		cmp	r2, #0
 4751 005a F2D0     		beq	.L1008
 4752 005c E8E7     		b	.L1006
 4753              	.L1019:
 4754 005e A845     		cmp	r8, r5
 4755 0060 E6D9     		bls	.L1006
 4756 0062 F7E7     		b	.L1007
 4757              	.L1021:
 4758              		.align	2
 4759              	.L1020:
 4760 0064 00000000 		.word	.LANCHOR26
 4762              		.section	.text.printint.part.25.constprop.95,"ax",%progbits
 4763              		.align	1
 4764              		.p2align 2,,3
 4765              		.syntax unified
ARM GAS  C:\Users\Jay\AppData\Local\Temp\ccjVRGue.s 			page 82


 4766              		.thumb
 4767              		.thumb_func
 4768              		.fpu fpv5-sp-d16
 4770              	printint.part.25.constprop.95:
 4771              		@ args = 0, pretend = 0, frame = 0
 4772              		@ frame_needed = 0, uses_anonymous_args = 0
 4773 0000 F8B5     		push	{r3, r4, r5, r6, r7, lr}
 4774 0002 051E     		subs	r5, r0, #0
 4775 0004 05DA     		bge	.L1023
 4776 0006 CB07     		lsls	r3, r1, #31
 4777 0008 03D5     		bpl	.L1023
 4778 000a 2D20     		movs	r0, #45
 4779 000c 6D42     		negs	r5, r5
 4780 000e FFF7FEFF 		bl	buf_putchar
 4781              	.L1023:
 4782 0012 0A26     		movs	r6, #10
 4783 0014 0022     		movs	r2, #0
 4784 0016 0B4C     		ldr	r4, .L1037
 4785 0018 0B4F     		ldr	r7, .L1037+4
 4786              	.L1025:
 4787 001a 95FBF4F3 		sdiv	r3, r5, r4
 4788 001e 03F13000 		add	r0, r3, #48
 4789 0022 1A43     		orrs	r2, r2, r3
 4790 0024 04FB1355 		mls	r5, r4, r3, r5
 4791 0028 C0B2     		uxtb	r0, r0
 4792 002a 02D0     		beq	.L1024
 4793 002c FFF7FEFF 		bl	buf_putchar
 4794 0030 0122     		movs	r2, #1
 4795              	.L1024:
 4796 0032 87FB0413 		smull	r1, r3, r7, r4
 4797 0036 013E     		subs	r6, r6, #1
 4798 0038 4FEAE474 		asr	r4, r4, #31
 4799 003c C4EBA304 		rsb	r4, r4, r3, asr #2
 4800 0040 EBD1     		bne	.L1025
 4801 0042 F8BD     		pop	{r3, r4, r5, r6, r7, pc}
 4802              	.L1038:
 4803              		.align	2
 4804              	.L1037:
 4805 0044 00CA9A3B 		.word	1000000000
 4806 0048 67666666 		.word	1717986919
 4808              		.section	.text.sprint,"ax",%progbits
 4809              		.align	1
 4810              		.p2align 2,,3
 4811              		.syntax unified
 4812              		.thumb
 4813              		.thumb_func
 4814              		.fpu fpv5-sp-d16
 4816              	sprint:
 4817              		@ args = 4, pretend = 12, frame = 8
 4818              		@ frame_needed = 0, uses_anonymous_args = 1
 4819 0000 0EB4     		push	{r1, r2, r3}
 4820 0002 2DE9F041 		push	{r4, r5, r6, r7, r8, lr}
 4821 0006 83B0     		sub	sp, sp, #12
 4822 0008 774B     		ldr	r3, .L1077
 4823 000a 0024     		movs	r4, #0
 4824 000c 774E     		ldr	r6, .L1077+4
 4825 000e 09AA     		add	r2, sp, #36
ARM GAS  C:\Users\Jay\AppData\Local\Temp\ccjVRGue.s 			page 83


 4826 0010 1860     		str	r0, [r3]
 4827 0012 0746     		mov	r7, r0
 4828 0014 3460     		str	r4, [r6]
 4829 0016 52F8045B 		ldr	r5, [r2], #4
 4830 001a 2B78     		ldrb	r3, [r5]	@ zero_extendqisi2
 4831 001c 0192     		str	r2, [sp, #4]
 4832 001e 002B     		cmp	r3, #0
 4833 0020 00F0E080 		beq	.L1061
 4834 0024 A046     		mov	r8, r4
 4835              	.L1060:
 4836 0026 252B     		cmp	r3, #37
 4837 0028 18D0     		beq	.L1073
 4838 002a 64B3     		cbz	r4, .L1074
 4839 002c A3F15802 		sub	r2, r3, #88
 4840 0030 202A     		cmp	r2, #32
 4841 0032 00F2B780 		bhi	.L1045
 4842 0036 DFE802F0 		tbb	[pc, r2]
 4843              	.L1047:
 4844 003a 95       		.byte	(.L1046-.L1047)/2
 4845 003b B5       		.byte	(.L1045-.L1047)/2
 4846 003c B5       		.byte	(.L1045-.L1047)/2
 4847 003d B5       		.byte	(.L1045-.L1047)/2
 4848 003e B5       		.byte	(.L1045-.L1047)/2
 4849 003f B5       		.byte	(.L1045-.L1047)/2
 4850 0040 B5       		.byte	(.L1045-.L1047)/2
 4851 0041 B5       		.byte	(.L1045-.L1047)/2
 4852 0042 B5       		.byte	(.L1045-.L1047)/2
 4853 0043 B5       		.byte	(.L1045-.L1047)/2
 4854 0044 B5       		.byte	(.L1045-.L1047)/2
 4855 0045 86       		.byte	(.L1048-.L1047)/2
 4856 0046 75       		.byte	(.L1049-.L1047)/2
 4857 0047 B5       		.byte	(.L1045-.L1047)/2
 4858 0048 B5       		.byte	(.L1045-.L1047)/2
 4859 0049 B5       		.byte	(.L1045-.L1047)/2
 4860 004a B5       		.byte	(.L1045-.L1047)/2
 4861 004b B5       		.byte	(.L1045-.L1047)/2
 4862 004c B5       		.byte	(.L1045-.L1047)/2
 4863 004d B5       		.byte	(.L1045-.L1047)/2
 4864 004e B5       		.byte	(.L1045-.L1047)/2
 4865 004f B5       		.byte	(.L1045-.L1047)/2
 4866 0050 B5       		.byte	(.L1045-.L1047)/2
 4867 0051 B5       		.byte	(.L1045-.L1047)/2
 4868 0052 60       		.byte	(.L1050-.L1047)/2
 4869 0053 B5       		.byte	(.L1045-.L1047)/2
 4870 0054 B5       		.byte	(.L1045-.L1047)/2
 4871 0055 35       		.byte	(.L1051-.L1047)/2
 4872 0056 B5       		.byte	(.L1045-.L1047)/2
 4873 0057 A5       		.byte	(.L1052-.L1047)/2
 4874 0058 B5       		.byte	(.L1045-.L1047)/2
 4875 0059 B5       		.byte	(.L1045-.L1047)/2
 4876 005a 95       		.byte	(.L1046-.L1047)/2
 4877 005b 00       		.p2align 1
 4878              	.L1073:
 4879 005c E4B1     		cbz	r4, .L1075
 4880 005e 3268     		ldr	r2, [r6]
 4881 0060 0024     		movs	r4, #0
 4882 0062 BB54     		strb	r3, [r7, r2]
ARM GAS  C:\Users\Jay\AppData\Local\Temp\ccjVRGue.s 			page 84


 4883 0064 0132     		adds	r2, r2, #1
 4884 0066 15F8013F 		ldrb	r3, [r5, #1]!	@ zero_extendqisi2
 4885 006a 3260     		str	r2, [r6]
 4886 006c 002B     		cmp	r3, #0
 4887 006e DAD1     		bne	.L1060
 4888              	.L1076:
 4889 0070 3368     		ldr	r3, [r6]
 4890 0072 1F44     		add	r7, r7, r3
 4891 0074 0133     		adds	r3, r3, #1
 4892              	.L1040:
 4893 0076 0022     		movs	r2, #0
 4894 0078 3360     		str	r3, [r6]
 4895 007a 3A70     		strb	r2, [r7]
 4896 007c 03B0     		add	sp, sp, #12
 4897              		@ sp needed
 4898 007e BDE8F041 		pop	{r4, r5, r6, r7, r8, lr}
 4899 0082 03B0     		add	sp, sp, #12
 4900 0084 7047     		bx	lr
 4901              	.L1074:
 4902 0086 3268     		ldr	r2, [r6]
 4903 0088 511C     		adds	r1, r2, #1
 4904 008a BB54     		strb	r3, [r7, r2]
 4905 008c 15F8013F 		ldrb	r3, [r5, #1]!	@ zero_extendqisi2
 4906 0090 3160     		str	r1, [r6]
 4907 0092 002B     		cmp	r3, #0
 4908 0094 C7D1     		bne	.L1060
 4909 0096 EBE7     		b	.L1076
 4910              	.L1075:
 4911 0098 15F8013F 		ldrb	r3, [r5, #1]!	@ zero_extendqisi2
 4912 009c 0124     		movs	r4, #1
 4913 009e 002B     		cmp	r3, #0
 4914 00a0 C1D1     		bne	.L1060
 4915 00a2 E5E7     		b	.L1076
 4916              	.L1051:
 4917 00a4 08F1FF34 		add	r4, r8, #-1
 4918 00a8 B8F1000F 		cmp	r8, #0
 4919 00ac 0BD0     		beq	.L1054
 4920 00ae 3068     		ldr	r0, [r6]
 4921 00b0 2021     		movs	r1, #32
 4922 00b2 3A18     		adds	r2, r7, r0
 4923 00b4 02EB0803 		add	r3, r2, r8
 4924              	.L1055:
 4925 00b8 02F8011B 		strb	r1, [r2], #1
 4926 00bc 9342     		cmp	r3, r2
 4927 00be FBD1     		bne	.L1055
 4928 00c0 431C     		adds	r3, r0, #1
 4929 00c2 2344     		add	r3, r3, r4
 4930 00c4 3360     		str	r3, [r6]
 4931              	.L1054:
 4932 00c6 019A     		ldr	r2, [sp, #4]
 4933 00c8 1468     		ldr	r4, [r2]
 4934 00ca 0432     		adds	r2, r2, #4
 4935 00cc 2378     		ldrb	r3, [r4]	@ zero_extendqisi2
 4936 00ce 0192     		str	r2, [sp, #4]
 4937 00d0 63B1     		cbz	r3, .L1056
 4938 00d2 3068     		ldr	r0, [r6]
 4939 00d4 621C     		adds	r2, r4, #1
ARM GAS  C:\Users\Jay\AppData\Local\Temp\ccjVRGue.s 			page 85


 4940 00d6 411E     		subs	r1, r0, #1
 4941 00d8 001B     		subs	r0, r0, r4
 4942 00da 3944     		add	r1, r1, r7
 4943              	.L1057:
 4944 00dc 01F8013F 		strb	r3, [r1, #1]!
 4945 00e0 8418     		adds	r4, r0, r2
 4946 00e2 12F8013B 		ldrb	r3, [r2], #1	@ zero_extendqisi2
 4947 00e6 002B     		cmp	r3, #0
 4948 00e8 F8D1     		bne	.L1057
 4949 00ea 3460     		str	r4, [r6]
 4950              	.L1056:
 4951 00ec 0024     		movs	r4, #0
 4952 00ee 15F8013F 		ldrb	r3, [r5, #1]!	@ zero_extendqisi2
 4953 00f2 A046     		mov	r8, r4
 4954 00f4 002B     		cmp	r3, #0
 4955 00f6 96D1     		bne	.L1060
 4956 00f8 BAE7     		b	.L1076
 4957              	.L1050:
 4958 00fa 3368     		ldr	r3, [r6]
 4959 00fc 3021     		movs	r1, #48
 4960 00fe 019A     		ldr	r2, [sp, #4]
 4961 0100 7820     		movs	r0, #120
 4962 0102 F954     		strb	r1, [r7, r3]
 4963 0104 F918     		adds	r1, r7, r3
 4964 0106 141D     		adds	r4, r2, #4
 4965 0108 0233     		adds	r3, r3, #2
 4966 010a 4870     		strb	r0, [r1, #1]
 4967 010c 4146     		mov	r1, r8
 4968 010e 1068     		ldr	r0, [r2]
 4969 0110 3360     		str	r3, [r6]
 4970 0112 0194     		str	r4, [sp, #4]
 4971 0114 FFF7FEFF 		bl	printhex.constprop.94
 4972 0118 15F8013F 		ldrb	r3, [r5, #1]!	@ zero_extendqisi2
 4973 011c 0024     		movs	r4, #0
 4974 011e 002B     		cmp	r3, #0
 4975 0120 81D1     		bne	.L1060
 4976 0122 A5E7     		b	.L1076
 4977              	.L1049:
 4978 0124 019B     		ldr	r3, [sp, #4]
 4979 0126 1A1D     		adds	r2, r3, #4
 4980 0128 1C68     		ldr	r4, [r3]
 4981 012a 0192     		str	r2, [sp, #4]
 4982 012c 002C     		cmp	r4, #0
 4983 012e 49D0     		beq	.L1072
 4984 0130 2046     		mov	r0, r4
 4985 0132 0121     		movs	r1, #1
 4986 0134 FFF7FEFF 		bl	printint.part.25.constprop.95
 4987 0138 15F8013F 		ldrb	r3, [r5, #1]!	@ zero_extendqisi2
 4988 013c 0024     		movs	r4, #0
 4989 013e 002B     		cmp	r3, #0
 4990 0140 7FF471AF 		bne	.L1060
 4991 0144 94E7     		b	.L1076
 4992              	.L1048:
 4993 0146 019A     		ldr	r2, [sp, #4]
 4994 0148 0024     		movs	r4, #0
 4995 014a 3368     		ldr	r3, [r6]
 4996 014c 1178     		ldrb	r1, [r2]	@ zero_extendqisi2
ARM GAS  C:\Users\Jay\AppData\Local\Temp\ccjVRGue.s 			page 86


 4997 014e 101D     		adds	r0, r2, #4
 4998 0150 5A1C     		adds	r2, r3, #1
 4999 0152 F954     		strb	r1, [r7, r3]
 5000 0154 15F8013F 		ldrb	r3, [r5, #1]!	@ zero_extendqisi2
 5001 0158 0190     		str	r0, [sp, #4]
 5002 015a 3260     		str	r2, [r6]
 5003 015c 002B     		cmp	r3, #0
 5004 015e 7FF462AF 		bne	.L1060
 5005 0162 85E7     		b	.L1076
 5006              	.L1046:
 5007 0164 019B     		ldr	r3, [sp, #4]
 5008 0166 4146     		mov	r1, r8
 5009 0168 4FF00008 		mov	r8, #0
 5010 016c 1A1D     		adds	r2, r3, #4
 5011 016e 1868     		ldr	r0, [r3]
 5012 0170 4446     		mov	r4, r8
 5013 0172 0192     		str	r2, [sp, #4]
 5014 0174 FFF7FEFF 		bl	printhex.constprop.94
 5015 0178 15F8013F 		ldrb	r3, [r5, #1]!	@ zero_extendqisi2
 5016 017c 002B     		cmp	r3, #0
 5017 017e 7FF452AF 		bne	.L1060
 5018 0182 75E7     		b	.L1076
 5019              	.L1052:
 5020 0184 019B     		ldr	r3, [sp, #4]
 5021 0186 1A1D     		adds	r2, r3, #4
 5022 0188 1C68     		ldr	r4, [r3]
 5023 018a 0192     		str	r2, [sp, #4]
 5024 018c D4B1     		cbz	r4, .L1072
 5025 018e 2046     		mov	r0, r4
 5026 0190 0021     		movs	r1, #0
 5027 0192 FFF7FEFF 		bl	printint.part.25.constprop.95
 5028 0196 15F8013F 		ldrb	r3, [r5, #1]!	@ zero_extendqisi2
 5029 019a 0024     		movs	r4, #0
 5030 019c 002B     		cmp	r3, #0
 5031 019e 7FF442AF 		bne	.L1060
 5032 01a2 65E7     		b	.L1076
 5033              	.L1045:
 5034 01a4 A3F13002 		sub	r2, r3, #48
 5035 01a8 092A     		cmp	r2, #9
 5036 01aa 14D8     		bhi	.L1063
 5037 01ac 08EB8808 		add	r8, r8, r8, lsl #2
 5038 01b0 03EB4803 		add	r3, r3, r8, lsl #1
 5039 01b4 A3F13008 		sub	r8, r3, #48
 5040 01b8 15F8013F 		ldrb	r3, [r5, #1]!	@ zero_extendqisi2
 5041 01bc 002B     		cmp	r3, #0
 5042 01be 7FF432AF 		bne	.L1060
 5043 01c2 55E7     		b	.L1076
 5044              	.L1072:
 5045 01c4 3020     		movs	r0, #48
 5046 01c6 FFF7FEFF 		bl	buf_putchar
 5047 01ca 15F8013F 		ldrb	r3, [r5, #1]!	@ zero_extendqisi2
 5048 01ce 002B     		cmp	r3, #0
 5049 01d0 7FF429AF 		bne	.L1060
 5050 01d4 4CE7     		b	.L1076
 5051              	.L1063:
 5052 01d6 15F8013F 		ldrb	r3, [r5, #1]!	@ zero_extendqisi2
 5053 01da 0024     		movs	r4, #0
ARM GAS  C:\Users\Jay\AppData\Local\Temp\ccjVRGue.s 			page 87


 5054 01dc 002B     		cmp	r3, #0
 5055 01de 7FF422AF 		bne	.L1060
 5056 01e2 45E7     		b	.L1076
 5057              	.L1061:
 5058 01e4 0123     		movs	r3, #1
 5059 01e6 46E7     		b	.L1040
 5060              	.L1078:
 5061              		.align	2
 5062              	.L1077:
 5063 01e8 00000000 		.word	.LANCHOR4
 5064 01ec 00000000 		.word	.LANCHOR5
 5066              		.section	.text.settings_basic_change,"ax",%progbits
 5067              		.align	1
 5068              		.p2align 2,,3
 5069              		.syntax unified
 5070              		.thumb
 5071              		.thumb_func
 5072              		.fpu fpv5-sp-d16
 5074              	settings_basic_change:
 5075              		@ args = 0, pretend = 0, frame = 0
 5076              		@ frame_needed = 0, uses_anonymous_args = 0
 5077 0000 1048     		ldr	r0, .L1083
 5078 0002 10B5     		push	{r4, lr}
 5079 0004 0378     		ldrb	r3, [r0]	@ zero_extendqisi2
 5080 0006 0C46     		mov	r4, r1
 5081 0008 DA07     		lsls	r2, r3, #31
 5082 000a 16D5     		bpl	.L1080
 5083 000c 23F00103 		bic	r3, r3, #1
 5084 0010 0D4A     		ldr	r2, .L1083+4
 5085 0012 0370     		strb	r3, [r0]
 5086              	.L1081:
 5087 0014 0D49     		ldr	r1, .L1083+8
 5088 0016 0E48     		ldr	r0, .L1083+12
 5089 0018 FFF7FEFF 		bl	sprint
 5090 001c 0C49     		ldr	r1, .L1083+12
 5091 001e 2422     		movs	r2, #36
 5092 0020 601C     		adds	r0, r4, #1
 5093 0022 FFF7FEFF 		bl	to_petscii_pad
 5094 0026 0B4B     		ldr	r3, .L1083+16
 5095 0028 2022     		movs	r2, #32
 5096 002a 1B68     		ldr	r3, [r3]
 5097 002c 84F82520 		strb	r2, [r4, #37]
 5098 0030 1846     		mov	r0, r3
 5099 0032 1B68     		ldr	r3, [r3]
 5100 0034 9847     		blx	r3
 5101 0036 0020     		movs	r0, #0
 5102 0038 10BD     		pop	{r4, pc}
 5103              	.L1080:
 5104 003a 43F00103 		orr	r3, r3, #1
 5105 003e 064A     		ldr	r2, .L1083+20
 5106 0040 0370     		strb	r3, [r0]
 5107 0042 E7E7     		b	.L1081
 5108              	.L1084:
 5109              		.align	2
 5110              	.L1083:
 5111 0044 00000000 		.word	.LANCHOR27
 5112 0048 04000000 		.word	.LC20
ARM GAS  C:\Users\Jay\AppData\Local\Temp\ccjVRGue.s 			page 88


 5113 004c 08000000 		.word	.LC21
 5114 0050 00000100 		.word	scratch_buf
 5115 0054 00000000 		.word	.LANCHOR13
 5116 0058 00000000 		.word	.LC19
 5118              		.section	.text.sd_send_page,"ax",%progbits
 5119              		.align	1
 5120              		.p2align 2,,3
 5121              		.syntax unified
 5122              		.thumb
 5123              		.thumb_func
 5124              		.fpu fpv5-sp-d16
 5126              	sd_send_page:
 5127              		@ args = 0, pretend = 0, frame = 296
 5128              		@ frame_needed = 0, uses_anonymous_args = 0
 5129 0000 2DE9F04F 		push	{r4, r5, r6, r7, r8, r9, r10, fp, lr}
 5130 0004 077D     		ldrb	r7, [r0, #20]	@ zero_extendqisi2
 5131 0006 CBB0     		sub	sp, sp, #300
 5132 0008 8146     		mov	r9, r0
 5133 000a 0191     		str	r1, [sp, #4]
 5134 000c 002F     		cmp	r7, #0
 5135 000e 40F09D80 		bne	.L1103
 5136 0012 B0F87830 		ldrh	r3, [r0, #120]
 5137 0016 04AE     		add	r6, sp, #16
 5138 0018 002B     		cmp	r3, #0
 5139 001a 5DD0     		beq	.L1087
 5140              	.L1113:
 5141 001c DFF85481 		ldr	r8, .L1117+28
 5142 0020 4D4C     		ldr	r4, .L1117
 5143 0022 4E4D     		ldr	r5, .L1117+4
 5144              	.L1086:
 5145 0024 09F1480B 		add	fp, r9, #72
 5146 0028 3146     		mov	r1, r6
 5147 002a 5846     		mov	r0, fp
 5148 002c FFF7FEFF 		bl	f_readdir
 5149 0030 4B4B     		ldr	r3, .L1117+8
 5150 0032 4FF48002 		mov	r2, #4194304
 5151 0036 9A61     		str	r2, [r3, #24]
 5152 0038 0028     		cmp	r0, #0
 5153 003a 67D1     		bne	.L1114
 5154 003c B37D     		ldrb	r3, [r6, #22]	@ zero_extendqisi2
 5155 003e 002B     		cmp	r3, #0
 5156 0040 66D0     		beq	.L1089
 5157 0042 7B1C     		adds	r3, r7, #1
 5158 0044 BB46     		mov	fp, r7
 5159 0046 DFB2     		uxtb	r7, r3
 5160              	.L1102:
 5161 0048 4FF0200A 		mov	r10, #32
 5162 004c 1F22     		movs	r2, #31
 5163 004e 0DF12601 		add	r1, sp, #38
 5164 0052 4448     		ldr	r0, .L1117+12
 5165 0054 88F800A0 		strb	r10, [r8]
 5166 0058 FFF7FEFF 		bl	to_petscii_pad
 5167 005c 327A     		ldrb	r2, [r6, #8]	@ zero_extendqisi2
 5168 005e 88F820A0 		strb	r10, [r8, #32]
 5169 0062 D306     		lsls	r3, r2, #27
 5170 0064 45D4     		bmi	.L1115
 5171 0066 404B     		ldr	r3, .L1117+16
ARM GAS  C:\Users\Jay\AppData\Local\Temp\ccjVRGue.s 			page 89


 5172 0068 3268     		ldr	r2, [r6]
 5173 006a 93E80300 		ldm	r3, {r0, r1}
 5174 006e B2F57A7F 		cmp	r2, #1000
 5175 0072 0290     		str	r0, [sp, #8]
 5176 0074 8DF80C10 		strb	r1, [sp, #12]
 5177 0078 66D3     		bcc	.L1104
 5178 007a 02AB     		add	r3, sp, #8
 5179 007c 00E0     		b	.L1097
 5180              	.L1105:
 5181 007e 0B46     		mov	r3, r1
 5182              	.L1097:
 5183 0080 1832     		adds	r2, r2, #24
 5184 0082 591C     		adds	r1, r3, #1
 5185 0084 920A     		lsrs	r2, r2, #10
 5186 0086 B2F57A7F 		cmp	r2, #1000
 5187 008a F8D2     		bcs	.L1105
 5188 008c 5B78     		ldrb	r3, [r3, #1]	@ zero_extendqisi2
 5189              	.L1096:
 5190 008e 632A     		cmp	r2, #99
 5191 0090 3AD8     		bhi	.L1106
 5192 0092 2021     		movs	r1, #32
 5193 0094 092A     		cmp	r2, #9
 5194 0096 88F82110 		strb	r1, [r8, #33]
 5195 009a 5AD8     		bhi	.L1107
 5196 009c 3348     		ldr	r0, .L1117+20
 5197 009e 88F82210 		strb	r1, [r8, #34]
 5198              	.L1098:
 5199 00a2 3349     		ldr	r1, .L1117+24
 5200 00a4 FFF7FEFF 		bl	sprint
 5201 00a8 019B     		ldr	r3, [sp, #4]
 5202 00aa 5B45     		cmp	r3, fp
 5203 00ac 28D0     		beq	.L1116
 5204              	.L1099:
 5205 00ae 314A     		ldr	r2, .L1117+28
 5206 00b0 4FF0800C 		mov	ip, #128
 5207 00b4 02F12600 		add	r0, r2, #38
 5208              	.L1101:
 5209 00b8 12F8011B 		ldrb	r1, [r2], #1	@ zero_extendqisi2
 5210              	.L1100:
 5211 00bc 2378     		ldrb	r3, [r4]	@ zero_extendqisi2
 5212 00be 002B     		cmp	r3, #0
 5213 00c0 FCD1     		bne	.L1100
 5214 00c2 8242     		cmp	r2, r0
 5215 00c4 2970     		strb	r1, [r5]
 5216 00c6 84F800C0 		strb	ip, [r4]
 5217 00ca F5D1     		bne	.L1101
 5218 00cc 162F     		cmp	r7, #22
 5219 00ce A9D1     		bne	.L1086
 5220              	.L1108:
 5221 00d0 3846     		mov	r0, r7
 5222 00d2 4BB0     		add	sp, sp, #300
 5223              		@ sp needed
 5224 00d4 BDE8F08F 		pop	{r4, r5, r6, r7, r8, r9, r10, fp, pc}
 5225              	.L1087:
 5226 00d8 42F62E61 		movw	r1, #11822
 5227 00dc 1022     		movs	r2, #16
 5228 00de 9B46     		mov	fp, r3
ARM GAS  C:\Users\Jay\AppData\Local\Temp\ccjVRGue.s 			page 90


 5229 00e0 3376     		strb	r3, [r6, #24]
 5230 00e2 0127     		movs	r7, #1
 5231 00e4 F182     		strh	r1, [r6, #22]	@ movhi
 5232 00e6 3272     		strb	r2, [r6, #8]
 5233 00e8 DFF88880 		ldr	r8, .L1117+28
 5234 00ec 1A4C     		ldr	r4, .L1117
 5235 00ee 1B4D     		ldr	r5, .L1117+4
 5236 00f0 AAE7     		b	.L1102
 5237              	.L1115:
 5238 00f2 2149     		ldr	r1, .L1117+32
 5239 00f4 2148     		ldr	r0, .L1117+36
 5240 00f6 FFF7FEFF 		bl	sprint
 5241 00fa 019B     		ldr	r3, [sp, #4]
 5242 00fc 5B45     		cmp	r3, fp
 5243 00fe D6D1     		bne	.L1099
 5244              	.L1116:
 5245 0100 A023     		movs	r3, #160
 5246 0102 88F80030 		strb	r3, [r8]
 5247 0106 D2E7     		b	.L1099
 5248              	.L1106:
 5249 0108 1C48     		ldr	r0, .L1117+36
 5250 010a CAE7     		b	.L1098
 5251              	.L1114:
 5252 010c 0023     		movs	r3, #0
 5253 010e B375     		strb	r3, [r6, #22]
 5254              	.L1089:
 5255 0110 5846     		mov	r0, fp
 5256 0112 4FF48006 		mov	r6, #4194304
 5257 0116 FFF7FEFF 		bl	f_closedir
 5258 011a 0023     		movs	r3, #0
 5259 011c 1049     		ldr	r1, .L1117+8
 5260 011e 0120     		movs	r0, #1
 5261 0120 144A     		ldr	r2, .L1117+28
 5262 0122 8E61     		str	r6, [r1, #24]
 5263 0124 1946     		mov	r1, r3
 5264 0126 89F81500 		strb	r0, [r9, #21]
 5265 012a 02F12506 		add	r6, r2, #37
 5266 012e 8020     		movs	r0, #128
 5267 0130 88F80030 		strb	r3, [r8]
 5268              	.L1091:
 5269 0134 2378     		ldrb	r3, [r4]	@ zero_extendqisi2
 5270 0136 002B     		cmp	r3, #0
 5271 0138 FCD1     		bne	.L1091
 5272 013a B242     		cmp	r2, r6
 5273 013c 2970     		strb	r1, [r5]
 5274 013e 2070     		strb	r0, [r4]
 5275 0140 C6D0     		beq	.L1108
 5276 0142 12F8011F 		ldrb	r1, [r2, #1]!	@ zero_extendqisi2
 5277 0146 F5E7     		b	.L1091
 5278              	.L1104:
 5279 0148 4223     		movs	r3, #66
 5280 014a A0E7     		b	.L1096
 5281              	.L1103:
 5282 014c 0027     		movs	r7, #0
 5283 014e 04AE     		add	r6, sp, #16
 5284 0150 64E7     		b	.L1113
 5285              	.L1107:
ARM GAS  C:\Users\Jay\AppData\Local\Temp\ccjVRGue.s 			page 91


 5286 0152 0B48     		ldr	r0, .L1117+40
 5287 0154 A5E7     		b	.L1098
 5288              	.L1118:
 5289 0156 00BF     		.align	2
 5290              	.L1117:
 5291 0158 00000000 		.word	.LANCHOR9
 5292 015c 00000000 		.word	.LANCHOR10
 5293 0160 00100258 		.word	1476530176
 5294 0164 01000100 		.word	scratch_buf+1
 5295 0168 10000000 		.word	.LC23
 5296 016c 23000100 		.word	scratch_buf+35
 5297 0170 08000000 		.word	.LC24
 5298 0174 00000100 		.word	scratch_buf
 5299 0178 00000000 		.word	.LC22
 5300 017c 21000100 		.word	scratch_buf+33
 5301 0180 22000100 		.word	scratch_buf+34
 5303              		.section	.text.handle_dir_next_page_command,"ax",%progbits
 5304              		.align	1
 5305              		.p2align 2,,3
 5306              		.syntax unified
 5307              		.thumb
 5308              		.thumb_func
 5309              		.fpu fpv5-sp-d16
 5311              	handle_dir_next_page_command:
 5312              		@ args = 0, pretend = 0, frame = 48
 5313              		@ frame_needed = 0, uses_anonymous_args = 0
 5314 0000 F0B5     		push	{r4, r5, r6, r7, lr}
 5315 0002 234A     		ldr	r2, .L1131
 5316 0004 8DB0     		sub	sp, sp, #52
 5317              	.L1120:
 5318 0006 1378     		ldrb	r3, [r2]	@ zero_extendqisi2
 5319 0008 03F0FF06 		and	r6, r3, #255
 5320 000c 002B     		cmp	r3, #0
 5321 000e FAD1     		bne	.L1120
 5322 0010 204D     		ldr	r5, .L1131+4
 5323 0012 0221     		movs	r1, #2
 5324 0014 8024     		movs	r4, #128
 5325 0016 437D     		ldrb	r3, [r0, #21]	@ zero_extendqisi2
 5326 0018 2970     		strb	r1, [r5]
 5327 001a 1470     		strb	r4, [r2]
 5328 001c 7BB1     		cbz	r3, .L1130
 5329 001e 1E4B     		ldr	r3, .L1131+8
 5330 0020 3046     		mov	r0, r6
 5331 0022 1E70     		strb	r6, [r3]
 5332 0024 1946     		mov	r1, r3
 5333 0026 03F12506 		add	r6, r3, #37
 5334              	.L1125:
 5335 002a 1378     		ldrb	r3, [r2]	@ zero_extendqisi2
 5336 002c 002B     		cmp	r3, #0
 5337 002e FCD1     		bne	.L1125
 5338 0030 8E42     		cmp	r6, r1
 5339 0032 2870     		strb	r0, [r5]
 5340 0034 1470     		strb	r4, [r2]
 5341 0036 22D0     		beq	.L1119
 5342 0038 11F8010F 		ldrb	r0, [r1, #1]!	@ zero_extendqisi2
 5343 003c F5E7     		b	.L1125
 5344              	.L1130:
ARM GAS  C:\Users\Jay\AppData\Local\Temp\ccjVRGue.s 			page 92


 5345 003e 00F14806 		add	r6, r0, #72
 5346 0042 0446     		mov	r4, r0
 5347 0044 B0F87870 		ldrh	r7, [r0, #120]
 5348 0048 6D46     		mov	r5, sp
 5349 004a 0FCE     		ldmia	r6!, {r0, r1, r2, r3}
 5350 004c 0FC5     		stmia	r5!, {r0, r1, r2, r3}
 5351 004e 0FCE     		ldmia	r6!, {r0, r1, r2, r3}
 5352 0050 0137     		adds	r7, r7, #1
 5353 0052 0FC5     		stmia	r5!, {r0, r1, r2, r3}
 5354 0054 96E80F00 		ldm	r6, {r0, r1, r2, r3}
 5355 0058 A4F87870 		strh	r7, [r4, #120]	@ movhi
 5356 005c 85E80F00 		stm	r5, {r0, r1, r2, r3}
 5357 0060 1621     		movs	r1, #22
 5358 0062 2046     		mov	r0, r4
 5359 0064 FFF7FEFF 		bl	sd_send_page
 5360 0068 58B1     		cbz	r0, .L1122
 5361 006a 6D46     		mov	r5, sp
 5362 006c 1834     		adds	r4, r4, #24
 5363 006e 0FCD     		ldmia	r5!, {r0, r1, r2, r3}
 5364 0070 0FC4     		stmia	r4!, {r0, r1, r2, r3}
 5365 0072 0FCD     		ldmia	r5!, {r0, r1, r2, r3}
 5366 0074 0FC4     		stmia	r4!, {r0, r1, r2, r3}
 5367 0076 95E80F00 		ldm	r5, {r0, r1, r2, r3}
 5368 007a 84E80F00 		stm	r4, {r0, r1, r2, r3}
 5369              	.L1119:
 5370 007e 0DB0     		add	sp, sp, #52
 5371              		@ sp needed
 5372 0080 F0BD     		pop	{r4, r5, r6, r7, pc}
 5373              	.L1122:
 5374 0082 B4F87830 		ldrh	r3, [r4, #120]
 5375 0086 013B     		subs	r3, r3, #1
 5376 0088 A4F87830 		strh	r3, [r4, #120]	@ movhi
 5377 008c 0DB0     		add	sp, sp, #52
 5378              		@ sp needed
 5379 008e F0BD     		pop	{r4, r5, r6, r7, pc}
 5380              	.L1132:
 5381              		.align	2
 5382              	.L1131:
 5383 0090 00000000 		.word	.LANCHOR9
 5384 0094 00000000 		.word	.LANCHOR10
 5385 0098 00000100 		.word	scratch_buf
 5387              		.section	.text.d64_send_page,"ax",%progbits
 5388              		.align	1
 5389              		.p2align 2,,3
 5390              		.syntax unified
 5391              		.thumb
 5392              		.thumb_func
 5393              		.fpu fpv5-sp-d16
 5395              	d64_send_page:
 5396              		@ args = 0, pretend = 0, frame = 24
 5397              		@ frame_needed = 0, uses_anonymous_args = 0
 5398 0000 2DE9F04F 		push	{r4, r5, r6, r7, r8, r9, r10, fp, lr}
 5399 0004 0023     		movs	r3, #0
 5400 0006 87B0     		sub	sp, sp, #28
 5401 0008 DFF80C82 		ldr	r8, .L1185+24
 5402 000c 7C4C     		ldr	r4, .L1185
 5403 000e 7D4D     		ldr	r5, .L1185+4
ARM GAS  C:\Users\Jay\AppData\Local\Temp\ccjVRGue.s 			page 93


 5404 0010 DFF814A2 		ldr	r10, .L1185+40
 5405 0014 0390     		str	r0, [sp, #12]
 5406 0016 0591     		str	r1, [sp, #20]
 5407 0018 0293     		str	r3, [sp, #8]
 5408              	.L1160:
 5409 001a 029A     		ldr	r2, [sp, #8]
 5410 001c D3B2     		uxtb	r3, r2
 5411 001e 0093     		str	r3, [sp]
 5412 0020 002A     		cmp	r2, #0
 5413 0022 00F0B480 		beq	.L1177
 5414 0026 009B     		ldr	r3, [sp]
 5415 0028 012B     		cmp	r3, #1
 5416 002a 00F0BB80 		beq	.L1178
 5417              	.L1135:
 5418 002e 039B     		ldr	r3, [sp, #12]
 5419 0030 03F11400 		add	r0, r3, #20
 5420 0034 FFF7FEFF 		bl	d64_read_dir
 5421 0038 0028     		cmp	r0, #0
 5422 003a 00F09080 		beq	.L1179
 5423 003e 039A     		ldr	r2, [sp, #12]
 5424 0040 2023     		movs	r3, #32
 5425 0042 0020     		movs	r0, #0
 5426 0044 42F21076 		movw	r6, #10000
 5427 0048 D2F84423 		ldr	r2, [r2, #836]
 5428 004c 88F80030 		strb	r3, [r8]
 5429 0050 8446     		mov	ip, r0
 5430 0052 0192     		str	r2, [sp, #4]
 5431 0054 0746     		mov	r7, r0
 5432 0056 0493     		str	r3, [sp, #16]
 5433 0058 B2F81EB0 		ldrh	fp, [r2, #30]	@ unaligned
 5434              	.L1148:
 5435 005c 0CF1010E 		add	lr, ip, #1
 5436 0060 A8EB0001 		sub	r1, r8, r0
 5437 0064 BBFBF6F3 		udiv	r3, fp, r6
 5438 0068 AAFB0329 		umull	r2, r9, r10, r3
 5439 006c C2B2     		uxtb	r2, r0
 5440 006e 4FEAD909 		lsr	r9, r9, #3
 5441 0072 09EB8909 		add	r9, r9, r9, lsl #2
 5442 0076 A3EB4903 		sub	r3, r3, r9, lsl #1
 5443 007a 13F0FF03 		ands	r3, r3, #255
 5444 007e 14BF     		ite	ne
 5445 0080 4FF00109 		movne	r9, #1
 5446 0084 4FF00009 		moveq	r9, #0
 5447 0088 3033     		adds	r3, r3, #48
 5448 008a 042A     		cmp	r2, #4
 5449 008c 08BF     		it	eq
 5450 008e 49F00109 		orreq	r9, r9, #1
 5451 0092 57EA0907 		orrs	r7, r7, r9
 5452 0096 5FD0     		beq	.L1146
 5453 0098 5B4A     		ldr	r2, .L1185+8
 5454 009a 0CF80230 		strb	r3, [ip, r2]
 5455 009e 5FFA8EFC 		uxtb	ip, lr
 5456              	.L1147:
 5457 00a2 0130     		adds	r0, r0, #1
 5458 00a4 AAFB0636 		umull	r3, r6, r10, r6
 5459 00a8 0528     		cmp	r0, #5
 5460 00aa 4FEAD606 		lsr	r6, r6, #3
ARM GAS  C:\Users\Jay\AppData\Local\Temp\ccjVRGue.s 			page 94


 5461 00ae D5D1     		bne	.L1148
 5462 00b0 2022     		movs	r2, #32
 5463 00b2 564B     		ldr	r3, .L1185+12
 5464 00b4 0199     		ldr	r1, [sp, #4]
 5465 00b6 1046     		mov	r0, r2
 5466 00b8 03F11A06 		add	r6, r3, #26
 5467 00bc 0531     		adds	r1, r1, #5
 5468 00be 88F80620 		strb	r2, [r8, #6]
 5469 00c2 09E0     		b	.L1153
 5470              	.L1181:
 5471 00c4 0D2A     		cmp	r2, #13
 5472 00c6 01F10101 		add	r1, r1, #1
 5473 00ca 43D0     		beq	.L1162
 5474 00cc 0A2A     		cmp	r2, #10
 5475 00ce 41D0     		beq	.L1162
 5476              	.L1150:
 5477 00d0 B342     		cmp	r3, r6
 5478 00d2 03F8012C 		strb	r2, [r3, #-1]
 5479 00d6 07D0     		beq	.L1180
 5480              	.L1153:
 5481 00d8 0A78     		ldrb	r2, [r1]	@ zero_extendqisi2
 5482 00da 0133     		adds	r3, r3, #1
 5483 00dc 002A     		cmp	r2, #0
 5484 00de F1D1     		bne	.L1181
 5485 00e0 B342     		cmp	r3, r6
 5486 00e2 03F8010C 		strb	r0, [r3, #-1]
 5487 00e6 F7D1     		bne	.L1153
 5488              	.L1180:
 5489 00e8 019B     		ldr	r3, [sp, #4]
 5490 00ea 019E     		ldr	r6, [sp, #4]
 5491 00ec 93F90230 		ldrsb	r3, [r3, #2]
 5492 00f0 474A     		ldr	r2, .L1185+16
 5493 00f2 002B     		cmp	r3, #0
 5494 00f4 4748     		ldr	r0, .L1185+20
 5495 00f6 ACBF     		ite	ge
 5496 00f8 2A23     		movge	r3, #42
 5497 00fa 2023     		movlt	r3, #32
 5498 00fc 88F82130 		strb	r3, [r8, #33]
 5499 0100 B378     		ldrb	r3, [r6, #2]	@ zero_extendqisi2
 5500 0102 03F00703 		and	r3, r3, #7
 5501 0106 52F82310 		ldr	r1, [r2, r3, lsl #2]
 5502 010a FFF7FEFF 		bl	strcpy
 5503 010e B378     		ldrb	r3, [r6, #2]	@ zero_extendqisi2
 5504 0110 5B06     		lsls	r3, r3, #25
 5505 0112 4CBF     		ite	mi
 5506 0114 3C23     		movmi	r3, #60
 5507 0116 2023     		movpl	r3, #32
 5508 0118 88F82530 		strb	r3, [r8, #37]
 5509              	.L1136:
 5510 011c 059B     		ldr	r3, [sp, #20]
 5511 011e 009A     		ldr	r2, [sp]
 5512 0120 9342     		cmp	r3, r2
 5513 0122 67D0     		beq	.L1182
 5514              	.L1157:
 5515 0124 3C4A     		ldr	r2, .L1185+24
 5516 0126 8026     		movs	r6, #128
 5517 0128 02F12600 		add	r0, r2, #38
ARM GAS  C:\Users\Jay\AppData\Local\Temp\ccjVRGue.s 			page 95


 5518              	.L1159:
 5519 012c 12F8011B 		ldrb	r1, [r2], #1	@ zero_extendqisi2
 5520              	.L1158:
 5521 0130 2378     		ldrb	r3, [r4]	@ zero_extendqisi2
 5522 0132 002B     		cmp	r3, #0
 5523 0134 FCD1     		bne	.L1158
 5524 0136 8242     		cmp	r2, r0
 5525 0138 2970     		strb	r1, [r5]
 5526 013a 2670     		strb	r6, [r4]
 5527 013c F6D1     		bne	.L1159
 5528 013e 029B     		ldr	r3, [sp, #8]
 5529 0140 0133     		adds	r3, r3, #1
 5530 0142 162B     		cmp	r3, #22
 5531 0144 0293     		str	r3, [sp, #8]
 5532 0146 7FF468AF 		bne	.L1160
 5533 014a 0093     		str	r3, [sp]
 5534              	.L1144:
 5535 014c 0098     		ldr	r0, [sp]
 5536 014e 07B0     		add	sp, sp, #28
 5537              		@ sp needed
 5538 0150 BDE8F08F 		pop	{r4, r5, r6, r7, r8, r9, r10, fp, pc}
 5539              	.L1162:
 5540 0154 5F22     		movs	r2, #95
 5541 0156 BBE7     		b	.L1150
 5542              	.L1146:
 5543 0158 049B     		ldr	r3, [sp, #16]
 5544 015a 4B71     		strb	r3, [r1, #5]
 5545 015c A1E7     		b	.L1147
 5546              	.L1179:
 5547 015e 039F     		ldr	r7, [sp, #12]
 5548 0160 0126     		movs	r6, #1
 5549 0162 2D4A     		ldr	r2, .L1185+24
 5550 0164 0146     		mov	r1, r0
 5551 0166 D7F84033 		ldr	r3, [r7, #832]
 5552 016a 1870     		strb	r0, [r3]
 5553 016c 87F84963 		strb	r6, [r7, #841]
 5554 0170 02F12506 		add	r6, r2, #37
 5555 0174 88F80000 		strb	r0, [r8]
 5556 0178 8020     		movs	r0, #128
 5557              	.L1143:
 5558 017a 2378     		ldrb	r3, [r4]	@ zero_extendqisi2
 5559 017c 002B     		cmp	r3, #0
 5560 017e FCD1     		bne	.L1143
 5561 0180 B242     		cmp	r2, r6
 5562 0182 2970     		strb	r1, [r5]
 5563 0184 2070     		strb	r0, [r4]
 5564 0186 E1D0     		beq	.L1144
 5565 0188 12F8011F 		ldrb	r1, [r2, #1]!	@ zero_extendqisi2
 5566 018c F5E7     		b	.L1143
 5567              	.L1177:
 5568 018e 039B     		ldr	r3, [sp, #12]
 5569 0190 93F84833 		ldrb	r3, [r3, #840]	@ zero_extendqisi2
 5570 0194 002B     		cmp	r3, #0
 5571 0196 7FF44AAF 		bne	.L1135
 5572 019a 2049     		ldr	r1, .L1185+28
 5573 019c 1E48     		ldr	r0, .L1185+24
 5574 019e FFF7FEFF 		bl	sprint
ARM GAS  C:\Users\Jay\AppData\Local\Temp\ccjVRGue.s 			page 96


 5575 01a2 BBE7     		b	.L1136
 5576              	.L1178:
 5577 01a4 039B     		ldr	r3, [sp, #12]
 5578 01a6 93F84833 		ldrb	r3, [r3, #840]	@ zero_extendqisi2
 5579 01aa 002B     		cmp	r3, #0
 5580 01ac 7FF43FAF 		bne	.L1135
 5581 01b0 039B     		ldr	r3, [sp, #12]
 5582 01b2 1948     		ldr	r0, .L1185+24
 5583 01b4 1A49     		ldr	r1, .L1185+32
 5584 01b6 D3F84073 		ldr	r7, [r3, #832]
 5585 01ba FFF7FEFF 		bl	sprint
 5586 01be 1348     		ldr	r0, .L1185+12
 5587 01c0 2022     		movs	r2, #32
 5588 01c2 00F11A06 		add	r6, r0, #26
 5589 01c6 09E0     		b	.L1141
 5590              	.L1184:
 5591 01c8 0D2B     		cmp	r3, #13
 5592 01ca 07F10107 		add	r7, r7, #1
 5593 01ce 15D0     		beq	.L1161
 5594 01d0 0A2B     		cmp	r3, #10
 5595 01d2 13D0     		beq	.L1161
 5596              	.L1138:
 5597 01d4 B042     		cmp	r0, r6
 5598 01d6 00F8013C 		strb	r3, [r0, #-1]
 5599 01da 07D0     		beq	.L1183
 5600              	.L1141:
 5601 01dc 3B78     		ldrb	r3, [r7]	@ zero_extendqisi2
 5602 01de 0130     		adds	r0, r0, #1
 5603 01e0 002B     		cmp	r3, #0
 5604 01e2 F1D1     		bne	.L1184
 5605 01e4 B042     		cmp	r0, r6
 5606 01e6 00F8012C 		strb	r2, [r0, #-1]
 5607 01ea F7D1     		bne	.L1141
 5608              	.L1183:
 5609 01ec 0D49     		ldr	r1, .L1185+36
 5610 01ee FFF7FEFF 		bl	sprint
 5611 01f2 93E7     		b	.L1136
 5612              	.L1182:
 5613 01f4 A023     		movs	r3, #160
 5614 01f6 88F80030 		strb	r3, [r8]
 5615 01fa 93E7     		b	.L1157
 5616              	.L1161:
 5617 01fc 5F23     		movs	r3, #95
 5618 01fe E9E7     		b	.L1138
 5619              	.L1186:
 5620              		.align	2
 5621              	.L1185:
 5622 0200 00000000 		.word	.LANCHOR9
 5623 0204 00000000 		.word	.LANCHOR10
 5624 0208 01000100 		.word	scratch_buf+1
 5625 020c 07000100 		.word	scratch_buf+7
 5626 0210 00000000 		.word	.LANCHOR28
 5627 0214 22000100 		.word	scratch_buf+34
 5628 0218 00000100 		.word	scratch_buf
 5629 021c 00000000 		.word	.LC25
 5630 0220 28000000 		.word	.LC26
 5631 0224 30000000 		.word	.LC27
ARM GAS  C:\Users\Jay\AppData\Local\Temp\ccjVRGue.s 			page 97


 5632 0228 CDCCCCCC 		.word	-858993459
 5634              		.section	.text.d64_next_page,"ax",%progbits
 5635              		.align	1
 5636              		.p2align 2,,3
 5637              		.syntax unified
 5638              		.thumb
 5639              		.thumb_func
 5640              		.fpu fpv5-sp-d16
 5642              	d64_next_page:
 5643              		@ args = 0, pretend = 0, frame = 0
 5644              		@ frame_needed = 0, uses_anonymous_args = 0
 5645 0000 174A     		ldr	r2, .L1198
 5646 0002 70B5     		push	{r4, r5, r6, lr}
 5647              	.L1188:
 5648 0004 1378     		ldrb	r3, [r2]	@ zero_extendqisi2
 5649 0006 03F0FF06 		and	r6, r3, #255
 5650 000a 002B     		cmp	r3, #0
 5651 000c FAD1     		bne	.L1188
 5652 000e 154D     		ldr	r5, .L1198+4
 5653 0010 0221     		movs	r1, #2
 5654 0012 8024     		movs	r4, #128
 5655 0014 90F84933 		ldrb	r3, [r0, #841]	@ zero_extendqisi2
 5656 0018 2970     		strb	r1, [r5]
 5657 001a 1470     		strb	r4, [r2]
 5658 001c 7BB1     		cbz	r3, .L1197
 5659 001e 124B     		ldr	r3, .L1198+8
 5660 0020 3046     		mov	r0, r6
 5661 0022 1E70     		strb	r6, [r3]
 5662 0024 1946     		mov	r1, r3
 5663 0026 03F12506 		add	r6, r3, #37
 5664              	.L1192:
 5665 002a 1378     		ldrb	r3, [r2]	@ zero_extendqisi2
 5666 002c 002B     		cmp	r3, #0
 5667 002e FCD1     		bne	.L1192
 5668 0030 8E42     		cmp	r6, r1
 5669 0032 2870     		strb	r0, [r5]
 5670 0034 1470     		strb	r4, [r2]
 5671 0036 11D0     		beq	.L1187
 5672 0038 11F8010F 		ldrb	r0, [r1, #1]!	@ zero_extendqisi2
 5673 003c F5E7     		b	.L1192
 5674              	.L1197:
 5675 003e 90F84833 		ldrb	r3, [r0, #840]	@ zero_extendqisi2
 5676 0042 1621     		movs	r1, #22
 5677 0044 0446     		mov	r4, r0
 5678 0046 0133     		adds	r3, r3, #1
 5679 0048 80F84833 		strb	r3, [r0, #840]
 5680 004c FFF7FEFF 		bl	d64_send_page
 5681 0050 20B9     		cbnz	r0, .L1187
 5682 0052 94F84833 		ldrb	r3, [r4, #840]	@ zero_extendqisi2
 5683 0056 013B     		subs	r3, r3, #1
 5684 0058 84F84833 		strb	r3, [r4, #840]
 5685              	.L1187:
 5686 005c 70BD     		pop	{r4, r5, r6, pc}
 5687              	.L1199:
 5688 005e 00BF     		.align	2
 5689              	.L1198:
 5690 0060 00000000 		.word	.LANCHOR9
ARM GAS  C:\Users\Jay\AppData\Local\Temp\ccjVRGue.s 			page 98


 5691 0064 00000000 		.word	.LANCHOR10
 5692 0068 00000100 		.word	scratch_buf
 5694              		.section	.text.sdio_check_tran.constprop.96,"ax",%progbits
 5695              		.align	1
 5696              		.p2align 2,,3
 5697              		.syntax unified
 5698              		.thumb
 5699              		.thumb_func
 5700              		.fpu fpv5-sp-d16
 5702              	sdio_check_tran.constprop.96:
 5703              		@ args = 0, pretend = 0, frame = 8
 5704              		@ frame_needed = 0, uses_anonymous_args = 0
 5705 0000 0F4B     		ldr	r3, .L1212
 5706 0002 0022     		movs	r2, #0
 5707 0004 0F49     		ldr	r1, .L1212+4
 5708 0006 30B5     		push	{r4, r5, lr}
 5709 0008 1C46     		mov	r4, r3
 5710 000a 83B0     		sub	sp, sp, #12
 5711 000c 0E4D     		ldr	r5, .L1212+8
 5712 000e 5960     		str	r1, [r3, #4]
 5713 0010 9A60     		str	r2, [r3, #8]
 5714              	.L1207:
 5715 0012 2168     		ldr	r1, [r4]
 5716 0014 01AB     		add	r3, sp, #4
 5717 0016 0122     		movs	r2, #1
 5718 0018 0D20     		movs	r0, #13
 5719 001a C903     		lsls	r1, r1, #15
 5720 001c 0DD4     		bmi	.L1211
 5721 001e 2988     		ldrh	r1, [r5]
 5722 0020 0904     		lsls	r1, r1, #16
 5723 0022 FFF7FEFF 		bl	sdio_cmd_send
 5724 0026 0028     		cmp	r0, #0
 5725 0028 F3D0     		beq	.L1207
 5726 002a 019B     		ldr	r3, [sp, #4]
 5727 002c 03F4F053 		and	r3, r3, #7680
 5728 0030 B3F5006F 		cmp	r3, #2048
 5729 0034 EDD1     		bne	.L1207
 5730 0036 03B0     		add	sp, sp, #12
 5731              		@ sp needed
 5732 0038 30BD     		pop	{r4, r5, pc}
 5733              	.L1211:
 5734 003a 0020     		movs	r0, #0
 5735 003c 03B0     		add	sp, sp, #12
 5736              		@ sp needed
 5737 003e 30BD     		pop	{r4, r5, pc}
 5738              	.L1213:
 5739              		.align	2
 5740              	.L1212:
 5741 0040 10E000E0 		.word	-536813552
 5742 0044 A037A000 		.word	10500000
 5743 0048 00000000 		.word	.LANCHOR0
 5745              		.section	.text.c64_send_text,"ax",%progbits
 5746              		.align	1
 5747              		.p2align 2,,3
 5748              		.syntax unified
 5749              		.thumb
 5750              		.thumb_func
ARM GAS  C:\Users\Jay\AppData\Local\Temp\ccjVRGue.s 			page 99


 5751              		.fpu fpv5-sp-d16
 5753              	c64_send_text:
 5754              		@ args = 0, pretend = 0, frame = 0
 5755              		@ frame_needed = 0, uses_anonymous_args = 0
 5756 0000 2DE9F843 		push	{r3, r4, r5, r6, r7, r8, r9, lr}
 5757 0004 344F     		ldr	r7, .L1245
 5758 0006 01F54879 		add	r9, r1, #800
 5759 000a 0A46     		mov	r2, r1
 5760 000c 3E46     		mov	r6, r7
 5761 000e 05E0     		b	.L1219
 5762              	.L1243:
 5763 0010 5FFA88F3 		uxtb	r3, r8
 5764              	.L1217:
 5765 0014 9145     		cmp	r9, r2
 5766 0016 06F8013B 		strb	r3, [r6], #1
 5767 001a 1AD0     		beq	.L1242
 5768              	.L1219:
 5769 001c 551A     		subs	r5, r2, r1
 5770 001e 12F8013B 		ldrb	r3, [r2], #1	@ zero_extendqisi2
 5771 0022 B646     		mov	lr, r6
 5772 0024 A3F16104 		sub	r4, r3, #97
 5773 0028 A3F1410C 		sub	ip, r3, #65
 5774 002c 03F12008 		add	r8, r3, #32
 5775 0030 ADB2     		uxth	r5, r5
 5776 0032 E4B2     		uxtb	r4, r4
 5777 0034 A3B1     		cbz	r3, .L1215
 5778 0036 BCF1190F 		cmp	ip, #25
 5779 003a E9D9     		bls	.L1243
 5780 003c 192C     		cmp	r4, #25
 5781 003e A3F12004 		sub	r4, r3, #32
 5782 0042 0BD9     		bls	.L1244
 5783 0044 5F2B     		cmp	r3, #95
 5784 0046 08BF     		it	eq
 5785 0048 A423     		moveq	r3, #164
 5786 004a 9145     		cmp	r9, r2
 5787 004c 06F8013B 		strb	r3, [r6], #1
 5788 0050 E4D1     		bne	.L1219
 5789              	.L1242:
 5790 0052 40F22135 		movw	r5, #801
 5791 0056 DFF898E0 		ldr	lr, .L1245+24
 5792 005a 03E0     		b	.L1220
 5793              	.L1244:
 5794 005c E3B2     		uxtb	r3, r4
 5795 005e D9E7     		b	.L1217
 5796              	.L1215:
 5797 0060 0135     		adds	r5, r5, #1
 5798 0062 ADB2     		uxth	r5, r5
 5799              	.L1220:
 5800 0064 0023     		movs	r3, #0
 5801 0066 1D49     		ldr	r1, .L1245+4
 5802 0068 8EF80030 		strb	r3, [lr]
 5803 006c FFF7FEFF 		bl	c64_send_command
 5804 0070 0028     		cmp	r0, #0
 5805 0072 2FD0     		beq	.L1221
 5806 0074 E9B2     		uxtb	r1, r5
 5807 0076 1A4A     		ldr	r2, .L1245+8
 5808              	.L1222:
ARM GAS  C:\Users\Jay\AppData\Local\Temp\ccjVRGue.s 			page 100


 5809 0078 1378     		ldrb	r3, [r2]	@ zero_extendqisi2
 5810 007a 002B     		cmp	r3, #0
 5811 007c FCD1     		bne	.L1222
 5812 007e 194E     		ldr	r6, .L1245+12
 5813 0080 8023     		movs	r3, #128
 5814 0082 C5F30724 		ubfx	r4, r5, #8, #8
 5815 0086 3170     		strb	r1, [r6]
 5816 0088 1370     		strb	r3, [r2]
 5817              	.L1223:
 5818 008a 1378     		ldrb	r3, [r2]	@ zero_extendqisi2
 5819 008c 002B     		cmp	r3, #0
 5820 008e FCD1     		bne	.L1223
 5821 0090 8023     		movs	r3, #128
 5822 0092 3D44     		add	r5, r5, r7
 5823 0094 1049     		ldr	r1, .L1245
 5824 0096 1F46     		mov	r7, r3
 5825 0098 3470     		strb	r4, [r6]
 5826 009a 1370     		strb	r3, [r2]
 5827              	.L1225:
 5828 009c 11F8014B 		ldrb	r4, [r1], #1	@ zero_extendqisi2
 5829              	.L1224:
 5830 00a0 1378     		ldrb	r3, [r2]	@ zero_extendqisi2
 5831 00a2 002B     		cmp	r3, #0
 5832 00a4 FCD1     		bne	.L1224
 5833 00a6 A942     		cmp	r1, r5
 5834 00a8 3470     		strb	r4, [r6]
 5835 00aa 1770     		strb	r7, [r2]
 5836 00ac F6D1     		bne	.L1225
 5837 00ae 0E4B     		ldr	r3, .L1245+16
 5838              	.L1226:
 5839 00b0 1A78     		ldrb	r2, [r3]	@ zero_extendqisi2
 5840 00b2 002A     		cmp	r2, #0
 5841 00b4 FCD1     		bne	.L1226
 5842 00b6 0D4C     		ldr	r4, .L1245+20
 5843 00b8 2178     		ldrb	r1, [r4]	@ zero_extendqisi2
 5844 00ba C9B2     		uxtb	r1, r1
 5845 00bc 4022     		movs	r2, #64
 5846 00be 1A70     		strb	r2, [r3]
 5847              	.L1227:
 5848 00c0 1A78     		ldrb	r2, [r3]	@ zero_extendqisi2
 5849 00c2 002A     		cmp	r2, #0
 5850 00c4 FCD1     		bne	.L1227
 5851 00c6 2278     		ldrb	r2, [r4]	@ zero_extendqisi2
 5852 00c8 D2B2     		uxtb	r2, r2
 5853 00ca 4024     		movs	r4, #64
 5854 00cc 1C70     		strb	r4, [r3]
 5855 00ce 01B9     		cbnz	r1, .L1229
 5856 00d0 02B1     		cbz	r2, .L1221
 5857              	.L1229:
 5858 00d2 0020     		movs	r0, #0
 5859              	.L1221:
 5860 00d4 BDE8F883 		pop	{r3, r4, r5, r6, r7, r8, r9, pc}
 5861              	.L1246:
 5862              		.align	2
 5863              	.L1245:
 5864 00d8 00000100 		.word	scratch_buf
 5865 00dc 00000000 		.word	.LC28
ARM GAS  C:\Users\Jay\AppData\Local\Temp\ccjVRGue.s 			page 101


 5866 00e0 00000000 		.word	.LANCHOR9
 5867 00e4 00000000 		.word	.LANCHOR10
 5868 00e8 00000000 		.word	.LANCHOR11
 5869 00ec 00000000 		.word	.LANCHOR12
 5870 00f0 20030100 		.word	scratch_buf+800
 5872              		.section	.text.handle_failed_to_read_sd,"ax",%progbits
 5873              		.align	1
 5874              		.p2align 2,,3
 5875              		.syntax unified
 5876              		.thumb
 5877              		.thumb_func
 5878              		.fpu fpv5-sp-d16
 5880              	handle_failed_to_read_sd:
 5881              		@ Volatile: function does not return.
 5882              		@ args = 0, pretend = 0, frame = 0
 5883              		@ frame_needed = 0, uses_anonymous_args = 0
 5884 0000 08B5     		push	{r3, lr}
 5885 0002 FFF7FEFF 		bl	c64_send_exit_menu
 5886 0006 0349     		ldr	r1, .L1249
 5887 0008 0348     		ldr	r0, .L1249+4
 5888 000a FFF7FEFF 		bl	c64_send_text
 5889 000e FFF7FEFF 		bl	restart_to_menu
 5890              	.L1250:
 5891 0012 00BF     		.align	2
 5892              	.L1249:
 5893 0014 00000000 		.word	.LC29
 5894 0018 18000000 		.word	.LC30
 5896              		.section	.text.handle_file_open,"ax",%progbits
 5897              		.align	1
 5898              		.p2align 2,,3
 5899              		.syntax unified
 5900              		.thumb
 5901              		.thumb_func
 5902              		.fpu fpv5-sp-d16
 5904              	handle_file_open:
 5905              		@ args = 0, pretend = 0, frame = 0
 5906              		@ frame_needed = 0, uses_anonymous_args = 0
 5907 0000 08B5     		push	{r3, lr}
 5908 0002 0122     		movs	r2, #1
 5909 0004 FFF7FEFF 		bl	f_open
 5910 0008 28B1     		cbz	r0, .L1251
 5911 000a 034B     		ldr	r3, .L1254
 5912 000c 4FF48002 		mov	r2, #4194304
 5913 0010 9A61     		str	r2, [r3, #24]
 5914 0012 FFF7FEFF 		bl	handle_failed_to_read_sd
 5915              	.L1251:
 5916 0016 08BD     		pop	{r3, pc}
 5917              	.L1255:
 5918              		.align	2
 5919              	.L1254:
 5920 0018 00100258 		.word	1476530176
 5922              		.section	.text.d64_menu_init,"ax",%progbits
 5923              		.align	1
 5924              		.p2align 2,,3
 5925              		.syntax unified
 5926              		.thumb
 5927              		.thumb_func
ARM GAS  C:\Users\Jay\AppData\Local\Temp\ccjVRGue.s 			page 102


 5928              		.fpu fpv5-sp-d16
 5930              	d64_menu_init:
 5931              		@ args = 0, pretend = 0, frame = 0
 5932              		@ frame_needed = 0, uses_anonymous_args = 0
 5933 0000 38B5     		push	{r3, r4, r5, lr}
 5934 0002 0A4B     		ldr	r3, .L1262
 5935 0004 1A68     		ldr	r2, [r3]
 5936 0006 22B1     		cbz	r2, .L1260
 5937              	.L1257:
 5938 0008 FFF7FEFF 		bl	d64_open.constprop.89
 5939 000c 60B1     		cbz	r0, .L1261
 5940 000e 0748     		ldr	r0, .L1262
 5941 0010 38BD     		pop	{r3, r4, r5, pc}
 5942              	.L1260:
 5943 0012 074A     		ldr	r2, .L1262+4
 5944 0014 074D     		ldr	r5, .L1262+8
 5945 0016 084C     		ldr	r4, .L1262+12
 5946 0018 0849     		ldr	r1, .L1262+16
 5947 001a 1A60     		str	r2, [r3]
 5948 001c 084A     		ldr	r2, .L1262+20
 5949 001e C3E90154 		strd	r5, r4, [r3, #4]
 5950 0022 C3E90312 		strd	r1, r2, [r3, #12]
 5951 0026 EFE7     		b	.L1257
 5952              	.L1261:
 5953 0028 FFF7FEFF 		bl	handle_failed_to_read_sd
 5954              	.L1263:
 5955              		.align	2
 5956              	.L1262:
 5957 002c 00000000 		.word	.LANCHOR24
 5958 0030 00000000 		.word	d64_dir
 5959 0034 00000000 		.word	d64_dir_up
 5960 0038 00000000 		.word	d64_prev_page
 5961 003c 00000000 		.word	d64_next_page
 5962 0040 00000000 		.word	d64_select
 5964              		.section	.text.d64_skip_to_page,"ax",%progbits
 5965              		.align	1
 5966              		.p2align 2,,3
 5967              		.syntax unified
 5968              		.thumb
 5969              		.thumb_func
 5970              		.fpu fpv5-sp-d16
 5972              	d64_skip_to_page:
 5973              		@ args = 0, pretend = 0, frame = 0
 5974              		@ frame_needed = 0, uses_anonymous_args = 0
 5975 0000 2DE9F041 		push	{r4, r5, r6, r7, r8, lr}
 5976 0004 01EB8105 		add	r5, r1, r1, lsl #2
 5977 0008 80F84813 		strb	r1, [r0, #840]
 5978 000c 01EB4501 		add	r1, r1, r5, lsl #1
 5979 0010 4D00     		lsls	r5, r1, #1
 5980 0012 022D     		cmp	r5, #2
 5981 0014 17D9     		bls	.L1269
 5982 0016 8046     		mov	r8, r0
 5983 0018 00F11407 		add	r7, r0, #20
 5984 001c 0224     		movs	r4, #2
 5985 001e 03E0     		b	.L1268
 5986              	.L1276:
 5987 0020 0134     		adds	r4, r4, #1
ARM GAS  C:\Users\Jay\AppData\Local\Temp\ccjVRGue.s 			page 103


 5988 0022 A4B2     		uxth	r4, r4
 5989 0024 A542     		cmp	r5, r4
 5990 0026 0ED0     		beq	.L1269
 5991              	.L1268:
 5992 0028 3846     		mov	r0, r7
 5993 002a FFF7FEFF 		bl	d64_read_dir
 5994 002e 0646     		mov	r6, r0
 5995 0030 0028     		cmp	r0, #0
 5996 0032 F5D1     		bne	.L1276
 5997 0034 3846     		mov	r0, r7
 5998 0036 FFF7FEFF 		bl	d64_read_disk_header
 5999 003a 40B1     		cbz	r0, .L1277
 6000 003c 88F84863 		strb	r6, [r8, #840]
 6001 0040 3046     		mov	r0, r6
 6002 0042 BDE8F081 		pop	{r4, r5, r6, r7, r8, pc}
 6003              	.L1269:
 6004 0046 0126     		movs	r6, #1
 6005 0048 3046     		mov	r0, r6
 6006 004a BDE8F081 		pop	{r4, r5, r6, r7, r8, pc}
 6007              	.L1277:
 6008 004e FFF7FEFF 		bl	handle_failed_to_read_sd
 6010 0052 00BF     		.section	.text.d64_prev_page,"ax",%progbits
 6011              		.align	1
 6012              		.p2align 2,,3
 6013              		.syntax unified
 6014              		.thumb
 6015              		.thumb_func
 6016              		.fpu fpv5-sp-d16
 6018              	d64_prev_page:
 6019              		@ args = 0, pretend = 0, frame = 0
 6020              		@ frame_needed = 0, uses_anonymous_args = 0
 6021 0000 1A4A     		ldr	r2, .L1290
 6022 0002 70B5     		push	{r4, r5, r6, lr}
 6023              	.L1279:
 6024 0004 1378     		ldrb	r3, [r2]	@ zero_extendqisi2
 6025 0006 03F0FF06 		and	r6, r3, #255
 6026 000a 002B     		cmp	r3, #0
 6027 000c FAD1     		bne	.L1279
 6028 000e 184D     		ldr	r5, .L1290+4
 6029 0010 0221     		movs	r1, #2
 6030 0012 8024     		movs	r4, #128
 6031 0014 90F84833 		ldrb	r3, [r0, #840]	@ zero_extendqisi2
 6032 0018 2970     		strb	r1, [r5]
 6033 001a 1470     		strb	r4, [r2]
 6034 001c 7BB9     		cbnz	r3, .L1288
 6035 001e 154E     		ldr	r6, .L1290+8
 6036 0020 1846     		mov	r0, r3
 6037 0022 3146     		mov	r1, r6
 6038 0024 3370     		strb	r3, [r6]
 6039 0026 2536     		adds	r6, r6, #37
 6040              	.L1282:
 6041 0028 1378     		ldrb	r3, [r2]	@ zero_extendqisi2
 6042 002a 002B     		cmp	r3, #0
 6043 002c FCD1     		bne	.L1282
 6044 002e 8E42     		cmp	r6, r1
 6045 0030 2870     		strb	r0, [r5]
 6046 0032 1470     		strb	r4, [r2]
ARM GAS  C:\Users\Jay\AppData\Local\Temp\ccjVRGue.s 			page 104


 6047 0034 02D0     		beq	.L1278
 6048 0036 11F8010F 		ldrb	r0, [r1, #1]!	@ zero_extendqisi2
 6049 003a F5E7     		b	.L1282
 6050              	.L1278:
 6051 003c 70BD     		pop	{r4, r5, r6, pc}
 6052              	.L1288:
 6053 003e 0446     		mov	r4, r0
 6054 0040 1430     		adds	r0, r0, #20
 6055 0042 FFF7FEFF 		bl	d64_read_disk_header
 6056 0046 70B1     		cbz	r0, .L1289
 6057 0048 94F84813 		ldrb	r1, [r4, #840]	@ zero_extendqisi2
 6058 004c 2046     		mov	r0, r4
 6059 004e 84F84963 		strb	r6, [r4, #841]
 6060 0052 0139     		subs	r1, r1, #1
 6061 0054 C9B2     		uxtb	r1, r1
 6062 0056 FFF7FEFF 		bl	d64_skip_to_page
 6063 005a 2046     		mov	r0, r4
 6064 005c 1621     		movs	r1, #22
 6065 005e BDE87040 		pop	{r4, r5, r6, lr}
 6066 0062 FFF7FEBF 		b	d64_send_page
 6067              	.L1289:
 6068 0066 FFF7FEFF 		bl	handle_failed_to_read_sd
 6069              	.L1291:
 6070 006a 00BF     		.align	2
 6071              	.L1290:
 6072 006c 00000000 		.word	.LANCHOR9
 6073 0070 00000000 		.word	.LANCHOR10
 6074 0074 00000100 		.word	scratch_buf
 6076              		.section	.text.d64_dir,"ax",%progbits
 6077              		.align	1
 6078              		.p2align 2,,3
 6079              		.syntax unified
 6080              		.thumb
 6081              		.thumb_func
 6082              		.fpu fpv5-sp-d16
 6084              	d64_dir:
 6085              		@ args = 0, pretend = 0, frame = 0
 6086              		@ frame_needed = 0, uses_anonymous_args = 0
 6087 0000 2DE9F041 		push	{r4, r5, r6, r7, r8, lr}
 6088 0004 8046     		mov	r8, r0
 6089 0006 274C     		ldr	r4, .L1307
 6090              	.L1293:
 6091 0008 2378     		ldrb	r3, [r4]	@ zero_extendqisi2
 6092 000a 002B     		cmp	r3, #0
 6093 000c FCD1     		bne	.L1293
 6094 000e 264E     		ldr	r6, .L1307+4
 6095 0010 0127     		movs	r7, #1
 6096 0012 8025     		movs	r5, #128
 6097 0014 08F11400 		add	r0, r8, #20
 6098 0018 3770     		strb	r7, [r6]
 6099 001a 2570     		strb	r5, [r4]
 6100 001c FFF7FEFF 		bl	d64_read_disk_header
 6101 0020 0028     		cmp	r0, #0
 6102 0022 3CD0     		beq	.L1304
 6103 0024 3846     		mov	r0, r7
 6104 0026 FFF7FEFF 		bl	format_path.constprop.88
 6105 002a 2049     		ldr	r1, .L1307+8
ARM GAS  C:\Users\Jay\AppData\Local\Temp\ccjVRGue.s 			page 105


 6106 002c 01F12207 		add	r7, r1, #34
 6107              	.L1296:
 6108 0030 11F8010B 		ldrb	r0, [r1], #1	@ zero_extendqisi2
 6109              	.L1295:
 6110 0034 2378     		ldrb	r3, [r4]	@ zero_extendqisi2
 6111 0036 03F0FF02 		and	r2, r3, #255
 6112 003a 002B     		cmp	r3, #0
 6113 003c FAD1     		bne	.L1295
 6114 003e B942     		cmp	r1, r7
 6115 0040 3070     		strb	r0, [r6]
 6116 0042 2570     		strb	r5, [r4]
 6117 0044 F4D1     		bne	.L1296
 6118 0046 1A4D     		ldr	r5, .L1307+12
 6119 0048 4FF6FF73 		movw	r3, #65535
 6120 004c 88F84923 		strb	r2, [r8, #841]
 6121 0050 B5F80D60 		ldrh	r6, [r5, #13]	@ unaligned
 6122 0054 9E42     		cmp	r6, r3
 6123 0056 18D0     		beq	.L1305
 6124 0058 164C     		ldr	r4, .L1307+16
 6125 005a 4046     		mov	r0, r8
 6126 005c A4FB0634 		umull	r3, r4, r4, r6
 6127 0060 2409     		lsrs	r4, r4, #4
 6128 0062 E1B2     		uxtb	r1, r4
 6129 0064 FFF7FEFF 		bl	d64_skip_to_page
 6130 0068 1621     		movs	r1, #22
 6131 006a 30B9     		cbnz	r0, .L1306
 6132 006c 6873     		strb	r0, [r5, #13]
 6133 006e A873     		strb	r0, [r5, #14]
 6134 0070 4046     		mov	r0, r8
 6135 0072 BDE8F041 		pop	{r4, r5, r6, r7, r8, lr}
 6136 0076 FFF7FEBF 		b	d64_send_page
 6137              	.L1306:
 6138 007a 01FB1461 		mls	r1, r1, r4, r6
 6139 007e 4046     		mov	r0, r8
 6140 0080 C9B2     		uxtb	r1, r1
 6141 0082 BDE8F041 		pop	{r4, r5, r6, r7, r8, lr}
 6142 0086 FFF7FEBF 		b	d64_send_page
 6143              	.L1305:
 6144 008a 88F84823 		strb	r2, [r8, #840]
 6145 008e 4046     		mov	r0, r8
 6146 0090 6A73     		strb	r2, [r5, #13]
 6147 0092 1621     		movs	r1, #22
 6148 0094 AA73     		strb	r2, [r5, #14]
 6149 0096 BDE8F041 		pop	{r4, r5, r6, r7, r8, lr}
 6150 009a FFF7FEBF 		b	d64_send_page
 6151              	.L1304:
 6152 009e FFF7FEFF 		bl	handle_failed_to_read_sd
 6153              	.L1308:
 6154 00a2 00BF     		.align	2
 6155              	.L1307:
 6156 00a4 00000000 		.word	.LANCHOR9
 6157 00a8 00000000 		.word	.LANCHOR10
 6158 00ac 00000100 		.word	scratch_buf
 6159 00b0 00000000 		.word	dat_file
 6160 00b4 A38B2EBA 		.word	-1171354717
 6162              		.section	.text.d64_select,"ax",%progbits
 6163              		.align	1
ARM GAS  C:\Users\Jay\AppData\Local\Temp\ccjVRGue.s 			page 106


 6164              		.p2align 2,,3
 6165              		.syntax unified
 6166              		.thumb
 6167              		.thumb_func
 6168              		.fpu fpv5-sp-d16
 6170              	d64_select:
 6171              		@ args = 0, pretend = 0, frame = 0
 6172              		@ frame_needed = 0, uses_anonymous_args = 0
 6173 0000 2DE9F04F 		push	{r4, r5, r6, r7, r8, r9, r10, fp, lr}
 6174 0004 90F84843 		ldrb	r4, [r0, #840]	@ zero_extendqisi2
 6175 0008 0025     		movs	r5, #0
 6176 000a 874F     		ldr	r7, .L1375
 6177 000c 83B0     		sub	sp, sp, #12
 6178 000e 04EB8403 		add	r3, r4, r4, lsl #2
 6179 0012 8946     		mov	r9, r1
 6180 0014 7D72     		strb	r5, [r7, #9]
 6181 0016 04EB4304 		add	r4, r4, r3, lsl #1
 6182 001a FD73     		strb	r5, [r7, #15]
 6183 001c 02EB4404 		add	r4, r2, r4, lsl #1
 6184 0020 A7F80D40 		strh	r4, [r7, #13]	@ unaligned
 6185 0024 4CB9     		cbnz	r4, .L1310
 6186 0026 11F04009 		ands	r9, r1, #64
 6187 002a 4DD1     		bne	.L1365
 6188 002c 4946     		mov	r1, r9
 6189 002e FFF7FEFF 		bl	d64_dir_up
 6190 0032 4846     		mov	r0, r9
 6191              	.L1360:
 6192 0034 03B0     		add	sp, sp, #12
 6193              		@ sp needed
 6194 0036 BDE8F08F 		pop	{r4, r5, r6, r7, r8, r9, r10, fp, pc}
 6195              	.L1310:
 6196 003a 012C     		cmp	r4, #1
 6197 003c 0646     		mov	r6, r0
 6198 003e 9246     		mov	r10, r2
 6199 0040 75D0     		beq	.L1366
 6200              	.L1313:
 6201 0042 96F83C32 		ldrb	r3, [r6, #572]	@ zero_extendqisi2
 6202 0046 06F11408 		add	r8, r6, #20
 6203 004a 032B     		cmp	r3, #3
 6204 004c 00F09780 		beq	.L1367
 6205 0050 1222     		movs	r2, #18
 6206 0052 0123     		movs	r3, #1
 6207 0054 86F83E22 		strb	r2, [r6, #574]
 6208 0058 86F83F32 		strb	r3, [r6, #575]
 6209              	.L1316:
 6210 005c 0022     		movs	r2, #0
 6211 005e 06F23E33 		addw	r3, r6, #830
 6212 0062 0325     		movs	r5, #3
 6213 0064 4FF6FF7B 		movw	fp, #65535
 6214 0068 86F83D22 		strb	r2, [r6, #573]
 6215 006c C6F84433 		str	r3, [r6, #836]
 6216 0070 02E0     		b	.L1317
 6217              	.L1321:
 6218 0072 AC42     		cmp	r4, r5
 6219 0074 30D3     		bcc	.L1368
 6220              	.L1322:
 6221 0076 9DB2     		uxth	r5, r3
ARM GAS  C:\Users\Jay\AppData\Local\Temp\ccjVRGue.s 			page 107


 6222              	.L1317:
 6223 0078 4046     		mov	r0, r8
 6224 007a FFF7FEFF 		bl	d64_read_dir
 6225 007e 6B1C     		adds	r3, r5, #1
 6226 0080 0028     		cmp	r0, #0
 6227 0082 63D0     		beq	.L1369
 6228 0084 5C45     		cmp	r4, fp
 6229 0086 F4D1     		bne	.L1321
 6230 0088 D6F84423 		ldr	r2, [r6, #836]
 6231 008c 9178     		ldrb	r1, [r2, #2]	@ zero_extendqisi2
 6232 008e 01F00701 		and	r1, r1, #7
 6233 0092 0229     		cmp	r1, #2
 6234 0094 EFD1     		bne	.L1322
 6235 0096 D178     		ldrb	r1, [r2, #3]	@ zero_extendqisi2
 6236 0098 0029     		cmp	r1, #0
 6237 009a ECD0     		beq	.L1322
 6238 009c 5379     		ldrb	r3, [r2, #5]	@ zero_extendqisi2
 6239 009e 002B     		cmp	r3, #0
 6240 00a0 60D0     		beq	.L1340
 6241              	.L1320:
 6242 00a2 6248     		ldr	r0, .L1375+4
 6243 00a4 0632     		adds	r2, r2, #6
 6244 00a6 0146     		mov	r1, r0
 6245 00a8 06E0     		b	.L1364
 6246              	.L1370:
 6247 00aa 0A2B     		cmp	r3, #10
 6248 00ac 0AD0     		beq	.L1343
 6249              	.L1327:
 6250 00ae 01F8013C 		strb	r3, [r1, #-1]
 6251 00b2 12F8013B 		ldrb	r3, [r2], #1	@ zero_extendqisi2
 6252 00b6 F3B1     		cbz	r3, .L1326
 6253              	.L1364:
 6254 00b8 A02B     		cmp	r3, #160
 6255 00ba 1CD0     		beq	.L1326
 6256 00bc 0D2B     		cmp	r3, #13
 6257 00be 01F10101 		add	r1, r1, #1
 6258 00c2 F2D1     		bne	.L1370
 6259              	.L1343:
 6260 00c4 5F23     		movs	r3, #95
 6261 00c6 F2E7     		b	.L1327
 6262              	.L1365:
 6263 00c8 2146     		mov	r1, r4
 6264 00ca 5948     		ldr	r0, .L1375+8
 6265 00cc FFF7FEFF 		bl	handle_file_options
 6266 00d0 2046     		mov	r0, r4
 6267 00d2 03B0     		add	sp, sp, #12
 6268              		@ sp needed
 6269 00d4 BDE8F08F 		pop	{r4, r5, r6, r7, r8, r9, r10, fp, pc}
 6270              	.L1368:
 6271 00d8 D6F84423 		ldr	r2, [r6, #836]
 6272 00dc 5379     		ldrb	r3, [r2, #5]	@ zero_extendqisi2
 6273 00de 002B     		cmp	r3, #0
 6274 00e0 DFD1     		bne	.L1320
 6275              	.L1325:
 6276 00e2 0024     		movs	r4, #0
 6277 00e4 3046     		mov	r0, r6
 6278 00e6 7C73     		strb	r4, [r7, #13]
ARM GAS  C:\Users\Jay\AppData\Local\Temp\ccjVRGue.s 			page 108


 6279 00e8 BC73     		strb	r4, [r7, #14]
 6280 00ea FFF7FEFF 		bl	d64_dir
 6281 00ee 2046     		mov	r0, r4
 6282 00f0 03B0     		add	sp, sp, #12
 6283              		@ sp needed
 6284 00f2 BDE8F08F 		pop	{r4, r5, r6, r7, r8, r9, r10, fp, pc}
 6285              	.L1326:
 6286 00f6 0024     		movs	r4, #0
 6287 00f8 19F04005 		ands	r5, r9, #64
 6288 00fc 0C70     		strb	r4, [r1]
 6289 00fe FC77     		strb	r4, [r7, #31]
 6290 0100 1ED1     		bne	.L1371
 6291 0102 D6F84413 		ldr	r1, [r6, #836]
 6292 0106 8B78     		ldrb	r3, [r1, #2]	@ zero_extendqisi2
 6293 0108 03F00702 		and	r2, r3, #7
 6294 010c 19F00203 		ands	r3, r9, #2
 6295 0110 52D1     		bne	.L1332
 6296 0112 022A     		cmp	r2, #2
 6297 0114 02D1     		bne	.L1334
 6298 0116 CA78     		ldrb	r2, [r1, #3]	@ zero_extendqisi2
 6299 0118 002A     		cmp	r2, #0
 6300 011a 3CD1     		bne	.L1335
 6301              	.L1334:
 6302 011c 434A     		ldr	r2, .L1375+4
 6303 011e 4549     		ldr	r1, .L1375+12
 6304 0120 4548     		ldr	r0, .L1375+16
 6305 0122 FFF7FEFF 		bl	handle_unsupported_ex
 6306 0126 0020     		movs	r0, #0
 6307 0128 03B0     		add	sp, sp, #12
 6308              		@ sp needed
 6309 012a BDE8F08F 		pop	{r4, r5, r6, r7, r8, r9, r10, fp, pc}
 6310              	.L1366:
 6311 012e 11F0400F 		tst	r1, #64
 6312 0132 2AD1     		bne	.L1372
 6313 0134 11F00203 		ands	r3, r1, #2
 6314 0138 44D0     		beq	.L1373
 6315 013a 4FF6FF74 		movw	r4, #65535
 6316 013e 80E7     		b	.L1313
 6317              	.L1371:
 6318 0140 5246     		mov	r2, r10
 6319 0142 0521     		movs	r1, #5
 6320 0144 FFF7FEFF 		bl	handle_file_options
 6321 0148 2046     		mov	r0, r4
 6322 014a 73E7     		b	.L1360
 6323              	.L1369:
 6324 014c D6F84433 		ldr	r3, [r6, #836]
 6325 0150 5871     		strb	r0, [r3, #5]
 6326 0152 D6F84423 		ldr	r2, [r6, #836]
 6327 0156 5379     		ldrb	r3, [r2, #5]	@ zero_extendqisi2
 6328 0158 002B     		cmp	r3, #0
 6329 015a A2D1     		bne	.L1320
 6330 015c 4FF6FF73 		movw	r3, #65535
 6331 0160 9C42     		cmp	r4, r3
 6332 0162 BED1     		bne	.L1325
 6333              	.L1340:
 6334 0164 0024     		movs	r4, #0
 6335 0166 0123     		movs	r3, #1
ARM GAS  C:\Users\Jay\AppData\Local\Temp\ccjVRGue.s 			page 109


 6336 0168 344A     		ldr	r2, .L1375+20
 6337 016a 3549     		ldr	r1, .L1375+24
 6338 016c 3548     		ldr	r0, .L1375+28
 6339 016e BC73     		strb	r4, [r7, #14]
 6340 0170 7B73     		strb	r3, [r7, #13]
 6341 0172 FFF7FEFF 		bl	handle_unsupported_ex
 6342 0176 2046     		mov	r0, r4
 6343 0178 03B0     		add	sp, sp, #12
 6344              		@ sp needed
 6345 017a BDE8F08F 		pop	{r4, r5, r6, r7, r8, r9, r10, fp, pc}
 6346              	.L1367:
 6347 017e 2822     		movs	r2, #40
 6348 0180 86F83F32 		strb	r3, [r6, #575]
 6349 0184 86F83E22 		strb	r2, [r6, #574]
 6350 0188 68E7     		b	.L1316
 6351              	.L1372:
 6352 018a 2F48     		ldr	r0, .L1375+32
 6353 018c 0521     		movs	r1, #5
 6354 018e FFF7FEFF 		bl	handle_file_options
 6355 0192 2846     		mov	r0, r5
 6356 0194 4EE7     		b	.L1360
 6357              	.L1335:
 6358 0196 0093     		str	r3, [sp]
 6359 0198 0246     		mov	r2, r0
 6360 019a 2C49     		ldr	r1, .L1375+36
 6361 019c 2C48     		ldr	r0, .L1375+40
 6362 019e FFF7FEFF 		bl	sprint
 6363 01a2 0423     		movs	r3, #4
 6364              	.L1363:
 6365 01a4 2B48     		ldr	r0, .L1375+44
 6366 01a6 7B72     		strb	r3, [r7, #9]
 6367 01a8 FFF7FEFF 		bl	f_close
 6368 01ac 2A4B     		ldr	r3, .L1375+48
 6369 01ae 4FF48002 		mov	r2, #4194304
 6370 01b2 0120     		movs	r0, #1
 6371 01b4 9A61     		str	r2, [r3, #24]
 6372 01b6 3DE7     		b	.L1360
 6373              	.L1332:
 6374 01b8 022A     		cmp	r2, #2
 6375 01ba 0BD0     		beq	.L1374
 6376              	.L1337:
 6377 01bc 0023     		movs	r3, #0
 6378 01be FB72     		strb	r3, [r7, #11]
 6379 01c0 3B73     		strb	r3, [r7, #12]
 6380 01c2 ABE7     		b	.L1334
 6381              	.L1373:
 6382 01c4 0093     		str	r3, [sp]
 6383 01c6 204A     		ldr	r2, .L1375+32
 6384 01c8 2049     		ldr	r1, .L1375+36
 6385 01ca 2148     		ldr	r0, .L1375+40
 6386 01cc FFF7FEFF 		bl	sprint
 6387 01d0 0423     		movs	r3, #4
 6388 01d2 E7E7     		b	.L1363
 6389              	.L1374:
 6390 01d4 CB78     		ldrb	r3, [r1, #3]	@ zero_extendqisi2
 6391 01d6 002B     		cmp	r3, #0
 6392 01d8 F0D0     		beq	.L1337
ARM GAS  C:\Users\Jay\AppData\Local\Temp\ccjVRGue.s 			page 110


 6393 01da 86F83E32 		strb	r3, [r6, #574]
 6394 01de 06F23E2A 		addw	r10, r6, #574
 6395 01e2 0B79     		ldrb	r3, [r1, #4]	@ zero_extendqisi2
 6396 01e4 06F51079 		add	r9, r6, #576
 6397 01e8 194C     		ldr	r4, .L1375+40
 6398 01ea 86F83F32 		strb	r3, [r6, #575]
 6399 01ee 0AE0     		b	.L1338
 6400              	.L1339:
 6401 01f0 0246     		mov	r2, r0
 6402 01f2 0544     		add	r5, r5, r0
 6403 01f4 2046     		mov	r0, r4
 6404 01f6 1444     		add	r4, r4, r2
 6405 01f8 FFF7FEFF 		bl	memcpy
 6406 01fc 05F1FE03 		add	r3, r5, #254
 6407 0200 B3F5803F 		cmp	r3, #65536
 6408 0204 DAD8     		bhi	.L1337
 6409              	.L1338:
 6410 0206 5146     		mov	r1, r10
 6411 0208 4046     		mov	r0, r8
 6412 020a FFF7FEFF 		bl	d64_read_file_sector
 6413 020e 4946     		mov	r1, r9
 6414 0210 0028     		cmp	r0, #0
 6415 0212 EDD1     		bne	.L1339
 6416 0214 ADB2     		uxth	r5, r5
 6417 0216 022D     		cmp	r5, #2
 6418 0218 A7F80B50 		strh	r5, [r7, #11]	@ unaligned
 6419 021c 7FF67EAF 		bls	.L1334
 6420 0220 FFF7FEFF 		bl	c64_send_exit_menu
 6421 0224 0223     		movs	r3, #2
 6422 0226 BDE7     		b	.L1363
 6423              	.L1376:
 6424              		.align	2
 6425              	.L1375:
 6426 0228 00000000 		.word	dat_file
 6427 022c 0F000000 		.word	dat_file+15
 6428 0230 00000000 		.word	.LC31
 6429 0234 48000000 		.word	.LC36
 6430 0238 6C000000 		.word	.LC37
 6431 023c 00030000 		.word	dat_file+768
 6432 0240 1C000000 		.word	.LC34
 6433 0244 3C000000 		.word	.LC35
 6434 0248 04000000 		.word	.LC32
 6435 024c 08000000 		.word	.LC33
 6436 0250 00000000 		.word	dat_buffer
 6437 0254 14000000 		.word	.LANCHOR24+20
 6438 0258 00100258 		.word	1476530176
 6440              		.section	.text.handle_dir_open,"ax",%progbits
 6441              		.align	1
 6442              		.p2align 2,,3
 6443              		.syntax unified
 6444              		.thumb
 6445              		.thumb_func
 6446              		.fpu fpv5-sp-d16
 6448              	handle_dir_open:
 6449              		@ args = 0, pretend = 0, frame = 0
 6450              		@ frame_needed = 0, uses_anonymous_args = 0
 6451 0000 F8B5     		push	{r3, r4, r5, r6, r7, lr}
ARM GAS  C:\Users\Jay\AppData\Local\Temp\ccjVRGue.s 			page 111


 6452 0002 00F11804 		add	r4, r0, #24
 6453 0006 0646     		mov	r6, r0
 6454 0008 0C49     		ldr	r1, .L1380
 6455 000a 2046     		mov	r0, r4
 6456 000c FFF7FEFF 		bl	f_opendir
 6457 0010 28B1     		cbz	r0, .L1378
 6458 0012 0B4B     		ldr	r3, .L1380+4
 6459 0014 4FF48002 		mov	r2, #4194304
 6460 0018 9A61     		str	r2, [r3, #24]
 6461 001a FFF7FEFF 		bl	handle_failed_to_read_sd
 6462              	.L1378:
 6463 001e 0746     		mov	r7, r0
 6464 0020 06F14805 		add	r5, r6, #72
 6465 0024 0FCC     		ldmia	r4!, {r0, r1, r2, r3}
 6466 0026 0FC5     		stmia	r5!, {r0, r1, r2, r3}
 6467 0028 0FCC     		ldmia	r4!, {r0, r1, r2, r3}
 6468 002a 0FC5     		stmia	r5!, {r0, r1, r2, r3}
 6469 002c 94E80F00 		ldm	r4, {r0, r1, r2, r3}
 6470 0030 85E80F00 		stm	r5, {r0, r1, r2, r3}
 6471 0034 A6F87870 		strh	r7, [r6, #120]	@ movhi
 6472 0038 7775     		strb	r7, [r6, #21]
 6473 003a F8BD     		pop	{r3, r4, r5, r6, r7, pc}
 6474              	.L1381:
 6475              		.align	2
 6476              	.L1380:
 6477 003c 00000000 		.word	.LC14
 6478 0040 00100258 		.word	1476530176
 6480              		.section	.text.handle_dir_prev_page_command,"ax",%progbits
 6481              		.align	1
 6482              		.p2align 2,,3
 6483              		.syntax unified
 6484              		.thumb
 6485              		.thumb_func
 6486              		.fpu fpv5-sp-d16
 6488              	handle_dir_prev_page_command:
 6489              		@ args = 0, pretend = 0, frame = 280
 6490              		@ frame_needed = 0, uses_anonymous_args = 0
 6491 0000 2DE9F047 		push	{r4, r5, r6, r7, r8, r9, r10, lr}
 6492 0004 B0F87860 		ldrh	r6, [r0, #120]
 6493 0008 C6B0     		sub	sp, sp, #280
 6494 000a 56B3     		cbz	r6, .L1383
 6495 000c 013E     		subs	r6, r6, #1
 6496 000e 0746     		mov	r7, r0
 6497 0010 FFF7FEFF 		bl	handle_dir_open
 6498 0014 2A4A     		ldr	r2, .L1401
 6499 0016 B6B2     		uxth	r6, r6
 6500              	.L1384:
 6501 0018 1378     		ldrb	r3, [r2]	@ zero_extendqisi2
 6502 001a 002B     		cmp	r3, #0
 6503 001c FCD1     		bne	.L1384
 6504 001e 06EB8603 		add	r3, r6, r6, lsl #2
 6505 0022 2848     		ldr	r0, .L1401+4
 6506 0024 0224     		movs	r4, #2
 6507 0026 8021     		movs	r1, #128
 6508 0028 06EB4303 		add	r3, r6, r3, lsl #1
 6509 002c 0470     		strb	r4, [r0]
 6510 002e 5B00     		lsls	r3, r3, #1
ARM GAS  C:\Users\Jay\AppData\Local\Temp\ccjVRGue.s 			page 112


 6511 0030 1170     		strb	r1, [r2]
 6512 0032 9BB2     		uxth	r3, r3
 6513 0034 D3B9     		cbnz	r3, .L1397
 6514 0036 07F14808 		add	r8, r7, #72
 6515              	.L1385:
 6516 003a 4446     		mov	r4, r8
 6517 003c A7F87860 		strh	r6, [r7, #120]	@ movhi
 6518 0040 07F11805 		add	r5, r7, #24
 6519 0044 0FCC     		ldmia	r4!, {r0, r1, r2, r3}
