ARM GAS  C:\Users\Jay\AppData\Local\Temp\ccjVRGue.s 			page 1


   1              		.cpu cortex-m7
   2              		.eabi_attribute 27, 1
   3              		.eabi_attribute 28, 1
   4              		.eabi_attribute 20, 1
   5              		.eabi_attribute 21, 1
   6              		.eabi_attribute 23, 3
   7              		.eabi_attribute 24, 1
   8              		.eabi_attribute 25, 1
   9              		.eabi_attribute 26, 1
  10              		.eabi_attribute 30, 2
  11              		.eabi_attribute 34, 1
  12              		.eabi_attribute 18, 4
  13              		.file	"main.c"
  14              		.text
  15              		.section	.text.c64_data_write,"ax",%progbits
  16              		.align	1
  17              		.p2align 2,,3
  18              		.syntax unified
  19              		.thumb
  20              		.thumb_func
  21              		.fpu fpv5-sp-d16
  23              	c64_data_write:
  24              		@ args = 0, pretend = 0, frame = 0
  25              		@ frame_needed = 0, uses_anonymous_args = 0
  26              		@ link register save eliminated.
  27 0000 10F0010F 		tst	r0, #1
  28 0004 2749     		ldr	r1, .L20
  29 0006 284A     		ldr	r2, .L20+4
  30 0008 70B4     		push	{r4, r5, r6}
  31 000a 14BF     		ite	ne
  32 000c 0225     		movne	r5, #2
  33 000e 4FF40035 		moveq	r5, #131072
  34 0012 10F0020F 		tst	r0, #2
  35 0016 254C     		ldr	r4, .L20+8
  36 0018 14BF     		ite	ne
  37 001a 0126     		movne	r6, #1
  38 001c 4FF48036 		moveq	r6, #65536
  39 0020 10F0040F 		tst	r0, #4
  40 0024 45EA0605 		orr	r5, r5, r6
  41 0028 14BF     		ite	ne
  42 002a 4FF40073 		movne	r3, #512
  43 002e 4FF00073 		moveq	r3, #33554432
  44 0032 10F0080F 		tst	r0, #8
  45 0036 A561     		str	r5, [r4, #24]
  46 0038 14BF     		ite	ne
  47 003a 4FF48076 		movne	r6, #256
  48 003e 4FF08076 		moveq	r6, #16777216
  49 0042 10F0100F 		tst	r0, #16
  50 0046 43EA0603 		orr	r3, r3, r6
  51 004a 14BF     		ite	ne
  52 004c 8025     		movne	r5, #128
  53 004e 4FF40005 		moveq	r5, #8388608
  54 0052 10F0200F 		tst	r0, #32
  55 0056 43EA0503 		orr	r3, r3, r5
  56 005a 14BF     		ite	ne
  57 005c 4025     		movne	r5, #64
  58 005e 4FF48005 		moveq	r5, #4194304
ARM GAS  C:\Users\Jay\AppData\Local\Temp\ccjVRGue.s 			page 2


  59 0062 10F0400F 		tst	r0, #64
  60 0066 43EA0503 		orr	r3, r3, r5
  61 006a 114D     		ldr	r5, .L20+12
  62 006c 14BF     		ite	ne
  63 006e 2026     		movne	r6, #32
  64 0070 4FF40016 		moveq	r6, #2097152
  65 0074 10F0800F 		tst	r0, #128
  66 0078 43EA0603 		orr	r3, r3, r6
  67 007c 14BF     		ite	ne
  68 007e 2020     		movne	r0, #32
  69 0080 4FF40010 		moveq	r0, #2097152
  70 0084 8B61     		str	r3, [r1, #24]
  71 0086 9061     		str	r0, [r2, #24]
  72 0088 2068     		ldr	r0, [r4]
  73 008a 00F00F00 		and	r0, r0, #15
  74 008e 2060     		str	r0, [r4]
  75 0090 0B68     		ldr	r3, [r1]
  76 0092 2B40     		ands	r3, r3, r5
  77 0094 0B60     		str	r3, [r1]
  78 0096 1368     		ldr	r3, [r2]
  79 0098 03F44063 		and	r3, r3, #3072
  80 009c 70BC     		pop	{r4, r5, r6}
  81 009e 1360     		str	r3, [r2]
  82 00a0 7047     		bx	lr
  83              	.L21:
  84 00a2 00BF     		.align	2
  85              	.L20:
  86 00a4 00040258 		.word	1476527104
  87 00a8 000C0258 		.word	1476529152
  88 00ac 00100258 		.word	1476530176
  89 00b0 00FC0F00 		.word	1047552
  91              		.section	.text.sdio_cmd_send,"ax",%progbits
  92              		.align	1
  93              		.p2align 2,,3
  94              		.syntax unified
  95              		.thumb
  96              		.thumb_func
  97              		.fpu fpv5-sp-d16
  99              	sdio_cmd_send:
 100              		@ args = 0, pretend = 0, frame = 0
 101              		@ frame_needed = 0, uses_anonymous_args = 0
 102 0000 F8B5     		push	{r3, r4, r5, r6, r7, lr}
 103 0002 1546     		mov	r5, r2
 104 0004 0206     		lsls	r2, r0, #24
 105 0006 0446     		mov	r4, r0
 106 0008 0F46     		mov	r7, r1
 107 000a 1E46     		mov	r6, r3
 108 000c 2DD4     		bmi	.L23
 109              	.L29:
 110 000e 012D     		cmp	r5, #1
 111 0010 04F03F04 		and	r4, r4, #63
 112 0014 36D0     		beq	.L53
 113 0016 022D     		cmp	r5, #2
 114 0018 14BF     		ite	ne
 115 001a 44F48050 		orrne	r0, r4, #4096
 116 001e 44F49850 		orreq	r0, r4, #4864
 117              	.L30:
ARM GAS  C:\Users\Jay\AppData\Local\Temp\ccjVRGue.s 			page 3


 118 0022 1E4B     		ldr	r3, .L55
 119 0024 1E49     		ldr	r1, .L55+4
 120 0026 1A46     		mov	r2, r3
 121 0028 9963     		str	r1, [r3, #56]
 122 002a 9F60     		str	r7, [r3, #8]
 123 002c D860     		str	r0, [r3, #12]
 124              	.L32:
 125 002e 536B     		ldr	r3, [r2, #52]
 126 0030 9904     		lsls	r1, r3, #18
 127 0032 FCD4     		bmi	.L32
 128 0034 ADB1     		cbz	r5, .L51
 129 0036 194A     		ldr	r2, .L55
 130              	.L33:
 131 0038 536B     		ldr	r3, [r2, #52]
 132 003a 13F0450F 		tst	r3, #69
 133 003e FBD0     		beq	.L33
 134 0040 5A07     		lsls	r2, r3, #29
 135 0042 1DD4     		bmi	.L28
 136 0044 DB07     		lsls	r3, r3, #31
 137 0046 05D5     		bpl	.L34
 138 0048 012C     		cmp	r4, #1
 139 004a 18BF     		it	ne
 140 004c 0C2C     		cmpne	r4, #12
 141 004e 01D0     		beq	.L34
 142 0050 292C     		cmp	r4, #41
 143 0052 15D1     		bne	.L28
 144              	.L34:
 145 0054 114B     		ldr	r3, .L55
 146 0056 022D     		cmp	r5, #2
 147 0058 5A69     		ldr	r2, [r3, #20]
 148 005a 3260     		str	r2, [r6]
 149 005c 15D0     		beq	.L54
 150 005e 0120     		movs	r0, #1
 151 0060 F8BD     		pop	{r3, r4, r5, r6, r7, pc}
 152              	.L51:
 153 0062 506B     		ldr	r0, [r2, #52]
 154 0064 C0F3C010 		ubfx	r0, r0, #7, #1
 155 0068 F8BD     		pop	{r3, r4, r5, r6, r7, pc}
 156              	.L23:
 157 006a 0E49     		ldr	r1, .L55+8
 158 006c 0122     		movs	r2, #1
 159 006e 3720     		movs	r0, #55
 160 0070 0988     		ldrh	r1, [r1]
 161 0072 0904     		lsls	r1, r1, #16
 162 0074 FFF7C4FF 		bl	sdio_cmd_send
 163 0078 10B1     		cbz	r0, .L28
 164 007a 3368     		ldr	r3, [r6]
 165 007c 9806     		lsls	r0, r3, #26
 166 007e C6D4     		bmi	.L29
 167              	.L28:
 168 0080 0020     		movs	r0, #0
 169 0082 F8BD     		pop	{r3, r4, r5, r6, r7, pc}
 170              	.L53:
 171 0084 44F48850 		orr	r0, r4, #4352
 172 0088 CBE7     		b	.L30
 173              	.L54:
 174 008a 9A69     		ldr	r2, [r3, #24]
ARM GAS  C:\Users\Jay\AppData\Local\Temp\ccjVRGue.s 			page 4


 175 008c 0120     		movs	r0, #1
 176 008e 7260     		str	r2, [r6, #4]
 177 0090 DA69     		ldr	r2, [r3, #28]
 178 0092 B260     		str	r2, [r6, #8]
 179 0094 1B6A     		ldr	r3, [r3, #32]
 180 0096 F360     		str	r3, [r6, #12]
 181 0098 F8BD     		pop	{r3, r4, r5, r6, r7, pc}
 182              	.L56:
 183 009a 00BF     		.align	2
 184              	.L55:
 185 009c 00240248 		.word	1208099840
 186 00a0 C500C01F 		.word	532676805
 187 00a4 00000000 		.word	.LANCHOR0
 189              		.section	.text.usbd_set_address,"ax",%progbits
 190              		.align	1
 191              		.p2align 2,,3
 192              		.syntax unified
 193              		.thumb
 194              		.thumb_func
 195              		.fpu fpv5-sp-d16
 197              	usbd_set_address:
 198              		@ args = 0, pretend = 0, frame = 0
 199              		@ frame_needed = 0, uses_anonymous_args = 0
 200 0000 38B5     		push	{r3, r4, r5, lr}
 201 0002 0368     		ldr	r3, [r0]
 202 0004 0D46     		mov	r5, r1
 203 0006 0446     		mov	r4, r0
 204 0008 8878     		ldrb	r0, [r1, #2]	@ zero_extendqisi2
 205 000a DB68     		ldr	r3, [r3, #12]
 206 000c 9847     		blx	r3
 207 000e 6B88     		ldrh	r3, [r5, #2]
 208 0010 002B     		cmp	r3, #0
 209 0012 14BF     		ite	ne
 210 0014 0323     		movne	r3, #3
 211 0016 0223     		moveq	r3, #2
 212 0018 84F86230 		strb	r3, [r4, #98]
 213 001c 38BD     		pop	{r3, r4, r5, pc}
 215 001e 00BF     		.section	.text.usbd_process_evt,"ax",%progbits
 216              		.align	1
 217              		.p2align 2,,3
 218              		.syntax unified
 219              		.thumb
 220              		.thumb_func
 221              		.fpu fpv5-sp-d16
 223              	usbd_process_evt:
 224              		@ args = 0, pretend = 0, frame = 0
 225              		@ frame_needed = 0, uses_anonymous_args = 0
 226 0000 70B5     		push	{r4, r5, r6, lr}
 227 0002 0446     		mov	r4, r0
 228 0004 1646     		mov	r6, r2
 229 0006 0D46     		mov	r5, r1
 230 0008 A9B1     		cbz	r1, .L63
 231 000a 0B1F     		subs	r3, r1, #4
 232 000c 022B     		cmp	r3, #2
 233 000e 09D9     		bls	.L71
 234              	.L62:
 235 0010 04EB8503 		add	r3, r4, r5, lsl #2
ARM GAS  C:\Users\Jay\AppData\Local\Temp\ccjVRGue.s 			page 5


 236 0014 5B69     		ldr	r3, [r3, #20]
 237 0016 13B3     		cbz	r3, .L61
 238 0018 3246     		mov	r2, r6
 239 001a 2946     		mov	r1, r5
 240 001c 2046     		mov	r0, r4
 241 001e BDE87040 		pop	{r4, r5, r6, lr}
 242 0022 1847     		bx	r3	@ indirect register sibling call
 243              	.L71:
 244 0024 02F00703 		and	r3, r2, #7
 245 0028 00EB8303 		add	r3, r0, r3, lsl #2
 246 002c 5B6B     		ldr	r3, [r3, #52]
 247 002e 002B     		cmp	r3, #0
 248 0030 EED0     		beq	.L62
 249 0032 9847     		blx	r3
 250 0034 ECE7     		b	.L62
 251              	.L63:
 252 0036 0368     		ldr	r3, [r0]
 253 0038 0222     		movs	r2, #2
 254 003a 84F86310 		strb	r1, [r4, #99]
 255 003e 0846     		mov	r0, r1
 256 0040 84F86220 		strb	r2, [r4, #98]
 257 0044 84F86110 		strb	r1, [r4, #97]
 258 0048 94F86020 		ldrb	r2, [r4, #96]	@ zero_extendqisi2
 259 004c 1B69     		ldr	r3, [r3, #16]
 260 004e 9847     		blx	r3
 261 0050 034A     		ldr	r2, .L72
 262 0052 2368     		ldr	r3, [r4]
 263 0054 2846     		mov	r0, r5
 264 0056 6263     		str	r2, [r4, #52]
 265 0058 DB68     		ldr	r3, [r3, #12]
 266 005a 9847     		blx	r3
 267 005c D8E7     		b	.L62
 268              	.L61:
 269 005e 70BD     		pop	{r4, r5, r6, pc}
 270              	.L73:
 271              		.align	2
 272              	.L72:
 273 0060 00000000 		.word	usbd_process_ep0
 275              		.section	.text.setaddr,"ax",%progbits
 276              		.align	1
 277              		.p2align 2,,3
 278              		.global	setaddr
 279              		.syntax unified
 280              		.thumb
 281              		.thumb_func
 282              		.fpu fpv5-sp-d16
 284              	setaddr:
 285              		@ args = 0, pretend = 0, frame = 0
 286              		@ frame_needed = 0, uses_anonymous_args = 0
 287              		@ link register save eliminated.
 288 0000 034A     		ldr	r2, .L75
 289 0002 1368     		ldr	r3, [r2]
 290 0004 23F4FE63 		bic	r3, r3, #2032
 291 0008 43EA0010 		orr	r0, r3, r0, lsl #4
 292 000c 1060     		str	r0, [r2]
 293 000e 7047     		bx	lr
 294              	.L76:
ARM GAS  C:\Users\Jay\AppData\Local\Temp\ccjVRGue.s 			page 6


 295              		.align	2
 296              	.L75:
 297 0010 00080840 		.word	1074268160
 299              		.section	.text.set_tx_fifo,"ax",%progbits
 300              		.align	1
 301              		.p2align 2,,3
 302              		.syntax unified
 303              		.thumb
 304              		.thumb_func
 305              		.fpu fpv5-sp-d16
 307              	set_tx_fifo:
 308              		@ args = 0, pretend = 0, frame = 0
 309              		@ frame_needed = 0, uses_anonymous_args = 0
 310              		@ link register save eliminated.
 311 0000 70B4     		push	{r4, r5, r6}
 312 0002 164E     		ldr	r6, .L84
 313 0004 0022     		movs	r2, #0
 314 0006 B46A     		ldr	r4, [r6, #40]
 315 0008 04EB1444 		add	r4, r4, r4, lsr #16
 316 000c A4B2     		uxth	r4, r4
 317              	.L79:
 318 000e 02F14003 		add	r3, r2, #64
 319 0012 0132     		adds	r2, r2, #1
 320 0014 06EB8303 		add	r3, r6, r3, lsl #2
 321 0018 5B68     		ldr	r3, [r3, #4]
 322 001a 03EB1345 		add	r5, r3, r3, lsr #16
 323 001e 9BB2     		uxth	r3, r3
 324 0020 ADB2     		uxth	r5, r5
 325 0022 B3F5007F 		cmp	r3, #512
 326 0026 02D2     		bcs	.L78
 327 0028 AC42     		cmp	r4, r5
 328 002a 38BF     		it	cc
 329 002c 2C46     		movcc	r4, r5
 330              	.L78:
 331 002e 032A     		cmp	r2, #3
 332 0030 EDD1     		bne	.L79
 333 0032 0331     		adds	r1, r1, #3
 334 0034 8910     		asrs	r1, r1, #2
 335 0036 1029     		cmp	r1, #16
 336 0038 B8BF     		it	lt
 337 003a 1021     		movlt	r1, #16
 338 003c 0B19     		adds	r3, r1, r4
 339 003e B3F5A07F 		cmp	r3, #320
 340 0042 08D8     		bhi	.L81
 341 0044 8300     		lsls	r3, r0, #2
 342 0046 064A     		ldr	r2, .L84+4
 343 0048 44EA0144 		orr	r4, r4, r1, lsl #16
 344 004c 0120     		movs	r0, #1
 345 004e 1A44     		add	r2, r2, r3
 346 0050 5460     		str	r4, [r2, #4]
 347 0052 70BC     		pop	{r4, r5, r6}
 348 0054 7047     		bx	lr
 349              	.L81:
 350 0056 0020     		movs	r0, #0
 351 0058 70BC     		pop	{r4, r5, r6}
 352 005a 7047     		bx	lr
 353              	.L85:
ARM GAS  C:\Users\Jay\AppData\Local\Temp\ccjVRGue.s 			page 7


 354              		.align	2
 355              	.L84:
 356 005c 00000840 		.word	1074266112
 357 0060 FC000840 		.word	1074266364
 359              		.section	.text.ep_deconfig,"ax",%progbits
 360              		.align	1
 361              		.p2align 2,,3
 362              		.global	ep_deconfig
 363              		.syntax unified
 364              		.thumb
 365              		.thumb_func
 366              		.fpu fpv5-sp-d16
 368              	ep_deconfig:
 369              		@ args = 0, pretend = 0, frame = 0
 370              		@ frame_needed = 0, uses_anonymous_args = 0
 371 0000 00F07F00 		and	r0, r0, #127
 372 0004 294B     		ldr	r3, .L100
 373 0006 4FF00111 		mov	r1, #65537
 374 000a 4201     		lsls	r2, r0, #5
 375 000c F0B5     		push	{r4, r5, r6, r7, lr}
 376 000e 01FA00F5 		lsl	r5, r1, r0
 377 0012 D969     		ldr	r1, [r3, #28]
 378 0014 264E     		ldr	r6, .L100+4
 379 0016 8401     		lsls	r4, r0, #6
 380 0018 21EA0501 		bic	r1, r1, r5
 381 001c 254F     		ldr	r7, .L100+8
 382 001e 04F4F864 		and	r4, r4, #1984
 383 0022 254D     		ldr	r5, .L100+12
 384 0024 D961     		str	r1, [r3, #28]
 385 0026 02EB060C 		add	ip, r2, r6
 386 002a 9359     		ldr	r3, [r2, r6]
 387 002c 3946     		mov	r1, r7
 388 002e 02EB050E 		add	lr, r2, r5
 389 0032 23F40043 		bic	r3, r3, #32768
 390 0036 9351     		str	r3, [r2, r6]
 391 0038 3B69     		ldr	r3, [r7, #16]
 392 003a 23F4F863 		bic	r3, r3, #1984
 393 003e 43F02003 		orr	r3, r3, #32
 394 0042 2343     		orrs	r3, r3, r4
 395 0044 3B61     		str	r3, [r7, #16]
 396              	.L87:
 397 0046 0B69     		ldr	r3, [r1, #16]
 398 0048 9B06     		lsls	r3, r3, #26
 399 004a FCD4     		bmi	.L87
 400 004c 9359     		ldr	r3, [r2, r6]
 401 004e 002B     		cmp	r3, #0
 402 0050 0CDB     		blt	.L99
 403 0052 FF23     		movs	r3, #255
 404 0054 CCF80830 		str	r3, [ip, #8]
 405 0058 78B9     		cbnz	r0, .L90
 406              	.L91:
 407 005a 5359     		ldr	r3, [r2, r5]
 408 005c 23F40043 		bic	r3, r3, #32768
 409 0060 5351     		str	r3, [r2, r5]
 410 0062 5359     		ldr	r3, [r2, r5]
 411              	.L92:
 412 0064 FF23     		movs	r3, #255
ARM GAS  C:\Users\Jay\AppData\Local\Temp\ccjVRGue.s 			page 8


 413 0066 CEF80830 		str	r3, [lr, #8]
 414 006a F0BD     		pop	{r4, r5, r6, r7, pc}
 415              	.L99:
 416 006c D0B1     		cbz	r0, .L89
 417 006e 4FF08041 		mov	r1, #1073741824
 418 0072 FF23     		movs	r3, #255
 419 0074 9151     		str	r1, [r2, r6]
 420 0076 CCF80830 		str	r3, [ip, #8]
 421              	.L90:
 422 007a 00F10111 		add	r1, r0, #65537
 423 007e 0F4B     		ldr	r3, .L100+16
 424 0080 8000     		lsls	r0, r0, #2
 425 0082 4902     		lsls	r1, r1, #9
 426 0084 0344     		add	r3, r3, r0
 427 0086 5960     		str	r1, [r3, #4]
 428 0088 5359     		ldr	r3, [r2, r5]
 429 008a 23F40043 		bic	r3, r3, #32768
 430 008e 5351     		str	r3, [r2, r5]
 431 0090 5359     		ldr	r3, [r2, r5]
 432 0092 002B     		cmp	r3, #0
 433 0094 E6DA     		bge	.L92
 434 0096 4FF08043 		mov	r3, #1073741824
 435 009a 5351     		str	r3, [r2, r5]
 436 009c FF23     		movs	r3, #255
 437 009e CEF80830 		str	r3, [lr, #8]
 438 00a2 F0BD     		pop	{r4, r5, r6, r7, pc}
 439              	.L89:
 440 00a4 FF23     		movs	r3, #255
 441 00a6 CCF80830 		str	r3, [ip, #8]
 442 00aa D6E7     		b	.L91
 443              	.L101:
 444              		.align	2
 445              	.L100:
 446 00ac 00080840 		.word	1074268160
 447 00b0 00090840 		.word	1074268416
 448 00b4 00000840 		.word	1074266112
 449 00b8 000B0840 		.word	1074268928
 450 00bc FC000840 		.word	1074266364
 452              		.section	.text.ep_read,"ax",%progbits
 453              		.align	1
 454              		.p2align 2,,3
 455              		.global	ep_read
 456              		.syntax unified
 457              		.thumb
 458              		.thumb_func
 459              		.fpu fpv5-sp-d16
 461              	ep_read:
 462              		@ args = 0, pretend = 0, frame = 0
 463              		@ frame_needed = 0, uses_anonymous_args = 0
 464              		@ link register save eliminated.
 465 0000 194B     		ldr	r3, .L117
 466 0002 F0B4     		push	{r4, r5, r6, r7}
 467 0004 5C69     		ldr	r4, [r3, #20]
 468 0006 E406     		lsls	r4, r4, #27
 469 0008 2BD5     		bpl	.L110
 470 000a DC69     		ldr	r4, [r3, #28]
 471 000c 00F07F00 		and	r0, r0, #127
ARM GAS  C:\Users\Jay\AppData\Local\Temp\ccjVRGue.s 			page 9


 472 0010 04F00F04 		and	r4, r4, #15
 473 0014 8442     		cmp	r4, r0
 474 0016 24D1     		bne	.L110
 475 0018 186A     		ldr	r0, [r3, #32]
 476 001a C0F30A10 		ubfx	r0, r0, #4, #11
 477 001e F0B1     		cbz	r0, .L102
 478 0020 0025     		movs	r5, #0
 479 0022 124F     		ldr	r7, .L117+4
 480 0024 06E0     		b	.L108
 481              	.L104:
 482 0026 043A     		subs	r2, r2, #4
 483 0028 41F8043B 		str	r3, [r1], #4
 484 002c 92B2     		uxth	r2, r2
 485              	.L106:
 486 002e 0435     		adds	r5, r5, #4
 487 0030 8542     		cmp	r5, r0
 488 0032 14D2     		bcs	.L102
 489              	.L108:
 490 0034 032A     		cmp	r2, #3
 491 0036 3B68     		ldr	r3, [r7]
 492 0038 F5D8     		bhi	.L104
 493 003a 002A     		cmp	r2, #0
 494 003c F7D0     		beq	.L106
 495 003e 013A     		subs	r2, r2, #1
 496 0040 4C1E     		subs	r4, r1, #1
 497 0042 92B2     		uxth	r2, r2
 498 0044 8E18     		adds	r6, r1, r2
 499              	.L107:
 500 0046 04F8013F 		strb	r3, [r4, #1]!
 501 004a A642     		cmp	r6, r4
 502 004c 4FEA1323 		lsr	r3, r3, #8
 503 0050 F9D1     		bne	.L107
 504 0052 0435     		adds	r5, r5, #4
 505 0054 531C     		adds	r3, r2, #1
 506 0056 0022     		movs	r2, #0
 507 0058 8542     		cmp	r5, r0
 508 005a 1944     		add	r1, r1, r3
 509 005c EAD3     		bcc	.L108
 510              	.L102:
 511 005e F0BC     		pop	{r4, r5, r6, r7}
 512 0060 7047     		bx	lr
 513              	.L110:
 514 0062 4FF0FF30 		mov	r0, #-1
 515 0066 FAE7     		b	.L102
 516              	.L118:
 517              		.align	2
 518              	.L117:
 519 0068 00000840 		.word	1074266112
 520 006c 00100840 		.word	1074270208
 522              		.section	.text.ep_write,"ax",%progbits
 523              		.align	1
 524              		.p2align 2,,3
 525              		.global	ep_write
 526              		.syntax unified
 527              		.thumb
 528              		.thumb_func
 529              		.fpu fpv5-sp-d16
ARM GAS  C:\Users\Jay\AppData\Local\Temp\ccjVRGue.s 			page 10


 531              	ep_write:
 532              		@ args = 0, pretend = 0, frame = 0
 533              		@ frame_needed = 0, uses_anonymous_args = 0
 534 0000 F0B5     		push	{r4, r5, r6, r7, lr}
 535 0002 00F07F04 		and	r4, r0, #127
 536 0006 174F     		ldr	r7, .L134
 537 0008 D31C     		adds	r3, r2, #3
 538 000a 174E     		ldr	r6, .L134+4
 539 000c 4FEA441C 		lsl	ip, r4, #5
 540 0010 9B10     		asrs	r3, r3, #2
 541 0012 0CEB070E 		add	lr, ip, r7
 542 0016 06EB0436 		add	r6, r6, r4, lsl #12
 543 001a DEF81850 		ldr	r5, [lr, #24]
 544 001e 9D42     		cmp	r5, r3
 545 0020 1DD3     		bcc	.L124
 546 0022 1046     		mov	r0, r2
 547 0024 BCB9     		cbnz	r4, .L133
 548              	.L121:
 549 0026 02F50022 		add	r2, r2, #524288
 550 002a 0025     		movs	r5, #0
 551 002c 0F4C     		ldr	r4, .L134+8
 552 002e CEF81050 		str	r5, [lr, #16]
 553 0032 CEF81020 		str	r2, [lr, #16]
 554 0036 5CF80720 		ldr	r2, [ip, r7]
 555 003a 1440     		ands	r4, r4, r2
 556 003c 44F00444 		orr	r4, r4, #-2080374784
 557 0040 4CF80740 		str	r4, [ip, r7]
 558 0044 33B1     		cbz	r3, .L119
 559 0046 01EB8302 		add	r2, r1, r3, lsl #2
 560              	.L122:
 561 004a 51F8043B 		ldr	r3, [r1], #4
 562 004e 8A42     		cmp	r2, r1
 563 0050 3360     		str	r3, [r6]
 564 0052 FAD1     		bne	.L122
 565              	.L119:
 566 0054 F0BD     		pop	{r4, r5, r6, r7, pc}
 567              	.L133:
 568 0056 5CF80740 		ldr	r4, [ip, r7]
 569 005a 002C     		cmp	r4, #0
 570 005c E3DA     		bge	.L121
 571              	.L124:
 572 005e 4FF0FF30 		mov	r0, #-1
 573 0062 F0BD     		pop	{r4, r5, r6, r7, pc}
 574              	.L135:
 575              		.align	2
 576              	.L134:
 577 0064 00090840 		.word	1074268416
 578 0068 00100840 		.word	1074270208
 579 006c FFFFDF7B 		.word	2078277631
 581              		.section	.text.get_frame,"ax",%progbits
 582              		.align	1
 583              		.p2align 2,,3
 584              		.global	get_frame
 585              		.syntax unified
 586              		.thumb
 587              		.thumb_func
 588              		.fpu fpv5-sp-d16
ARM GAS  C:\Users\Jay\AppData\Local\Temp\ccjVRGue.s 			page 11


 590              	get_frame:
 591              		@ args = 0, pretend = 0, frame = 0
 592              		@ frame_needed = 0, uses_anonymous_args = 0
 593              		@ link register save eliminated.
 594 0000 024B     		ldr	r3, .L137
 595 0002 9868     		ldr	r0, [r3, #8]
 596 0004 C0F30D20 		ubfx	r0, r0, #8, #14
 597 0008 7047     		bx	lr
 598              	.L138:
 599 000a 00BF     		.align	2
 600              	.L137:
 601 000c 00080840 		.word	1074268160
 603              		.section	.text.evt_poll,"ax",%progbits
 604              		.align	1
 605              		.p2align 2,,3
 606              		.global	evt_poll
 607              		.syntax unified
 608              		.thumb
 609              		.thumb_func
 610              		.fpu fpv5-sp-d16
 612              	evt_poll:
 613              		@ args = 0, pretend = 0, frame = 0
 614              		@ frame_needed = 0, uses_anonymous_args = 0
 615 0000 2DE9F047 		push	{r4, r5, r6, r7, r8, r9, r10, lr}
 616 0004 0746     		mov	r7, r0
 617 0006 0E46     		mov	r6, r1
 618 0008 0024     		movs	r4, #0
 619 000a 474D     		ldr	r5, .L177
 620 000c DFF82881 		ldr	r8, .L177+16
 621 0010 4FF48059 		mov	r9, #4096
 622              	.L140:
 623 0014 6B69     		ldr	r3, [r5, #20]
 624 0016 13F48051 		ands	r1, r3, #4096
 625 001a 1ED1     		bne	.L172
 626              	.L141:
 627 001c 9804     		lsls	r0, r3, #18
 628 001e 54D4     		bmi	.L173
 629 0020 5A03     		lsls	r2, r3, #13
 630 0022 56D4     		bmi	.L174
 631 0024 D806     		lsls	r0, r3, #27
 632 0026 69D5     		bpl	.L152
 633 0028 EC69     		ldr	r4, [r5, #28]
 634 002a C4F34343 		ubfx	r3, r4, #17, #4
 635 002e 04F00F04 		and	r4, r4, #15
 636 0032 023B     		subs	r3, r3, #2
 637 0034 042B     		cmp	r3, #4
 638 0036 0BD8     		bhi	.L153
 639 0038 DFE803F0 		tbb	[pc, r3]
 640              	.L154:
 641 003c 25       		.byte	(.L159-.L154)/2
 642 003d 03       		.byte	(.L155-.L154)/2
 643 003e 03       		.byte	(.L155-.L154)/2
 644 003f 0A       		.byte	(.L153-.L154)/2
 645 0040 2C       		.byte	(.L156-.L154)/2
 646 0041 00       		.p2align 1
 647              	.L155:
 648 0042 6201     		lsls	r2, r4, #5
ARM GAS  C:\Users\Jay\AppData\Local\Temp\ccjVRGue.s 			page 12


 649 0044 52F80830 		ldr	r3, [r2, r8]
 650 0048 43F00443 		orr	r3, r3, #-2080374784
 651 004c 42F80830 		str	r3, [r2, r8]
 652              	.L153:
 653 0050 2B6A     		ldr	r3, [r5, #32]
 654 0052 6B69     		ldr	r3, [r5, #20]
 655 0054 13F48051 		ands	r1, r3, #4096
 656 0058 E0D0     		beq	.L141
 657              	.L172:
 658 005a 0020     		movs	r0, #0
 659 005c C5F81490 		str	r9, [r5, #20]
 660 0060 FFF7FEFF 		bl	ep_deconfig
 661 0064 0120     		movs	r0, #1
 662 0066 FFF7FEFF 		bl	ep_deconfig
 663 006a 0220     		movs	r0, #2
 664 006c FFF7FEFF 		bl	ep_deconfig
 665 0070 0320     		movs	r0, #3
 666 0072 FFF7FEFF 		bl	ep_deconfig
 667 0076 2B69     		ldr	r3, [r5, #16]
 668 0078 43F01003 		orr	r3, r3, #16
 669 007c 2B61     		str	r3, [r5, #16]
 670              	.L142:
 671 007e 2B69     		ldr	r3, [r5, #16]
 672 0080 DB06     		lsls	r3, r3, #27
 673 0082 FCD4     		bmi	.L142
 674 0084 C6E7     		b	.L140
 675              	.L159:
 676 0086 0521     		movs	r1, #5
 677              	.L145:
 678 0088 E2B2     		uxtb	r2, r4
 679 008a 3846     		mov	r0, r7
 680 008c 3346     		mov	r3, r6
 681 008e BDE8F047 		pop	{r4, r5, r6, r7, r8, r9, r10, lr}
 682 0092 1847     		bx	r3	@ indirect register sibling call
 683              	.L156:
 684 0094 254A     		ldr	r2, .L177+4
 685 0096 264B     		ldr	r3, .L177+8
 686 0098 02EB4412 		add	r2, r2, r4, lsl #5
 687 009c 1269     		ldr	r2, [r2, #16]
 688 009e 1340     		ands	r3, r3, r2
 689 00a0 63B1     		cbz	r3, .L160
 690 00a2 2149     		ldr	r1, .L177
 691 00a4 0B69     		ldr	r3, [r1, #16]
 692 00a6 0A46     		mov	r2, r1
 693 00a8 23F4F863 		bic	r3, r3, #1984
 694 00ac 43F02003 		orr	r3, r3, #32
 695 00b0 43EA8413 		orr	r3, r3, r4, lsl #6
 696 00b4 0B61     		str	r3, [r1, #16]
 697              	.L157:
 698 00b6 1369     		ldr	r3, [r2, #16]
 699 00b8 9906     		lsls	r1, r3, #26
 700 00ba FCD4     		bmi	.L157
 701              	.L160:
 702 00bc E2B2     		uxtb	r2, r4
 703 00be 3846     		mov	r0, r7
 704 00c0 3346     		mov	r3, r6
 705 00c2 0621     		movs	r1, #6
ARM GAS  C:\Users\Jay\AppData\Local\Temp\ccjVRGue.s 			page 13


 706 00c4 BDE8F047 		pop	{r4, r5, r6, r7, r8, r9, r10, lr}
 707 00c8 1847     		bx	r3	@ indirect register sibling call
 708              	.L173:
 709 00ca 4FF40053 		mov	r3, #8192
 710 00ce 6B61     		str	r3, [r5, #20]
 711 00d0 DAE7     		b	.L145
 712              	.L174:
 713 00d2 1648     		ldr	r0, .L177+4
 714 00d4 032C     		cmp	r4, #3
 715 00d6 00EB4410 		add	r0, r0, r4, lsl #5
 716 00da 13D8     		bhi	.L139
 717 00dc 8368     		ldr	r3, [r0, #8]
 718 00de DB07     		lsls	r3, r3, #31
 719 00e0 17D4     		bmi	.L148
 720 00e2 144B     		ldr	r3, .L177+12
 721 00e4 2344     		add	r3, r3, r4
 722 00e6 5B01     		lsls	r3, r3, #5
 723 00e8 03E0     		b	.L150
 724              	.L170:
 725 00ea 9A68     		ldr	r2, [r3, #8]
 726 00ec 2033     		adds	r3, r3, #32
 727 00ee D507     		lsls	r5, r2, #31
 728 00f0 0FD4     		bmi	.L148
 729              	.L150:
 730 00f2 0134     		adds	r4, r4, #1
 731 00f4 1846     		mov	r0, r3
 732 00f6 042C     		cmp	r4, #4
 733 00f8 F7D1     		bne	.L170
 734 00fa 03E0     		b	.L139
 735              	.L152:
 736 00fc 1A05     		lsls	r2, r3, #20
 737 00fe 03D4     		bmi	.L175
 738 0100 002B     		cmp	r3, #0
 739 0102 0CDB     		blt	.L176
 740              	.L139:
 741 0104 BDE8F087 		pop	{r4, r5, r6, r7, r8, r9, r10, pc}
 742              	.L175:
 743 0108 4FF40063 		mov	r3, #2048
 744 010c 0221     		movs	r1, #2
 745 010e 6B61     		str	r3, [r5, #20]
 746 0110 BAE7     		b	.L145
 747              	.L148:
 748 0112 0123     		movs	r3, #1
 749 0114 44F08004 		orr	r4, r4, #128
 750 0118 0421     		movs	r1, #4
 751 011a 8360     		str	r3, [r0, #8]
 752 011c B4E7     		b	.L145
 753              	.L176:
 754 011e 4FF00043 		mov	r3, #-2147483648
 755 0122 0321     		movs	r1, #3
 756 0124 6B61     		str	r3, [r5, #20]
 757 0126 AFE7     		b	.L145
 758              	.L178:
 759              		.align	2
 760              	.L177:
 761 0128 00000840 		.word	1074266112
 762 012c 00090840 		.word	1074268416
ARM GAS  C:\Users\Jay\AppData\Local\Temp\ccjVRGue.s 			page 14


 763 0130 0000F81F 		.word	536346624
 764 0134 49400002 		.word	33570889
 765 0138 000B0840 		.word	1074268928
 767              		.section	.text.get_serialno_desc,"ax",%progbits
 768              		.align	1
 769              		.p2align 2,,3
 770              		.global	get_serialno_desc
 771              		.syntax unified
 772              		.thumb
 773              		.thumb_func
 774              		.fpu fpv5-sp-d16
 776              	get_serialno_desc:
 777              		@ args = 0, pretend = 0, frame = 0
 778              		@ frame_needed = 0, uses_anonymous_args = 0
 779              		@ link register save eliminated.
 780 0000 1F4B     		ldr	r3, .L191
 781 0002 2049     		ldr	r1, .L191+4
 782 0004 1A68     		ldr	r2, [r3]
 783 0006 30B4     		push	{r4, r5}
 784 0008 0446     		mov	r4, r0
 785 000a 1F4D     		ldr	r5, .L191+8
 786 000c 0420     		movs	r0, #4
 787              	.L180:
 788 000e D3B2     		uxtb	r3, r2
 789 0010 0138     		subs	r0, r0, #1
 790 0012 4FEA1222 		lsr	r2, r2, #8
 791 0016 81EA0301 		eor	r1, r1, r3
 792 001a 05FB01F1 		mul	r1, r5, r1
 793 001e F6D1     		bne	.L180
 794 0020 1A4B     		ldr	r3, .L191+12
 795 0022 0420     		movs	r0, #4
 796 0024 184D     		ldr	r5, .L191+8
 797 0026 1A68     		ldr	r2, [r3]
 798              	.L181:
 799 0028 D3B2     		uxtb	r3, r2
 800 002a 0138     		subs	r0, r0, #1
 801 002c 4FEA1222 		lsr	r2, r2, #8
 802 0030 81EA0301 		eor	r1, r1, r3
 803 0034 05FB01F1 		mul	r1, r5, r1
 804 0038 F6D1     		bne	.L181
 805 003a 154B     		ldr	r3, .L191+16
 806 003c 0420     		movs	r0, #4
 807 003e 124D     		ldr	r5, .L191+8
 808 0040 1A68     		ldr	r2, [r3]
 809              	.L182:
 810 0042 D3B2     		uxtb	r3, r2
 811 0044 0138     		subs	r0, r0, #1
 812 0046 4FEA1222 		lsr	r2, r2, #8
 813 004a 81EA0301 		eor	r1, r1, r3
 814 004e 05FB01F1 		mul	r1, r5, r1
 815 0052 F6D1     		bne	.L182
 816 0054 2546     		mov	r5, r4
 817 0056 1C22     		movs	r2, #28
 818              	.L184:
 819 0058 21FA02F3 		lsr	r3, r1, r2
 820 005c 043A     		subs	r2, r2, #4
 821 005e 03F00F03 		and	r3, r3, #15
ARM GAS  C:\Users\Jay\AppData\Local\Temp\ccjVRGue.s 			page 15


 822 0062 0A2B     		cmp	r3, #10
 823 0064 34BF     		ite	cc
 824 0066 3020     		movcc	r0, #48
 825 0068 3720     		movcs	r0, #55
 826 006a 0344     		add	r3, r3, r0
 827 006c 25F8023F 		strh	r3, [r5, #2]!	@ movhi
 828 0070 131D     		adds	r3, r2, #4
 829 0072 F1D1     		bne	.L184
 830 0074 40F21233 		movw	r3, #786
 831 0078 1220     		movs	r0, #18
 832 007a 2380     		strh	r3, [r4]	@ movhi
 833 007c 30BC     		pop	{r4, r5}
 834 007e 7047     		bx	lr
 835              	.L192:
 836              		.align	2
 837              	.L191:
 838 0080 00E8F11F 		.word	535947264
 839 0084 C59D1C81 		.word	-2128831035
 840 0088 93010001 		.word	16777619
 841 008c 04E8F11F 		.word	535947268
 842 0090 08E8F11F 		.word	535947272
 844              		.section	.text.cdc_getdesc,"ax",%progbits
 845              		.align	1
 846              		.p2align 2,,3
 847              		.syntax unified
 848              		.thumb
 849              		.thumb_func
 850              		.fpu fpv5-sp-d16
 852              	cdc_getdesc:
 853              		@ args = 0, pretend = 0, frame = 0
 854              		@ frame_needed = 0, uses_anonymous_args = 0
 855              		@ link register save eliminated.
 856 0000 4088     		ldrh	r0, [r0, #2]
 857 0002 030A     		lsrs	r3, r0, #8
 858 0004 022B     		cmp	r3, #2
 859 0006 10B4     		push	{r4}
 860 0008 17D0     		beq	.L200
 861 000a 032B     		cmp	r3, #3
 862 000c 0DD0     		beq	.L196
 863 000e 012B     		cmp	r3, #1
 864 0010 03D0     		beq	.L204
 865              	.L201:
 866 0012 0020     		movs	r0, #0
 867 0014 5DF8044B 		ldr	r4, [sp], #4
 868 0018 7047     		bx	lr
 869              	.L204:
 870 001a 1224     		movs	r4, #18
 871 001c 084B     		ldr	r3, .L205
 872              	.L195:
 873 001e 0B60     		str	r3, [r1]
 874 0020 0120     		movs	r0, #1
 875 0022 1480     		strh	r4, [r2]	@ movhi
 876 0024 5DF8044B 		ldr	r4, [sp], #4
 877 0028 7047     		bx	lr
 878              	.L196:
 879 002a C0B2     		uxtb	r0, r0
 880 002c 0228     		cmp	r0, #2
ARM GAS  C:\Users\Jay\AppData\Local\Temp\ccjVRGue.s 			page 16


 881 002e F0D8     		bhi	.L201
 882 0030 044B     		ldr	r3, .L205+4
 883 0032 53F82030 		ldr	r3, [r3, r0, lsl #2]
 884 0036 1C78     		ldrb	r4, [r3]	@ zero_extendqisi2
 885 0038 F1E7     		b	.L195
 886              	.L200:
 887 003a 034B     		ldr	r3, .L205+8
 888 003c 4B24     		movs	r4, #75
 889 003e EEE7     		b	.L195
 890              	.L206:
 891              		.align	2
 892              	.L205:
 893 0040 00000000 		.word	.LANCHOR1
 894 0044 00000000 		.word	.LANCHOR3
 895 0048 00000000 		.word	.LANCHOR2
 897              		.section	.text.flash_sector_program,"ax",%progbits
 898              		.align	1
 899              		.p2align 2,,3
 900              		.syntax unified
 901              		.thumb
 902              		.thumb_func
 903              		.fpu fpv5-sp-d16
 905              	flash_sector_program:
 906              		@ args = 0, pretend = 0, frame = 0
 907              		@ frame_needed = 0, uses_anonymous_args = 0
 908              		@ link register save eliminated.
 909 0000 F0B4     		push	{r4, r5, r6, r7}
 910              		.syntax unified
 911              	@ 141 "stm32h7xx/cmsis/cmsis_gcc.h" 1
 912 0002 72B6     		cpsid i
 913              	@ 0 "" 2
 914              		.thumb
 915              		.syntax unified
 916 0004 C0B2     		uxtb	r0, r0
 917 0006 204C     		ldr	r4, .L224
 918 0008 204E     		ldr	r6, .L224+4
 919 000a 214D     		ldr	r5, .L224+8
 920 000c 0B28     		cmp	r0, #11
 921 000e 6660     		str	r6, [r4, #4]
 922 0010 6560     		str	r5, [r4, #4]
 923 0012 23D9     		bls	.L209
 924              	.L208:
 925 0014 1C4C     		ldr	r4, .L224
 926              	.L211:
 927 0016 2069     		ldr	r0, [r4, #16]
 928 0018 C007     		lsls	r0, r0, #31
 929 001a FCD4     		bmi	.L211
 930 001c E068     		ldr	r0, [r4, #12]
 931 001e 20F00600 		bic	r0, r0, #6
 932 0022 40F00200 		orr	r0, r0, #2
 933 0026 E060     		str	r0, [r4, #12]
 934 0028 63B1     		cbz	r3, .L212
 935 002a 1546     		mov	r5, r2
 936 002c 1648     		ldr	r0, .L224
 937              	.L214:
 938 002e 55F8044B 		ldr	r4, [r5], #4
 939 0032 0E1D     		adds	r6, r1, #4
ARM GAS  C:\Users\Jay\AppData\Local\Temp\ccjVRGue.s 			page 17


 940 0034 0C60     		str	r4, [r1]
 941              	.L213:
 942 0036 0169     		ldr	r1, [r0, #16]
 943 0038 C907     		lsls	r1, r1, #31
 944 003a FCD4     		bmi	.L213
 945 003c AC1A     		subs	r4, r5, r2
 946 003e 3146     		mov	r1, r6
 947 0040 A342     		cmp	r3, r4
 948 0042 F4D8     		bhi	.L214
 949              	.L212:
 950 0044 104B     		ldr	r3, .L224
 951 0046 DA68     		ldr	r2, [r3, #12]
 952 0048 22F00202 		bic	r2, r2, #2
 953 004c DA60     		str	r2, [r3, #12]
 954 004e DA68     		ldr	r2, [r3, #12]
 955 0050 42F00102 		orr	r2, r2, #1
 956 0054 DA60     		str	r2, [r3, #12]
 957              		.syntax unified
 958              	@ 131 "stm32h7xx/cmsis/cmsis_gcc.h" 1
 959 0056 62B6     		cpsie i
 960              	@ 0 "" 2
 961              		.thumb
 962              		.syntax unified
 963 0058 F0BC     		pop	{r4, r5, r6, r7}
 964 005a 7047     		bx	lr
 965              	.L209:
 966 005c 2569     		ldr	r5, [r4, #16]
 967 005e ED07     		lsls	r5, r5, #31
 968 0060 FCD4     		bmi	.L209
 969 0062 E768     		ldr	r7, [r4, #12]
 970 0064 0002     		lsls	r0, r0, #8
 971 0066 0B4E     		ldr	r6, .L224+12
 972 0068 00F4E060 		and	r0, r0, #1792
 973 006c 064D     		ldr	r5, .L224
 974 006e 3E40     		ands	r6, r6, r7
 975 0070 46F02406 		orr	r6, r6, #36
 976 0074 3043     		orrs	r0, r0, r6
 977 0076 E060     		str	r0, [r4, #12]
 978 0078 E068     		ldr	r0, [r4, #12]
 979 007a 40F08000 		orr	r0, r0, #128
 980 007e E060     		str	r0, [r4, #12]
 981              	.L210:
 982 0080 2869     		ldr	r0, [r5, #16]
 983 0082 C407     		lsls	r4, r0, #31
 984 0084 FCD4     		bmi	.L210
 985 0086 C5E7     		b	.L208
 986              	.L225:
 987              		.align	2
 988              	.L224:
 989 0088 00200052 		.word	1375739904
 990 008c 23016745 		.word	1164378403
 991 0090 AB89EFCD 		.word	-839939669
 992 0094 C5F8FFFF 		.word	-1851
 994              		.section	.text.buf_putchar,"ax",%progbits
 995              		.align	1
 996              		.p2align 2,,3
 997              		.syntax unified
ARM GAS  C:\Users\Jay\AppData\Local\Temp\ccjVRGue.s 			page 18


 998              		.thumb
 999              		.thumb_func
 1000              		.fpu fpv5-sp-d16
 1002              	buf_putchar:
 1003              		@ args = 0, pretend = 0, frame = 0
 1004              		@ frame_needed = 0, uses_anonymous_args = 0
 1005              		@ link register save eliminated.
 1006 0000 054B     		ldr	r3, .L228
 1007 0002 0649     		ldr	r1, .L228+4
 1008 0004 1A68     		ldr	r2, [r3]
 1009 0006 10B4     		push	{r4}
 1010 0008 0C68     		ldr	r4, [r1]
 1011 000a 511C     		adds	r1, r2, #1
 1012 000c A054     		strb	r0, [r4, r2]
 1013 000e 1960     		str	r1, [r3]
 1014 0010 5DF8044B 		ldr	r4, [sp], #4
 1015 0014 7047     		bx	lr
 1016              	.L229:
 1017 0016 00BF     		.align	2
 1018              	.L228:
 1019 0018 00000000 		.word	.LANCHOR5
 1020 001c 00000000 		.word	.LANCHOR4
 1022              		.section	.text.d64_image_type,"ax",%progbits
 1023              		.align	1
 1024              		.p2align 2,,3
 1025              		.syntax unified
 1026              		.thumb
 1027              		.thumb_func
 1028              		.fpu fpv5-sp-d16
 1030              	d64_image_type:
 1031              		@ args = 0, pretend = 0, frame = 0
 1032              		@ frame_needed = 0, uses_anonymous_args = 0
 1033              		@ link register save eliminated.
 1034 0000 154B     		ldr	r3, .L248
 1035 0002 9842     		cmp	r0, r3
 1036 0004 1ED0     		beq	.L238
 1037 0006 13D9     		bls	.L245
 1038 0008 144B     		ldr	r3, .L248+4
 1039 000a 9842     		cmp	r0, r3
 1040 000c 1CD0     		beq	.L235
 1041 000e 07D9     		bls	.L246
 1042 0010 B0F5482F 		cmp	r0, #819200
 1043 0014 02D0     		beq	.L237
 1044 0016 124B     		ldr	r3, .L248+8
 1045 0018 9842     		cmp	r0, r3
 1046 001a 07D1     		bne	.L231
 1047              	.L237:
 1048 001c 0320     		movs	r0, #3
 1049 001e 7047     		bx	lr
 1050              	.L246:
 1051 0020 104B     		ldr	r3, .L248+12
 1052 0022 9842     		cmp	r0, r3
 1053 0024 0ED0     		beq	.L238
 1054 0026 104B     		ldr	r3, .L248+16
 1055 0028 9842     		cmp	r0, r3
 1056 002a 0DD0     		beq	.L235
 1057              	.L231:
ARM GAS  C:\Users\Jay\AppData\Local\Temp\ccjVRGue.s 			page 19


 1058 002c 0020     		movs	r0, #0
 1059 002e 7047     		bx	lr
 1060              	.L245:
 1061 0030 0E4B     		ldr	r3, .L248+20
 1062 0032 9842     		cmp	r0, r3
 1063 0034 06D0     		beq	.L238
 1064 0036 09D9     		bls	.L247
 1065 0038 B0F5403F 		cmp	r0, #196608
 1066 003c 02D0     		beq	.L238
 1067 003e 0C4B     		ldr	r3, .L248+24
 1068 0040 9842     		cmp	r0, r3
 1069 0042 F3D1     		bne	.L231
 1070              	.L238:
 1071 0044 0120     		movs	r0, #1
 1072 0046 7047     		bx	lr
 1073              	.L235:
 1074 0048 0220     		movs	r0, #2
 1075 004a 7047     		bx	lr
 1076              	.L247:
 1077 004c A3F2AB23 		subw	r3, r3, #683
 1078 0050 9842     		cmp	r0, r3
 1079 0052 EBD1     		bne	.L231
 1080 0054 F6E7     		b	.L238
 1081              	.L249:
 1082 0056 00BF     		.align	2
 1083              	.L248:
 1084 0058 00220300 		.word	205312
 1085 005c 565B0500 		.word	351062
 1086 0060 808C0C00 		.word	822400
 1087 0064 22250300 		.word	206114
 1088 0068 00560500 		.word	349696
 1089 006c ABAD0200 		.word	175531
 1090 0070 00030300 		.word	197376
 1092              		.section	.text.get_file_type,"ax",%progbits
 1093              		.align	1
 1094              		.p2align 2,,3
 1095              		.syntax unified
 1096              		.thumb
 1097              		.thumb_func
 1098              		.fpu fpv5-sp-d16
 1100              	get_file_type:
 1101              		@ args = 0, pretend = 0, frame = 0
 1102              		@ frame_needed = 0, uses_anonymous_args = 0
 1103 0000 F8B5     		push	{r3, r4, r5, r6, r7, lr}
 1104 0002 037A     		ldrb	r3, [r0, #8]	@ zero_extendqisi2
 1105 0004 DB06     		lsls	r3, r3, #27
 1106 0006 00F1E580 		bmi	.L302
 1107 000a 00F11605 		add	r5, r0, #22
 1108 000e 00F21516 		addw	r6, r0, #277
 1109 0012 FE24     		movs	r4, #254
 1110 0014 2A46     		mov	r2, r5
 1111 0016 05E0     		b	.L254
 1112              	.L333:
 1113 0018 2E29     		cmp	r1, #46
 1114 001a 08BF     		it	eq
 1115 001c 1C46     		moveq	r4, r3
 1116 001e B242     		cmp	r2, r6
ARM GAS  C:\Users\Jay\AppData\Local\Temp\ccjVRGue.s 			page 20


 1117 0020 00F0DA80 		beq	.L332
 1118              	.L254:
 1119 0024 531B     		subs	r3, r2, r5
 1120 0026 12F8011B 		ldrb	r1, [r2], #1	@ zero_extendqisi2
 1121 002a DBB2     		uxtb	r3, r3
 1122 002c 0029     		cmp	r1, #0
 1123 002e F3D1     		bne	.L333
 1124              	.L255:
 1125 0030 1B1B     		subs	r3, r3, r4
 1126 0032 032B     		cmp	r3, #3
 1127 0034 40F3CC80 		ble	.L308
 1128 0038 05EB040C 		add	ip, r5, r4
 1129 003c 7C49     		ldr	r1, .L347
 1130 003e 6446     		mov	r4, ip
 1131 0040 6246     		mov	r2, ip
 1132 0042 0334     		adds	r4, r4, #3
 1133              	.L259:
 1134 0044 12F8013F 		ldrb	r3, [r2, #1]!	@ zero_extendqisi2
 1135 0048 11F8016B 		ldrb	r6, [r1], #1	@ zero_extendqisi2
 1136 004c A3F16105 		sub	r5, r3, #97
 1137 0050 A3F12007 		sub	r7, r3, #32
 1138 0054 192D     		cmp	r5, #25
 1139 0056 0CD8     		bhi	.L256
 1140 0058 BE42     		cmp	r6, r7
 1141 005a 0CD1     		bne	.L257
 1142              	.L258:
 1143 005c A242     		cmp	r2, r4
 1144 005e F1D1     		bne	.L259
 1145 0060 0068     		ldr	r0, [r0]
 1146 0062 4FF6FC73 		movw	r3, #65532
 1147 0066 0338     		subs	r0, r0, #3
 1148 0068 9842     		cmp	r0, r3
 1149 006a 8CBF     		ite	hi
 1150 006c FF20     		movhi	r0, #255
 1151 006e 0220     		movls	r0, #2
 1152 0070 F8BD     		pop	{r3, r4, r5, r6, r7, pc}
 1153              	.L256:
 1154 0072 B342     		cmp	r3, r6
 1155 0074 F2D0     		beq	.L258
 1156              	.L257:
 1157 0076 6F49     		ldr	r1, .L347+4
 1158 0078 6246     		mov	r2, ip
 1159 007a 04E0     		b	.L264
 1160              	.L335:
 1161 007c B742     		cmp	r7, r6
 1162 007e 0ED1     		bne	.L262
 1163              	.L263:
 1164 0080 A242     		cmp	r2, r4
 1165 0082 00F0AB80 		beq	.L334
 1166              	.L264:
 1167 0086 12F8013F 		ldrb	r3, [r2, #1]!	@ zero_extendqisi2
 1168 008a 11F8016B 		ldrb	r6, [r1], #1	@ zero_extendqisi2
 1169 008e A3F16105 		sub	r5, r3, #97
 1170 0092 A3F12007 		sub	r7, r3, #32
 1171 0096 192D     		cmp	r5, #25
 1172 0098 F0D9     		bls	.L335
 1173 009a B342     		cmp	r3, r6
ARM GAS  C:\Users\Jay\AppData\Local\Temp\ccjVRGue.s 			page 21


 1174 009c F0D0     		beq	.L263
 1175              	.L262:
 1176 009e 6649     		ldr	r1, .L347+8
 1177 00a0 6246     		mov	r2, ip
 1178 00a2 04E0     		b	.L269
 1179              	.L337:
 1180 00a4 AF42     		cmp	r7, r5
 1181 00a6 0ED1     		bne	.L267
 1182              	.L268:
 1183 00a8 A242     		cmp	r2, r4
 1184 00aa 00F09D80 		beq	.L336
 1185              	.L269:
 1186 00ae 12F8013F 		ldrb	r3, [r2, #1]!	@ zero_extendqisi2
 1187 00b2 11F8015B 		ldrb	r5, [r1], #1	@ zero_extendqisi2
 1188 00b6 A3F16106 		sub	r6, r3, #97
 1189 00ba A3F12007 		sub	r7, r3, #32
 1190 00be 192E     		cmp	r6, #25
 1191 00c0 F0D9     		bls	.L337
 1192 00c2 AB42     		cmp	r3, r5
 1193 00c4 F0D0     		beq	.L268
 1194              	.L267:
 1195 00c6 5D49     		ldr	r1, .L347+12
 1196 00c8 6246     		mov	r2, ip
 1197 00ca 04E0     		b	.L274
 1198              	.L338:
 1199 00cc B742     		cmp	r7, r6
 1200 00ce 0ED1     		bne	.L272
 1201              	.L273:
 1202 00d0 A242     		cmp	r2, r4
 1203 00d2 00F08F80 		beq	.L275
 1204              	.L274:
 1205 00d6 12F8013F 		ldrb	r3, [r2, #1]!	@ zero_extendqisi2
 1206 00da 11F8016B 		ldrb	r6, [r1], #1	@ zero_extendqisi2
 1207 00de A3F16105 		sub	r5, r3, #97
 1208 00e2 A3F12007 		sub	r7, r3, #32
 1209 00e6 192D     		cmp	r5, #25
 1210 00e8 F0D9     		bls	.L338
 1211 00ea B342     		cmp	r3, r6
 1212 00ec F0D0     		beq	.L273
 1213              	.L272:
 1214 00ee 5449     		ldr	r1, .L347+16
 1215 00f0 6246     		mov	r2, ip
 1216 00f2 03E0     		b	.L279
 1217              	.L339:
 1218 00f4 B742     		cmp	r7, r6
 1219 00f6 0DD1     		bne	.L277
 1220              	.L278:
 1221 00f8 A242     		cmp	r2, r4
 1222 00fa 7BD0     		beq	.L275
 1223              	.L279:
 1224 00fc 12F8013F 		ldrb	r3, [r2, #1]!	@ zero_extendqisi2
 1225 0100 11F8016B 		ldrb	r6, [r1], #1	@ zero_extendqisi2
 1226 0104 A3F16105 		sub	r5, r3, #97
 1227 0108 A3F12007 		sub	r7, r3, #32
 1228 010c 192D     		cmp	r5, #25
 1229 010e F1D9     		bls	.L339
 1230 0110 B342     		cmp	r3, r6
ARM GAS  C:\Users\Jay\AppData\Local\Temp\ccjVRGue.s 			page 22


 1231 0112 F1D0     		beq	.L278
 1232              	.L277:
 1233 0114 4B49     		ldr	r1, .L347+20
 1234 0116 6346     		mov	r3, ip
 1235 0118 03E0     		b	.L283
 1236              	.L340:
 1237 011a AF42     		cmp	r7, r5
 1238 011c 0DD1     		bne	.L281
 1239              	.L282:
 1240 011e A342     		cmp	r3, r4
 1241 0120 68D0     		beq	.L275
 1242              	.L283:
 1243 0122 13F8012F 		ldrb	r2, [r3, #1]!	@ zero_extendqisi2
 1244 0126 11F8015B 		ldrb	r5, [r1], #1	@ zero_extendqisi2
 1245 012a A2F16106 		sub	r6, r2, #97
 1246 012e A2F12007 		sub	r7, r2, #32
 1247 0132 192E     		cmp	r6, #25
 1248 0134 F1D9     		bls	.L340
 1249 0136 AA42     		cmp	r2, r5
 1250 0138 F1D0     		beq	.L282
 1251              	.L281:
 1252 013a 4349     		ldr	r1, .L347+24
 1253 013c 6346     		mov	r3, ip
 1254 013e 03E0     		b	.L287
 1255              	.L341:
 1256 0140 AF42     		cmp	r7, r5
 1257 0142 0DD1     		bne	.L285
 1258              	.L286:
 1259 0144 A342     		cmp	r3, r4
 1260 0146 5DD0     		beq	.L288
 1261              	.L287:
 1262 0148 13F8012F 		ldrb	r2, [r3, #1]!	@ zero_extendqisi2
 1263 014c 11F8015B 		ldrb	r5, [r1], #1	@ zero_extendqisi2
 1264 0150 A2F16106 		sub	r6, r2, #97
 1265 0154 A2F12007 		sub	r7, r2, #32
 1266 0158 192E     		cmp	r6, #25
 1267 015a F1D9     		bls	.L341
 1268 015c AA42     		cmp	r2, r5
 1269 015e F1D0     		beq	.L286
 1270              	.L285:
 1271 0160 3A49     		ldr	r1, .L347+28
 1272 0162 6346     		mov	r3, ip
 1273 0164 03E0     		b	.L292
 1274              	.L342:
 1275 0166 AE42     		cmp	r6, r5
 1276 0168 0DD1     		bne	.L290
 1277              	.L291:
 1278 016a A342     		cmp	r3, r4
 1279 016c 4AD0     		beq	.L288
 1280              	.L292:
 1281 016e 13F8012F 		ldrb	r2, [r3, #1]!	@ zero_extendqisi2
 1282 0172 11F8015B 		ldrb	r5, [r1], #1	@ zero_extendqisi2
 1283 0176 A2F16107 		sub	r7, r2, #97
 1284 017a A2F12006 		sub	r6, r2, #32
 1285 017e 192F     		cmp	r7, #25
 1286 0180 F1D9     		bls	.L342
 1287 0182 AA42     		cmp	r2, r5
ARM GAS  C:\Users\Jay\AppData\Local\Temp\ccjVRGue.s 			page 23


 1288 0184 F1D0     		beq	.L291
 1289              	.L290:
 1290 0186 3249     		ldr	r1, .L347+32
 1291 0188 6346     		mov	r3, ip
 1292 018a 03E0     		b	.L296
 1293              	.L344:
 1294 018c AE42     		cmp	r6, r5
 1295 018e 0DD1     		bne	.L294
 1296              	.L295:
 1297 0190 A342     		cmp	r3, r4
 1298 0192 3ED0     		beq	.L343
 1299              	.L296:
 1300 0194 13F8012F 		ldrb	r2, [r3, #1]!	@ zero_extendqisi2
 1301 0198 11F8015B 		ldrb	r5, [r1], #1	@ zero_extendqisi2
 1302 019c A2F16107 		sub	r7, r2, #97
 1303 01a0 A2F12006 		sub	r6, r2, #32
 1304 01a4 192F     		cmp	r7, #25
 1305 01a6 F1D9     		bls	.L344
 1306 01a8 AA42     		cmp	r2, r5
 1307 01aa F1D0     		beq	.L295
 1308              	.L294:
 1309 01ac 294A     		ldr	r2, .L347+36
 1310 01ae 03E0     		b	.L300
 1311              	.L346:
 1312 01b0 8D42     		cmp	r5, r1
 1313 01b2 0DD1     		bne	.L308
 1314              	.L299:
 1315 01b4 A445     		cmp	ip, r4
 1316 01b6 33D0     		beq	.L345
 1317              	.L300:
 1318 01b8 1CF8013F 		ldrb	r3, [ip, #1]!	@ zero_extendqisi2
 1319 01bc 12F8011B 		ldrb	r1, [r2], #1	@ zero_extendqisi2
 1320 01c0 A3F16106 		sub	r6, r3, #97
 1321 01c4 A3F12005 		sub	r5, r3, #32
 1322 01c8 192E     		cmp	r6, #25
 1323 01ca F1D9     		bls	.L346
 1324 01cc 8B42     		cmp	r3, r1
 1325 01ce F1D0     		beq	.L299
 1326              	.L308:
 1327 01d0 FF20     		movs	r0, #255
 1328 01d2 F8BD     		pop	{r3, r4, r5, r6, r7, pc}
 1329              	.L302:
 1330 01d4 0020     		movs	r0, #0
 1331 01d6 F8BD     		pop	{r3, r4, r5, r6, r7, pc}
 1332              	.L332:
 1333 01d8 FF23     		movs	r3, #255
 1334 01da 29E7     		b	.L255
 1335              	.L334:
 1336 01dc 0368     		ldr	r3, [r0]
 1337 01de 1B2B     		cmp	r3, #27
 1338 01e0 34BF     		ite	cc
 1339 01e2 FF20     		movcc	r0, #255
 1340 01e4 0320     		movcs	r0, #3
 1341 01e6 F8BD     		pop	{r3, r4, r5, r6, r7, pc}
 1342              	.L336:
 1343 01e8 0368     		ldr	r3, [r0]
 1344 01ea 412B     		cmp	r3, #65
ARM GAS  C:\Users\Jay\AppData\Local\Temp\ccjVRGue.s 			page 24


 1345 01ec 34BF     		ite	cc
 1346 01ee FF20     		movcc	r0, #255
 1347 01f0 0120     		movcs	r0, #1
 1348 01f2 F8BD     		pop	{r3, r4, r5, r6, r7, pc}
 1349              	.L275:
 1350 01f4 0068     		ldr	r0, [r0]
 1351 01f6 FFF7FEFF 		bl	d64_image_type
 1352 01fa 0028     		cmp	r0, #0
 1353 01fc 0CBF     		ite	eq
 1354 01fe FF20     		moveq	r0, #255
 1355 0200 0420     		movne	r0, #4
 1356 0202 F8BD     		pop	{r3, r4, r5, r6, r7, pc}
 1357              	.L288:
 1358 0204 0368     		ldr	r3, [r0]
 1359 0206 B3F5005F 		cmp	r3, #8192
 1360 020a 14BF     		ite	ne
 1361 020c FF20     		movne	r0, #255
 1362 020e 0620     		moveq	r0, #6
 1363 0210 F8BD     		pop	{r3, r4, r5, r6, r7, pc}
 1364              	.L343:
 1365 0212 0368     		ldr	r3, [r0]
 1366 0214 B3F5803F 		cmp	r3, #65536
 1367 0218 14BF     		ite	ne
 1368 021a FF20     		movne	r0, #255
 1369 021c FD20     		moveq	r0, #253
 1370 021e F8BD     		pop	{r3, r4, r5, r6, r7, pc}
 1371              	.L345:
 1372 0220 0368     		ldr	r3, [r0]
 1373 0222 B3F5823F 		cmp	r3, #66560
 1374 0226 14BF     		ite	ne
 1375 0228 FF20     		movne	r0, #255
 1376 022a FE20     		moveq	r0, #254
 1377 022c F8BD     		pop	{r3, r4, r5, r6, r7, pc}
 1378              	.L348:
 1379 022e 00BF     		.align	2
 1380              	.L347:
 1381 0230 24000000 		.word	.LC9
 1382 0234 20000000 		.word	.LC8
 1383 0238 1C000000 		.word	.LC7
 1384 023c 18000000 		.word	.LC6
 1385 0240 14000000 		.word	.LC5
 1386 0244 10000000 		.word	.LC4
 1387 0248 0C000000 		.word	.LC3
 1388 024c 08000000 		.word	.LC2
 1389 0250 04000000 		.word	.LC1
 1390 0254 00000000 		.word	.LC0
 1392              		.section	.text.ar4x_init,"ax",%progbits
 1393              		.align	1
 1394              		.p2align 2,,3
 1395              		.syntax unified
 1396              		.thumb
 1397              		.thumb_func
 1398              		.fpu fpv5-sp-d16
 1400              	ar4x_init:
 1401              		@ args = 0, pretend = 0, frame = 0
 1402              		@ frame_needed = 0, uses_anonymous_args = 0
 1403              		@ link register save eliminated.
ARM GAS  C:\Users\Jay\AppData\Local\Temp\ccjVRGue.s 			page 25


 1404 0000 044B     		ldr	r3, .L350
 1405 0002 4022     		movs	r2, #64
 1406 0004 0448     		ldr	r0, .L350+4
 1407 0006 0549     		ldr	r1, .L350+8
 1408 0008 9A61     		str	r2, [r3, #24]
 1409 000a 9861     		str	r0, [r3, #24]
 1410 000c 044A     		ldr	r2, .L350+12
 1411 000e 0B68     		ldr	r3, [r1]
 1412 0010 1360     		str	r3, [r2]
 1413 0012 7047     		bx	lr
 1414              	.L351:
 1415              		.align	2
 1416              	.L350:
 1417 0014 00100258 		.word	1476530176
 1418 0018 80000001 		.word	16777344
 1419 001c 00000000 		.word	.LANCHOR7
 1420 0020 00000000 		.word	.LANCHOR6
 1422              		.section	.text.fc3_init,"ax",%progbits
 1423              		.align	1
 1424              		.p2align 2,,3
 1425              		.syntax unified
 1426              		.thumb
 1427              		.thumb_func
 1428              		.fpu fpv5-sp-d16
 1430              	fc3_init:
 1431              		@ args = 0, pretend = 0, frame = 0
 1432              		@ frame_needed = 0, uses_anonymous_args = 0
 1433              		@ link register save eliminated.
 1434 0000 084B     		ldr	r3, .L354
 1435 0002 4021     		movs	r1, #64
 1436 0004 0848     		ldr	r0, .L354+4
 1437 0006 094A     		ldr	r2, .L354+8
 1438 0008 30B4     		push	{r4, r5}
 1439 000a 9961     		str	r1, [r3, #24]
 1440 000c 4FF0C075 		mov	r5, #25165824
 1441 0010 4FF08044 		mov	r4, #1073741824
 1442 0014 4DF6FF71 		movw	r1, #57343
 1443 0018 9D61     		str	r5, [r3, #24]
 1444 001a 8461     		str	r4, [r0, #24]
 1445 001c 1180     		strh	r1, [r2]	@ movhi
 1446 001e 30BC     		pop	{r4, r5}
 1447 0020 7047     		bx	lr
 1448              	.L355:
 1449 0022 00BF     		.align	2
 1450              	.L354:
 1451 0024 00100258 		.word	1476530176
 1452 0028 000C0258 		.word	1476529152
 1453 002c 00000000 		.word	.LANCHOR8
 1455              		.section	.text.epyx_init,"ax",%progbits
 1456              		.align	1
 1457              		.p2align 2,,3
 1458              		.syntax unified
 1459              		.thumb
 1460              		.thumb_func
 1461              		.fpu fpv5-sp-d16
 1463              	epyx_init:
 1464              		@ args = 0, pretend = 0, frame = 0
ARM GAS  C:\Users\Jay\AppData\Local\Temp\ccjVRGue.s 			page 26


 1465              		@ frame_needed = 0, uses_anonymous_args = 0
 1466              		@ link register save eliminated.
 1467 0000 024B     		ldr	r3, .L357
 1468 0002 4021     		movs	r1, #64
 1469 0004 024A     		ldr	r2, .L357+4
 1470 0006 9961     		str	r1, [r3, #24]
 1471 0008 9A61     		str	r2, [r3, #24]
 1472 000a 7047     		bx	lr
 1473              	.L358:
 1474              		.align	2
 1475              	.L357:
 1476 000c 00100258 		.word	1476530176
 1477 0010 80000001 		.word	16777344
 1479              		.section	.text.zaxxon_init,"ax",%progbits
 1480              		.align	1
 1481              		.p2align 2,,3
 1482              		.syntax unified
 1483              		.thumb
 1484              		.thumb_func
 1485              		.fpu fpv5-sp-d16
 1487              	zaxxon_init:
 1488              		@ args = 0, pretend = 0, frame = 0
 1489              		@ frame_needed = 0, uses_anonymous_args = 0
 1490              		@ link register save eliminated.
 1491 0000 10B4     		push	{r4}
 1492 0002 064B     		ldr	r3, .L361
 1493 0004 4024     		movs	r4, #64
 1494 0006 4FF0C070 		mov	r0, #25165824
 1495 000a 054A     		ldr	r2, .L361+4
 1496 000c 0549     		ldr	r1, .L361+8
 1497 000e 9C61     		str	r4, [r3, #24]
 1498 0010 9861     		str	r0, [r3, #24]
 1499 0012 5DF8044B 		ldr	r4, [sp], #4
 1500 0016 1160     		str	r1, [r2]
 1501 0018 7047     		bx	lr
 1502              	.L362:
 1503 001a 00BF     		.align	2
 1504              	.L361:
 1505 001c 00100258 		.word	1476530176
 1506 0020 00000000 		.word	.LANCHOR6
 1507 0024 00000000 		.word	dat_buffer
 1509              		.section	.text.magic_desk_init,"ax",%progbits
 1510              		.align	1
 1511              		.p2align 2,,3
 1512              		.syntax unified
 1513              		.thumb
 1514              		.thumb_func
 1515              		.fpu fpv5-sp-d16
 1517              	magic_desk_init:
 1518              		@ args = 0, pretend = 0, frame = 0
 1519              		@ frame_needed = 0, uses_anonymous_args = 0
 1520              		@ link register save eliminated.
 1521 0000 FFF7FEBF 		b	epyx_init
 1523              		.section	.text.ss5_init,"ax",%progbits
 1524              		.align	1
 1525              		.p2align 2,,3
 1526              		.syntax unified
ARM GAS  C:\Users\Jay\AppData\Local\Temp\ccjVRGue.s 			page 27


 1527              		.thumb
 1528              		.thumb_func
 1529              		.fpu fpv5-sp-d16
 1531              	ss5_init:
 1532              		@ args = 0, pretend = 0, frame = 0
 1533              		@ frame_needed = 0, uses_anonymous_args = 0
 1534              		@ link register save eliminated.
 1535 0000 064B     		ldr	r3, .L366
 1536 0002 4021     		movs	r1, #64
 1537 0004 0648     		ldr	r0, .L366+4
 1538 0006 074A     		ldr	r2, .L366+8
 1539 0008 30B4     		push	{r4, r5}
 1540 000a 9961     		str	r1, [r3, #24]
 1541 000c 064D     		ldr	r5, .L366+12
 1542 000e 074C     		ldr	r4, .L366+16
 1543 0010 0749     		ldr	r1, .L366+20
 1544 0012 9D61     		str	r5, [r3, #24]
 1545 0014 0460     		str	r4, [r0]
 1546 0016 1160     		str	r1, [r2]
 1547 0018 30BC     		pop	{r4, r5}
 1548 001a 7047     		bx	lr
 1549              	.L367:
 1550              		.align	2
 1551              	.L366:
 1552 001c 00100258 		.word	1476530176
 1553 0020 00000000 		.word	.LANCHOR6
 1554 0024 00000000 		.word	.LANCHOR7
 1555 0028 00018000 		.word	8388864
 1556 002c 00000000 		.word	dat_buffer
 1557 0030 00000000 		.word	crt_ram_buf
 1559              		.section	.text.ef_init,"ax",%progbits
 1560              		.align	1
 1561              		.p2align 2,,3
 1562              		.syntax unified
 1563              		.thumb
 1564              		.thumb_func
 1565              		.fpu fpv5-sp-d16
 1567              	ef_init:
 1568              		@ args = 0, pretend = 0, frame = 0
 1569              		@ frame_needed = 0, uses_anonymous_args = 0
 1570              		@ link register save eliminated.
 1571 0000 024B     		ldr	r3, .L369
 1572 0002 4021     		movs	r1, #64
 1573 0004 024A     		ldr	r2, .L369+4
 1574 0006 9961     		str	r1, [r3, #24]
 1575 0008 9A61     		str	r2, [r3, #24]
 1576 000a 7047     		bx	lr
 1577              	.L370:
 1578              		.align	2
 1579              	.L369:
 1580 000c 00100258 		.word	1476530176
 1581 0010 00018000 		.word	8388864
 1583              		.section	.text.comal80_init,"ax",%progbits
 1584              		.align	1
 1585              		.p2align 2,,3
 1586              		.syntax unified
 1587              		.thumb
ARM GAS  C:\Users\Jay\AppData\Local\Temp\ccjVRGue.s 			page 28


 1588              		.thumb_func
 1589              		.fpu fpv5-sp-d16
 1591              	comal80_init:
 1592              		@ args = 0, pretend = 0, frame = 0
 1593              		@ frame_needed = 0, uses_anonymous_args = 0
 1594              		@ link register save eliminated.
 1595 0000 034B     		ldr	r3, .L372
 1596 0002 4021     		movs	r1, #64
 1597 0004 4FF0C072 		mov	r2, #25165824
 1598 0008 9961     		str	r1, [r3, #24]
 1599 000a 9A61     		str	r2, [r3, #24]
 1600 000c 7047     		bx	lr
 1601              	.L373:
 1602 000e 00BF     		.align	2
 1603              	.L372:
 1604 0010 00100258 		.word	1476530176
 1606              		.section	.text.c64_send_exit_menu,"ax",%progbits
 1607              		.align	1
 1608              		.p2align 2,,3
 1609              		.syntax unified
 1610              		.thumb
 1611              		.thumb_func
 1612              		.fpu fpv5-sp-d16
 1614              	c64_send_exit_menu:
 1615              		@ args = 0, pretend = 0, frame = 0
 1616              		@ frame_needed = 0, uses_anonymous_args = 0
 1617              		@ link register save eliminated.
 1618 0000 0D4A     		ldr	r2, .L382
 1619 0002 10B4     		push	{r4}
 1620              	.L375:
 1621 0004 1378     		ldrb	r3, [r2]	@ zero_extendqisi2
 1622 0006 002B     		cmp	r3, #0
 1623 0008 FCD1     		bne	.L375
 1624 000a 0C48     		ldr	r0, .L382+4
 1625 000c 0324     		movs	r4, #3
 1626 000e 8021     		movs	r1, #128
 1627 0010 0B4B     		ldr	r3, .L382+8
 1628 0012 0470     		strb	r4, [r0]
 1629 0014 1170     		strb	r1, [r2]
 1630              	.L376:
 1631 0016 1A78     		ldrb	r2, [r3]	@ zero_extendqisi2
 1632 0018 002A     		cmp	r2, #0
 1633 001a FCD1     		bne	.L376
 1634 001c 0949     		ldr	r1, .L382+12
 1635 001e 0A78     		ldrb	r2, [r1]	@ zero_extendqisi2
 1636 0020 4022     		movs	r2, #64
 1637 0022 1A70     		strb	r2, [r3]
 1638              	.L377:
 1639 0024 1A78     		ldrb	r2, [r3]	@ zero_extendqisi2
 1640 0026 002A     		cmp	r2, #0
 1641 0028 FCD1     		bne	.L377
 1642 002a 0A78     		ldrb	r2, [r1]	@ zero_extendqisi2
 1643 002c 4022     		movs	r2, #64
 1644 002e 1A70     		strb	r2, [r3]
 1645 0030 5DF8044B 		ldr	r4, [sp], #4
 1646 0034 7047     		bx	lr
 1647              	.L383:
ARM GAS  C:\Users\Jay\AppData\Local\Temp\ccjVRGue.s 			page 29


 1648 0036 00BF     		.align	2
 1649              	.L382:
 1650 0038 00000000 		.word	.LANCHOR9
 1651 003c 00000000 		.word	.LANCHOR10
 1652 0040 00000000 		.word	.LANCHOR11
 1653 0044 00000000 		.word	.LANCHOR12
 1655              		.section	.text.options_dir_up,"ax",%progbits
 1656              		.align	1
 1657              		.p2align 2,,3
 1658              		.syntax unified
 1659              		.thumb
 1660              		.thumb_func
 1661              		.fpu fpv5-sp-d16
 1663              	options_dir_up:
 1664              		@ args = 0, pretend = 0, frame = 0
 1665              		@ frame_needed = 0, uses_anonymous_args = 0
 1666              		@ link register save eliminated.
 1667 0000 4069     		ldr	r0, [r0, #20]
 1668 0002 044B     		ldr	r3, .L387
 1669 0004 1860     		str	r0, [r3]
 1670 0006 09B9     		cbnz	r1, .L386
 1671 0008 0368     		ldr	r3, [r0]
 1672 000a 1847     		bx	r3	@ indirect register sibling call
 1673              	.L386:
 1674 000c 4368     		ldr	r3, [r0, #4]
 1675 000e 0121     		movs	r1, #1
 1676 0010 1847     		bx	r3	@ indirect register sibling call
 1677              	.L388:
 1678 0012 00BF     		.align	2
 1679              	.L387:
 1680 0014 00000000 		.word	.LANCHOR13
 1682              		.section	.text.options_prev_select,"ax",%progbits
 1683              		.align	1
 1684              		.p2align 2,,3
 1685              		.syntax unified
 1686              		.thumb
 1687              		.thumb_func
 1688              		.fpu fpv5-sp-d16
 1690              	options_prev_select:
 1691              		@ args = 0, pretend = 0, frame = 0
 1692              		@ frame_needed = 0, uses_anonymous_args = 0
 1693              		@ link register save eliminated.
 1694 0000 30B4     		push	{r4, r5}
 1695 0002 4469     		ldr	r4, [r0, #20]
 1696 0004 064D     		ldr	r5, .L391
 1697 0006 91F82C30 		ldrb	r3, [r1, #44]	@ zero_extendqisi2
 1698 000a 2046     		mov	r0, r4
 1699 000c 2C60     		str	r4, [r5]
 1700 000e 1343     		orrs	r3, r3, r2
 1701 0010 2469     		ldr	r4, [r4, #16]
 1702 0012 91F82D20 		ldrb	r2, [r1, #45]	@ zero_extendqisi2
 1703 0016 1946     		mov	r1, r3
 1704 0018 2346     		mov	r3, r4
 1705 001a 30BC     		pop	{r4, r5}
 1706 001c 1847     		bx	r3
 1707              	.L392:
 1708 001e 00BF     		.align	2
ARM GAS  C:\Users\Jay\AppData\Local\Temp\ccjVRGue.s 			page 30


 1709              	.L391:
 1710 0020 00000000 		.word	.LANCHOR13
 1712              		.section	.text.options_prev_dir,"ax",%progbits
 1713              		.align	1
 1714              		.p2align 2,,3
 1715              		.syntax unified
 1716              		.thumb
 1717              		.thumb_func
 1718              		.fpu fpv5-sp-d16
 1720              	options_prev_dir:
 1721              		@ args = 0, pretend = 0, frame = 0
 1722              		@ frame_needed = 0, uses_anonymous_args = 0
 1723 0000 08B5     		push	{r3, lr}
 1724 0002 4369     		ldr	r3, [r0, #20]
 1725 0004 0349     		ldr	r1, .L395
 1726 0006 1846     		mov	r0, r3
 1727 0008 1A68     		ldr	r2, [r3]
 1728 000a 0B60     		str	r3, [r1]
 1729 000c 9047     		blx	r2
 1730 000e 0020     		movs	r0, #0
 1731 0010 08BD     		pop	{r3, pc}
 1732              	.L396:
 1733 0012 00BF     		.align	2
 1734              	.L395:
 1735 0014 00000000 		.word	.LANCHOR13
 1737              		.section	.text.reply_page_end,"ax",%progbits
 1738              		.align	1
 1739              		.p2align 2,,3
 1740              		.syntax unified
 1741              		.thumb
 1742              		.thumb_func
 1743              		.fpu fpv5-sp-d16
 1745              	reply_page_end:
 1746              		@ args = 0, pretend = 0, frame = 0
 1747              		@ frame_needed = 0, uses_anonymous_args = 0
 1748              		@ link register save eliminated.
 1749 0000 0F4A     		ldr	r2, .L405
 1750 0002 F0B4     		push	{r4, r5, r6, r7}
 1751              	.L398:
 1752 0004 1378     		ldrb	r3, [r2]	@ zero_extendqisi2
 1753 0006 03F0FF05 		and	r5, r3, #255
 1754 000a 002B     		cmp	r3, #0
 1755 000c FAD1     		bne	.L398
 1756 000e 0D4E     		ldr	r6, .L405+4
 1757 0010 8023     		movs	r3, #128
 1758 0012 2846     		mov	r0, r5
 1759 0014 0C4C     		ldr	r4, .L405+8
 1760 0016 3146     		mov	r1, r6
 1761 0018 3570     		strb	r5, [r6]
 1762 001a 0227     		movs	r7, #2
 1763 001c 1E46     		mov	r6, r3
 1764 001e 01F12505 		add	r5, r1, #37
 1765 0022 2770     		strb	r7, [r4]
 1766 0024 1370     		strb	r3, [r2]
 1767              	.L399:
 1768 0026 1378     		ldrb	r3, [r2]	@ zero_extendqisi2
 1769 0028 002B     		cmp	r3, #0
ARM GAS  C:\Users\Jay\AppData\Local\Temp\ccjVRGue.s 			page 31


 1770 002a FCD1     		bne	.L399
 1771 002c A942     		cmp	r1, r5
 1772 002e 2070     		strb	r0, [r4]
 1773 0030 1670     		strb	r6, [r2]
 1774 0032 02D0     		beq	.L397
 1775 0034 11F8010F 		ldrb	r0, [r1, #1]!	@ zero_extendqisi2
 1776 0038 F5E7     		b	.L399
 1777              	.L397:
 1778 003a F0BC     		pop	{r4, r5, r6, r7}
 1779 003c 7047     		bx	lr
 1780              	.L406:
 1781 003e 00BF     		.align	2
 1782              	.L405:
 1783 0040 00000000 		.word	.LANCHOR9
 1784 0044 00000100 		.word	scratch_buf
 1785 0048 00000000 		.word	.LANCHOR10
 1787              		.section	.text.options_prev_next_page,"ax",%progbits
 1788              		.align	1
 1789              		.p2align 2,,3
 1790              		.syntax unified
 1791              		.thumb
 1792              		.thumb_func
 1793              		.fpu fpv5-sp-d16
 1795              	options_prev_next_page:
 1796              		@ args = 0, pretend = 0, frame = 0
 1797              		@ frame_needed = 0, uses_anonymous_args = 0
 1798              		@ link register save eliminated.
 1799 0000 FFF7FEBF 		b	reply_page_end
 1801              		.section	.text.disk_filename_match,"ax",%progbits
 1802              		.align	1
 1803              		.p2align 2,,3
 1804              		.syntax unified
 1805              		.thumb
 1806              		.thumb_func
 1807              		.fpu fpv5-sp-d16
 1809              	disk_filename_match:
 1810              		@ args = 0, pretend = 0, frame = 0
 1811              		@ frame_needed = 0, uses_anonymous_args = 0
 1812              		@ link register save eliminated.
 1813 0000 30B4     		push	{r4, r5}
 1814 0002 4A1E     		subs	r2, r1, #1
 1815 0004 051D     		adds	r5, r0, #4
 1816 0006 0F31     		adds	r1, r1, #15
 1817              	.L412:
 1818 0008 12F8013F 		ldrb	r3, [r2, #1]!	@ zero_extendqisi2
 1819 000c 15F8014F 		ldrb	r4, [r5, #1]!	@ zero_extendqisi2
 1820 0010 2A2B     		cmp	r3, #42
 1821 0012 10D0     		beq	.L414
 1822 0014 3F2B     		cmp	r3, #63
 1823 0016 00D1     		bne	.L415
 1824 0018 5CB9     		cbnz	r4, .L410
 1825              	.L415:
 1826 001a A4F1A000 		sub	r0, r4, #160
 1827 001e B0FA80F0 		clz	r0, r0
 1828 0022 4009     		lsrs	r0, r0, #5
 1829 0024 002B     		cmp	r3, #0
 1830 0026 18BF     		it	ne
ARM GAS  C:\Users\Jay\AppData\Local\Temp\ccjVRGue.s 			page 32


 1831 0028 0020     		movne	r0, #0
 1832 002a 28B9     		cbnz	r0, .L409
 1833 002c A342     		cmp	r3, r4
 1834 002e 03D1     		bne	.L409
 1835 0030 0BB1     		cbz	r3, .L414
 1836              	.L410:
 1837 0032 8A42     		cmp	r2, r1
 1838 0034 E8D1     		bne	.L412
 1839              	.L414:
 1840 0036 0120     		movs	r0, #1
 1841              	.L409:
 1842 0038 30BC     		pop	{r4, r5}
 1843 003a 7047     		bx	lr
 1845              		.section	.text.disk_parse_filename,"ax",%progbits
 1846              		.align	1
 1847              		.p2align 2,,3
 1848              		.syntax unified
 1849              		.thumb
 1850              		.thumb_func
 1851              		.fpu fpv5-sp-d16
 1853              	disk_parse_filename:
 1854              		@ args = 0, pretend = 0, frame = 0
 1855              		@ frame_needed = 0, uses_anonymous_args = 0
 1856              		@ link register save eliminated.
 1857 0000 F0B4     		push	{r4, r5, r6, r7}
 1858 0002 0024     		movs	r4, #0
 1859 0004 0246     		mov	r2, r0
 1860 0006 0C71     		strb	r4, [r1, #4]
 1861 0008 02E0     		b	.L422
 1862              	.L424:
 1863 000a 3A2B     		cmp	r3, #58
 1864 000c 31D0     		beq	.L438
 1865 000e 1C46     		mov	r4, r3
 1866              	.L422:
 1867 0010 12F8013B 		ldrb	r3, [r2], #1	@ zero_extendqisi2
 1868 0014 002B     		cmp	r3, #0
 1869 0016 F8D1     		bne	.L424
 1870              	.L423:
 1871 0018 0023     		movs	r3, #0
 1872 001a 0860     		str	r0, [r1]
 1873 001c 0127     		movs	r7, #1
 1874 001e 0326     		movs	r6, #3
 1875 0020 4B71     		strb	r3, [r1, #5]
 1876 0022 1C46     		mov	r4, r3
 1877 0024 8B71     		strb	r3, [r1, #6]
 1878 0026 4FF0020C 		mov	ip, #2
 1879 002a 0378     		ldrb	r3, [r0]	@ zero_extendqisi2
 1880 002c 0425     		movs	r5, #4
 1881 002e 421C     		adds	r2, r0, #1
 1882 0030 33B1     		cbz	r3, .L421
 1883              	.L434:
 1884 0032 2C2B     		cmp	r3, #44
 1885 0034 06D0     		beq	.L439
 1886              	.L432:
 1887 0036 1046     		mov	r0, r2
 1888              	.L440:
 1889 0038 0378     		ldrb	r3, [r0]	@ zero_extendqisi2
ARM GAS  C:\Users\Jay\AppData\Local\Temp\ccjVRGue.s 			page 33


 1890 003a 421C     		adds	r2, r0, #1
 1891 003c 002B     		cmp	r3, #0
 1892 003e F8D1     		bne	.L434
 1893              	.L421:
 1894 0040 F0BC     		pop	{r4, r5, r6, r7}
 1895 0042 7047     		bx	lr
 1896              	.L439:
 1897 0044 02F8014C 		strb	r4, [r2, #-1]
 1898 0048 4B79     		ldrb	r3, [r1, #5]	@ zero_extendqisi2
 1899 004a 5BB9     		cbnz	r3, .L427
 1900 004c 1378     		ldrb	r3, [r2]	@ zero_extendqisi2
 1901 004e 532B     		cmp	r3, #83
 1902 0050 19D0     		beq	.L429
 1903 0052 552B     		cmp	r3, #85
 1904 0054 14D0     		beq	.L430
 1905 0056 4C2B     		cmp	r3, #76
 1906 0058 1046     		mov	r0, r2
 1907 005a 0CBF     		ite	eq
 1908 005c 2B46     		moveq	r3, r5
 1909 005e 6346     		movne	r3, ip
 1910 0060 4B71     		strb	r3, [r1, #5]
 1911 0062 E9E7     		b	.L440
 1912              	.L427:
 1913 0064 8B79     		ldrb	r3, [r1, #6]	@ zero_extendqisi2
 1914 0066 002B     		cmp	r3, #0
 1915 0068 E5D1     		bne	.L432
 1916 006a 4378     		ldrb	r3, [r0, #1]	@ zero_extendqisi2
 1917 006c F0BC     		pop	{r4, r5, r6, r7}
 1918 006e 8B71     		strb	r3, [r1, #6]
 1919 0070 7047     		bx	lr
 1920              	.L438:
 1921 0072 303C     		subs	r4, r4, #48
 1922 0074 E4B2     		uxtb	r4, r4
 1923 0076 092C     		cmp	r4, #9
 1924 0078 08D8     		bhi	.L436
 1925 007a 0C71     		strb	r4, [r1, #4]
 1926 007c 1046     		mov	r0, r2
 1927 007e CBE7     		b	.L423
 1928              	.L430:
 1929 0080 4E71     		strb	r6, [r1, #5]
 1930 0082 1046     		mov	r0, r2
 1931 0084 D8E7     		b	.L440
 1932              	.L429:
 1933 0086 4F71     		strb	r7, [r1, #5]
 1934 0088 1046     		mov	r0, r2
 1935 008a D5E7     		b	.L440
 1936              	.L436:
 1937 008c 1046     		mov	r0, r2
 1938 008e C3E7     		b	.L423
 1940              		.section	.text.disk_send_prg,"ax",%progbits
 1941              		.align	1
 1942              		.p2align 2,,3
 1943              		.syntax unified
 1944              		.thumb
 1945              		.thumb_func
 1946              		.fpu fpv5-sp-d16
 1948              	disk_send_prg:
ARM GAS  C:\Users\Jay\AppData\Local\Temp\ccjVRGue.s 			page 34


 1949              		@ args = 0, pretend = 0, frame = 0
 1950              		@ frame_needed = 0, uses_anonymous_args = 0
 1951              		@ link register save eliminated.
 1952 0000 0D4B     		ldr	r3, .L449
 1953 0002 10B4     		push	{r4}
 1954              	.L442:
 1955 0004 1A78     		ldrb	r2, [r3]	@ zero_extendqisi2
 1956 0006 002A     		cmp	r2, #0
 1957 0008 FCD1     		bne	.L442
 1958 000a 8022     		movs	r2, #128
 1959 000c 0B49     		ldr	r1, .L449+4
 1960 000e C4B2     		uxtb	r4, r0
 1961 0010 0A70     		strb	r2, [r1]
 1962 0012 1A70     		strb	r2, [r3]
 1963              	.L443:
 1964 0014 1A78     		ldrb	r2, [r3]	@ zero_extendqisi2
 1965 0016 002A     		cmp	r2, #0
 1966 0018 FCD1     		bne	.L443
 1967 001a 8022     		movs	r2, #128
 1968 001c C0F30720 		ubfx	r0, r0, #8, #8
 1969 0020 0C70     		strb	r4, [r1]
 1970 0022 1A70     		strb	r2, [r3]
 1971              	.L444:
 1972 0024 1A78     		ldrb	r2, [r3]	@ zero_extendqisi2
 1973 0026 002A     		cmp	r2, #0
 1974 0028 FCD1     		bne	.L444
 1975 002a 8022     		movs	r2, #128
 1976 002c 0870     		strb	r0, [r1]
 1977 002e 1A70     		strb	r2, [r3]
 1978 0030 5DF8044B 		ldr	r4, [sp], #4
 1979 0034 7047     		bx	lr
 1980              	.L450:
 1981 0036 00BF     		.align	2
 1982              	.L449:
 1983 0038 00000000 		.word	.LANCHOR9
 1984 003c 00000000 		.word	.LANCHOR10
 1986              		.section	.text.disk_send_prg_bank,"ax",%progbits
 1987              		.align	1
 1988              		.p2align 2,,3
 1989              		.syntax unified
 1990              		.thumb
 1991              		.thumb_func
 1992              		.fpu fpv5-sp-d16
 1994              	disk_send_prg_bank:
 1995              		@ args = 0, pretend = 0, frame = 0
 1996              		@ frame_needed = 0, uses_anonymous_args = 0
 1997              		@ link register save eliminated.
 1998 0000 0D4B     		ldr	r3, .L459
 1999 0002 30B4     		push	{r4, r5}
 2000              	.L452:
 2001 0004 1A78     		ldrb	r2, [r3]	@ zero_extendqisi2
 2002 0006 002A     		cmp	r2, #0
 2003 0008 FCD1     		bne	.L452
 2004 000a 0C49     		ldr	r1, .L459+4
 2005 000c 8124     		movs	r4, #129
 2006 000e 8022     		movs	r2, #128
 2007 0010 C5B2     		uxtb	r5, r0
ARM GAS  C:\Users\Jay\AppData\Local\Temp\ccjVRGue.s 			page 35


 2008 0012 0C70     		strb	r4, [r1]
 2009 0014 1A70     		strb	r2, [r3]
 2010              	.L453:
 2011 0016 1A78     		ldrb	r2, [r3]	@ zero_extendqisi2
 2012 0018 002A     		cmp	r2, #0
 2013 001a FCD1     		bne	.L453
 2014 001c 8022     		movs	r2, #128
 2015 001e C0F30720 		ubfx	r0, r0, #8, #8
 2016 0022 0D70     		strb	r5, [r1]
 2017 0024 1A70     		strb	r2, [r3]
 2018              	.L454:
 2019 0026 1A78     		ldrb	r2, [r3]	@ zero_extendqisi2
 2020 0028 002A     		cmp	r2, #0
 2021 002a FCD1     		bne	.L454
 2022 002c 8022     		movs	r2, #128
 2023 002e 0870     		strb	r0, [r1]
 2024 0030 1A70     		strb	r2, [r3]
 2025 0032 30BC     		pop	{r4, r5}
 2026 0034 7047     		bx	lr
 2027              	.L460:
 2028 0036 00BF     		.align	2
 2029              	.L459:
 2030 0038 00000000 		.word	.LANCHOR9
 2031 003c 00000000 		.word	.LANCHOR10
 2033              		.section	.text.c64_send_command,"ax",%progbits
 2034              		.align	1
 2035              		.p2align 2,,3
 2036              		.syntax unified
 2037              		.thumb
 2038              		.thumb_func
 2039              		.fpu fpv5-sp-d16
 2041              	c64_send_command:
 2042              		@ args = 0, pretend = 0, frame = 8
 2043              		@ frame_needed = 0, uses_anonymous_args = 0
 2044 0000 F0B5     		push	{r4, r5, r6, r7, lr}
 2045 0002 1B4C     		ldr	r4, .L475
 2046 0004 83B0     		sub	sp, sp, #12
 2047 0006 1B4A     		ldr	r2, .L475+4
 2048 0008 8027     		movs	r7, #128
 2049 000a 04F1080C 		add	ip, r4, #8
 2050 000e 1A4E     		ldr	r6, .L475+8
 2051              	.L463:
 2052 0010 14F8015B 		ldrb	r5, [r4], #1	@ zero_extendqisi2
 2053              	.L462:
 2054 0014 1378     		ldrb	r3, [r2]	@ zero_extendqisi2
 2055 0016 002B     		cmp	r3, #0
 2056 0018 FCD1     		bne	.L462
 2057 001a 6445     		cmp	r4, ip
 2058 001c 3570     		strb	r5, [r6]
 2059 001e 1770     		strb	r7, [r2]
 2060 0020 F6D1     		bne	.L463
 2061 0022 071D     		adds	r7, r0, #4
 2062 0024 8025     		movs	r5, #128
 2063              	.L465:
 2064 0026 10F8014B 		ldrb	r4, [r0], #1	@ zero_extendqisi2
 2065              	.L464:
 2066 002a 1378     		ldrb	r3, [r2]	@ zero_extendqisi2
ARM GAS  C:\Users\Jay\AppData\Local\Temp\ccjVRGue.s 			page 36


 2067 002c 002B     		cmp	r3, #0
 2068 002e FCD1     		bne	.L464
 2069 0030 B842     		cmp	r0, r7
 2070 0032 3470     		strb	r4, [r6]
 2071 0034 1570     		strb	r5, [r2]
 2072 0036 F6D1     		bne	.L465
 2073 0038 104A     		ldr	r2, .L475+12
 2074 003a 0DF10506 		add	r6, sp, #5
 2075 003e 104F     		ldr	r7, .L475+16
 2076 0040 6846     		mov	r0, sp
 2077 0042 4025     		movs	r5, #64
 2078              	.L466:
 2079 0044 1378     		ldrb	r3, [r2]	@ zero_extendqisi2
 2080 0046 03F0FF04 		and	r4, r3, #255
 2081 004a 002B     		cmp	r3, #0
 2082 004c FAD1     		bne	.L466
 2083 004e 3B78     		ldrb	r3, [r7]	@ zero_extendqisi2
 2084 0050 DBB2     		uxtb	r3, r3
 2085 0052 00F8013B 		strb	r3, [r0], #1
 2086 0056 B042     		cmp	r0, r6
 2087 0058 1570     		strb	r5, [r2]
 2088 005a F3D1     		bne	.L466
 2089 005c 6846     		mov	r0, sp
 2090 005e 8DF80540 		strb	r4, [sp, #5]
 2091 0062 FFF7FEFF 		bl	strcmp
 2092 0066 B0FA80F0 		clz	r0, r0
 2093 006a 4009     		lsrs	r0, r0, #5
 2094 006c 03B0     		add	sp, sp, #12
 2095              		@ sp needed
 2096 006e F0BD     		pop	{r4, r5, r6, r7, pc}
 2097              	.L476:
 2098              		.align	2
 2099              	.L475:
 2100 0070 00000000 		.word	.LC10
 2101 0074 00000000 		.word	.LANCHOR9
 2102 0078 00000000 		.word	.LANCHOR10
 2103 007c 00000000 		.word	.LANCHOR11
 2104 0080 00000000 		.word	.LANCHOR12
 2106              		.section	.text.c64_receive_command,"ax",%progbits
 2107              		.align	1
 2108              		.p2align 2,,3
 2109              		.syntax unified
 2110              		.thumb
 2111              		.thumb_func
 2112              		.fpu fpv5-sp-d16
 2114              	c64_receive_command:
 2115              		@ args = 0, pretend = 0, frame = 8
 2116              		@ frame_needed = 0, uses_anonymous_args = 0
 2117              		@ link register save eliminated.
 2118 0000 70B4     		push	{r4, r5, r6}
 2119 0002 83B0     		sub	sp, sp, #12
 2120 0004 0D4A     		ldr	r2, .L485
 2121 0006 0E4E     		ldr	r6, .L485+4
 2122 0008 4024     		movs	r4, #64
 2123 000a 6946     		mov	r1, sp
 2124 000c 0DF10505 		add	r5, sp, #5
 2125              	.L478:
ARM GAS  C:\Users\Jay\AppData\Local\Temp\ccjVRGue.s 			page 37


 2126 0010 1378     		ldrb	r3, [r2]	@ zero_extendqisi2
 2127 0012 03F0FF00 		and	r0, r3, #255
 2128 0016 002B     		cmp	r3, #0
 2129 0018 FAD1     		bne	.L478
 2130 001a 3378     		ldrb	r3, [r6]	@ zero_extendqisi2
 2131 001c DBB2     		uxtb	r3, r3
 2132 001e 01F8013B 		strb	r3, [r1], #1
 2133 0022 A942     		cmp	r1, r5
 2134 0024 1470     		strb	r4, [r2]
 2135 0026 F3D1     		bne	.L478
 2136 0028 064B     		ldr	r3, .L485+8
 2137 002a 009A     		ldr	r2, [sp]
 2138 002c 9A42     		cmp	r2, r3
 2139 002e 08BF     		it	eq
 2140 0030 9DF80400 		ldrbeq	r0, [sp, #4]	@ zero_extendqisi2
 2141 0034 03B0     		add	sp, sp, #12
 2142              		@ sp needed
 2143 0036 70BC     		pop	{r4, r5, r6}
 2144 0038 7047     		bx	lr
 2145              	.L486:
 2146 003a 00BF     		.align	2
 2147              	.L485:
 2148 003c 00000000 		.word	.LANCHOR11
 2149 0040 00000000 		.word	.LANCHOR12
 2150 0044 4B46463A 		.word	977684043
 2152              		.section	.text.prg_load_file,"ax",%progbits
 2153              		.align	1
 2154              		.p2align 2,,3
 2155              		.syntax unified
 2156              		.thumb
 2157              		.thumb_func
 2158              		.fpu fpv5-sp-d16
 2160              	prg_load_file:
 2161              		@ args = 0, pretend = 0, frame = 8
 2162              		@ frame_needed = 0, uses_anonymous_args = 0
 2163 0000 00B5     		push	{lr}
 2164 0002 83B0     		sub	sp, sp, #12
 2165 0004 4FF48032 		mov	r2, #65536
 2166 0008 0F49     		ldr	r1, .L492
 2167 000a 01AB     		add	r3, sp, #4
 2168 000c FFF7FEFF 		bl	f_read
 2169 0010 58B1     		cbz	r0, .L488
 2170 0012 0E4B     		ldr	r3, .L492+4
 2171 0014 4FF48002 		mov	r2, #4194304
 2172 0018 9A61     		str	r2, [r3, #24]
 2173              	.L489:
 2174 001a 0023     		movs	r3, #0
 2175 001c 0C4A     		ldr	r2, .L492+8
 2176 001e 1846     		mov	r0, r3
 2177 0020 D372     		strb	r3, [r2, #11]
 2178 0022 1373     		strb	r3, [r2, #12]
 2179 0024 03B0     		add	sp, sp, #12
 2180              		@ sp needed
 2181 0026 5DF804FB 		ldr	pc, [sp], #4
 2182              	.L488:
 2183 002a BDF80430 		ldrh	r3, [sp, #4]
 2184 002e 4FF48001 		mov	r1, #4194304
ARM GAS  C:\Users\Jay\AppData\Local\Temp\ccjVRGue.s 			page 38


 2185 0032 064A     		ldr	r2, .L492+4
 2186 0034 022B     		cmp	r3, #2
 2187 0036 9161     		str	r1, [r2, #24]
 2188 0038 EFD9     		bls	.L489
 2189 003a 054A     		ldr	r2, .L492+8
 2190 003c 0120     		movs	r0, #1
 2191 003e A2F80B30 		strh	r3, [r2, #11]	@ unaligned
 2192 0042 03B0     		add	sp, sp, #12
 2193              		@ sp needed
 2194 0044 5DF804FB 		ldr	pc, [sp], #4
 2195              	.L493:
 2196              		.align	2
 2197              	.L492:
 2198 0048 00000000 		.word	dat_buffer
 2199 004c 00100258 		.word	1476530176
 2200 0050 00000000 		.word	dat_file
 2202              		.section	.text.auto_boot,"ax",%progbits
 2203              		.align	1
 2204              		.p2align 2,,3
 2205              		.syntax unified
 2206              		.thumb
 2207              		.thumb_func
 2208              		.fpu fpv5-sp-d16
 2210              	auto_boot:
 2211              		@ args = 0, pretend = 0, frame = 560
 2212              		@ frame_needed = 0, uses_anonymous_args = 0
 2213 0000 10B5     		push	{r4, lr}
 2214 0002 ADF50C7D 		sub	sp, sp, #560
 2215 0006 0122     		movs	r2, #1
 2216 0008 3349     		ldr	r1, .L517
 2217 000a 02A8     		add	r0, sp, #8
 2218 000c FFF7FEFF 		bl	f_open
 2219 0010 38B3     		cbz	r0, .L495
 2220 0012 324B     		ldr	r3, .L517+4
 2221 0014 4FF48002 		mov	r2, #4194304
 2222 0018 9A61     		str	r2, [r3, #24]
 2223              	.L496:
 2224 001a 314C     		ldr	r4, .L517+8
 2225 001c 0021     		movs	r1, #0
 2226 001e 4FF48062 		mov	r2, #1024
 2227 0022 2046     		mov	r0, r4
 2228 0024 FFF7FEFF 		bl	memset
 2229 0028 2E4B     		ldr	r3, .L517+12
 2230 002a 03CB     		ldmia	r3!, {r0, r1}
 2231 002c 2060     		str	r0, [r4]	@ unaligned
 2232 002e 6160     		str	r1, [r4, #4]	@ unaligned
 2233              	.L500:
 2234 0030 02A8     		add	r0, sp, #8
 2235 0032 FFF7FEFF 		bl	f_close
 2236 0036 2949     		ldr	r1, .L517+4
 2237 0038 4FF48000 		mov	r0, #4194304
 2238 003c 2A4A     		ldr	r2, .L517+16
 2239 003e 2B4B     		ldr	r3, .L517+20
 2240 0040 8861     		str	r0, [r1, #24]
 2241 0042 1168     		ldr	r1, [r2]
 2242 0044 9942     		cmp	r1, r3
 2243 0046 38D0     		beq	.L516
ARM GAS  C:\Users\Jay\AppData\Local\Temp\ccjVRGue.s 			page 39


 2244              	.L501:
 2245 0048 294B     		ldr	r3, .L517+24
 2246 004a 1B69     		ldr	r3, [r3, #16]
 2247 004c DB06     		lsls	r3, r3, #27
 2248 004e 41D5     		bpl	.L507
 2249              	.L503:
 2250 0050 274B     		ldr	r3, .L517+24
 2251              	.L511:
 2252 0052 1869     		ldr	r0, [r3, #16]
 2253 0054 10F01000 		ands	r0, r0, #16
 2254 0058 FBD1     		bne	.L511
 2255 005a 1070     		strb	r0, [r2]
 2256              	.L514:
 2257 005c 0DF50C7D 		add	sp, sp, #560
 2258              		@ sp needed
 2259 0060 10BD     		pop	{r4, pc}
 2260              	.L495:
 2261 0062 0446     		mov	r4, r0
 2262 0064 4FF48062 		mov	r2, #1024
 2263 0068 1D49     		ldr	r1, .L517+8
 2264 006a 02A8     		add	r0, sp, #8
 2265 006c 01AB     		add	r3, sp, #4
 2266 006e FFF7FEFF 		bl	f_read
 2267 0072 00B1     		cbz	r0, .L506
 2268 0074 0194     		str	r4, [sp, #4]
 2269              	.L506:
 2270 0076 019B     		ldr	r3, [sp, #4]
 2271 0078 4FF48001 		mov	r1, #4194304
 2272 007c 174A     		ldr	r2, .L517+4
 2273 007e B3F5806F 		cmp	r3, #1024
 2274 0082 9161     		str	r1, [r2, #24]
 2275 0084 C9D1     		bne	.L496
 2276 0086 01AB     		add	r3, sp, #4
 2277 0088 4FF48032 		mov	r2, #65536
 2278 008c 1949     		ldr	r1, .L517+28
 2279 008e 02A8     		add	r0, sp, #8
 2280 0090 FFF7FEFF 		bl	f_read
 2281 0094 08B1     		cbz	r0, .L498
 2282 0096 0023     		movs	r3, #0
 2283 0098 0193     		str	r3, [sp, #4]
 2284              	.L498:
 2285 009a 019B     		ldr	r3, [sp, #4]
 2286 009c 4FF48001 		mov	r1, #4194304
 2287 00a0 0E4A     		ldr	r2, .L517+4
 2288 00a2 B3F5803F 		cmp	r3, #65536
 2289 00a6 9161     		str	r1, [r2, #24]
 2290 00a8 B7D1     		bne	.L496
 2291 00aa 0822     		movs	r2, #8
 2292 00ac 0C49     		ldr	r1, .L517+8
 2293 00ae 0D48     		ldr	r0, .L517+12
 2294 00b0 FFF7FEFF 		bl	memcmp
 2295 00b4 0028     		cmp	r0, #0
 2296 00b6 BBD0     		beq	.L500
 2297 00b8 AFE7     		b	.L496
 2298              	.L516:
 2299 00ba A3F1D153 		sub	r3, r3, #438304768
 2300 00be 5168     		ldr	r1, [r2, #4]
ARM GAS  C:\Users\Jay\AppData\Local\Temp\ccjVRGue.s 			page 40


 2301 00c0 A3F5A013 		sub	r3, r3, #1310720
 2302 00c4 053B     		subs	r3, r3, #5
 2303 00c6 9942     		cmp	r1, r3
 2304 00c8 BED1     		bne	.L501
 2305 00ca 0B4B     		ldr	r3, .L517+32
 2306 00cc 9168     		ldr	r1, [r2, #8]
 2307 00ce 9942     		cmp	r1, r3
 2308 00d0 BAD1     		bne	.L501
 2309 00d2 BDE7     		b	.L503
 2310              	.L507:
 2311 00d4 0120     		movs	r0, #1
 2312 00d6 C1E7     		b	.L514
 2313              	.L518:
 2314              		.align	2
 2315              	.L517:
 2316 00d8 00000000 		.word	.LC11
 2317 00dc 00100258 		.word	1476530176
 2318 00e0 00000000 		.word	dat_file
 2319 00e4 14000000 		.word	.LC12
 2320 00e8 00000100 		.word	scratch_buf
 2321 00ec 4B756E67 		.word	1735292235
 2322 00f0 00000258 		.word	1476526080
 2323 00f4 00000000 		.word	dat_buffer
 2324 00f8 656E7500 		.word	7695973
 2326              		.section	.text.d64_read_next_sector,"ax",%progbits
 2327              		.align	1
 2328              		.p2align 2,,3
 2329              		.syntax unified
 2330              		.thumb
 2331              		.thumb_func
 2332              		.fpu fpv5-sp-d16
 2334              	d64_read_next_sector:
 2335              		@ args = 0, pretend = 0, frame = 8
 2336              		@ frame_needed = 0, uses_anonymous_args = 0
 2337 0000 F0B5     		push	{r4, r5, r6, r7, lr}
 2338 0002 90F82822 		ldrb	r2, [r0, #552]	@ zero_extendqisi2
 2339 0006 0546     		mov	r5, r0
 2340 0008 83B0     		sub	sp, sp, #12
 2341 000a 0C46     		mov	r4, r1
 2342 000c 032A     		cmp	r2, #3
 2343 000e 0B78     		ldrb	r3, [r1]	@ zero_extendqisi2
 2344 0010 4878     		ldrb	r0, [r1, #1]	@ zero_extendqisi2
 2345 0012 1CD0     		beq	.L537
 2346 0014 232B     		cmp	r3, #35
 2347 0016 01D9     		bls	.L528
 2348 0018 022A     		cmp	r2, #2
 2349 001a 34D0     		beq	.L538
 2350              	.L528:
 2351 001c 0021     		movs	r1, #0
 2352              	.L522:
 2353 001e 013B     		subs	r3, r3, #1
 2354 0020 DAB2     		uxtb	r2, r3
 2355 0022 292A     		cmp	r2, #41
 2356 0024 0CD9     		bls	.L539
 2357              	.L529:
 2358 0026 0021     		movs	r1, #0
 2359              	.L521:
ARM GAS  C:\Users\Jay\AppData\Local\Temp\ccjVRGue.s 			page 41


 2360 0028 194E     		ldr	r6, .L541
 2361 002a 4FF48007 		mov	r7, #4194304
 2362 002e 2846     		mov	r0, r5
 2363 0030 FFF7FEFF 		bl	f_lseek
 2364 0034 B761     		str	r7, [r6, #24]
 2365 0036 A0B1     		cbz	r0, .L523
 2366              	.L526:
 2367 0038 0020     		movs	r0, #0
 2368 003a 2070     		strb	r0, [r4]
 2369 003c 03B0     		add	sp, sp, #12
 2370              		@ sp needed
 2371 003e F0BD     		pop	{r4, r5, r6, r7, pc}
 2372              	.L539:
 2373 0040 144A     		ldr	r2, .L541+4
 2374 0042 32F81330 		ldrh	r3, [r2, r3, lsl #1]
 2375 0046 1844     		add	r0, r0, r3
 2376 0048 01EB0021 		add	r1, r1, r0, lsl #8
 2377 004c ECE7     		b	.L521
 2378              	.L537:
 2379 004e 013B     		subs	r3, r3, #1
 2380 0050 DAB2     		uxtb	r2, r3
 2381 0052 4F2A     		cmp	r2, #79
 2382 0054 E7D8     		bhi	.L529
 2383 0056 03EB8303 		add	r3, r3, r3, lsl #2
 2384 005a 00EBC303 		add	r3, r0, r3, lsl #3
 2385 005e 1902     		lsls	r1, r3, #8
 2386 0060 E2E7     		b	.L521
 2387              	.L523:
 2388 0062 2846     		mov	r0, r5
 2389 0064 01AB     		add	r3, sp, #4
 2390 0066 4FF48072 		mov	r2, #256
 2391 006a 2146     		mov	r1, r4
 2392 006c FFF7FEFF 		bl	f_read
 2393 0070 38B9     		cbnz	r0, .L540
 2394 0072 019B     		ldr	r3, [sp, #4]
 2395 0074 B761     		str	r7, [r6, #24]
 2396 0076 B3F5807F 		cmp	r3, #256
 2397 007a DDD1     		bne	.L526
 2398 007c 0120     		movs	r0, #1
 2399 007e 03B0     		add	sp, sp, #12
 2400              		@ sp needed
 2401 0080 F0BD     		pop	{r4, r5, r6, r7, pc}
 2402              	.L540:
 2403 0082 B761     		str	r7, [r6, #24]
 2404 0084 D8E7     		b	.L526
 2405              	.L538:
 2406 0086 233B     		subs	r3, r3, #35
 2407 0088 0349     		ldr	r1, .L541+8
 2408 008a DBB2     		uxtb	r3, r3
 2409 008c C7E7     		b	.L522
 2410              	.L542:
 2411 008e 00BF     		.align	2
 2412              	.L541:
 2413 0090 00100258 		.word	1476530176
 2414 0094 00000000 		.word	.LANCHOR14
 2415 0098 00AB0200 		.word	174848
 2417              		.section	.text.d64_read_dir,"ax",%progbits
ARM GAS  C:\Users\Jay\AppData\Local\Temp\ccjVRGue.s 			page 42


 2418              		.align	1
 2419              		.p2align 2,,3
 2420              		.syntax unified
 2421              		.thumb
 2422              		.thumb_func
 2423              		.fpu fpv5-sp-d16
 2425              	d64_read_dir:
 2426              		@ args = 0, pretend = 0, frame = 0
 2427              		@ frame_needed = 0, uses_anonymous_args = 0
 2428 0000 2DE9F041 		push	{r4, r5, r6, r7, r8, lr}
 2429 0004 0546     		mov	r5, r0
 2430 0006 0027     		movs	r7, #0
 2431 0008 00F20A38 		addw	r8, r0, #778
 2432 000c 00F22A26 		addw	r6, r0, #554
 2433              	.L544:
 2434 0010 D5F83043 		ldr	r4, [r5, #816]
 2435 0014 3146     		mov	r1, r6
 2436 0016 2846     		mov	r0, r5
 2437 0018 2034     		adds	r4, r4, #32
 2438 001a 4445     		cmp	r4, r8
 2439 001c 11D8     		bhi	.L545
 2440              	.L559:
 2441 001e C5F83043 		str	r4, [r5, #816]
 2442              	.L546:
 2443 0022 6079     		ldrb	r0, [r4, #5]	@ zero_extendqisi2
 2444 0024 A028     		cmp	r0, #160
 2445 0026 18BF     		it	ne
 2446 0028 0028     		cmpne	r0, #0
 2447 002a 14BF     		ite	ne
 2448 002c 0120     		movne	r0, #1
 2449 002e 0020     		moveq	r0, #0
 2450 0030 1CD1     		bne	.L550
 2451 0032 6075     		strb	r0, [r4, #21]
 2452 0034 3146     		mov	r1, r6
 2453 0036 D5F83043 		ldr	r4, [r5, #816]
 2454 003a 2846     		mov	r0, r5
 2455 003c 2034     		adds	r4, r4, #32
 2456 003e 4445     		cmp	r4, r8
 2457 0040 EDD9     		bls	.L559
 2458              	.L545:
 2459 0042 95F82A32 		ldrb	r3, [r5, #554]	@ zero_extendqisi2
 2460 0046 3446     		mov	r4, r6
 2461 0048 C5F83063 		str	r6, [r5, #816]
 2462 004c 5BB1     		cbz	r3, .L549
 2463 004e 95F82932 		ldrb	r3, [r5, #553]	@ zero_extendqisi2
 2464 0052 272B     		cmp	r3, #39
 2465 0054 03F10102 		add	r2, r3, #1
 2466 0058 05D8     		bhi	.L549
 2467 005a 85F82922 		strb	r2, [r5, #553]
 2468 005e FFF7FEFF 		bl	d64_read_next_sector
 2469 0062 0028     		cmp	r0, #0
 2470 0064 DDD1     		bne	.L546
 2471              	.L549:
 2472 0066 0020     		movs	r0, #0
 2473 0068 BDE8F081 		pop	{r4, r5, r6, r7, r8, pc}
 2474              	.L550:
 2475 006c A378     		ldrb	r3, [r4, #2]	@ zero_extendqisi2
ARM GAS  C:\Users\Jay\AppData\Local\Temp\ccjVRGue.s 			page 43


 2476 006e 6775     		strb	r7, [r4, #21]
 2477 0070 002B     		cmp	r3, #0
 2478 0072 CDD0     		beq	.L544
 2479 0074 BDE8F081 		pop	{r4, r5, r6, r7, r8, pc}
 2481              		.section	.text.save_dat,"ax",%progbits
 2482              		.align	1
 2483              		.p2align 2,,3
 2484              		.syntax unified
 2485              		.thumb
 2486              		.thumb_func
 2487              		.fpu fpv5-sp-d16
 2489              	save_dat:
 2490              		@ args = 0, pretend = 0, frame = 560
 2491              		@ frame_needed = 0, uses_anonymous_args = 0
 2492 0000 10B5     		push	{r4, lr}
 2493 0002 ADF50C7D 		sub	sp, sp, #560
 2494 0006 0A22     		movs	r2, #10
 2495 0008 1E49     		ldr	r1, .L574
 2496 000a 02A8     		add	r0, sp, #8
 2497 000c FFF7FEFF 		bl	f_open
 2498 0010 40B1     		cbz	r0, .L561
 2499 0012 1D4B     		ldr	r3, .L574+4
 2500 0014 4FF48002 		mov	r2, #4194304
 2501 0018 0024     		movs	r4, #0
 2502 001a 9A61     		str	r2, [r3, #24]
 2503              	.L571:
 2504 001c 2046     		mov	r0, r4
 2505 001e 0DF50C7D 		add	sp, sp, #560
 2506              		@ sp needed
 2507 0022 10BD     		pop	{r4, pc}
 2508              	.L561:
 2509 0024 0446     		mov	r4, r0
 2510 0026 4FF48062 		mov	r2, #1024
 2511 002a 1849     		ldr	r1, .L574+8
 2512 002c 02A8     		add	r0, sp, #8
 2513 002e 01AB     		add	r3, sp, #4
 2514 0030 FFF7FEFF 		bl	f_write
 2515 0034 80B9     		cbnz	r0, .L565
 2516              	.L566:
 2517 0036 019B     		ldr	r3, [sp, #4]
 2518 0038 4FF48001 		mov	r1, #4194304
 2519 003c 124A     		ldr	r2, .L574+4
 2520 003e B3F5806F 		cmp	r3, #1024
 2521 0042 9161     		str	r1, [r2, #24]
 2522 0044 0AD0     		beq	.L573
 2523 0046 0024     		movs	r4, #0
 2524              	.L563:
 2525 0048 02A8     		add	r0, sp, #8
 2526 004a FFF7FEFF 		bl	f_close
 2527 004e 0E4B     		ldr	r3, .L574+4
 2528 0050 4FF48002 		mov	r2, #4194304
 2529 0054 9A61     		str	r2, [r3, #24]
 2530 0056 E1E7     		b	.L571
 2531              	.L565:
 2532 0058 0194     		str	r4, [sp, #4]
 2533 005a ECE7     		b	.L566
 2534              	.L573:
ARM GAS  C:\Users\Jay\AppData\Local\Temp\ccjVRGue.s 			page 44


 2535 005c 01AB     		add	r3, sp, #4
 2536 005e 4FF48032 		mov	r2, #65536
 2537 0062 0B49     		ldr	r1, .L574+12
 2538 0064 02A8     		add	r0, sp, #8
 2539 0066 FFF7FEFF 		bl	f_write
 2540 006a 08B1     		cbz	r0, .L564
 2541 006c 0023     		movs	r3, #0
 2542 006e 0193     		str	r3, [sp, #4]
 2543              	.L564:
 2544 0070 019C     		ldr	r4, [sp, #4]
 2545 0072 4FF48002 		mov	r2, #4194304
 2546 0076 044B     		ldr	r3, .L574+4
 2547 0078 A4F58031 		sub	r1, r4, #65536
 2548 007c 9A61     		str	r2, [r3, #24]
 2549 007e 4C42     		rsbs	r4, r1, #0
 2550 0080 4C41     		adcs	r4, r4, r1
 2551 0082 E1E7     		b	.L563
 2552              	.L575:
 2553              		.align	2
 2554              	.L574:
 2555 0084 00000000 		.word	.LC11
 2556 0088 00100258 		.word	1476530176
 2557 008c 00000000 		.word	dat_file
 2558 0090 00000000 		.word	dat_buffer
 2560              		.section	.text.usbd_process_eptx,"ax",%progbits
 2561              		.align	1
 2562              		.p2align 2,,3
 2563              		.syntax unified
 2564              		.thumb
 2565              		.thumb_func
 2566              		.fpu fpv5-sp-d16
 2568              	usbd_process_eptx:
 2569              		@ args = 0, pretend = 0, frame = 0
 2570              		@ frame_needed = 0, uses_anonymous_args = 0
 2571 0000 38B5     		push	{r3, r4, r5, lr}
 2572 0002 90F86330 		ldrb	r3, [r0, #99]	@ zero_extendqisi2
 2573 0006 0446     		mov	r4, r0
 2574 0008 023B     		subs	r3, r3, #2
 2575 000a 032B     		cmp	r3, #3
 2576 000c 25D8     		bhi	.L576
 2577 000e DFE803F0 		tbb	[pc, r3]
 2578              	.L579:
 2579 0012 02       		.byte	(.L578-.L579)/2
 2580 0013 02       		.byte	(.L578-.L579)/2
 2581 0014 2F       		.byte	(.L580-.L579)/2
 2582 0015 25       		.byte	(.L581-.L579)/2
 2583              		.p2align 1
 2584              	.L578:
 2585 0016 90F86050 		ldrb	r5, [r0, #96]	@ zero_extendqisi2
 2586 001a 0846     		mov	r0, r1
 2587 001c B4F85C20 		ldrh	r2, [r4, #92]
 2588 0020 2368     		ldr	r3, [r4]
 2589 0022 9542     		cmp	r5, r2
 2590 0024 A16D     		ldr	r1, [r4, #88]
 2591 0026 DB69     		ldr	r3, [r3, #28]
 2592 0028 28BF     		it	cs
 2593 002a 1546     		movcs	r5, r2
ARM GAS  C:\Users\Jay\AppData\Local\Temp\ccjVRGue.s 			page 45


 2594 002c 2A46     		mov	r2, r5
 2595 002e 9847     		blx	r3
 2596 0030 B4F85C30 		ldrh	r3, [r4, #92]
 2597 0034 A26D     		ldr	r2, [r4, #88]
 2598 0036 5B1B     		subs	r3, r3, r5
 2599 0038 2A44     		add	r2, r2, r5
 2600 003a 9BB2     		uxth	r3, r3
 2601 003c A265     		str	r2, [r4, #88]
 2602 003e A4F85C30 		strh	r3, [r4, #92]	@ movhi
 2603 0042 53B9     		cbnz	r3, .L576
 2604 0044 94F86330 		ldrb	r3, [r4, #99]	@ zero_extendqisi2
 2605 0048 022B     		cmp	r3, #2
 2606 004a 03D0     		beq	.L583
 2607 004c 94F86030 		ldrb	r3, [r4, #96]	@ zero_extendqisi2
 2608 0050 AB42     		cmp	r3, r5
 2609 0052 02D0     		beq	.L576
 2610              	.L583:
 2611 0054 0423     		movs	r3, #4
 2612 0056 84F86330 		strb	r3, [r4, #99]
 2613              	.L576:
 2614 005a 38BD     		pop	{r3, r4, r5, pc}
 2615              	.L581:
 2616 005c 0025     		movs	r5, #0
 2617 005e 8368     		ldr	r3, [r0, #8]
 2618 0060 80F86350 		strb	r5, [r0, #99]
 2619 0064 002B     		cmp	r3, #0
 2620 0066 F8D0     		beq	.L576
 2621 0068 416D     		ldr	r1, [r0, #84]
 2622 006a 9847     		blx	r3
 2623 006c A560     		str	r5, [r4, #8]
 2624 006e 38BD     		pop	{r3, r4, r5, pc}
 2625              	.L580:
 2626 0070 0623     		movs	r3, #6
 2627 0072 80F86330 		strb	r3, [r0, #99]
 2628 0076 38BD     		pop	{r3, r4, r5, pc}
 2630              		.section	.text.usbd_process_ep0,"ax",%progbits
 2631              		.align	1
 2632              		.p2align 2,,3
 2633              		.syntax unified
 2634              		.thumb
 2635              		.thumb_func
 2636              		.fpu fpv5-sp-d16
 2638              	usbd_process_ep0:
 2639              		@ args = 0, pretend = 0, frame = 0
 2640              		@ frame_needed = 0, uses_anonymous_args = 0
 2641 0000 0529     		cmp	r1, #5
 2642 0002 2DE9F041 		push	{r4, r5, r6, r7, r8, lr}
 2643 0006 1546     		mov	r5, r2
 2644 0008 0446     		mov	r4, r0
 2645 000a 29D0     		beq	.L594
 2646 000c 0629     		cmp	r1, #6
 2647 000e 08D0     		beq	.L595
 2648 0010 0429     		cmp	r1, #4
 2649 0012 01D0     		beq	.L652
 2650              	.L592:
 2651 0014 BDE8F081 		pop	{r4, r5, r6, r7, r8, pc}
 2652              	.L652:
ARM GAS  C:\Users\Jay\AppData\Local\Temp\ccjVRGue.s 			page 46


 2653 0018 1146     		mov	r1, r2
 2654 001a BDE8F041 		pop	{r4, r5, r6, r7, r8, lr}
 2655 001e FFF7FEBF 		b	usbd_process_eptx
 2656              	.L595:
 2657 0022 0022     		movs	r2, #0
 2658 0024 476D     		ldr	r7, [r0, #84]
 2659 0026 0368     		ldr	r3, [r0]
 2660 0028 80F86320 		strb	r2, [r0, #99]
 2661 002c 8260     		str	r2, [r0, #8]
 2662              	.L597:
 2663 002e 9B69     		ldr	r3, [r3, #24]
 2664 0030 3946     		mov	r1, r7
 2665 0032 B4F85E20 		ldrh	r2, [r4, #94]
 2666 0036 2846     		mov	r0, r5
 2667 0038 9847     		blx	r3
 2668 003a 0828     		cmp	r0, #8
 2669 003c 4CD0     		beq	.L601
 2670 003e 2368     		ldr	r3, [r4]
 2671 0040 0121     		movs	r1, #1
 2672 0042 05F07F00 		and	r0, r5, #127
 2673 0046 1B6A     		ldr	r3, [r3, #32]
 2674              	.L651:
 2675 0048 9847     		blx	r3
 2676 004a 2368     		ldr	r3, [r4]
 2677 004c 45F08000 		orr	r0, r5, #128
 2678 0050 0121     		movs	r1, #1
 2679 0052 1B6A     		ldr	r3, [r3, #32]
 2680 0054 9847     		blx	r3
 2681 0056 0023     		movs	r3, #0
 2682 0058 84F86330 		strb	r3, [r4, #99]
 2683 005c BDE8F081 		pop	{r4, r5, r6, r7, r8, pc}
 2684              	.L594:
 2685 0060 90F86360 		ldrb	r6, [r0, #99]	@ zero_extendqisi2
 2686 0064 476D     		ldr	r7, [r0, #84]
 2687 0066 012E     		cmp	r6, #1
 2688 0068 0368     		ldr	r3, [r0]
 2689 006a 13D0     		beq	.L599
 2690 006c DFD3     		bcc	.L597
 2691 006e 062E     		cmp	r6, #6
 2692 0070 2DD1     		bne	.L645
 2693 0072 0022     		movs	r2, #0
 2694 0074 9B69     		ldr	r3, [r3, #24]
 2695 0076 2846     		mov	r0, r5
 2696 0078 1146     		mov	r1, r2
 2697 007a 1546     		mov	r5, r2
 2698 007c 9847     		blx	r3
 2699 007e A368     		ldr	r3, [r4, #8]
 2700 0080 84F86350 		strb	r5, [r4, #99]
 2701 0084 002B     		cmp	r3, #0
 2702 0086 C5D0     		beq	.L592
 2703 0088 616D     		ldr	r1, [r4, #84]
 2704 008a 2046     		mov	r0, r4
 2705 008c 9847     		blx	r3
 2706 008e A560     		str	r5, [r4, #8]
 2707 0090 BDE8F081 		pop	{r4, r5, r6, r7, r8, pc}
 2708              	.L599:
 2709 0094 9B69     		ldr	r3, [r3, #24]
ARM GAS  C:\Users\Jay\AppData\Local\Temp\ccjVRGue.s 			page 47


 2710 0096 1046     		mov	r0, r2
 2711 0098 A16D     		ldr	r1, [r4, #88]
 2712 009a B4F85C20 		ldrh	r2, [r4, #92]
 2713 009e 9847     		blx	r3
 2714 00a0 B4F85C30 		ldrh	r3, [r4, #92]
 2715 00a4 82B2     		uxth	r2, r0
 2716 00a6 9A42     		cmp	r2, r3
 2717 00a8 3AD9     		bls	.L604
 2718 00aa 2368     		ldr	r3, [r4]
 2719 00ac 3146     		mov	r1, r6
 2720 00ae 05F07F00 		and	r0, r5, #127
 2721 00b2 1B6A     		ldr	r3, [r3, #32]
 2722 00b4 9847     		blx	r3
 2723 00b6 2368     		ldr	r3, [r4]
 2724 00b8 3146     		mov	r1, r6
 2725 00ba 45F08000 		orr	r0, r5, #128
 2726 00be 1B6A     		ldr	r3, [r3, #32]
 2727 00c0 9847     		blx	r3
 2728 00c2 0023     		movs	r3, #0
 2729 00c4 84F86330 		strb	r3, [r4, #99]
 2730 00c8 BDE8F081 		pop	{r4, r5, r6, r7, r8, pc}
 2731              	.L650:
 2732 00cc 2368     		ldr	r3, [r4]
 2733              	.L645:
 2734 00ce 1B6A     		ldr	r3, [r3, #32]
 2735 00d0 0121     		movs	r1, #1
 2736 00d2 05F07F00 		and	r0, r5, #127
 2737 00d6 B7E7     		b	.L651
 2738              	.L601:
 2739 00d8 FB88     		ldrh	r3, [r7, #6]
 2740 00da 07F10806 		add	r6, r7, #8
 2741 00de B4F85E20 		ldrh	r2, [r4, #94]
 2742 00e2 A665     		str	r6, [r4, #88]
 2743 00e4 A4F85C30 		strh	r3, [r4, #92]	@ movhi
 2744 00e8 3978     		ldrb	r1, [r7]	@ zero_extendqisi2
 2745 00ea C909     		lsrs	r1, r1, #7
 2746 00ec 25D1     		bne	.L602
 2747 00ee B3FA83F8 		clz	r8, r3
 2748 00f2 4FEA5818 		lsr	r8, r8, #5
 2749 00f6 B8F1000F 		cmp	r8, #0
 2750 00fa 1ED1     		bne	.L602
 2751 00fc 9342     		cmp	r3, r2
 2752 00fe 40F2BA80 		bls	.L603
 2753 0102 2368     		ldr	r3, [r4]
 2754 0104 0121     		movs	r1, #1
 2755 0106 05F07F00 		and	r0, r5, #127
 2756 010a 1B6A     		ldr	r3, [r3, #32]
 2757 010c 9847     		blx	r3
 2758 010e 2368     		ldr	r3, [r4]
 2759 0110 45F08000 		orr	r0, r5, #128
 2760 0114 0121     		movs	r1, #1
 2761 0116 1B6A     		ldr	r3, [r3, #32]
 2762 0118 9847     		blx	r3
 2763 011a 84F86380 		strb	r8, [r4, #99]
 2764 011e 79E7     		b	.L592
 2765              	.L604:
 2766 0120 07D0     		beq	.L653
ARM GAS  C:\Users\Jay\AppData\Local\Temp\ccjVRGue.s 			page 48


 2767 0122 A16D     		ldr	r1, [r4, #88]
 2768 0124 9B1A     		subs	r3, r3, r2
 2769 0126 11FA80F0 		uxtah	r0, r1, r0
 2770 012a A4F85C30 		strh	r3, [r4, #92]	@ movhi
 2771 012e A065     		str	r0, [r4, #88]
 2772 0130 70E7     		b	.L592
 2773              	.L653:
 2774 0132 07F10806 		add	r6, r7, #8
 2775 0136 B4F85E20 		ldrh	r2, [r4, #94]
 2776              	.L602:
 2777 013a 6368     		ldr	r3, [r4, #4]
 2778 013c A665     		str	r6, [r4, #88]
 2779 013e A4F85C20 		strh	r2, [r4, #92]	@ movhi
 2780 0142 2BB1     		cbz	r3, .L612
 2781 0144 04F10802 		add	r2, r4, #8
 2782 0148 3946     		mov	r1, r7
 2783 014a 2046     		mov	r0, r4
 2784 014c 9847     		blx	r3
 2785 014e 68BB     		cbnz	r0, .L611
 2786              	.L612:
 2787 0150 3B78     		ldrb	r3, [r7]	@ zero_extendqisi2
 2788 0152 03F06302 		and	r2, r3, #99
 2789 0156 012A     		cmp	r2, #1
 2790 0158 00F08580 		beq	.L608
 2791 015c 2ED3     		bcc	.L609
 2792 015e 022A     		cmp	r2, #2
 2793 0160 B4D1     		bne	.L650
 2794 0162 7A78     		ldrb	r2, [r7, #1]	@ zero_extendqisi2
 2795 0164 2368     		ldr	r3, [r4]
 2796 0166 012A     		cmp	r2, #1
 2797 0168 00F08980 		beq	.L628
 2798 016c C0F09D80 		bcc	.L629
 2799 0170 032A     		cmp	r2, #3
 2800 0172 ACD1     		bne	.L645
 2801 0174 1B6A     		ldr	r3, [r3, #32]
 2802 0176 0121     		movs	r1, #1
 2803 0178 3879     		ldrb	r0, [r7, #4]	@ zero_extendqisi2
 2804 017a 9847     		blx	r3
 2805 017c 3B78     		ldrb	r3, [r7]	@ zero_extendqisi2
 2806              	.L619:
 2807 017e 1B06     		lsls	r3, r3, #24
 2808 0180 45F08000 		orr	r0, r5, #128
 2809 0184 00F18180 		bmi	.L654
 2810 0188 2368     		ldr	r3, [r4]
 2811 018a 0022     		movs	r2, #0
 2812 018c DB69     		ldr	r3, [r3, #28]
 2813 018e 1146     		mov	r1, r2
 2814 0190 9847     		blx	r3
 2815 0192 0523     		movs	r3, #5
 2816 0194 84F86330 		strb	r3, [r4, #99]
 2817 0198 3CE7     		b	.L592
 2818              	.L620:
 2819 019a 2369     		ldr	r3, [r4, #16]
 2820 019c 002B     		cmp	r3, #0
 2821 019e 95D0     		beq	.L650
 2822 01a0 04F15C02 		add	r2, r4, #92
 2823 01a4 04F15801 		add	r1, r4, #88
ARM GAS  C:\Users\Jay\AppData\Local\Temp\ccjVRGue.s 			page 49


 2824 01a8 3846     		mov	r0, r7
 2825 01aa 9847     		blx	r3
 2826              	.L611:
 2827 01ac 0128     		cmp	r0, #1
 2828 01ae 60D0     		beq	.L631
 2829 01b0 0228     		cmp	r0, #2
 2830 01b2 8BD1     		bne	.L650
 2831 01b4 0523     		movs	r3, #5
 2832 01b6 84F86330 		strb	r3, [r4, #99]
 2833 01ba 2BE7     		b	.L592
 2834              	.L609:
 2835 01bc 7A78     		ldrb	r2, [r7, #1]	@ zero_extendqisi2
 2836 01be 092A     		cmp	r2, #9
 2837 01c0 84D8     		bhi	.L650
 2838 01c2 01A1     		adr	r1, .L614
 2839 01c4 51F822F0 		ldr	pc, [r1, r2, lsl #2]
 2840              		.p2align 2
 2841              	.L614:
 2842 01c8 37020000 		.word	.L613+1
 2843 01cc CD000000 		.word	.L650+1
 2844 01d0 CD000000 		.word	.L650+1
 2845 01d4 CD000000 		.word	.L650+1
 2846 01d8 CD000000 		.word	.L650+1
 2847 01dc 0B020000 		.word	.L615+1
 2848 01e0 F1010000 		.word	.L616+1
 2849 01e4 CD000000 		.word	.L650+1
 2850 01e8 2F020000 		.word	.L617+1
 2851 01ec 3D020000 		.word	.L618+1
 2852              		.p2align 1
 2853              	.L616:
 2854 01f0 7A88     		ldrh	r2, [r7, #2]
 2855 01f2 40F2FE33 		movw	r3, #1022
 2856 01f6 9A42     		cmp	r2, r3
 2857 01f8 CFD1     		bne	.L620
 2858 01fa 2368     		ldr	r3, [r4]
 2859 01fc 3046     		mov	r0, r6
 2860 01fe 1B6B     		ldr	r3, [r3, #48]
 2861 0200 9847     		blx	r3
 2862 0202 A4F85C00 		strh	r0, [r4, #92]	@ movhi
 2863 0206 3B78     		ldrb	r3, [r7]	@ zero_extendqisi2
 2864 0208 B9E7     		b	.L619
 2865              	.L615:
 2866 020a 2368     		ldr	r3, [r4]
 2867 020c 1B68     		ldr	r3, [r3]
 2868 020e 9847     		blx	r3
 2869 0210 C207     		lsls	r2, r0, #31
 2870 0212 56D5     		bpl	.L623
 2871 0214 2368     		ldr	r3, [r4]
 2872 0216 B878     		ldrb	r0, [r7, #2]	@ zero_extendqisi2
 2873 0218 DB68     		ldr	r3, [r3, #12]
 2874 021a 9847     		blx	r3
 2875 021c 7B88     		ldrh	r3, [r7, #2]
 2876 021e 002B     		cmp	r3, #0
 2877 0220 0CBF     		ite	eq
 2878 0222 0223     		moveq	r3, #2
 2879 0224 0323     		movne	r3, #3
 2880 0226 84F86230 		strb	r3, [r4, #98]
ARM GAS  C:\Users\Jay\AppData\Local\Temp\ccjVRGue.s 			page 50


 2881 022a 3B78     		ldrb	r3, [r7]	@ zero_extendqisi2
 2882 022c A7E7     		b	.L619
 2883              	.L617:
 2884 022e 94F86120 		ldrb	r2, [r4, #97]	@ zero_extendqisi2
 2885 0232 3A72     		strb	r2, [r7, #8]
 2886 0234 A3E7     		b	.L619
 2887              	.L613:
 2888 0236 0022     		movs	r2, #0
 2889 0238 3A81     		strh	r2, [r7, #8]	@ movhi
 2890 023a A0E7     		b	.L619
 2891              	.L618:
 2892 023c E368     		ldr	r3, [r4, #12]
 2893 023e BE78     		ldrb	r6, [r7, #2]	@ zero_extendqisi2
 2894 0240 002B     		cmp	r3, #0
 2895 0242 3FF443AF 		beq	.L650
 2896 0246 3146     		mov	r1, r6
 2897 0248 2046     		mov	r0, r4
 2898 024a 9847     		blx	r3
 2899 024c 0128     		cmp	r0, #1
 2900 024e 7FF43DAF 		bne	.L650
 2901 0252 002E     		cmp	r6, #0
 2902 0254 84F86160 		strb	r6, [r4, #97]
 2903 0258 0CBF     		ite	eq
 2904 025a 0323     		moveq	r3, #3
 2905 025c 0423     		movne	r3, #4
 2906 025e 84F86230 		strb	r3, [r4, #98]
 2907 0262 3B78     		ldrb	r3, [r7]	@ zero_extendqisi2
 2908 0264 8BE7     		b	.L619
 2909              	.L608:
 2910 0266 7A78     		ldrb	r2, [r7, #1]	@ zero_extendqisi2
 2911 0268 002A     		cmp	r2, #0
 2912 026a 7FF42FAF 		bne	.L650
 2913 026e 3A81     		strh	r2, [r7, #8]	@ movhi
 2914 0270 85E7     		b	.L619
 2915              	.L631:
 2916 0272 3B78     		ldrb	r3, [r7]	@ zero_extendqisi2
 2917 0274 83E7     		b	.L619
 2918              	.L603:
 2919 0276 0123     		movs	r3, #1
 2920 0278 84F86330 		strb	r3, [r4, #99]
 2921 027c CAE6     		b	.L592
 2922              	.L628:
 2923 027e 1B6A     		ldr	r3, [r3, #32]
 2924 0280 0021     		movs	r1, #0
 2925 0282 3879     		ldrb	r0, [r7, #4]	@ zero_extendqisi2
 2926 0284 9847     		blx	r3
 2927 0286 3B78     		ldrb	r3, [r7]	@ zero_extendqisi2
 2928 0288 79E7     		b	.L619
 2929              	.L654:
 2930 028a FB88     		ldrh	r3, [r7, #6]
 2931 028c B4F85C20 		ldrh	r2, [r4, #92]
 2932 0290 9A42     		cmp	r2, r3
 2933 0292 12D3     		bcc	.L634
 2934 0294 0222     		movs	r2, #2
 2935 0296 A4F85C30 		strh	r3, [r4, #92]	@ movhi
 2936 029a 84F86320 		strb	r2, [r4, #99]
 2937              	.L635:
ARM GAS  C:\Users\Jay\AppData\Local\Temp\ccjVRGue.s 			page 51


 2938 029e 0146     		mov	r1, r0
 2939 02a0 2046     		mov	r0, r4
 2940 02a2 BDE8F041 		pop	{r4, r5, r6, r7, r8, lr}
 2941 02a6 FFF7FEBF 		b	usbd_process_eptx
 2942              	.L629:
 2943 02aa 5B6A     		ldr	r3, [r3, #36]
 2944 02ac 3879     		ldrb	r0, [r7, #4]	@ zero_extendqisi2
 2945 02ae 9847     		blx	r3
 2946 02b0 0023     		movs	r3, #0
 2947 02b2 3872     		strb	r0, [r7, #8]
 2948 02b4 7B72     		strb	r3, [r7, #9]
 2949 02b6 3B78     		ldrb	r3, [r7]	@ zero_extendqisi2
 2950 02b8 61E7     		b	.L619
 2951              	.L634:
 2952 02ba 0323     		movs	r3, #3
 2953 02bc 84F86330 		strb	r3, [r4, #99]
 2954 02c0 EDE7     		b	.L635
 2955              	.L623:
 2956 02c2 024B     		ldr	r3, .L655
 2957 02c4 A360     		str	r3, [r4, #8]
 2958 02c6 3B78     		ldrb	r3, [r7]	@ zero_extendqisi2
 2959 02c8 59E7     		b	.L619
 2960              	.L656:
 2961 02ca 00BF     		.align	2
 2962              	.L655:
 2963 02cc 00000000 		.word	usbd_set_address
 2965              		.section	.text.getinfo,"ax",%progbits
 2966              		.align	1
 2967              		.p2align 2,,3
 2968              		.global	getinfo
 2969              		.syntax unified
 2970              		.thumb
 2971              		.thumb_func
 2972              		.fpu fpv5-sp-d16
 2974              	getinfo:
 2975              		@ args = 0, pretend = 0, frame = 0
 2976              		@ frame_needed = 0, uses_anonymous_args = 0
 2977              		@ link register save eliminated.
 2978 0000 074B     		ldr	r3, .L661
 2979 0002 D3F8D830 		ldr	r3, [r3, #216]
 2980 0006 1B01     		lsls	r3, r3, #4
 2981 0008 07D5     		bpl	.L659
 2982 000a 064B     		ldr	r3, .L661+4
 2983 000c 5B68     		ldr	r3, [r3, #4]
 2984 000e 13F0020F 		tst	r3, #2
 2985 0012 0CBF     		ite	eq
 2986 0014 2920     		moveq	r0, #41
 2987 0016 0920     		movne	r0, #9
 2988 0018 7047     		bx	lr
 2989              	.L659:
 2990 001a 0120     		movs	r0, #1
 2991 001c 7047     		bx	lr
 2992              	.L662:
 2993 001e 00BF     		.align	2
 2994              	.L661:
 2995 0020 00440258 		.word	1476543488
 2996 0024 00080840 		.word	1074268160
ARM GAS  C:\Users\Jay\AppData\Local\Temp\ccjVRGue.s 			page 52


 2998              		.section	.text.ep_setstall,"ax",%progbits
 2999              		.align	1
 3000              		.p2align 2,,3
 3001              		.global	ep_setstall
 3002              		.syntax unified
 3003              		.thumb
 3004              		.thumb_func
 3005              		.fpu fpv5-sp-d16
 3007              	ep_setstall:
 3008              		@ args = 0, pretend = 0, frame = 0
 3009              		@ frame_needed = 0, uses_anonymous_args = 0
 3010              		@ link register save eliminated.
 3011 0000 0306     		lsls	r3, r0, #24
 3012 0002 0AD4     		bmi	.L677
 3013 0004 4001     		lsls	r0, r0, #5
 3014 0006 0F4A     		ldr	r2, .L678
 3015 0008 8358     		ldr	r3, [r0, r2]
 3016 000a 13F4004F 		tst	r3, #32768
 3017 000e 03D0     		beq	.L663
 3018 0010 91B1     		cbz	r1, .L668
 3019              	.L676:
 3020 0012 43F40013 		orr	r3, r3, #2097152
 3021              	.L669:
 3022 0016 8350     		str	r3, [r0, r2]
 3023              	.L663:
 3024 0018 7047     		bx	lr
 3025              	.L677:
 3026 001a 00F07F00 		and	r0, r0, #127
 3027 001e 0A4A     		ldr	r2, .L678+4
 3028 0020 4001     		lsls	r0, r0, #5
 3029 0022 8358     		ldr	r3, [r0, r2]
 3030 0024 13F4004F 		tst	r3, #32768
 3031 0028 F6D0     		beq	.L663
 3032 002a 0029     		cmp	r1, #0
 3033 002c F1D1     		bne	.L676
 3034 002e 23F0C153 		bic	r3, r3, #404750336
 3035 0032 43F0C053 		orr	r3, r3, #402653184
 3036 0036 EEE7     		b	.L669
 3037              	.L668:
 3038 0038 23F0A153 		bic	r3, r3, #337641472
 3039 003c 43F0A053 		orr	r3, r3, #335544320
 3040 0040 E9E7     		b	.L669
 3041              	.L679:
 3042 0042 00BF     		.align	2
 3043              	.L678:
 3044 0044 000B0840 		.word	1074268928
 3045 0048 00090840 		.word	1074268416
 3047              		.section	.text.ep_isstalled,"ax",%progbits
 3048              		.align	1
 3049              		.p2align 2,,3
 3050              		.global	ep_isstalled
 3051              		.syntax unified
 3052              		.thumb
 3053              		.thumb_func
 3054              		.fpu fpv5-sp-d16
 3056              	ep_isstalled:
 3057              		@ args = 0, pretend = 0, frame = 0
ARM GAS  C:\Users\Jay\AppData\Local\Temp\ccjVRGue.s 			page 53


 3058              		@ frame_needed = 0, uses_anonymous_args = 0
 3059              		@ link register save eliminated.
 3060 0000 0306     		lsls	r3, r0, #24
 3061 0002 05D4     		bmi	.L683
 3062 0004 064B     		ldr	r3, .L684
 3063 0006 4001     		lsls	r0, r0, #5
 3064 0008 C058     		ldr	r0, [r0, r3]
 3065 000a C0F34050 		ubfx	r0, r0, #21, #1
 3066 000e 7047     		bx	lr
 3067              	.L683:
 3068 0010 00F07F00 		and	r0, r0, #127
 3069 0014 034B     		ldr	r3, .L684+4
 3070 0016 4001     		lsls	r0, r0, #5
 3071 0018 C058     		ldr	r0, [r0, r3]
 3072 001a C0F34050 		ubfx	r0, r0, #21, #1
 3073 001e 7047     		bx	lr
 3074              	.L685:
 3075              		.align	2
 3076              	.L684:
 3077 0020 000B0840 		.word	1074268928
 3078 0024 00090840 		.word	1074268416
 3080              		.section	.text.enable,"ax",%progbits
 3081              		.align	1
 3082              		.p2align 2,,3
 3083              		.global	enable
 3084              		.syntax unified
 3085              		.thumb
 3086              		.thumb_func
 3087              		.fpu fpv5-sp-d16
 3089              	enable:
 3090              		@ args = 0, pretend = 0, frame = 0
 3091              		@ frame_needed = 0, uses_anonymous_args = 0
 3092              		@ link register save eliminated.
 3093 0000 0028     		cmp	r0, #0
 3094 0002 34D0     		beq	.L687
 3095 0004 294A     		ldr	r2, .L698
 3096 0006 D2F8D830 		ldr	r3, [r2, #216]
 3097 000a 43F00063 		orr	r3, r3, #134217728
 3098 000e F0B4     		push	{r4, r5, r6, r7}
 3099 0010 C2F8D830 		str	r3, [r2, #216]
 3100              		.syntax unified
 3101              	@ 878 "stm32h7xx/cmsis/cmsis_gcc.h" 1
 3102 0014 BFF34F8F 		dsb 0xF
 3103              	@ 0 "" 2
 3104              		.thumb
 3105              		.syntax unified
 3106 0018 254B     		ldr	r3, .L698+4
 3107              	.L688:
 3108 001a 1A69     		ldr	r2, [r3, #16]
 3109 001c 002A     		cmp	r2, #0
 3110 001e FCDA     		bge	.L688
 3111 0020 D868     		ldr	r0, [r3, #12]
 3112 0022 4FF40025 		mov	r5, #524288
 3113 0026 234A     		ldr	r2, .L698+8
 3114 0028 0024     		movs	r4, #0
 3115 002a 2349     		ldr	r1, .L698+12
 3116 002c 3427     		movs	r7, #52
ARM GAS  C:\Users\Jay\AppData\Local\Temp\ccjVRGue.s 			page 54


 3117 002e 0240     		ands	r2, r2, r0
 3118 0030 2248     		ldr	r0, .L698+16
 3119 0032 234E     		ldr	r6, .L698+20
 3120 0034 1143     		orrs	r1, r1, r2
 3121 0036 234A     		ldr	r2, .L698+24
 3122 0038 D960     		str	r1, [r3, #12]
 3123 003a 9D63     		str	r5, [r3, #56]
 3124 003c 0125     		movs	r5, #1
 3125 003e 0460     		str	r4, [r0]
 3126 0040 5068     		ldr	r0, [r2, #4]
 3127 0042 2149     		ldr	r1, .L698+28
 3128 0044 40F00200 		orr	r0, r0, #2
 3129 0048 204C     		ldr	r4, .L698+32
 3130 004a 5060     		str	r0, [r2, #4]
 3131 004c 1068     		ldr	r0, [r2]
 3132 004e 0140     		ands	r1, r1, r0
 3133 0050 4FF0FF30 		mov	r0, #-1
 3134 0054 41F00301 		orr	r1, r1, #3
 3135 0058 1160     		str	r1, [r2]
 3136 005a 5F62     		str	r7, [r3, #36]
 3137 005c 9E62     		str	r6, [r3, #40]
 3138 005e 1561     		str	r5, [r2, #16]
 3139 0060 9C61     		str	r4, [r3, #24]
 3140 0062 5861     		str	r0, [r3, #20]
 3141 0064 9A68     		ldr	r2, [r3, #8]
 3142 0066 2A43     		orrs	r2, r2, r5
 3143 0068 F0BC     		pop	{r4, r5, r6, r7}
 3144 006a 9A60     		str	r2, [r3, #8]
 3145 006c 7047     		bx	lr
 3146              	.L687:
 3147 006e 0F4B     		ldr	r3, .L698
 3148 0070 D3F8D820 		ldr	r2, [r3, #216]
 3149 0074 1201     		lsls	r2, r2, #4
 3150 0076 18D5     		bpl	.L695
 3151 0078 D3F88020 		ldr	r2, [r3, #128]
 3152 007c 42F00062 		orr	r2, r2, #134217728
 3153 0080 C3F88020 		str	r2, [r3, #128]
 3154              		.syntax unified
 3155              	@ 878 "stm32h7xx/cmsis/cmsis_gcc.h" 1
 3156 0084 BFF34F8F 		dsb 0xF
 3157              	@ 0 "" 2
 3158              		.thumb
 3159              		.syntax unified
 3160 0088 D3F88020 		ldr	r2, [r3, #128]
 3161 008c 22F00062 		bic	r2, r2, #134217728
 3162 0090 C3F88020 		str	r2, [r3, #128]
 3163              		.syntax unified
 3164              	@ 878 "stm32h7xx/cmsis/cmsis_gcc.h" 1
 3165 0094 BFF34F8F 		dsb 0xF
 3166              	@ 0 "" 2
 3167              		.thumb
 3168              		.syntax unified
 3169 0098 D3F8D820 		ldr	r2, [r3, #216]
 3170 009c 22F00062 		bic	r2, r2, #134217728
 3171 00a0 C3F8D820 		str	r2, [r3, #216]
 3172              		.syntax unified
 3173              	@ 878 "stm32h7xx/cmsis/cmsis_gcc.h" 1
ARM GAS  C:\Users\Jay\AppData\Local\Temp\ccjVRGue.s 			page 55


 3174 00a4 BFF34F8F 		dsb 0xF
 3175              	@ 0 "" 2
 3176              		.thumb
 3177              		.syntax unified
 3178 00a8 7047     		bx	lr
 3179              	.L695:
 3180 00aa 7047     		bx	lr
 3181              	.L699:
 3182              		.align	2
 3183              	.L698:
 3184 00ac 00440258 		.word	1476543488
 3185 00b0 00000840 		.word	1074266112
 3186 00b4 FFC2FFBF 		.word	-1073757441
 3187 00b8 00180040 		.word	1073747968
 3188 00bc 000E0840 		.word	1074269696
 3189 00c0 34001000 		.word	1048628
 3190 00c4 00080840 		.word	1074268160
 3191 00c8 FCFFFFFC 		.word	-50331652
 3192 00cc 10380480 		.word	-2147207152
 3194              		.section	.text.connect,"ax",%progbits
 3195              		.align	1
 3196              		.p2align 2,,3
 3197              		.global	connect
 3198              		.syntax unified
 3199              		.thumb
 3200              		.thumb_func
 3201              		.fpu fpv5-sp-d16
 3203              	connect:
 3204              		@ args = 0, pretend = 0, frame = 0
 3205              		@ frame_needed = 0, uses_anonymous_args = 0
 3206              		@ link register save eliminated.
 3207 0000 58B9     		cbnz	r0, .L703
 3208 0002 0C49     		ldr	r1, .L704
 3209 0004 0020     		movs	r0, #0
 3210 0006 0C4A     		ldr	r2, .L704+4
 3211 0008 4B68     		ldr	r3, [r1, #4]
 3212 000a 43F00203 		orr	r3, r3, #2
 3213 000e 4B60     		str	r3, [r1, #4]
 3214 0010 936B     		ldr	r3, [r2, #56]
 3215 0012 23F48033 		bic	r3, r3, #65536
 3216 0016 9363     		str	r3, [r2, #56]
 3217 0018 7047     		bx	lr
 3218              	.L703:
 3219 001a 0749     		ldr	r1, .L704+4
 3220 001c 0020     		movs	r0, #0
 3221 001e 054A     		ldr	r2, .L704
 3222 0020 8B6B     		ldr	r3, [r1, #56]
 3223 0022 43F48033 		orr	r3, r3, #65536
 3224 0026 8B63     		str	r3, [r1, #56]
 3225 0028 5368     		ldr	r3, [r2, #4]
 3226 002a 23F00203 		bic	r3, r3, #2
 3227 002e 5360     		str	r3, [r2, #4]
 3228 0030 7047     		bx	lr
 3229              	.L705:
 3230 0032 00BF     		.align	2
 3231              	.L704:
 3232 0034 00080840 		.word	1074268160
ARM GAS  C:\Users\Jay\AppData\Local\Temp\ccjVRGue.s 			page 56


 3233 0038 00000840 		.word	1074266112
 3235              		.section	.text.ep_config,"ax",%progbits
 3236              		.align	1
 3237              		.p2align 2,,3
 3238              		.global	ep_config
 3239              		.syntax unified
 3240              		.thumb
 3241              		.thumb_func
 3242              		.fpu fpv5-sp-d16
 3244              	ep_config:
 3245              		@ args = 0, pretend = 0, frame = 0
 3246              		@ frame_needed = 0, uses_anonymous_args = 0
 3247 0000 F8B5     		push	{r3, r4, r5, r6, r7, lr}
 3248 0002 80B9     		cbnz	r0, .L707
 3249 0004 082A     		cmp	r2, #8
 3250 0006 1ED9     		bls	.L721
 3251 0008 102A     		cmp	r2, #16
 3252 000a 52D9     		bls	.L722
 3253 000c 202A     		cmp	r2, #32
 3254 000e 3B4B     		ldr	r3, .L746
 3255 0010 3B4D     		ldr	r5, .L746+4
 3256 0012 3C4C     		ldr	r4, .L746+8
 3257 0014 98BF     		it	ls
 3258 0016 1D46     		movls	r5, r3
 3259 0018 3B4E     		ldr	r6, .L746+12
 3260 001a 84BF     		itt	hi
 3261 001c 4FF00444 		movhi	r4, #-2080374784
 3262 0020 4FF00066 		movhi	r6, #134217728
 3263 0024 12E0     		b	.L708
 3264              	.L707:
 3265 0026 0306     		lsls	r3, r0, #24
 3266 0028 1CD4     		bmi	.L743
 3267 002a 0229     		cmp	r1, #2
 3268 002c 4FEA4013 		lsl	r3, r0, #5
 3269 0030 364C     		ldr	r4, .L746+16
 3270 0032 50D0     		beq	.L719
 3271 0034 0629     		cmp	r1, #6
 3272 0036 4ED0     		beq	.L719
 3273 0038 0129     		cmp	r1, #1
 3274 003a 3ED0     		beq	.L744
 3275 003c 3449     		ldr	r1, .L746+20
 3276 003e 0120     		movs	r0, #1
 3277 0040 1143     		orrs	r1, r1, r2
 3278 0042 1951     		str	r1, [r3, r4]
 3279 0044 F8BD     		pop	{r3, r4, r5, r6, r7, pc}
 3280              	.L721:
 3281 0046 334C     		ldr	r4, .L746+24
 3282 0048 334D     		ldr	r5, .L746+28
 3283 004a 344E     		ldr	r6, .L746+32
 3284              	.L708:
 3285 004c 3449     		ldr	r1, .L746+36
 3286 004e 0120     		movs	r0, #1
 3287 0050 2E4A     		ldr	r2, .L746+16
 3288 0052 CB69     		ldr	r3, [r1, #28]
 3289 0054 334F     		ldr	r7, .L746+40
 3290 0056 43F00113 		orr	r3, r3, #65537
 3291 005a CB61     		str	r3, [r1, #28]
ARM GAS  C:\Users\Jay\AppData\Local\Temp\ccjVRGue.s 			page 57


 3292 005c 3E60     		str	r6, [r7]
 3293 005e 1561     		str	r5, [r2, #16]
 3294 0060 1460     		str	r4, [r2]
 3295 0062 F8BD     		pop	{r3, r4, r5, r6, r7, pc}
 3296              	.L743:
 3297 0064 0129     		cmp	r1, #1
 3298 0066 1546     		mov	r5, r2
 3299 0068 0E46     		mov	r6, r1
 3300 006a 00F07F04 		and	r4, r0, #127
 3301 006e 29D0     		beq	.L724
 3302 0070 0629     		cmp	r1, #6
 3303 0072 27D0     		beq	.L724
 3304 0074 1146     		mov	r1, r2
 3305 0076 2046     		mov	r0, r4
 3306 0078 FFF7FEFF 		bl	set_tx_fifo
 3307 007c 48B3     		cbz	r0, .L713
 3308              	.L717:
 3309 007e 284A     		ldr	r2, .L746+36
 3310 0080 0121     		movs	r1, #1
 3311 0082 022E     		cmp	r6, #2
 3312 0084 4FEA441C 		lsl	ip, r4, #5
 3313 0088 D069     		ldr	r0, [r2, #28]
 3314 008a 01FA04F3 		lsl	r3, r1, r4
 3315 008e 254F     		ldr	r7, .L746+40
 3316 0090 4FEA8454 		lsl	r4, r4, #22
 3317 0094 43EA0003 		orr	r3, r3, r0
 3318 0098 D361     		str	r3, [r2, #28]
 3319 009a 28D0     		beq	.L715
 3320 009c 062E     		cmp	r6, #6
 3321 009e 26D0     		beq	.L715
 3322 00a0 8E42     		cmp	r6, r1
 3323 00a2 1DD0     		beq	.L745
 3324 00a4 204B     		ldr	r3, .L746+44
 3325 00a6 0846     		mov	r0, r1
 3326 00a8 2B43     		orrs	r3, r3, r5
 3327 00aa 1C43     		orrs	r4, r4, r3
 3328 00ac 4CF80740 		str	r4, [ip, r7]
 3329 00b0 F8BD     		pop	{r3, r4, r5, r6, r7, pc}
 3330              	.L722:
 3331 00b2 1E4C     		ldr	r4, .L746+48
 3332 00b4 1E4D     		ldr	r5, .L746+52
 3333 00b6 1F4E     		ldr	r6, .L746+56
 3334 00b8 C8E7     		b	.L708
 3335              	.L744:
 3336 00ba 1F4D     		ldr	r5, .L746+60
 3337 00bc 0846     		mov	r0, r1
 3338 00be 1543     		orrs	r5, r5, r2
 3339 00c0 1D51     		str	r5, [r3, r4]
 3340 00c2 F8BD     		pop	{r3, r4, r5, r6, r7, pc}
 3341              	.L724:
 3342 00c4 6900     		lsls	r1, r5, #1
 3343 00c6 2046     		mov	r0, r4
 3344 00c8 89B2     		uxth	r1, r1
 3345 00ca FFF7FEFF 		bl	set_tx_fifo
 3346 00ce 0028     		cmp	r0, #0
 3347 00d0 D5D1     		bne	.L717
 3348              	.L713:
ARM GAS  C:\Users\Jay\AppData\Local\Temp\ccjVRGue.s 			page 58


 3349 00d2 0020     		movs	r0, #0
 3350 00d4 F8BD     		pop	{r3, r4, r5, r6, r7, pc}
 3351              	.L719:
 3352 00d6 1949     		ldr	r1, .L746+64
 3353 00d8 0120     		movs	r0, #1
 3354 00da 1143     		orrs	r1, r1, r2
 3355 00dc 1951     		str	r1, [r3, r4]
 3356 00de F8BD     		pop	{r3, r4, r5, r6, r7, pc}
 3357              	.L745:
 3358 00e0 154B     		ldr	r3, .L746+60
 3359 00e2 3046     		mov	r0, r6
 3360 00e4 2B43     		orrs	r3, r3, r5
 3361 00e6 1C43     		orrs	r4, r4, r3
 3362 00e8 4CF80740 		str	r4, [ip, r7]
 3363 00ec F8BD     		pop	{r3, r4, r5, r6, r7, pc}
 3364              	.L715:
 3365 00ee 144B     		ldr	r3, .L746+68
 3366 00f0 0120     		movs	r0, #1
 3367 00f2 2B43     		orrs	r3, r3, r5
 3368 00f4 1C43     		orrs	r4, r4, r3
 3369 00f6 4CF80740 		str	r4, [ip, r7]
 3370 00fa F8BD     		pop	{r3, r4, r5, r6, r7, pc}
 3371              	.L747:
 3372              		.align	2
 3373              	.L746:
 3374 00fc 20000820 		.word	537395232
 3375 0100 40000820 		.word	537395264
 3376 0104 01000084 		.word	-2080374783
 3377 0108 01000008 		.word	134217729
 3378 010c 000B0840 		.word	1074268928
 3379 0110 00800C94 		.word	-1811120128
 3380 0114 03000084 		.word	-2080374781
 3381 0118 08000820 		.word	537395208
 3382 011c 03000008 		.word	134217731
 3383 0120 00080840 		.word	1074268160
 3384 0124 00090840 		.word	1074268416
 3385 0128 00800C18 		.word	403472384
 3386 012c 02000084 		.word	-2080374782
 3387 0130 10000820 		.word	537395216
 3388 0134 02000008 		.word	134217730
 3389 0138 00800494 		.word	-1811644416
 3390 013c 00800894 		.word	-1811382272
 3391 0140 00800818 		.word	403210240
 3393              		.section	.text.cdc_control,"ax",%progbits
 3394              		.align	1
 3395              		.p2align 2,,3
 3396              		.syntax unified
 3397              		.thumb
 3398              		.thumb_func
 3399              		.fpu fpv5-sp-d16
 3401              	cdc_control:
 3402              		@ args = 0, pretend = 0, frame = 0
 3403              		@ frame_needed = 0, uses_anonymous_args = 0
 3404              		@ link register save eliminated.
 3405 0000 0B78     		ldrb	r3, [r1]	@ zero_extendqisi2
 3406 0002 03F06303 		and	r3, r3, #99
 3407 0006 212B     		cmp	r3, #33
ARM GAS  C:\Users\Jay\AppData\Local\Temp\ccjVRGue.s 			page 59


 3408 0008 02D0     		beq	.L760
 3409              	.L754:
 3410 000a 0023     		movs	r3, #0
 3411              	.L757:
 3412 000c 1846     		mov	r0, r3
 3413 000e 7047     		bx	lr
 3414              	.L760:
 3415 0010 8B88     		ldrh	r3, [r1, #4]
 3416 0012 002B     		cmp	r3, #0
 3417 0014 F9D1     		bne	.L754
 3418 0016 4A78     		ldrb	r2, [r1, #1]	@ zero_extendqisi2
 3419 0018 212A     		cmp	r2, #33
 3420 001a 12D0     		beq	.L751
 3421 001c 222A     		cmp	r2, #34
 3422 001e 17D0     		beq	.L755
 3423 0020 202A     		cmp	r2, #32
 3424 0022 F3D1     		bne	.L757
 3425 0024 0B4A     		ldr	r2, .L761
 3426 0026 0123     		movs	r3, #1
 3427 0028 10B4     		push	{r4}
 3428 002a 1068     		ldr	r0, [r2]
 3429 002c 01F10804 		add	r4, r1, #8
 3430 0030 8860     		str	r0, [r1, #8]	@ unaligned
 3431 0032 1846     		mov	r0, r3
 3432 0034 9188     		ldrh	r1, [r2, #4]	@ unaligned
 3433 0036 9279     		ldrb	r2, [r2, #6]	@ zero_extendqisi2
 3434 0038 A180     		strh	r1, [r4, #4]	@ unaligned
 3435 003a A271     		strb	r2, [r4, #6]
 3436 003c 5DF8044B 		ldr	r4, [sp], #4
 3437 0040 7047     		bx	lr
 3438              	.L751:
 3439 0042 0449     		ldr	r1, .L761
 3440 0044 0722     		movs	r2, #7
 3441 0046 0123     		movs	r3, #1
 3442 0048 8165     		str	r1, [r0, #88]
 3443 004a A0F85C20 		strh	r2, [r0, #92]	@ movhi
 3444 004e DDE7     		b	.L757
 3445              	.L755:
 3446 0050 0123     		movs	r3, #1
 3447 0052 DBE7     		b	.L757
 3448              	.L762:
 3449              		.align	2
 3450              	.L761:
 3451 0054 00000000 		.word	.LANCHOR15
 3453              		.section	.text.cdc_setconf,"ax",%progbits
 3454              		.align	1
 3455              		.p2align 2,,3
 3456              		.syntax unified
 3457              		.thumb
 3458              		.thumb_func
 3459              		.fpu fpv5-sp-d16
 3461              	cdc_setconf:
 3462              		@ args = 0, pretend = 0, frame = 0
 3463              		@ frame_needed = 0, uses_anonymous_args = 0
 3464 0000 38B5     		push	{r3, r4, r5, lr}
 3465 0002 0546     		mov	r5, r0
 3466 0004 0C46     		mov	r4, r1
ARM GAS  C:\Users\Jay\AppData\Local\Temp\ccjVRGue.s 			page 60


 3467 0006 F9B1     		cbz	r1, .L765
 3468 0008 0129     		cmp	r1, #1
 3469 000a 1BD1     		bne	.L770
 3470 000c 0368     		ldr	r3, [r0]
 3471 000e 4022     		movs	r2, #64
 3472 0010 0221     		movs	r1, #2
 3473 0012 2046     		mov	r0, r4
 3474 0014 1B69     		ldr	r3, [r3, #16]
 3475 0016 9847     		blx	r3
 3476 0018 2B68     		ldr	r3, [r5]
 3477 001a 4022     		movs	r2, #64
 3478 001c 0221     		movs	r1, #2
 3479 001e 1B69     		ldr	r3, [r3, #16]
 3480 0020 8120     		movs	r0, #129
 3481 0022 9847     		blx	r3
 3482 0024 2B68     		ldr	r3, [r5]
 3483 0026 0822     		movs	r2, #8
 3484 0028 0321     		movs	r1, #3
 3485 002a 1B69     		ldr	r3, [r3, #16]
 3486 002c 8220     		movs	r0, #130
 3487 002e 9847     		blx	r3
 3488 0030 2B68     		ldr	r3, [r5]
 3489 0032 0022     		movs	r2, #0
 3490 0034 0C49     		ldr	r1, .L771
 3491 0036 DB69     		ldr	r3, [r3, #28]
 3492 0038 8120     		movs	r0, #129
 3493 003a A963     		str	r1, [r5, #56]
 3494 003c 1146     		mov	r1, r2
 3495 003e 9847     		blx	r3
 3496 0040 2046     		mov	r0, r4
 3497 0042 38BD     		pop	{r3, r4, r5, pc}
 3498              	.L770:
 3499 0044 0020     		movs	r0, #0
 3500 0046 38BD     		pop	{r3, r4, r5, pc}
 3501              	.L765:
 3502 0048 0368     		ldr	r3, [r0]
 3503 004a 8220     		movs	r0, #130
 3504 004c 5B69     		ldr	r3, [r3, #20]
 3505 004e 9847     		blx	r3
 3506 0050 2B68     		ldr	r3, [r5]
 3507 0052 8120     		movs	r0, #129
 3508 0054 5B69     		ldr	r3, [r3, #20]
 3509 0056 9847     		blx	r3
 3510 0058 2B68     		ldr	r3, [r5]
 3511 005a 0120     		movs	r0, #1
 3512 005c 5B69     		ldr	r3, [r3, #20]
 3513 005e 9847     		blx	r3
 3514 0060 AC63     		str	r4, [r5, #56]
 3515 0062 0120     		movs	r0, #1
 3516 0064 38BD     		pop	{r3, r4, r5, pc}
 3517              	.L772:
 3518 0066 00BF     		.align	2
 3519              	.L771:
 3520 0068 00000000 		.word	cdc_rx_tx
 3522              		.section	.text.c64_interface.part.23,"ax",%progbits
 3523              		.align	1
 3524              		.p2align 2,,3
ARM GAS  C:\Users\Jay\AppData\Local\Temp\ccjVRGue.s 			page 61


 3525              		.syntax unified
 3526              		.thumb
 3527              		.thumb_func
 3528              		.fpu fpv5-sp-d16
 3530              	c64_interface.part.23:
 3531              		@ args = 0, pretend = 0, frame = 0
 3532              		@ frame_needed = 0, uses_anonymous_args = 0
 3533 0000 0021     		movs	r1, #0
 3534 0002 47F2305C 		movw	ip, #30000
 3535 0006 174A     		ldr	r2, .L784
 3536 0008 0846     		mov	r0, r1
 3537 000a F0B5     		push	{r4, r5, r6, r7, lr}
 3538 000c 164C     		ldr	r4, .L784+4
 3539 000e 0E46     		mov	r6, r1
 3540 0010 164F     		ldr	r7, .L784+8
 3541 0012 4FF4800E 		mov	lr, #4194304
 3542 0016 1525     		movs	r5, #21
 3543              	.L779:
 3544 0018 636B     		ldr	r3, [r4, #52]
 3545 001a A72B     		cmp	r3, #167
 3546 001c 16D9     		bls	.L774
 3547 001e 636B     		ldr	r3, [r4, #52]
 3548 0020 A92B     		cmp	r3, #169
 3549 0022 13D8     		bhi	.L774
 3550 0024 0131     		adds	r1, r1, #1
 3551 0026 C7F818E0 		str	lr, [r7, #24]
 3552 002a C9B2     		uxtb	r1, r1
 3553              	.L777:
 3554 002c 5560     		str	r5, [r2, #4]
 3555 002e 9660     		str	r6, [r2, #8]
 3556              	.L778:
 3557 0030 1368     		ldr	r3, [r2]
 3558 0032 DB03     		lsls	r3, r3, #15
 3559 0034 FCD5     		bpl	.L778
 3560 0036 0329     		cmp	r1, #3
 3561 0038 EED1     		bne	.L779
 3562 003a 0B4B     		ldr	r3, .L784+4
 3563 003c 6FF00802 		mvn	r2, #8
 3564 0040 1A61     		str	r2, [r3, #16]
 3565 0042 DA68     		ldr	r2, [r3, #12]
 3566 0044 42F00802 		orr	r2, r2, #8
 3567 0048 DA60     		str	r2, [r3, #12]
 3568 004a F0BD     		pop	{r4, r5, r6, r7, pc}
 3569              	.L774:
 3570 004c 6045     		cmp	r0, ip
 3571 004e 02D8     		bhi	.L776
 3572 0050 0130     		adds	r0, r0, #1
 3573 0052 0021     		movs	r1, #0
 3574 0054 EAE7     		b	.L777
 3575              	.L776:
 3576 0056 7B69     		ldr	r3, [r7, #20]
 3577 0058 0020     		movs	r0, #0
 3578 005a 83F04003 		eor	r3, r3, #64
 3579 005e 0146     		mov	r1, r0
 3580 0060 7B61     		str	r3, [r7, #20]
 3581 0062 E3E7     		b	.L777
 3582              	.L785:
ARM GAS  C:\Users\Jay\AppData\Local\Temp\ccjVRGue.s 			page 62


 3583              		.align	2
 3584              	.L784:
 3585 0064 10E000E0 		.word	-536813552
 3586 0068 00000140 		.word	1073807360
 3587 006c 00100258 		.word	1476530176
 3589              		.section	.text.c64_reset.part.24,"ax",%progbits
 3590              		.align	1
 3591              		.p2align 2,,3
 3592              		.syntax unified
 3593              		.thumb
 3594              		.thumb_func
 3595              		.fpu fpv5-sp-d16
 3597              	c64_reset.part.24:
 3598              		@ args = 0, pretend = 0, frame = 0
 3599              		@ frame_needed = 0, uses_anonymous_args = 0
 3600              		@ link register save eliminated.
 3601 0000 074B     		ldr	r3, .L791
 3602 0002 41F26800 		movw	r0, #4200
 3603 0006 0021     		movs	r1, #0
 3604 0008 1A46     		mov	r2, r3
 3605 000a 30B4     		push	{r4, r5}
 3606 000c 2025     		movs	r5, #32
 3607 000e 054C     		ldr	r4, .L791+4
 3608 0010 A561     		str	r5, [r4, #24]
 3609 0012 5860     		str	r0, [r3, #4]
 3610 0014 9960     		str	r1, [r3, #8]
 3611              	.L787:
 3612 0016 1368     		ldr	r3, [r2]
 3613 0018 DB03     		lsls	r3, r3, #15
 3614 001a FCD5     		bpl	.L787
 3615 001c 30BC     		pop	{r4, r5}
 3616 001e 7047     		bx	lr
 3617              	.L792:
 3618              		.align	2
 3619              	.L791:
 3620 0020 10E000E0 		.word	-536813552
 3621 0024 00100258 		.word	1476530176
 3623              		.section	.text.system_restart,"ax",%progbits
 3624              		.align	1
 3625              		.p2align 2,,3
 3626              		.syntax unified
 3627              		.thumb
 3628              		.thumb_func
 3629              		.fpu fpv5-sp-d16
 3631              	system_restart:
 3632              		@ Volatile: function does not return.
 3633              		@ args = 0, pretend = 0, frame = 0
 3634              		@ frame_needed = 0, uses_anonymous_args = 0
 3635 0000 0022     		movs	r2, #0
 3636 0002 0F49     		ldr	r1, .L796
 3637 0004 08B5     		push	{r3, lr}
 3638 0006 1046     		mov	r0, r2
 3639 0008 FFF7FEFF 		bl	f_mount
 3640 000c 0D4B     		ldr	r3, .L796+4
 3641 000e 4020     		movs	r0, #64
 3642 0010 0D4A     		ldr	r2, .L796+8
 3643 0012 6FF00801 		mvn	r1, #8
ARM GAS  C:\Users\Jay\AppData\Local\Temp\ccjVRGue.s 			page 63


 3644 0016 9061     		str	r0, [r2, #24]
 3645 0018 DA68     		ldr	r2, [r3, #12]
 3646 001a 0A40     		ands	r2, r2, r1
 3647 001c DA60     		str	r2, [r3, #12]
 3648 001e 1961     		str	r1, [r3, #16]
 3649 0020 FFF7FEFF 		bl	c64_reset.part.24
 3650              		.syntax unified
 3651              	@ 878 "stm32h7xx/cmsis/cmsis_gcc.h" 1
 3652 0024 BFF34F8F 		dsb 0xF
 3653              	@ 0 "" 2
 3654              		.thumb
 3655              		.syntax unified
 3656 0028 0849     		ldr	r1, .L796+12
 3657 002a 094B     		ldr	r3, .L796+16
 3658 002c CA68     		ldr	r2, [r1, #12]
 3659 002e 02F4E062 		and	r2, r2, #1792
 3660 0032 1343     		orrs	r3, r3, r2
 3661 0034 CB60     		str	r3, [r1, #12]
 3662              		.syntax unified
 3663              	@ 878 "stm32h7xx/cmsis/cmsis_gcc.h" 1
 3664 0036 BFF34F8F 		dsb 0xF
 3665              	@ 0 "" 2
 3666              		.thumb
 3667              		.syntax unified
 3668              	.L794:
 3669              		.syntax unified
 3670              	@ 2158 "stm32h7xx/cmsis/core_cm7.h" 1
 3671 003a 00BF     		nop
 3672              	@ 0 "" 2
 3673              		.thumb
 3674              		.syntax unified
 3675 003c FDE7     		b	.L794
 3676              	.L797:
 3677 003e 00BF     		.align	2
 3678              	.L796:
 3679 0040 00000000 		.word	.LC14
 3680 0044 00000140 		.word	1073807360
 3681 0048 00100258 		.word	1476530176
 3682 004c 00ED00E0 		.word	-536810240
 3683 0050 0400FA05 		.word	100270084
 3685              		.section	.text.restart_to_menu,"ax",%progbits
 3686              		.align	1
 3687              		.p2align 2,,3
 3688              		.syntax unified
 3689              		.thumb
 3690              		.thumb_func
 3691              		.fpu fpv5-sp-d16
 3693              	restart_to_menu:
 3694              		@ Volatile: function does not return.
 3695              		@ args = 0, pretend = 0, frame = 0
 3696              		@ frame_needed = 0, uses_anonymous_args = 0
 3697 0000 034A     		ldr	r2, .L800
 3698 0002 08B5     		push	{r3, lr}
 3699 0004 07CA     		ldm	r2, {r0, r1, r2}
 3700 0006 034B     		ldr	r3, .L800+4
 3701 0008 83E80700 		stm	r3, {r0, r1, r2}
 3702 000c FFF7FEFF 		bl	system_restart
ARM GAS  C:\Users\Jay\AppData\Local\Temp\ccjVRGue.s 			page 64


 3703              	.L801:
 3704              		.align	2
 3705              	.L800:
 3706 0010 20000000 		.word	.LC13
 3707 0014 00000100 		.word	scratch_buf
 3709              		.section	.text.simons_basic_handler.part.37,"ax",%progbits
 3710              		.align	1
 3711              		.p2align 2,,3
 3712              		.syntax unified
 3713              		.thumb
 3714              		.thumb_func
 3715              		.fpu fpv5-sp-d16
 3717              	simons_basic_handler.part.37:
 3718              		@ args = 0, pretend = 0, frame = 0
 3719              		@ frame_needed = 0, uses_anonymous_args = 0
 3720              		@ link register save eliminated.
 3721 0000 0B4A     		ldr	r2, .L807
 3722 0002 10B4     		push	{r4}
 3723              	.L803:
 3724 0004 1369     		ldr	r3, [r2, #16]
 3725 0006 DB06     		lsls	r3, r3, #27
 3726 0008 FCD5     		bpl	.L803
 3727 000a 0A4C     		ldr	r4, .L807+4
 3728 000c 0A48     		ldr	r0, .L807+8
 3729 000e 2268     		ldr	r2, [r4]
 3730 0010 0A4B     		ldr	r3, .L807+12
 3731 0012 22F00F02 		bic	r2, r2, #15
 3732 0016 0A49     		ldr	r1, .L807+16
 3733 0018 2260     		str	r2, [r4]
 3734 001a 0268     		ldr	r2, [r0]
 3735 001c 5DF8044B 		ldr	r4, [sp], #4
 3736 0020 1340     		ands	r3, r3, r2
 3737 0022 0360     		str	r3, [r0]
 3738 0024 0B68     		ldr	r3, [r1]
 3739 0026 23F44063 		bic	r3, r3, #3072
 3740 002a 0B60     		str	r3, [r1]
 3741 002c 7047     		bx	lr
 3742              	.L808:
 3743 002e 00BF     		.align	2
 3744              	.L807:
 3745 0030 00000140 		.word	1073807360
 3746 0034 00100258 		.word	1476530176
 3747 0038 00040258 		.word	1476527104
 3748 003c FF03F0FF 		.word	-1047553
 3749 0040 000C0258 		.word	1476529152
 3751              		.thumb_set ef_launcher_handler.part.51,simons_basic_handler.part.37
 3752              		.thumb_set zaxxon_handler.part.44,simons_basic_handler.part.37
 3753              		.thumb_set dinamic_handler.part.42,simons_basic_handler.part.37
 3754              		.thumb_set c64gs_handler.part.40,simons_basic_handler.part.37
 3755              		.thumb_set epyx_handler.part.38,simons_basic_handler.part.37
 3756              		.section	.text.to_petscii_pad,"ax",%progbits
 3757              		.align	1
 3758              		.p2align 2,,3
 3759              		.syntax unified
 3760              		.thumb
 3761              		.thumb_func
 3762              		.fpu fpv5-sp-d16
ARM GAS  C:\Users\Jay\AppData\Local\Temp\ccjVRGue.s 			page 65


 3764              	to_petscii_pad:
 3765              		@ args = 0, pretend = 0, frame = 0
 3766              		@ frame_needed = 0, uses_anonymous_args = 0
 3767              		@ link register save eliminated.
 3768 0000 013A     		subs	r2, r2, #1
 3769 0002 70B4     		push	{r4, r5, r6}
 3770 0004 D4B2     		uxtb	r4, r2
 3771 0006 2026     		movs	r6, #32
 3772 0008 0134     		adds	r4, r4, #1
 3773 000a 0444     		add	r4, r4, r0
 3774 000c 0DE0     		b	.L815
 3775              	.L820:
 3776 000e A3F16102 		sub	r2, r3, #97
 3777 0012 192D     		cmp	r5, #25
 3778 0014 01F10101 		add	r1, r1, #1
 3779 0018 03F12005 		add	r5, r3, #32
 3780 001c D2B2     		uxtb	r2, r2
 3781 001e 11D8     		bhi	.L811
 3782 0020 EBB2     		uxtb	r3, r5
 3783              	.L812:
 3784 0022 8442     		cmp	r4, r0
 3785 0024 00F8013C 		strb	r3, [r0, #-1]
 3786 0028 09D0     		beq	.L819
 3787              	.L815:
 3788 002a 0B78     		ldrb	r3, [r1]	@ zero_extendqisi2
 3789 002c 0130     		adds	r0, r0, #1
 3790 002e A3F14105 		sub	r5, r3, #65
 3791 0032 002B     		cmp	r3, #0
 3792 0034 EBD1     		bne	.L820
 3793 0036 8442     		cmp	r4, r0
 3794 0038 00F8016C 		strb	r6, [r0, #-1]
 3795 003c F5D1     		bne	.L815
 3796              	.L819:
 3797 003e 0846     		mov	r0, r1
 3798 0040 70BC     		pop	{r4, r5, r6}
 3799 0042 7047     		bx	lr
 3800              	.L811:
 3801 0044 192A     		cmp	r2, #25
 3802 0046 A3F12002 		sub	r2, r3, #32
 3803 004a 03D9     		bls	.L821
 3804 004c 5F2B     		cmp	r3, #95
 3805 004e 08BF     		it	eq
 3806 0050 A423     		moveq	r3, #164
 3807 0052 E6E7     		b	.L812
 3808              	.L821:
 3809 0054 D3B2     		uxtb	r3, r2
 3810 0056 E4E7     		b	.L812
 3812              		.section	.text.options_add_text_element,"ax",%progbits
 3813              		.align	1
 3814              		.p2align 2,,3
 3815              		.syntax unified
 3816              		.thumb
 3817              		.thumb_func
 3818              		.fpu fpv5-sp-d16
 3820              	options_add_text_element:
 3821              		@ args = 0, pretend = 0, frame = 0
 3822              		@ frame_needed = 0, uses_anonymous_args = 0
ARM GAS  C:\Users\Jay\AppData\Local\Temp\ccjVRGue.s 			page 66


 3823 0000 F8B5     		push	{r3, r4, r5, r6, r7, lr}
 3824 0002 457F     		ldrb	r5, [r0, #29]	@ zero_extendqisi2
 3825 0004 162D     		cmp	r5, #22
 3826 0006 1CD0     		beq	.L823
 3827 0008 05EB4503 		add	r3, r5, r5, lsl #1
 3828 000c 6E1C     		adds	r6, r5, #1
 3829 000e 134F     		ldr	r7, .L830
 3830 0010 1B01     		lsls	r3, r3, #4
 3831 0012 F6B2     		uxtb	r6, r6
 3832 0014 DC19     		adds	r4, r3, r7
 3833 0016 F1B1     		cbz	r1, .L825
 3834              	.L829:
 3835 0018 4FF0200C 		mov	ip, #32
 3836 001c 03F807C0 		strb	ip, [r3, r7]
 3837 0020 037F     		ldrb	r3, [r0, #28]	@ zero_extendqisi2
 3838 0022 162B     		cmp	r3, #22
 3839 0024 0BD0     		beq	.L828
 3840              	.L826:
 3841 0026 A162     		str	r1, [r4, #40]
 3842 0028 1146     		mov	r1, r2
 3843 002a 4677     		strb	r6, [r0, #29]
 3844 002c 2422     		movs	r2, #36
 3845 002e 601C     		adds	r0, r4, #1
 3846 0030 FFF7FEFF 		bl	to_petscii_pad
 3847 0034 2023     		movs	r3, #32
 3848 0036 2046     		mov	r0, r4
 3849 0038 84F82530 		strb	r3, [r4, #37]
 3850 003c F8BD     		pop	{r3, r4, r5, r6, r7, pc}
 3851              	.L828:
 3852 003e 0577     		strb	r5, [r0, #28]
 3853 0040 F1E7     		b	.L826
 3854              	.L823:
 3855 0042 1524     		movs	r4, #21
 3856 0044 4FF47C73 		mov	r3, #1008
 3857 0048 044F     		ldr	r7, .L830
 3858 004a 2E46     		mov	r6, r5
 3859 004c 4477     		strb	r4, [r0, #29]
 3860 004e 2546     		mov	r5, r4
 3861 0050 DC19     		adds	r4, r3, r7
 3862 0052 0029     		cmp	r1, #0
 3863 0054 E0D1     		bne	.L829
 3864              	.L825:
 3865 0056 E025     		movs	r5, #224
 3866 0058 DD55     		strb	r5, [r3, r7]
 3867 005a E4E7     		b	.L826
 3868              	.L831:
 3869              		.align	2
 3870              	.L830:
 3871 005c 00200100 		.word	scratch_buf+8192
 3873              		.section	.text.options_add_text_block,"ax",%progbits
 3874              		.align	1
 3875              		.p2align 2,,3
 3876              		.syntax unified
 3877              		.thumb
 3878              		.thumb_func
 3879              		.fpu fpv5-sp-d16
 3881              	options_add_text_block:
ARM GAS  C:\Users\Jay\AppData\Local\Temp\ccjVRGue.s 			page 67


 3882              		@ args = 0, pretend = 0, frame = 0
 3883              		@ frame_needed = 0, uses_anonymous_args = 0
 3884 0000 2DE9F843 		push	{r3, r4, r5, r6, r7, r8, r9, lr}
 3885 0004 0646     		mov	r6, r0
 3886 0006 DFF85490 		ldr	r9, .L840+4
 3887 000a 4FF0E008 		mov	r8, #224
 3888 000e 0027     		movs	r7, #0
 3889 0010 11E0     		b	.L834
 3890              	.L839:
 3891 0012 2401     		lsls	r4, r4, #4
 3892 0014 D3B2     		uxtb	r3, r2
 3893              	.L833:
 3894 0016 09EB0405 		add	r5, r9, r4
 3895 001a 09F80480 		strb	r8, [r9, r4]
 3896 001e 2422     		movs	r2, #36
 3897 0020 AF62     		str	r7, [r5, #40]
 3898 0022 681C     		adds	r0, r5, #1
 3899 0024 7377     		strb	r3, [r6, #29]
 3900 0026 FFF7FEFF 		bl	to_petscii_pad
 3901 002a 2023     		movs	r3, #32
 3902 002c 0146     		mov	r1, r0
 3903 002e 85F82530 		strb	r3, [r5, #37]
 3904 0032 0378     		ldrb	r3, [r0]	@ zero_extendqisi2
 3905 0034 4BB1     		cbz	r3, .L838
 3906              	.L834:
 3907 0036 737F     		ldrb	r3, [r6, #29]	@ zero_extendqisi2
 3908 0038 162B     		cmp	r3, #22
 3909 003a 03EB4304 		add	r4, r3, r3, lsl #1
 3910 003e 03F10102 		add	r2, r3, #1
 3911 0042 E6D1     		bne	.L839
 3912 0044 4FF47C74 		mov	r4, #1008
 3913 0048 E5E7     		b	.L833
 3914              	.L838:
 3915 004a 1946     		mov	r1, r3
 3916 004c 3046     		mov	r0, r6
 3917 004e 024A     		ldr	r2, .L840
 3918 0050 BDE8F843 		pop	{r3, r4, r5, r6, r7, r8, r9, lr}
 3919 0054 FFF7FEBF 		b	options_add_text_element
 3920              	.L841:
 3921              		.align	2
 3922              	.L840:
 3923 0058 00000000 		.word	.LC14
 3924 005c 00200100 		.word	scratch_buf+8192
 3926              		.section	.text.build_options,"ax",%progbits
 3927              		.align	1
 3928              		.p2align 2,,3
 3929              		.syntax unified
 3930              		.thumb
 3931              		.thumb_func
 3932              		.fpu fpv5-sp-d16
 3934              	build_options:
 3935              		@ args = 0, pretend = 0, frame = 0
 3936              		@ frame_needed = 0, uses_anonymous_args = 0
 3937 0000 38B5     		push	{r3, r4, r5, lr}
 3938 0002 104B     		ldr	r3, .L847
 3939 0004 0C46     		mov	r4, r1
 3940 0006 1A68     		ldr	r2, [r3]
ARM GAS  C:\Users\Jay\AppData\Local\Temp\ccjVRGue.s 			page 68


 3941 0008 92B1     		cbz	r2, .L846
 3942              	.L843:
 3943 000a 0F4A     		ldr	r2, .L847+4
 3944 000c 1625     		movs	r5, #22
 3945 000e 9861     		str	r0, [r3, #24]
 3946 0010 0021     		movs	r1, #0
 3947 0012 1268     		ldr	r2, [r2]
 3948 0014 9D83     		strh	r5, [r3, #28]	@ movhi
 3949 0016 9A42     		cmp	r2, r3
 3950 0018 0A48     		ldr	r0, .L847
 3951 001a 18BF     		it	ne
 3952 001c 5A61     		strne	r2, [r3, #20]
 3953 001e 0B4A     		ldr	r2, .L847+8
 3954 0020 FFF7FEFF 		bl	options_add_text_element
 3955 0024 2146     		mov	r1, r4
 3956 0026 0748     		ldr	r0, .L847
 3957 0028 FFF7FEFF 		bl	options_add_text_block
 3958 002c 0548     		ldr	r0, .L847
 3959 002e 38BD     		pop	{r3, r4, r5, pc}
 3960              	.L846:
 3961 0030 0749     		ldr	r1, .L847+12
 3962 0032 084A     		ldr	r2, .L847+16
 3963 0034 084D     		ldr	r5, .L847+20
 3964 0036 1960     		str	r1, [r3]
 3965 0038 0849     		ldr	r1, .L847+24
 3966 003a C3E90152 		strd	r5, r2, [r3, #4]
 3967 003e C3E90321 		strd	r2, r1, [r3, #12]
 3968 0042 E2E7     		b	.L843
 3969              	.L848:
 3970              		.align	2
 3971              	.L847:
 3972 0044 00000000 		.word	.LANCHOR16
 3973 0048 00000000 		.word	.LANCHOR13
 3974 004c 00000000 		.word	.LC14
 3975 0050 00000000 		.word	options_dir
 3976 0054 00000000 		.word	options_prev_next_page
 3977 0058 00000000 		.word	options_dir_up
 3978 005c 00000000 		.word	options_select
 3980              		.section	.text.handle_file_options,"ax",%progbits
 3981              		.align	1
 3982              		.p2align 2,,3
 3983              		.syntax unified
 3984              		.thumb
 3985              		.thumb_func
 3986              		.fpu fpv5-sp-d16
 3988              	handle_file_options:
 3989              		@ args = 0, pretend = 0, frame = 0
 3990              		@ frame_needed = 0, uses_anonymous_args = 0
 3991 0000 0B46     		mov	r3, r1
 3992 0002 0146     		mov	r1, r0
 3993 0004 052B     		cmp	r3, #5
 3994 0006 2DE9F041 		push	{r4, r5, r6, r7, r8, lr}
 3995 000a 1546     		mov	r5, r2
 3996 000c 2BD8     		bhi	.L850
 3997 000e 1D4C     		ldr	r4, .L856
 3998 0010 1D48     		ldr	r0, .L856+4
 3999 0012 54F82370 		ldr	r7, [r4, r3, lsl #2]
ARM GAS  C:\Users\Jay\AppData\Local\Temp\ccjVRGue.s 			page 69


 4000 0016 1D4A     		ldr	r2, .L856+8
 4001 0018 50F82300 		ldr	r0, [r0, r3, lsl #2]
 4002 001c 52F82360 		ldr	r6, [r2, r3, lsl #2]
 4003 0020 FFF7FEFF 		bl	build_options
 4004 0024 3A46     		mov	r2, r7
 4005 0026 1A49     		ldr	r1, .L856+12
 4006 0028 0446     		mov	r4, r0
 4007 002a FFF7FEFF 		bl	options_add_text_element
 4008 002e 0023     		movs	r3, #0
 4009 0030 80F82D50 		strb	r5, [r0, #45]
 4010 0034 80F82C30 		strb	r3, [r0, #44]
 4011 0038 4EB1     		cbz	r6, .L851
 4012 003a 3246     		mov	r2, r6
 4013 003c 1449     		ldr	r1, .L856+12
 4014 003e 2046     		mov	r0, r4
 4015 0040 FFF7FEFF 		bl	options_add_text_element
 4016 0044 0223     		movs	r3, #2
 4017 0046 80F82D50 		strb	r5, [r0, #45]
 4018 004a 80F82C30 		strb	r3, [r0, #44]
 4019              	.L851:
 4020 004e 114A     		ldr	r2, .L856+16
 4021 0050 2046     		mov	r0, r4
 4022 0052 1149     		ldr	r1, .L856+20
 4023 0054 FFF7FEFF 		bl	options_add_text_element
 4024 0058 104A     		ldr	r2, .L856+24
 4025 005a 2368     		ldr	r3, [r4]
 4026 005c 2046     		mov	r0, r4
 4027 005e 1460     		str	r4, [r2]
 4028 0060 BDE8F041 		pop	{r4, r5, r6, r7, r8, lr}
 4029 0064 1847     		bx	r3	@ indirect register sibling call
 4030              	.L850:
 4031 0066 0E48     		ldr	r0, .L856+28
 4032 0068 FFF7FEFF 		bl	build_options
 4033 006c 0D4A     		ldr	r2, .L856+32
 4034 006e 0849     		ldr	r1, .L856+12
 4035 0070 0446     		mov	r4, r0
 4036 0072 FFF7FEFF 		bl	options_add_text_element
 4037 0076 0023     		movs	r3, #0
 4038 0078 80F82D50 		strb	r5, [r0, #45]
 4039 007c 80F82C30 		strb	r3, [r0, #44]
 4040 0080 E5E7     		b	.L851
 4041              	.L857:
 4042 0082 00BF     		.align	2
 4043              	.L856:
 4044 0084 00000000 		.word	.LANCHOR17
 4045 0088 00000000 		.word	.LANCHOR19
 4046 008c 00000000 		.word	.LANCHOR18
 4047 0090 00000000 		.word	options_prev_select
 4048 0094 00000000 		.word	.LC15
 4049 0098 00000000 		.word	options_prev_dir
 4050 009c 00000000 		.word	.LANCHOR13
 4051 00a0 08000000 		.word	.LC16
 4052 00a4 18000000 		.word	.LC17
 4054              		.section	.text.handle_unsupported_ex,"ax",%progbits
 4055              		.align	1
 4056              		.p2align 2,,3
 4057              		.syntax unified
ARM GAS  C:\Users\Jay\AppData\Local\Temp\ccjVRGue.s 			page 70


 4058              		.thumb
 4059              		.thumb_func
 4060              		.fpu fpv5-sp-d16
 4062              	handle_unsupported_ex:
 4063              		@ args = 0, pretend = 0, frame = 0
 4064              		@ frame_needed = 0, uses_anonymous_args = 0
 4065 0000 70B5     		push	{r4, r5, r6, lr}
 4066 0002 1546     		mov	r5, r2
 4067 0004 FFF7FEFF 		bl	build_options
 4068 0008 0446     		mov	r4, r0
 4069 000a 2946     		mov	r1, r5
 4070 000c FFF7FEFF 		bl	options_add_text_block
 4071 0010 2046     		mov	r0, r4
 4072 0012 054A     		ldr	r2, .L860
 4073 0014 0549     		ldr	r1, .L860+4
 4074 0016 FFF7FEFF 		bl	options_add_text_element
 4075 001a 054A     		ldr	r2, .L860+8
 4076 001c 2368     		ldr	r3, [r4]
 4077 001e 2046     		mov	r0, r4
 4078 0020 1460     		str	r4, [r2]
 4079 0022 BDE87040 		pop	{r4, r5, r6, lr}
 4080 0026 1847     		bx	r3	@ indirect register sibling call
 4081              	.L861:
 4082              		.align	2
 4083              	.L860:
 4084 0028 00000000 		.word	.LC18
 4085 002c 00000000 		.word	options_prev_dir
 4086 0030 00000000 		.word	.LANCHOR13
 4088              		.section	.text.options_dir,"ax",%progbits
 4089              		.align	1
 4090              		.p2align 2,,3
 4091              		.syntax unified
 4092              		.thumb
 4093              		.thumb_func
 4094              		.fpu fpv5-sp-d16
 4096              	options_dir:
 4097              		@ args = 0, pretend = 0, frame = 0
 4098              		@ frame_needed = 0, uses_anonymous_args = 0
 4099 0000 2DE9F843 		push	{r3, r4, r5, r6, r7, r8, r9, lr}
 4100 0004 0646     		mov	r6, r0
 4101 0006 2C4C     		ldr	r4, .L886
 4102              	.L863:
 4103 0008 2378     		ldrb	r3, [r4]	@ zero_extendqisi2
 4104 000a 002B     		cmp	r3, #0
 4105 000c FCD1     		bne	.L863
 4106 000e 0123     		movs	r3, #1
 4107 0010 2A4D     		ldr	r5, .L886+4
 4108 0012 8027     		movs	r7, #128
 4109 0014 B169     		ldr	r1, [r6, #24]
 4110 0016 2222     		movs	r2, #34
 4111 0018 2948     		ldr	r0, .L886+8
 4112 001a 2B70     		strb	r3, [r5]
 4113 001c 2770     		strb	r7, [r4]
 4114 001e FFF7FEFF 		bl	to_petscii_pad
 4115 0022 DFF89CC0 		ldr	ip, .L886+8
 4116 0026 6146     		mov	r1, ip
 4117 0028 0CF1220E 		add	lr, ip, #34
ARM GAS  C:\Users\Jay\AppData\Local\Temp\ccjVRGue.s 			page 71


 4118              	.L865:
 4119 002c 11F8010B 		ldrb	r0, [r1], #1	@ zero_extendqisi2
 4120              	.L864:
 4121 0030 2378     		ldrb	r3, [r4]	@ zero_extendqisi2
 4122 0032 03F0FF02 		and	r2, r3, #255
 4123 0036 002B     		cmp	r3, #0
 4124 0038 FAD1     		bne	.L864
 4125 003a 7145     		cmp	r1, lr
 4126 003c 2870     		strb	r0, [r5]
 4127 003e 2770     		strb	r7, [r4]
 4128 0040 F4D1     		bne	.L865
 4129 0042 96F81DE0 		ldrb	lr, [r6, #29]	@ zero_extendqisi2
 4130 0046 BEF1000F 		cmp	lr, #0
 4131 004a 1CD0     		beq	.L866
 4132 004c 96F81C80 		ldrb	r8, [r6, #28]	@ zero_extendqisi2
 4133 0050 1046     		mov	r0, r2
 4134 0052 1C4E     		ldr	r6, .L886+12
 4135 0054 4FF0A009 		mov	r9, #160
 4136 0058 1346     		mov	r3, r2
 4137 005a 8027     		movs	r7, #128
 4138              	.L872:
 4139 005c 9845     		cmp	r8, r3
 4140 005e 24D0     		beq	.L867
 4141 0060 16F8251C 		ldrb	r1, [r6, #-37]	@ zero_extendqisi2
 4142              	.L868:
 4143 0064 A6F12502 		sub	r2, r6, #37
 4144              	.L869:
 4145 0068 2378     		ldrb	r3, [r4]	@ zero_extendqisi2
 4146 006a 002B     		cmp	r3, #0
 4147 006c FCD1     		bne	.L869
 4148 006e 9642     		cmp	r6, r2
 4149 0070 2970     		strb	r1, [r5]
 4150 0072 2770     		strb	r7, [r4]
 4151 0074 02D0     		beq	.L870
 4152 0076 12F8011F 		ldrb	r1, [r2, #1]!	@ zero_extendqisi2
 4153 007a F5E7     		b	.L869
 4154              	.L870:
 4155 007c 0130     		adds	r0, r0, #1
 4156 007e 3036     		adds	r6, r6, #48
 4157 0080 C3B2     		uxtb	r3, r0
 4158 0082 9E45     		cmp	lr, r3
 4159 0084 EAD8     		bhi	.L872
 4160              	.L866:
 4161 0086 0023     		movs	r3, #0
 4162 0088 0D4A     		ldr	r2, .L886+8
 4163 008a 8026     		movs	r6, #128
 4164 008c 1946     		mov	r1, r3
 4165 008e 02F12500 		add	r0, r2, #37
 4166 0092 8CF80030 		strb	r3, [ip]
 4167              	.L873:
 4168 0096 2378     		ldrb	r3, [r4]	@ zero_extendqisi2
 4169 0098 002B     		cmp	r3, #0
 4170 009a FCD1     		bne	.L873
 4171 009c 9042     		cmp	r0, r2
 4172 009e 2970     		strb	r1, [r5]
 4173 00a0 2670     		strb	r6, [r4]
 4174 00a2 06D0     		beq	.L862
ARM GAS  C:\Users\Jay\AppData\Local\Temp\ccjVRGue.s 			page 72


 4175 00a4 12F8011F 		ldrb	r1, [r2, #1]!	@ zero_extendqisi2
 4176 00a8 F5E7     		b	.L873
 4177              	.L867:
 4178 00aa A021     		movs	r1, #160
 4179 00ac 06F8259C 		strb	r9, [r6, #-37]
 4180 00b0 D8E7     		b	.L868
 4181              	.L862:
 4182 00b2 BDE8F883 		pop	{r3, r4, r5, r6, r7, r8, r9, pc}
 4183              	.L887:
 4184 00b6 00BF     		.align	2
 4185              	.L886:
 4186 00b8 00000000 		.word	.LANCHOR9
 4187 00bc 00000000 		.word	.LANCHOR10
 4188 00c0 00000100 		.word	scratch_buf
 4189 00c4 25200100 		.word	scratch_buf+8229
 4191              		.section	.text.options_select,"ax",%progbits
 4192              		.align	1
 4193              		.p2align 2,,3
 4194              		.syntax unified
 4195              		.thumb
 4196              		.thumb_func
 4197              		.fpu fpv5-sp-d16
 4199              	options_select:
 4200              		@ args = 0, pretend = 0, frame = 0
 4201              		@ frame_needed = 0, uses_anonymous_args = 0
 4202 0000 70B5     		push	{r4, r5, r6, lr}
 4203 0002 447F     		ldrb	r4, [r0, #29]	@ zero_extendqisi2
 4204 0004 0346     		mov	r3, r0
 4205 0006 9442     		cmp	r4, r2
 4206 0008 0ED9     		bls	.L889
 4207 000a 0A4D     		ldr	r5, .L894
 4208 000c 02EB4204 		add	r4, r2, r2, lsl #1
 4209 0010 05EB0414 		add	r4, r5, r4, lsl #4
 4210 0014 A56A     		ldr	r5, [r4, #40]
 4211 0016 3DB1     		cbz	r5, .L889
 4212 0018 0277     		strb	r2, [r0, #28]
 4213 001a 2B46     		mov	r3, r5
 4214 001c 01F0BF02 		and	r2, r1, #191
 4215 0020 2146     		mov	r1, r4
 4216 0022 BDE87040 		pop	{r4, r5, r6, lr}
 4217 0026 1847     		bx	r3
 4218              	.L889:
 4219 0028 1846     		mov	r0, r3
 4220 002a FFF7FEFF 		bl	options_dir
 4221 002e 0020     		movs	r0, #0
 4222 0030 70BD     		pop	{r4, r5, r6, pc}
 4223              	.L895:
 4224 0032 00BF     		.align	2
 4225              	.L894:
 4226 0034 00200100 		.word	scratch_buf+8192
 4228              		.section	.text.cdc_rx_tx,"ax",%progbits
 4229              		.align	1
 4230              		.p2align 2,,3
 4231              		.syntax unified
 4232              		.thumb
 4233              		.thumb_func
 4234              		.fpu fpv5-sp-d16
ARM GAS  C:\Users\Jay\AppData\Local\Temp\ccjVRGue.s 			page 73


 4236              	cdc_rx_tx:
 4237              		@ args = 0, pretend = 0, frame = 0
 4238              		@ frame_needed = 0, uses_anonymous_args = 0
 4239 0000 0429     		cmp	r1, #4
 4240 0002 38B5     		push	{r3, r4, r5, lr}
 4241 0004 14D0     		beq	.L898
 4242 0006 0529     		cmp	r1, #5
 4243 0008 11D1     		bne	.L896
 4244 000a 194C     		ldr	r4, .L907
 4245 000c 2368     		ldr	r3, [r4]
 4246 000e B3F5E07F 		cmp	r3, #448
 4247 0012 27D2     		bcs	.L902
 4248 0014 0368     		ldr	r3, [r0]
 4249 0016 4022     		movs	r2, #64
 4250 0018 2168     		ldr	r1, [r4]
 4251 001a 0120     		movs	r0, #1
 4252 001c 154D     		ldr	r5, .L907+4
 4253 001e 9B69     		ldr	r3, [r3, #24]
 4254 0020 2944     		add	r1, r1, r5
 4255 0022 9847     		blx	r3
 4256 0024 0028     		cmp	r0, #0
 4257 0026 02DD     		ble	.L896
 4258 0028 2368     		ldr	r3, [r4]
 4259 002a 1844     		add	r0, r0, r3
 4260 002c 2060     		str	r0, [r4]
 4261              	.L896:
 4262 002e 38BD     		pop	{r3, r4, r5, pc}
 4263              	.L898:
 4264 0030 114C     		ldr	r4, .L907+8
 4265 0032 2368     		ldr	r3, [r4]
 4266 0034 3F2B     		cmp	r3, #63
 4267 0036 12D9     		bls	.L906
 4268 0038 4022     		movs	r2, #64
 4269              	.L900:
 4270 003a 0368     		ldr	r3, [r0]
 4271 003c 8120     		movs	r0, #129
 4272 003e 0F4D     		ldr	r5, .L907+12
 4273 0040 DB69     		ldr	r3, [r3, #28]
 4274 0042 2946     		mov	r1, r5
 4275 0044 9847     		blx	r3
 4276 0046 031E     		subs	r3, r0, #0
 4277 0048 F1DD     		ble	.L896
 4278 004a 2268     		ldr	r2, [r4]
 4279 004c E918     		adds	r1, r5, r3
 4280 004e 2846     		mov	r0, r5
 4281 0050 D31A     		subs	r3, r2, r3
 4282 0052 2360     		str	r3, [r4]
 4283 0054 2268     		ldr	r2, [r4]
 4284 0056 BDE83840 		pop	{r3, r4, r5, lr}
 4285 005a FFF7FEBF 		b	memmove
 4286              	.L906:
 4287 005e 2268     		ldr	r2, [r4]
 4288 0060 92B2     		uxth	r2, r2
 4289 0062 EAE7     		b	.L900
 4290              	.L902:
 4291 0064 064A     		ldr	r2, .L907+16
 4292 0066 9368     		ldr	r3, [r2, #8]
ARM GAS  C:\Users\Jay\AppData\Local\Temp\ccjVRGue.s 			page 74


 4293 0068 23F00103 		bic	r3, r3, #1
 4294 006c 9360     		str	r3, [r2, #8]
 4295 006e 38BD     		pop	{r3, r4, r5, pc}
 4296              	.L908:
 4297              		.align	2
 4298              	.L907:
 4299 0070 00000000 		.word	.LANCHOR22
 4300 0074 00000000 		.word	.LANCHOR23
 4301 0078 00000000 		.word	.LANCHOR20
 4302 007c 00000000 		.word	.LANCHOR21
 4303 0080 00000840 		.word	1074266112
 4305              		.section	.text.chdir_last.part.66,"ax",%progbits
 4306              		.align	1
 4307              		.p2align 2,,3
 4308              		.syntax unified
 4309              		.thumb
 4310              		.thumb_func
 4311              		.fpu fpv5-sp-d16
 4313              	chdir_last.part.66:
 4314              		@ args = 0, pretend = 0, frame = 0
 4315              		@ frame_needed = 0, uses_anonymous_args = 0
 4316 0000 08B5     		push	{r3, lr}
 4317 0002 0948     		ldr	r0, .L915
 4318 0004 FFF7FEFF 		bl	f_chdir
 4319 0008 084B     		ldr	r3, .L915+4
 4320 000a 0028     		cmp	r0, #0
 4321 000c 4FF48002 		mov	r2, #4194304
 4322 0010 0CBF     		ite	eq
 4323 0012 0120     		moveq	r0, #1
 4324 0014 0020     		movne	r0, #0
 4325 0016 9A61     		str	r2, [r3, #24]
 4326 0018 05D0     		beq	.L910
 4327 001a 054B     		ldr	r3, .L915+8
 4328 001c 0022     		movs	r2, #0
 4329 001e 83F82020 		strb	r2, [r3, #32]
 4330 0022 83F80023 		strb	r2, [r3, #768]
 4331              	.L910:
 4332 0026 08BD     		pop	{r3, pc}
 4333              	.L916:
 4334              		.align	2
 4335              	.L915:
 4336 0028 20000000 		.word	dat_file+32
 4337 002c 00100258 		.word	1476530176
 4338 0030 00000000 		.word	dat_file
 4340              		.section	.text.d64_dir_up,"ax",%progbits
 4341              		.align	1
 4342              		.p2align 2,,3
 4343              		.syntax unified
 4344              		.thumb
 4345              		.thumb_func
 4346              		.fpu fpv5-sp-d16
 4348              	d64_dir_up:
 4349              		@ args = 0, pretend = 0, frame = 0
 4350              		@ frame_needed = 0, uses_anonymous_args = 0
 4351 0000 0D4B     		ldr	r3, .L921
 4352 0002 4FF0FF32 		mov	r2, #-1
 4353 0006 0D48     		ldr	r0, .L921+4
ARM GAS  C:\Users\Jay\AppData\Local\Temp\ccjVRGue.s 			page 75


 4354 0008 10B5     		push	{r4, lr}
 4355 000a 5A73     		strb	r2, [r3, #13]
 4356 000c 0C46     		mov	r4, r1
 4357 000e 9A73     		strb	r2, [r3, #14]
 4358 0010 FFF7FEFF 		bl	f_close
 4359 0014 0A4A     		ldr	r2, .L921+8
 4360 0016 4FF48001 		mov	r1, #4194304
 4361 001a 0A4B     		ldr	r3, .L921+12
 4362 001c 0A48     		ldr	r0, .L921+16
 4363 001e 9161     		str	r1, [r2, #24]
 4364 0020 1860     		str	r0, [r3]
 4365 0022 1CB9     		cbnz	r4, .L920
 4366 0024 0368     		ldr	r3, [r0]
 4367 0026 BDE81040 		pop	{r4, lr}
 4368 002a 1847     		bx	r3	@ indirect register sibling call
 4369              	.L920:
 4370 002c 4368     		ldr	r3, [r0, #4]
 4371 002e 0121     		movs	r1, #1
 4372 0030 BDE81040 		pop	{r4, lr}
 4373 0034 1847     		bx	r3	@ indirect register sibling call
 4374              	.L922:
 4375 0036 00BF     		.align	2
 4376              	.L921:
 4377 0038 00000000 		.word	dat_file
 4378 003c 14000000 		.word	.LANCHOR24+20
 4379 0040 00100258 		.word	1476530176
 4380 0044 00000000 		.word	.LANCHOR13
 4381 0048 00000000 		.word	.LANCHOR25
 4383              		.section	.text.d64_read_file_sector,"ax",%progbits
 4384              		.align	1
 4385              		.p2align 2,,3
 4386              		.syntax unified
 4387              		.thumb
 4388              		.thumb_func
 4389              		.fpu fpv5-sp-d16
 4391              	d64_read_file_sector:
 4392              		@ args = 0, pretend = 0, frame = 0
 4393              		@ frame_needed = 0, uses_anonymous_args = 0
 4394 0000 0A78     		ldrb	r2, [r1]	@ zero_extendqisi2
 4395 0002 0AB9     		cbnz	r2, .L924
 4396 0004 0020     		movs	r0, #0
 4397 0006 7047     		bx	lr
 4398              	.L924:
 4399 0008 10B5     		push	{r4, lr}
 4400 000a 0C46     		mov	r4, r1
 4401 000c FFF7FEFF 		bl	d64_read_next_sector
 4402 0010 30B1     		cbz	r0, .L926
 4403 0012 2378     		ldrb	r3, [r4]	@ zero_extendqisi2
 4404 0014 33B9     		cbnz	r3, .L927
 4405 0016 6078     		ldrb	r0, [r4, #1]	@ zero_extendqisi2
 4406 0018 10B1     		cbz	r0, .L926
 4407 001a 0138     		subs	r0, r0, #1
 4408 001c C0B2     		uxtb	r0, r0
 4409 001e 10BD     		pop	{r4, pc}
 4410              	.L926:
 4411 0020 0020     		movs	r0, #0
 4412 0022 10BD     		pop	{r4, pc}
ARM GAS  C:\Users\Jay\AppData\Local\Temp\ccjVRGue.s 			page 76


 4413              	.L927:
 4414 0024 FE20     		movs	r0, #254
 4415 0026 10BD     		pop	{r4, pc}
 4417              		.section	.text.d64_read_disk_header,"ax",%progbits
 4418              		.align	1
 4419              		.p2align 2,,3
 4420              		.syntax unified
 4421              		.thumb
 4422              		.thumb_func
 4423              		.fpu fpv5-sp-d16
 4425              	d64_read_disk_header:
 4426              		@ args = 0, pretend = 0, frame = 0
 4427              		@ frame_needed = 0, uses_anonymous_args = 0
 4428 0000 10B5     		push	{r4, lr}
 4429 0002 90F82832 		ldrb	r3, [r0, #552]	@ zero_extendqisi2
 4430 0006 00F22A21 		addw	r1, r0, #554
 4431 000a 0446     		mov	r4, r0
 4432 000c 032B     		cmp	r3, #3
 4433 000e 4FF00003 		mov	r3, #0
 4434 0012 0CBF     		ite	eq
 4435 0014 2822     		moveq	r2, #40
 4436 0016 1222     		movne	r2, #18
 4437 0018 80F82B32 		strb	r3, [r0, #555]
 4438 001c 80F82A22 		strb	r2, [r0, #554]
 4439 0020 FFF7FEFF 		bl	d64_read_next_sector
 4440 0024 E0B1     		cbz	r0, .L940
 4441 0026 94F82832 		ldrb	r3, [r4, #552]	@ zero_extendqisi2
 4442 002a 0022     		movs	r2, #0
 4443 002c 032B     		cmp	r3, #3
 4444 002e 0CBF     		ite	eq
 4445 0030 04F22E23 		addweq	r3, r4, #558
 4446 0034 04F2BA23 		addwne	r3, r4, #698
 4447 0038 C4F82C33 		str	r3, [r4, #812]
 4448 003c DA75     		strb	r2, [r3, #23]
 4449 003e 94F82832 		ldrb	r3, [r4, #552]	@ zero_extendqisi2
 4450 0042 032B     		cmp	r3, #3
 4451 0044 0DD0     		beq	.L949
 4452 0046 1222     		movs	r2, #18
 4453 0048 0123     		movs	r3, #1
 4454 004a 84F82A22 		strb	r2, [r4, #554]
 4455 004e 84F82B32 		strb	r3, [r4, #555]
 4456              	.L944:
 4457 0052 0022     		movs	r2, #0
 4458 0054 04F22A33 		addw	r3, r4, #810
 4459 0058 84F82922 		strb	r2, [r4, #553]
 4460 005c C4F83033 		str	r3, [r4, #816]
 4461              	.L940:
 4462 0060 10BD     		pop	{r4, pc}
 4463              	.L949:
 4464 0062 2822     		movs	r2, #40
 4465 0064 84F82B32 		strb	r3, [r4, #555]
 4466 0068 84F82A22 		strb	r2, [r4, #554]
 4467 006c F1E7     		b	.L944
 4469 006e 00BF     		.section	.text.disk_find_file.constprop.81,"ax",%progbits
 4470              		.align	1
 4471              		.p2align 2,,3
 4472              		.syntax unified
ARM GAS  C:\Users\Jay\AppData\Local\Temp\ccjVRGue.s 			page 77


 4473              		.thumb
 4474              		.thumb_func
 4475              		.fpu fpv5-sp-d16
 4477              	disk_find_file.constprop.81:
 4478              		@ args = 0, pretend = 0, frame = 0
 4479              		@ frame_needed = 0, uses_anonymous_args = 0
 4480 0000 F8B5     		push	{r3, r4, r5, r6, r7, lr}
 4481 0002 134C     		ldr	r4, .L962
 4482 0004 0022     		movs	r2, #0
 4483 0006 0746     		mov	r7, r0
 4484 0008 0D46     		mov	r5, r1
 4485 000a 94F83C32 		ldrb	r3, [r4, #572]	@ zero_extendqisi2
 4486 000e 84F83D22 		strb	r2, [r4, #573]
 4487 0012 032B     		cmp	r3, #3
 4488 0014 0CBF     		ite	eq
 4489 0016 4FF44A73 		moveq	r3, #808
 4490 001a 4FF48973 		movne	r3, #274
 4491 001e A4F83E32 		strh	r3, [r4, #574]	@ movhi
 4492 0022 0C4B     		ldr	r3, .L962+4
 4493 0024 A3F22A36 		subw	r6, r3, #810
 4494 0028 C4F84433 		str	r3, [r4, #836]
 4495              	.L959:
 4496 002c 3046     		mov	r0, r6
 4497 002e FFF7FEFF 		bl	d64_read_dir
 4498 0032 3946     		mov	r1, r7
 4499 0034 58B1     		cbz	r0, .L955
 4500 0036 D4F84403 		ldr	r0, [r4, #836]
 4501 003a 25B1     		cbz	r5, .L954
 4502 003c 8378     		ldrb	r3, [r0, #2]	@ zero_extendqisi2
 4503 003e 03F00703 		and	r3, r3, #7
 4504 0042 9D42     		cmp	r5, r3
 4505 0044 F2D1     		bne	.L959
 4506              	.L954:
 4507 0046 FFF7FEFF 		bl	disk_filename_match
 4508 004a 0028     		cmp	r0, #0
 4509 004c EED0     		beq	.L959
 4510              	.L955:
 4511 004e F8BD     		pop	{r3, r4, r5, r6, r7, pc}
 4512              	.L963:
 4513              		.align	2
 4514              	.L962:
 4515 0050 00000000 		.word	.LANCHOR24
 4516 0054 3E030000 		.word	.LANCHOR24+830
 4518              		.section	.text.format_path.constprop.88,"ax",%progbits
 4519              		.align	1
 4520              		.p2align 2,,3
 4521              		.syntax unified
 4522              		.thumb
 4523              		.thumb_func
 4524              		.fpu fpv5-sp-d16
 4526              	format_path.constprop.88:
 4527              		@ args = 0, pretend = 0, frame = 0
 4528              		@ frame_needed = 0, uses_anonymous_args = 0
 4529 0000 F8B5     		push	{r3, r4, r5, r6, r7, lr}
 4530 0002 374F     		ldr	r7, .L989
 4531 0004 0023     		movs	r3, #0
 4532 0006 374D     		ldr	r5, .L989+4
ARM GAS  C:\Users\Jay\AppData\Local\Temp\ccjVRGue.s 			page 78


 4533 0008 3A46     		mov	r2, r7
 4534 000a 04E0     		b	.L965
 4535              	.L967:
 4536 000c B3F5387F 		cmp	r3, #736
 4537 0010 02F8011B 		strb	r1, [r2], #1
 4538 0014 56D0     		beq	.L966
 4539              	.L965:
 4540 0016 15F8011F 		ldrb	r1, [r5, #1]!	@ zero_extendqisi2
 4541 001a 9CB2     		uxth	r4, r3
 4542 001c 1646     		mov	r6, r2
 4543 001e 0133     		adds	r3, r3, #1
 4544 0020 0029     		cmp	r1, #0
 4545 0022 F3D1     		bne	.L967
 4546 0024 98B1     		cbz	r0, .L968
 4547 0026 012C     		cmp	r4, #1
 4548 0028 46D9     		bls	.L969
 4549 002a 0134     		adds	r4, r4, #1
 4550 002c A4B2     		uxth	r4, r4
 4551 002e 2146     		mov	r1, r4
 4552              	.L976:
 4553 0030 2D4B     		ldr	r3, .L989+8
 4554 0032 2F22     		movs	r2, #47
 4555 0034 93F80033 		ldrb	r3, [r3, #768]	@ zero_extendqisi2
 4556 0038 3270     		strb	r2, [r6]
 4557 003a A3B1     		cbz	r3, .L970
 4558              	.L972:
 4559 003c 2B4A     		ldr	r2, .L989+12
 4560              	.L971:
 4561 003e 3B55     		strb	r3, [r7, r4]
 4562 0040 0134     		adds	r4, r4, #1
 4563 0042 12F8013F 		ldrb	r3, [r2, #1]!	@ zero_extendqisi2
 4564 0046 A4B2     		uxth	r4, r4
 4565 0048 002B     		cmp	r3, #0
 4566 004a F8D1     		bne	.L971
 4567 004c 3E19     		adds	r6, r7, r4
 4568              	.L968:
 4569 004e 0023     		movs	r3, #0
 4570 0050 3370     		strb	r3, [r6]
 4571 0052 4CB9     		cbnz	r4, .L973
 4572 0054 2E23     		movs	r3, #46
 4573 0056 2249     		ldr	r1, .L989
 4574 0058 2222     		movs	r2, #34
 4575 005a 2148     		ldr	r0, .L989
 4576 005c 3B80     		strh	r3, [r7]	@ movhi
 4577 005e FFF7FEFF 		bl	to_petscii_pad
 4578 0062 2046     		mov	r0, r4
 4579 0064 F8BD     		pop	{r3, r4, r5, r6, r7, pc}
 4580              	.L970:
 4581 0066 7B54     		strb	r3, [r7, r1]
 4582              	.L973:
 4583 0068 222C     		cmp	r4, #34
 4584 006a 16D8     		bhi	.L987
 4585 006c 012C     		cmp	r4, #1
 4586 006e 07D0     		beq	.L988
 4587 0070 0024     		movs	r4, #0
 4588 0072 1B49     		ldr	r1, .L989
 4589 0074 2222     		movs	r2, #34
ARM GAS  C:\Users\Jay\AppData\Local\Temp\ccjVRGue.s 			page 79


 4590 0076 1A48     		ldr	r0, .L989
 4591 0078 FFF7FEFF 		bl	to_petscii_pad
 4592 007c 2046     		mov	r0, r4
 4593 007e F8BD     		pop	{r3, r4, r5, r6, r7, pc}
 4594              	.L988:
 4595 0080 3C78     		ldrb	r4, [r7]	@ zero_extendqisi2
 4596 0082 2222     		movs	r2, #34
 4597 0084 1649     		ldr	r1, .L989
 4598 0086 A4F12F04 		sub	r4, #47
 4599 008a 1548     		ldr	r0, .L989
 4600 008c FFF7FEFF 		bl	to_petscii_pad
 4601 0090 B4FA84F4 		clz	r4, r4
 4602 0094 6409     		lsrs	r4, r4, #5
 4603 0096 2046     		mov	r0, r4
 4604 0098 F8BD     		pop	{r3, r4, r5, r6, r7, pc}
 4605              	.L987:
 4606 009a A4F12203 		sub	r3, r4, #34
 4607 009e 9BB2     		uxth	r3, r3
 4608 00a0 581C     		adds	r0, r3, #1
 4609              	.L977:
 4610 00a2 2E22     		movs	r2, #46
 4611 00a4 0024     		movs	r4, #0
 4612 00a6 F918     		adds	r1, r7, r3
 4613 00a8 FA54     		strb	r2, [r7, r3]
 4614 00aa 3A54     		strb	r2, [r7, r0]
 4615 00ac 2222     		movs	r2, #34
 4616 00ae 0C48     		ldr	r0, .L989
 4617 00b0 FFF7FEFF 		bl	to_petscii_pad
 4618 00b4 2046     		mov	r0, r4
 4619 00b6 F8BD     		pop	{r3, r4, r5, r6, r7, pc}
 4620              	.L969:
 4621 00b8 0B4B     		ldr	r3, .L989+8
 4622 00ba 93F80033 		ldrb	r3, [r3, #768]	@ zero_extendqisi2
 4623 00be 002B     		cmp	r3, #0
 4624 00c0 BCD1     		bne	.L972
 4625 00c2 C4E7     		b	.L968
 4626              	.L966:
 4627 00c4 30B9     		cbnz	r0, .L979
 4628 00c6 87F8E002 		strb	r0, [r7, #736]
 4629 00ca 40F2BE23 		movw	r3, #702
 4630 00ce 40F2BF20 		movw	r0, #703
 4631 00d2 E6E7     		b	.L977
 4632              	.L979:
 4633 00d4 40F2E121 		movw	r1, #737
 4634 00d8 054E     		ldr	r6, .L989+16
 4635 00da 0C46     		mov	r4, r1
 4636 00dc A8E7     		b	.L976
 4637              	.L990:
 4638 00de 00BF     		.align	2
 4639              	.L989:
 4640 00e0 00000100 		.word	scratch_buf
 4641 00e4 1F000000 		.word	dat_file+31
 4642 00e8 00000000 		.word	dat_file
 4643 00ec 00030000 		.word	dat_file+768
 4644 00f0 E0020100 		.word	scratch_buf+736
 4646              		.section	.text.d64_open.constprop.89,"ax",%progbits
 4647              		.align	1
ARM GAS  C:\Users\Jay\AppData\Local\Temp\ccjVRGue.s 			page 80


 4648              		.p2align 2,,3
 4649              		.syntax unified
 4650              		.thumb
 4651              		.thumb_func
 4652              		.fpu fpv5-sp-d16
 4654              	d64_open.constprop.89:
 4655              		@ args = 0, pretend = 0, frame = 0
 4656              		@ frame_needed = 0, uses_anonymous_args = 0
 4657 0000 38B5     		push	{r3, r4, r5, lr}
 4658 0002 184C     		ldr	r4, .L1002
 4659 0004 0146     		mov	r1, r0
 4660 0006 0122     		movs	r2, #1
 4661 0008 04F11400 		add	r0, r4, #20
 4662 000c FFF7FEFF 		bl	f_open
 4663 0010 28B1     		cbz	r0, .L992
 4664 0012 154B     		ldr	r3, .L1002+4
 4665 0014 4FF48002 		mov	r2, #4194304
 4666 0018 0020     		movs	r0, #0
 4667 001a 9A61     		str	r2, [r3, #24]
 4668 001c 38BD     		pop	{r3, r4, r5, pc}
 4669              	.L992:
 4670 001e 206A     		ldr	r0, [r4, #32]
 4671 0020 FFF7FEFF 		bl	d64_image_type
 4672 0024 0546     		mov	r5, r0
 4673 0026 84F83C02 		strb	r0, [r4, #572]
 4674 002a 88B1     		cbz	r0, .L1001
 4675 002c 032D     		cmp	r5, #3
 4676 002e 4FF00002 		mov	r2, #0
 4677 0032 4FF00100 		mov	r0, #1
 4678 0036 0CBF     		ite	eq
 4679 0038 4FF44A73 		moveq	r3, #808
 4680 003c 4FF48973 		movne	r3, #274
 4681 0040 84F83D22 		strb	r2, [r4, #573]
 4682 0044 A4F83E32 		strh	r3, [r4, #574]	@ movhi
 4683 0048 084B     		ldr	r3, .L1002+8
 4684 004a C4F84433 		str	r3, [r4, #836]
 4685 004e 38BD     		pop	{r3, r4, r5, pc}
 4686              	.L1001:
 4687 0050 04F11400 		add	r0, r4, #20
 4688 0054 FFF7FEFF 		bl	f_close
 4689 0058 034B     		ldr	r3, .L1002+4
 4690 005a 4FF48002 		mov	r2, #4194304
 4691 005e 2846     		mov	r0, r5
 4692 0060 9A61     		str	r2, [r3, #24]
 4693 0062 38BD     		pop	{r3, r4, r5, pc}
 4694              	.L1003:
 4695              		.align	2
 4696              	.L1002:
 4697 0064 00000000 		.word	.LANCHOR24
 4698 0068 00100258 		.word	1476530176
 4699 006c 3E030000 		.word	.LANCHOR24+830
 4701              		.section	.text.printhex.constprop.94,"ax",%progbits
 4702              		.align	1
 4703              		.p2align 2,,3
 4704              		.syntax unified
 4705              		.thumb
 4706              		.thumb_func
ARM GAS  C:\Users\Jay\AppData\Local\Temp\ccjVRGue.s 			page 81


 4707              		.fpu fpv5-sp-d16
 4709              	printhex.constprop.94:
 4710              		@ args = 0, pretend = 0, frame = 8
 4711              		@ frame_needed = 0, uses_anonymous_args = 0
 4712 0000 0029     		cmp	r1, #0
 4713 0002 4FF00002 		mov	r2, #0
 4714 0006 2DE9F043 		push	{r4, r5, r6, r7, r8, r9, lr}
 4715 000a B4BF     		ite	lt
 4716 000c 01F10108 		addlt	r8, r1, #1
 4717 0010 8846     		movge	r8, r1
 4718 0012 83B0     		sub	sp, sp, #12
 4719 0014 8946     		mov	r9, r1
 4720 0016 4FEA6808 		asr	r8, r8, #1
 4721 001a 124F     		ldr	r7, .L1020
 4722 001c 0DF10706 		add	r6, sp, #7
 4723 0020 1546     		mov	r5, r2
 4724 0022 C8F10408 		rsb	r8, r8, #4
 4725 0026 0190     		str	r0, [sp, #4]
 4726              	.L1010:
 4727 0028 16F80149 		ldrb	r4, [r6], #-1	@ zero_extendqisi2
 4728 002c 2309     		lsrs	r3, r4, #4
 4729 002e 74B1     		cbz	r4, .L1018
 4730              	.L1006:
 4731 0030 04F00F04 		and	r4, r4, #15
 4732 0034 F85C     		ldrb	r0, [r7, r3]	@ zero_extendqisi2
 4733 0036 FFF7FEFF 		bl	buf_putchar
 4734 003a 385D     		ldrb	r0, [r7, r4]	@ zero_extendqisi2
 4735 003c FFF7FEFF 		bl	buf_putchar
 4736 0040 0122     		movs	r2, #1
 4737              	.L1008:
 4738 0042 0135     		adds	r5, r5, #1
 4739 0044 042D     		cmp	r5, #4
 4740 0046 EFD1     		bne	.L1010
 4741 0048 03B0     		add	sp, sp, #12
 4742              		@ sp needed
 4743 004a BDE8F083 		pop	{r4, r5, r6, r7, r8, r9, pc}
 4744              	.L1018:
 4745 004e B9F1000F 		cmp	r9, #0
 4746 0052 04D1     		bne	.L1019
 4747              	.L1007:
 4748 0054 032D     		cmp	r5, #3
 4749 0056 EBD0     		beq	.L1006
 4750 0058 002A     		cmp	r2, #0
 4751 005a F2D0     		beq	.L1008
 4752 005c E8E7     		b	.L1006
 4753              	.L1019:
 4754 005e A845     		cmp	r8, r5
 4755 0060 E6D9     		bls	.L1006
 4756 0062 F7E7     		b	.L1007
 4757              	.L1021:
 4758              		.align	2
 4759              	.L1020:
 4760 0064 00000000 		.word	.LANCHOR26
 4762              		.section	.text.printint.part.25.constprop.95,"ax",%progbits
 4763              		.align	1
 4764              		.p2align 2,,3
 4765              		.syntax unified
ARM GAS  C:\Users\Jay\AppData\Local\Temp\ccjVRGue.s 			page 82


 4766              		.thumb
 4767              		.thumb_func
 4768              		.fpu fpv5-sp-d16
 4770              	printint.part.25.constprop.95:
 4771              		@ args = 0, pretend = 0, frame = 0
 4772              		@ frame_needed = 0, uses_anonymous_args = 0
 4773 0000 F8B5     		push	{r3, r4, r5, r6, r7, lr}
 4774 0002 051E     		subs	r5, r0, #0
 4775 0004 05DA     		bge	.L1023
 4776 0006 CB07     		lsls	r3, r1, #31
 4777 0008 03D5     		bpl	.L1023
 4778 000a 2D20     		movs	r0, #45
 4779 000c 6D42     		negs	r5, r5
 4780 000e FFF7FEFF 		bl	buf_putchar
 4781              	.L1023:
 4782 0012 0A26     		movs	r6, #10
 4783 0014 0022     		movs	r2, #0
 4784 0016 0B4C     		ldr	r4, .L1037
 4785 0018 0B4F     		ldr	r7, .L1037+4
 4786              	.L1025:
 4787 001a 95FBF4F3 		sdiv	r3, r5, r4
 4788 001e 03F13000 		add	r0, r3, #48
 4789 0022 1A43     		orrs	r2, r2, r3
 4790 0024 04FB1355 		mls	r5, r4, r3, r5
 4791 0028 C0B2     		uxtb	r0, r0
 4792 002a 02D0     		beq	.L1024
 4793 002c FFF7FEFF 		bl	buf_putchar
 4794 0030 0122     		movs	r2, #1
 4795              	.L1024:
 4796 0032 87FB0413 		smull	r1, r3, r7, r4
 4797 0036 013E     		subs	r6, r6, #1
 4798 0038 4FEAE474 		asr	r4, r4, #31
 4799 003c C4EBA304 		rsb	r4, r4, r3, asr #2
 4800 0040 EBD1     		bne	.L1025
 4801 0042 F8BD     		pop	{r3, r4, r5, r6, r7, pc}
 4802              	.L1038:
 4803              		.align	2
 4804              	.L1037:
 4805 0044 00CA9A3B 		.word	1000000000
 4806 0048 67666666 		.word	1717986919
 4808              		.section	.text.sprint,"ax",%progbits
 4809              		.align	1
 4810              		.p2align 2,,3
 4811              		.syntax unified
 4812              		.thumb
 4813              		.thumb_func
 4814              		.fpu fpv5-sp-d16
 4816              	sprint:
 4817              		@ args = 4, pretend = 12, frame = 8
 4818              		@ frame_needed = 0, uses_anonymous_args = 1
 4819 0000 0EB4     		push	{r1, r2, r3}
 4820 0002 2DE9F041 		push	{r4, r5, r6, r7, r8, lr}
 4821 0006 83B0     		sub	sp, sp, #12
 4822 0008 774B     		ldr	r3, .L1077
 4823 000a 0024     		movs	r4, #0
 4824 000c 774E     		ldr	r6, .L1077+4
 4825 000e 09AA     		add	r2, sp, #36
ARM GAS  C:\Users\Jay\AppData\Local\Temp\ccjVRGue.s 			page 83


 4826 0010 1860     		str	r0, [r3]
 4827 0012 0746     		mov	r7, r0
 4828 0014 3460     		str	r4, [r6]
 4829 0016 52F8045B 		ldr	r5, [r2], #4
 4830 001a 2B78     		ldrb	r3, [r5]	@ zero_extendqisi2
 4831 001c 0192     		str	r2, [sp, #4]
 4832 001e 002B     		cmp	r3, #0
 4833 0020 00F0E080 		beq	.L1061
 4834 0024 A046     		mov	r8, r4
 4835              	.L1060:
 4836 0026 252B     		cmp	r3, #37
 4837 0028 18D0     		beq	.L1073
 4838 002a 64B3     		cbz	r4, .L1074
 4839 002c A3F15802 		sub	r2, r3, #88
 4840 0030 202A     		cmp	r2, #32
 4841 0032 00F2B780 		bhi	.L1045
 4842 0036 DFE802F0 		tbb	[pc, r2]
 4843              	.L1047:
 4844 003a 95       		.byte	(.L1046-.L1047)/2
 4845 003b B5       		.byte	(.L1045-.L1047)/2
 4846 003c B5       		.byte	(.L1045-.L1047)/2
 4847 003d B5       		.byte	(.L1045-.L1047)/2
 4848 003e B5       		.byte	(.L1045-.L1047)/2
 4849 003f B5       		.byte	(.L1045-.L1047)/2
 4850 0040 B5       		.byte	(.L1045-.L1047)/2
 4851 0041 B5       		.byte	(.L1045-.L1047)/2
 4852 0042 B5       		.byte	(.L1045-.L1047)/2
 4853 0043 B5       		.byte	(.L1045-.L1047)/2
 4854 0044 B5       		.byte	(.L1045-.L1047)/2
 4855 0045 86       		.byte	(.L1048-.L1047)/2
 4856 0046 75       		.byte	(.L1049-.L1047)/2
 4857 0047 B5       		.byte	(.L1045-.L1047)/2
 4858 0048 B5       		.byte	(.L1045-.L1047)/2
 4859 0049 B5       		.byte	(.L1045-.L1047)/2
 4860 004a B5       		.byte	(.L1045-.L1047)/2
 4861 004b B5       		.byte	(.L1045-.L1047)/2
 4862 004c B5       		.byte	(.L1045-.L1047)/2
 4863 004d B5       		.byte	(.L1045-.L1047)/2
 4864 004e B5       		.byte	(.L1045-.L1047)/2
 4865 004f B5       		.byte	(.L1045-.L1047)/2
 4866 0050 B5       		.byte	(.L1045-.L1047)/2
 4867 0051 B5       		.byte	(.L1045-.L1047)/2
 4868 0052 60       		.byte	(.L1050-.L1047)/2
 4869 0053 B5       		.byte	(.L1045-.L1047)/2
 4870 0054 B5       		.byte	(.L1045-.L1047)/2
 4871 0055 35       		.byte	(.L1051-.L1047)/2
 4872 0056 B5       		.byte	(.L1045-.L1047)/2
 4873 0057 A5       		.byte	(.L1052-.L1047)/2
 4874 0058 B5       		.byte	(.L1045-.L1047)/2
 4875 0059 B5       		.byte	(.L1045-.L1047)/2
 4876 005a 95       		.byte	(.L1046-.L1047)/2
 4877 005b 00       		.p2align 1
 4878              	.L1073:
 4879 005c E4B1     		cbz	r4, .L1075
 4880 005e 3268     		ldr	r2, [r6]
 4881 0060 0024     		movs	r4, #0
 4882 0062 BB54     		strb	r3, [r7, r2]
ARM GAS  C:\Users\Jay\AppData\Local\Temp\ccjVRGue.s 			page 84


 4883 0064 0132     		adds	r2, r2, #1
 4884 0066 15F8013F 		ldrb	r3, [r5, #1]!	@ zero_extendqisi2
 4885 006a 3260     		str	r2, [r6]
 4886 006c 002B     		cmp	r3, #0
 4887 006e DAD1     		bne	.L1060
 4888              	.L1076:
 4889 0070 3368     		ldr	r3, [r6]
 4890 0072 1F44     		add	r7, r7, r3
 4891 0074 0133     		adds	r3, r3, #1
 4892              	.L1040:
 4893 0076 0022     		movs	r2, #0
 4894 0078 3360     		str	r3, [r6]
 4895 007a 3A70     		strb	r2, [r7]
 4896 007c 03B0     		add	sp, sp, #12
 4897              		@ sp needed
 4898 007e BDE8F041 		pop	{r4, r5, r6, r7, r8, lr}
 4899 0082 03B0     		add	sp, sp, #12
 4900 0084 7047     		bx	lr
 4901              	.L1074:
 4902 0086 3268     		ldr	r2, [r6]
 4903 0088 511C     		adds	r1, r2, #1
 4904 008a BB54     		strb	r3, [r7, r2]
 4905 008c 15F8013F 		ldrb	r3, [r5, #1]!	@ zero_extendqisi2
 4906 0090 3160     		str	r1, [r6]
 4907 0092 002B     		cmp	r3, #0
 4908 0094 C7D1     		bne	.L1060
 4909 0096 EBE7     		b	.L1076
 4910              	.L1075:
 4911 0098 15F8013F 		ldrb	r3, [r5, #1]!	@ zero_extendqisi2
 4912 009c 0124     		movs	r4, #1
 4913 009e 002B     		cmp	r3, #0
 4914 00a0 C1D1     		bne	.L1060
 4915 00a2 E5E7     		b	.L1076
 4916              	.L1051:
 4917 00a4 08F1FF34 		add	r4, r8, #-1
 4918 00a8 B8F1000F 		cmp	r8, #0
 4919 00ac 0BD0     		beq	.L1054
 4920 00ae 3068     		ldr	r0, [r6]
 4921 00b0 2021     		movs	r1, #32
 4922 00b2 3A18     		adds	r2, r7, r0
 4923 00b4 02EB0803 		add	r3, r2, r8
 4924              	.L1055:
 4925 00b8 02F8011B 		strb	r1, [r2], #1
 4926 00bc 9342     		cmp	r3, r2
 4927 00be FBD1     		bne	.L1055
 4928 00c0 431C     		adds	r3, r0, #1
 4929 00c2 2344     		add	r3, r3, r4
 4930 00c4 3360     		str	r3, [r6]
 4931              	.L1054:
 4932 00c6 019A     		ldr	r2, [sp, #4]
 4933 00c8 1468     		ldr	r4, [r2]
 4934 00ca 0432     		adds	r2, r2, #4
 4935 00cc 2378     		ldrb	r3, [r4]	@ zero_extendqisi2
 4936 00ce 0192     		str	r2, [sp, #4]
 4937 00d0 63B1     		cbz	r3, .L1056
 4938 00d2 3068     		ldr	r0, [r6]
 4939 00d4 621C     		adds	r2, r4, #1
ARM GAS  C:\Users\Jay\AppData\Local\Temp\ccjVRGue.s 			page 85


 4940 00d6 411E     		subs	r1, r0, #1
 4941 00d8 001B     		subs	r0, r0, r4
 4942 00da 3944     		add	r1, r1, r7
 4943              	.L1057:
 4944 00dc 01F8013F 		strb	r3, [r1, #1]!
 4945 00e0 8418     		adds	r4, r0, r2
 4946 00e2 12F8013B 		ldrb	r3, [r2], #1	@ zero_extendqisi2
 4947 00e6 002B     		cmp	r3, #0
 4948 00e8 F8D1     		bne	.L1057
 4949 00ea 3460     		str	r4, [r6]
 4950              	.L1056:
 4951 00ec 0024     		movs	r4, #0
 4952 00ee 15F8013F 		ldrb	r3, [r5, #1]!	@ zero_extendqisi2
 4953 00f2 A046     		mov	r8, r4
 4954 00f4 002B     		cmp	r3, #0
 4955 00f6 96D1     		bne	.L1060
 4956 00f8 BAE7     		b	.L1076
 4957              	.L1050:
 4958 00fa 3368     		ldr	r3, [r6]
 4959 00fc 3021     		movs	r1, #48
 4960 00fe 019A     		ldr	r2, [sp, #4]
 4961 0100 7820     		movs	r0, #120
 4962 0102 F954     		strb	r1, [r7, r3]
 4963 0104 F918     		adds	r1, r7, r3
 4964 0106 141D     		adds	r4, r2, #4
 4965 0108 0233     		adds	r3, r3, #2
 4966 010a 4870     		strb	r0, [r1, #1]
 4967 010c 4146     		mov	r1, r8
 4968 010e 1068     		ldr	r0, [r2]
 4969 0110 3360     		str	r3, [r6]
 4970 0112 0194     		str	r4, [sp, #4]
 4971 0114 FFF7FEFF 		bl	printhex.constprop.94
 4972 0118 15F8013F 		ldrb	r3, [r5, #1]!	@ zero_extendqisi2
 4973 011c 0024     		movs	r4, #0
 4974 011e 002B     		cmp	r3, #0
 4975 0120 81D1     		bne	.L1060
 4976 0122 A5E7     		b	.L1076
 4977              	.L1049:
 4978 0124 019B     		ldr	r3, [sp, #4]
 4979 0126 1A1D     		adds	r2, r3, #4
 4980 0128 1C68     		ldr	r4, [r3]
 4981 012a 0192     		str	r2, [sp, #4]
 4982 012c 002C     		cmp	r4, #0
 4983 012e 49D0     		beq	.L1072
 4984 0130 2046     		mov	r0, r4
 4985 0132 0121     		movs	r1, #1
 4986 0134 FFF7FEFF 		bl	printint.part.25.constprop.95
 4987 0138 15F8013F 		ldrb	r3, [r5, #1]!	@ zero_extendqisi2
 4988 013c 0024     		movs	r4, #0
 4989 013e 002B     		cmp	r3, #0
 4990 0140 7FF471AF 		bne	.L1060
 4991 0144 94E7     		b	.L1076
 4992              	.L1048:
 4993 0146 019A     		ldr	r2, [sp, #4]
 4994 0148 0024     		movs	r4, #0
 4995 014a 3368     		ldr	r3, [r6]
 4996 014c 1178     		ldrb	r1, [r2]	@ zero_extendqisi2
ARM GAS  C:\Users\Jay\AppData\Local\Temp\ccjVRGue.s 			page 86


 4997 014e 101D     		adds	r0, r2, #4
 4998 0150 5A1C     		adds	r2, r3, #1
 4999 0152 F954     		strb	r1, [r7, r3]
 5000 0154 15F8013F 		ldrb	r3, [r5, #1]!	@ zero_extendqisi2
 5001 0158 0190     		str	r0, [sp, #4]
 5002 015a 3260     		str	r2, [r6]
 5003 015c 002B     		cmp	r3, #0
 5004 015e 7FF462AF 		bne	.L1060
 5005 0162 85E7     		b	.L1076
 5006              	.L1046:
 5007 0164 019B     		ldr	r3, [sp, #4]
 5008 0166 4146     		mov	r1, r8
 5009 0168 4FF00008 		mov	r8, #0
 5010 016c 1A1D     		adds	r2, r3, #4
 5011 016e 1868     		ldr	r0, [r3]
 5012 0170 4446     		mov	r4, r8
 5013 0172 0192     		str	r2, [sp, #4]
 5014 0174 FFF7FEFF 		bl	printhex.constprop.94
 5015 0178 15F8013F 		ldrb	r3, [r5, #1]!	@ zero_extendqisi2
 5016 017c 002B     		cmp	r3, #0
 5017 017e 7FF452AF 		bne	.L1060
 5018 0182 75E7     		b	.L1076
 5019              	.L1052:
 5020 0184 019B     		ldr	r3, [sp, #4]
 5021 0186 1A1D     		adds	r2, r3, #4
 5022 0188 1C68     		ldr	r4, [r3]
 5023 018a 0192     		str	r2, [sp, #4]
 5024 018c D4B1     		cbz	r4, .L1072
 5025 018e 2046     		mov	r0, r4
 5026 0190 0021     		movs	r1, #0
 5027 0192 FFF7FEFF 		bl	printint.part.25.constprop.95
 5028 0196 15F8013F 		ldrb	r3, [r5, #1]!	@ zero_extendqisi2
 5029 019a 0024     		movs	r4, #0
 5030 019c 002B     		cmp	r3, #0
 5031 019e 7FF442AF 		bne	.L1060
 5032 01a2 65E7     		b	.L1076
 5033              	.L1045:
 5034 01a4 A3F13002 		sub	r2, r3, #48
 5035 01a8 092A     		cmp	r2, #9
 5036 01aa 14D8     		bhi	.L1063
 5037 01ac 08EB8808 		add	r8, r8, r8, lsl #2
 5038 01b0 03EB4803 		add	r3, r3, r8, lsl #1
 5039 01b4 A3F13008 		sub	r8, r3, #48
 5040 01b8 15F8013F 		ldrb	r3, [r5, #1]!	@ zero_extendqisi2
 5041 01bc 002B     		cmp	r3, #0
 5042 01be 7FF432AF 		bne	.L1060
 5043 01c2 55E7     		b	.L1076
 5044              	.L1072:
 5045 01c4 3020     		movs	r0, #48
 5046 01c6 FFF7FEFF 		bl	buf_putchar
 5047 01ca 15F8013F 		ldrb	r3, [r5, #1]!	@ zero_extendqisi2
 5048 01ce 002B     		cmp	r3, #0
 5049 01d0 7FF429AF 		bne	.L1060
 5050 01d4 4CE7     		b	.L1076
 5051              	.L1063:
 5052 01d6 15F8013F 		ldrb	r3, [r5, #1]!	@ zero_extendqisi2
 5053 01da 0024     		movs	r4, #0
ARM GAS  C:\Users\Jay\AppData\Local\Temp\ccjVRGue.s 			page 87


 5054 01dc 002B     		cmp	r3, #0
 5055 01de 7FF422AF 		bne	.L1060
 5056 01e2 45E7     		b	.L1076
 5057              	.L1061:
 5058 01e4 0123     		movs	r3, #1
 5059 01e6 46E7     		b	.L1040
 5060              	.L1078:
 5061              		.align	2
 5062              	.L1077:
 5063 01e8 00000000 		.word	.LANCHOR4
 5064 01ec 00000000 		.word	.LANCHOR5
 5066              		.section	.text.settings_basic_change,"ax",%progbits
 5067              		.align	1
 5068              		.p2align 2,,3
 5069              		.syntax unified
 5070              		.thumb
 5071              		.thumb_func
 5072              		.fpu fpv5-sp-d16
 5074              	settings_basic_change:
 5075              		@ args = 0, pretend = 0, frame = 0
 5076              		@ frame_needed = 0, uses_anonymous_args = 0
 5077 0000 1048     		ldr	r0, .L1083
 5078 0002 10B5     		push	{r4, lr}
 5079 0004 0378     		ldrb	r3, [r0]	@ zero_extendqisi2
 5080 0006 0C46     		mov	r4, r1
 5081 0008 DA07     		lsls	r2, r3, #31
 5082 000a 16D5     		bpl	.L1080
 5083 000c 23F00103 		bic	r3, r3, #1
 5084 0010 0D4A     		ldr	r2, .L1083+4
 5085 0012 0370     		strb	r3, [r0]
 5086              	.L1081:
 5087 0014 0D49     		ldr	r1, .L1083+8
 5088 0016 0E48     		ldr	r0, .L1083+12
 5089 0018 FFF7FEFF 		bl	sprint
 5090 001c 0C49     		ldr	r1, .L1083+12
 5091 001e 2422     		movs	r2, #36
 5092 0020 601C     		adds	r0, r4, #1
 5093 0022 FFF7FEFF 		bl	to_petscii_pad
 5094 0026 0B4B     		ldr	r3, .L1083+16
 5095 0028 2022     		movs	r2, #32
 5096 002a 1B68     		ldr	r3, [r3]
 5097 002c 84F82520 		strb	r2, [r4, #37]
 5098 0030 1846     		mov	r0, r3
 5099 0032 1B68     		ldr	r3, [r3]
 5100 0034 9847     		blx	r3
 5101 0036 0020     		movs	r0, #0
 5102 0038 10BD     		pop	{r4, pc}
 5103              	.L1080:
 5104 003a 43F00103 		orr	r3, r3, #1
 5105 003e 064A     		ldr	r2, .L1083+20
 5106 0040 0370     		strb	r3, [r0]
 5107 0042 E7E7     		b	.L1081
 5108              	.L1084:
 5109              		.align	2
 5110              	.L1083:
 5111 0044 00000000 		.word	.LANCHOR27
 5112 0048 04000000 		.word	.LC20
ARM GAS  C:\Users\Jay\AppData\Local\Temp\ccjVRGue.s 			page 88


 5113 004c 08000000 		.word	.LC21
 5114 0050 00000100 		.word	scratch_buf
 5115 0054 00000000 		.word	.LANCHOR13
 5116 0058 00000000 		.word	.LC19
 5118              		.section	.text.sd_send_page,"ax",%progbits
 5119              		.align	1
 5120              		.p2align 2,,3
 5121              		.syntax unified
 5122              		.thumb
 5123              		.thumb_func
 5124              		.fpu fpv5-sp-d16
 5126              	sd_send_page:
 5127              		@ args = 0, pretend = 0, frame = 296
 5128              		@ frame_needed = 0, uses_anonymous_args = 0
 5129 0000 2DE9F04F 		push	{r4, r5, r6, r7, r8, r9, r10, fp, lr}
 5130 0004 077D     		ldrb	r7, [r0, #20]	@ zero_extendqisi2
 5131 0006 CBB0     		sub	sp, sp, #300
 5132 0008 8146     		mov	r9, r0
 5133 000a 0191     		str	r1, [sp, #4]
 5134 000c 002F     		cmp	r7, #0
 5135 000e 40F09D80 		bne	.L1103
 5136 0012 B0F87830 		ldrh	r3, [r0, #120]
 5137 0016 04AE     		add	r6, sp, #16
 5138 0018 002B     		cmp	r3, #0
 5139 001a 5DD0     		beq	.L1087
 5140              	.L1113:
 5141 001c DFF85481 		ldr	r8, .L1117+28
 5142 0020 4D4C     		ldr	r4, .L1117
 5143 0022 4E4D     		ldr	r5, .L1117+4
 5144              	.L1086:
 5145 0024 09F1480B 		add	fp, r9, #72
 5146 0028 3146     		mov	r1, r6
 5147 002a 5846     		mov	r0, fp
 5148 002c FFF7FEFF 		bl	f_readdir
 5149 0030 4B4B     		ldr	r3, .L1117+8
 5150 0032 4FF48002 		mov	r2, #4194304
 5151 0036 9A61     		str	r2, [r3, #24]
 5152 0038 0028     		cmp	r0, #0
 5153 003a 67D1     		bne	.L1114
 5154 003c B37D     		ldrb	r3, [r6, #22]	@ zero_extendqisi2
 5155 003e 002B     		cmp	r3, #0
 5156 0040 66D0     		beq	.L1089
 5157 0042 7B1C     		adds	r3, r7, #1
 5158 0044 BB46     		mov	fp, r7
 5159 0046 DFB2     		uxtb	r7, r3
 5160              	.L1102:
 5161 0048 4FF0200A 		mov	r10, #32
 5162 004c 1F22     		movs	r2, #31
 5163 004e 0DF12601 		add	r1, sp, #38
 5164 0052 4448     		ldr	r0, .L1117+12
 5165 0054 88F800A0 		strb	r10, [r8]
 5166 0058 FFF7FEFF 		bl	to_petscii_pad
 5167 005c 327A     		ldrb	r2, [r6, #8]	@ zero_extendqisi2
 5168 005e 88F820A0 		strb	r10, [r8, #32]
 5169 0062 D306     		lsls	r3, r2, #27
 5170 0064 45D4     		bmi	.L1115
 5171 0066 404B     		ldr	r3, .L1117+16
ARM GAS  C:\Users\Jay\AppData\Local\Temp\ccjVRGue.s 			page 89


 5172 0068 3268     		ldr	r2, [r6]
 5173 006a 93E80300 		ldm	r3, {r0, r1}
 5174 006e B2F57A7F 		cmp	r2, #1000
 5175 0072 0290     		str	r0, [sp, #8]
 5176 0074 8DF80C10 		strb	r1, [sp, #12]
 5177 0078 66D3     		bcc	.L1104
 5178 007a 02AB     		add	r3, sp, #8
 5179 007c 00E0     		b	.L1097
 5180              	.L1105:
 5181 007e 0B46     		mov	r3, r1
 5182              	.L1097:
 5183 0080 1832     		adds	r2, r2, #24
 5184 0082 591C     		adds	r1, r3, #1
 5185 0084 920A     		lsrs	r2, r2, #10
 5186 0086 B2F57A7F 		cmp	r2, #1000
 5187 008a F8D2     		bcs	.L1105
 5188 008c 5B78     		ldrb	r3, [r3, #1]	@ zero_extendqisi2
 5189              	.L1096:
 5190 008e 632A     		cmp	r2, #99
 5191 0090 3AD8     		bhi	.L1106
 5192 0092 2021     		movs	r1, #32
 5193 0094 092A     		cmp	r2, #9
 5194 0096 88F82110 		strb	r1, [r8, #33]
 5195 009a 5AD8     		bhi	.L1107
 5196 009c 3348     		ldr	r0, .L1117+20
 5197 009e 88F82210 		strb	r1, [r8, #34]
 5198              	.L1098:
 5199 00a2 3349     		ldr	r1, .L1117+24
 5200 00a4 FFF7FEFF 		bl	sprint
 5201 00a8 019B     		ldr	r3, [sp, #4]
 5202 00aa 5B45     		cmp	r3, fp
 5203 00ac 28D0     		beq	.L1116
 5204              	.L1099:
 5205 00ae 314A     		ldr	r2, .L1117+28
 5206 00b0 4FF0800C 		mov	ip, #128
 5207 00b4 02F12600 		add	r0, r2, #38
 5208              	.L1101:
 5209 00b8 12F8011B 		ldrb	r1, [r2], #1	@ zero_extendqisi2
 5210              	.L1100:
 5211 00bc 2378     		ldrb	r3, [r4]	@ zero_extendqisi2
 5212 00be 002B     		cmp	r3, #0
 5213 00c0 FCD1     		bne	.L1100
 5214 00c2 8242     		cmp	r2, r0
 5215 00c4 2970     		strb	r1, [r5]
 5216 00c6 84F800C0 		strb	ip, [r4]
 5217 00ca F5D1     		bne	.L1101
 5218 00cc 162F     		cmp	r7, #22
 5219 00ce A9D1     		bne	.L1086
 5220              	.L1108:
 5221 00d0 3846     		mov	r0, r7
 5222 00d2 4BB0     		add	sp, sp, #300
 5223              		@ sp needed
 5224 00d4 BDE8F08F 		pop	{r4, r5, r6, r7, r8, r9, r10, fp, pc}
 5225              	.L1087:
 5226 00d8 42F62E61 		movw	r1, #11822
 5227 00dc 1022     		movs	r2, #16
 5228 00de 9B46     		mov	fp, r3
ARM GAS  C:\Users\Jay\AppData\Local\Temp\ccjVRGue.s 			page 90


 5229 00e0 3376     		strb	r3, [r6, #24]
 5230 00e2 0127     		movs	r7, #1
 5231 00e4 F182     		strh	r1, [r6, #22]	@ movhi
 5232 00e6 3272     		strb	r2, [r6, #8]
 5233 00e8 DFF88880 		ldr	r8, .L1117+28
 5234 00ec 1A4C     		ldr	r4, .L1117
 5235 00ee 1B4D     		ldr	r5, .L1117+4
 5236 00f0 AAE7     		b	.L1102
 5237              	.L1115:
 5238 00f2 2149     		ldr	r1, .L1117+32
 5239 00f4 2148     		ldr	r0, .L1117+36
 5240 00f6 FFF7FEFF 		bl	sprint
 5241 00fa 019B     		ldr	r3, [sp, #4]
 5242 00fc 5B45     		cmp	r3, fp
 5243 00fe D6D1     		bne	.L1099
 5244              	.L1116:
 5245 0100 A023     		movs	r3, #160
 5246 0102 88F80030 		strb	r3, [r8]
 5247 0106 D2E7     		b	.L1099
 5248              	.L1106:
 5249 0108 1C48     		ldr	r0, .L1117+36
 5250 010a CAE7     		b	.L1098
 5251              	.L1114:
 5252 010c 0023     		movs	r3, #0
 5253 010e B375     		strb	r3, [r6, #22]
 5254              	.L1089:
 5255 0110 5846     		mov	r0, fp
 5256 0112 4FF48006 		mov	r6, #4194304
 5257 0116 FFF7FEFF 		bl	f_closedir
 5258 011a 0023     		movs	r3, #0
 5259 011c 1049     		ldr	r1, .L1117+8
 5260 011e 0120     		movs	r0, #1
 5261 0120 144A     		ldr	r2, .L1117+28
 5262 0122 8E61     		str	r6, [r1, #24]
 5263 0124 1946     		mov	r1, r3
 5264 0126 89F81500 		strb	r0, [r9, #21]
 5265 012a 02F12506 		add	r6, r2, #37
 5266 012e 8020     		movs	r0, #128
 5267 0130 88F80030 		strb	r3, [r8]
 5268              	.L1091:
 5269 0134 2378     		ldrb	r3, [r4]	@ zero_extendqisi2
 5270 0136 002B     		cmp	r3, #0
 5271 0138 FCD1     		bne	.L1091
 5272 013a B242     		cmp	r2, r6
 5273 013c 2970     		strb	r1, [r5]
 5274 013e 2070     		strb	r0, [r4]
 5275 0140 C6D0     		beq	.L1108
 5276 0142 12F8011F 		ldrb	r1, [r2, #1]!	@ zero_extendqisi2
 5277 0146 F5E7     		b	.L1091
 5278              	.L1104:
 5279 0148 4223     		movs	r3, #66
 5280 014a A0E7     		b	.L1096
 5281              	.L1103:
 5282 014c 0027     		movs	r7, #0
 5283 014e 04AE     		add	r6, sp, #16
 5284 0150 64E7     		b	.L1113
 5285              	.L1107:
ARM GAS  C:\Users\Jay\AppData\Local\Temp\ccjVRGue.s 			page 91


 5286 0152 0B48     		ldr	r0, .L1117+40
 5287 0154 A5E7     		b	.L1098
 5288              	.L1118:
 5289 0156 00BF     		.align	2
 5290              	.L1117:
 5291 0158 00000000 		.word	.LANCHOR9
 5292 015c 00000000 		.word	.LANCHOR10
 5293 0160 00100258 		.word	1476530176
 5294 0164 01000100 		.word	scratch_buf+1
 5295 0168 10000000 		.word	.LC23
 5296 016c 23000100 		.word	scratch_buf+35
 5297 0170 08000000 		.word	.LC24
 5298 0174 00000100 		.word	scratch_buf
 5299 0178 00000000 		.word	.LC22
 5300 017c 21000100 		.word	scratch_buf+33
 5301 0180 22000100 		.word	scratch_buf+34
 5303              		.section	.text.handle_dir_next_page_command,"ax",%progbits
 5304              		.align	1
 5305              		.p2align 2,,3
 5306              		.syntax unified
 5307              		.thumb
 5308              		.thumb_func
 5309              		.fpu fpv5-sp-d16
 5311              	handle_dir_next_page_command:
 5312              		@ args = 0, pretend = 0, frame = 48
 5313              		@ frame_needed = 0, uses_anonymous_args = 0
 5314 0000 F0B5     		push	{r4, r5, r6, r7, lr}
 5315 0002 234A     		ldr	r2, .L1131
 5316 0004 8DB0     		sub	sp, sp, #52
 5317              	.L1120:
 5318 0006 1378     		ldrb	r3, [r2]	@ zero_extendqisi2
 5319 0008 03F0FF06 		and	r6, r3, #255
 5320 000c 002B     		cmp	r3, #0
 5321 000e FAD1     		bne	.L1120
 5322 0010 204D     		ldr	r5, .L1131+4
 5323 0012 0221     		movs	r1, #2
 5324 0014 8024     		movs	r4, #128
 5325 0016 437D     		ldrb	r3, [r0, #21]	@ zero_extendqisi2
 5326 0018 2970     		strb	r1, [r5]
 5327 001a 1470     		strb	r4, [r2]
 5328 001c 7BB1     		cbz	r3, .L1130
 5329 001e 1E4B     		ldr	r3, .L1131+8
 5330 0020 3046     		mov	r0, r6
 5331 0022 1E70     		strb	r6, [r3]
 5332 0024 1946     		mov	r1, r3
 5333 0026 03F12506 		add	r6, r3, #37
 5334              	.L1125:
 5335 002a 1378     		ldrb	r3, [r2]	@ zero_extendqisi2
 5336 002c 002B     		cmp	r3, #0
 5337 002e FCD1     		bne	.L1125
 5338 0030 8E42     		cmp	r6, r1
 5339 0032 2870     		strb	r0, [r5]
 5340 0034 1470     		strb	r4, [r2]
 5341 0036 22D0     		beq	.L1119
 5342 0038 11F8010F 		ldrb	r0, [r1, #1]!	@ zero_extendqisi2
 5343 003c F5E7     		b	.L1125
 5344              	.L1130:
ARM GAS  C:\Users\Jay\AppData\Local\Temp\ccjVRGue.s 			page 92


 5345 003e 00F14806 		add	r6, r0, #72
 5346 0042 0446     		mov	r4, r0
 5347 0044 B0F87870 		ldrh	r7, [r0, #120]
 5348 0048 6D46     		mov	r5, sp
 5349 004a 0FCE     		ldmia	r6!, {r0, r1, r2, r3}
 5350 004c 0FC5     		stmia	r5!, {r0, r1, r2, r3}
 5351 004e 0FCE     		ldmia	r6!, {r0, r1, r2, r3}
 5352 0050 0137     		adds	r7, r7, #1
 5353 0052 0FC5     		stmia	r5!, {r0, r1, r2, r3}
 5354 0054 96E80F00 		ldm	r6, {r0, r1, r2, r3}
 5355 0058 A4F87870 		strh	r7, [r4, #120]	@ movhi
 5356 005c 85E80F00 		stm	r5, {r0, r1, r2, r3}
 5357 0060 1621     		movs	r1, #22
 5358 0062 2046     		mov	r0, r4
 5359 0064 FFF7FEFF 		bl	sd_send_page
 5360 0068 58B1     		cbz	r0, .L1122
 5361 006a 6D46     		mov	r5, sp
 5362 006c 1834     		adds	r4, r4, #24
 5363 006e 0FCD     		ldmia	r5!, {r0, r1, r2, r3}
 5364 0070 0FC4     		stmia	r4!, {r0, r1, r2, r3}
 5365 0072 0FCD     		ldmia	r5!, {r0, r1, r2, r3}
 5366 0074 0FC4     		stmia	r4!, {r0, r1, r2, r3}
 5367 0076 95E80F00 		ldm	r5, {r0, r1, r2, r3}
 5368 007a 84E80F00 		stm	r4, {r0, r1, r2, r3}
 5369              	.L1119:
 5370 007e 0DB0     		add	sp, sp, #52
 5371              		@ sp needed
 5372 0080 F0BD     		pop	{r4, r5, r6, r7, pc}
 5373              	.L1122:
 5374 0082 B4F87830 		ldrh	r3, [r4, #120]
 5375 0086 013B     		subs	r3, r3, #1
 5376 0088 A4F87830 		strh	r3, [r4, #120]	@ movhi
 5377 008c 0DB0     		add	sp, sp, #52
 5378              		@ sp needed
 5379 008e F0BD     		pop	{r4, r5, r6, r7, pc}
 5380              	.L1132:
 5381              		.align	2
 5382              	.L1131:
 5383 0090 00000000 		.word	.LANCHOR9
 5384 0094 00000000 		.word	.LANCHOR10
 5385 0098 00000100 		.word	scratch_buf
 5387              		.section	.text.d64_send_page,"ax",%progbits
 5388              		.align	1
 5389              		.p2align 2,,3
 5390              		.syntax unified
 5391              		.thumb
 5392              		.thumb_func
 5393              		.fpu fpv5-sp-d16
 5395              	d64_send_page:
 5396              		@ args = 0, pretend = 0, frame = 24
 5397              		@ frame_needed = 0, uses_anonymous_args = 0
 5398 0000 2DE9F04F 		push	{r4, r5, r6, r7, r8, r9, r10, fp, lr}
 5399 0004 0023     		movs	r3, #0
 5400 0006 87B0     		sub	sp, sp, #28
 5401 0008 DFF80C82 		ldr	r8, .L1185+24
 5402 000c 7C4C     		ldr	r4, .L1185
 5403 000e 7D4D     		ldr	r5, .L1185+4
ARM GAS  C:\Users\Jay\AppData\Local\Temp\ccjVRGue.s 			page 93


 5404 0010 DFF814A2 		ldr	r10, .L1185+40
 5405 0014 0390     		str	r0, [sp, #12]
 5406 0016 0591     		str	r1, [sp, #20]
 5407 0018 0293     		str	r3, [sp, #8]
 5408              	.L1160:
 5409 001a 029A     		ldr	r2, [sp, #8]
 5410 001c D3B2     		uxtb	r3, r2
 5411 001e 0093     		str	r3, [sp]
 5412 0020 002A     		cmp	r2, #0
 5413 0022 00F0B480 		beq	.L1177
 5414 0026 009B     		ldr	r3, [sp]
 5415 0028 012B     		cmp	r3, #1
 5416 002a 00F0BB80 		beq	.L1178
 5417              	.L1135:
 5418 002e 039B     		ldr	r3, [sp, #12]
 5419 0030 03F11400 		add	r0, r3, #20
 5420 0034 FFF7FEFF 		bl	d64_read_dir
 5421 0038 0028     		cmp	r0, #0
 5422 003a 00F09080 		beq	.L1179
 5423 003e 039A     		ldr	r2, [sp, #12]
 5424 0040 2023     		movs	r3, #32
 5425 0042 0020     		movs	r0, #0
 5426 0044 42F21076 		movw	r6, #10000
 5427 0048 D2F84423 		ldr	r2, [r2, #836]
 5428 004c 88F80030 		strb	r3, [r8]
 5429 0050 8446     		mov	ip, r0
 5430 0052 0192     		str	r2, [sp, #4]
 5431 0054 0746     		mov	r7, r0
 5432 0056 0493     		str	r3, [sp, #16]
 5433 0058 B2F81EB0 		ldrh	fp, [r2, #30]	@ unaligned
 5434              	.L1148:
 5435 005c 0CF1010E 		add	lr, ip, #1
 5436 0060 A8EB0001 		sub	r1, r8, r0
 5437 0064 BBFBF6F3 		udiv	r3, fp, r6
 5438 0068 AAFB0329 		umull	r2, r9, r10, r3
 5439 006c C2B2     		uxtb	r2, r0
 5440 006e 4FEAD909 		lsr	r9, r9, #3
 5441 0072 09EB8909 		add	r9, r9, r9, lsl #2
 5442 0076 A3EB4903 		sub	r3, r3, r9, lsl #1
 5443 007a 13F0FF03 		ands	r3, r3, #255
 5444 007e 14BF     		ite	ne
 5445 0080 4FF00109 		movne	r9, #1
 5446 0084 4FF00009 		moveq	r9, #0
 5447 0088 3033     		adds	r3, r3, #48
 5448 008a 042A     		cmp	r2, #4
 5449 008c 08BF     		it	eq
 5450 008e 49F00109 		orreq	r9, r9, #1
 5451 0092 57EA0907 		orrs	r7, r7, r9
 5452 0096 5FD0     		beq	.L1146
 5453 0098 5B4A     		ldr	r2, .L1185+8
 5454 009a 0CF80230 		strb	r3, [ip, r2]
 5455 009e 5FFA8EFC 		uxtb	ip, lr
 5456              	.L1147:
 5457 00a2 0130     		adds	r0, r0, #1
 5458 00a4 AAFB0636 		umull	r3, r6, r10, r6
 5459 00a8 0528     		cmp	r0, #5
 5460 00aa 4FEAD606 		lsr	r6, r6, #3
ARM GAS  C:\Users\Jay\AppData\Local\Temp\ccjVRGue.s 			page 94


 5461 00ae D5D1     		bne	.L1148
 5462 00b0 2022     		movs	r2, #32
 5463 00b2 564B     		ldr	r3, .L1185+12
 5464 00b4 0199     		ldr	r1, [sp, #4]
 5465 00b6 1046     		mov	r0, r2
 5466 00b8 03F11A06 		add	r6, r3, #26
 5467 00bc 0531     		adds	r1, r1, #5
 5468 00be 88F80620 		strb	r2, [r8, #6]
 5469 00c2 09E0     		b	.L1153
 5470              	.L1181:
 5471 00c4 0D2A     		cmp	r2, #13
 5472 00c6 01F10101 		add	r1, r1, #1
 5473 00ca 43D0     		beq	.L1162
 5474 00cc 0A2A     		cmp	r2, #10
 5475 00ce 41D0     		beq	.L1162
 5476              	.L1150:
 5477 00d0 B342     		cmp	r3, r6
 5478 00d2 03F8012C 		strb	r2, [r3, #-1]
 5479 00d6 07D0     		beq	.L1180
 5480              	.L1153:
 5481 00d8 0A78     		ldrb	r2, [r1]	@ zero_extendqisi2
 5482 00da 0133     		adds	r3, r3, #1
 5483 00dc 002A     		cmp	r2, #0
 5484 00de F1D1     		bne	.L1181
 5485 00e0 B342     		cmp	r3, r6
 5486 00e2 03F8010C 		strb	r0, [r3, #-1]
 5487 00e6 F7D1     		bne	.L1153
 5488              	.L1180:
 5489 00e8 019B     		ldr	r3, [sp, #4]
 5490 00ea 019E     		ldr	r6, [sp, #4]
 5491 00ec 93F90230 		ldrsb	r3, [r3, #2]
 5492 00f0 474A     		ldr	r2, .L1185+16
 5493 00f2 002B     		cmp	r3, #0
 5494 00f4 4748     		ldr	r0, .L1185+20
 5495 00f6 ACBF     		ite	ge
 5496 00f8 2A23     		movge	r3, #42
 5497 00fa 2023     		movlt	r3, #32
 5498 00fc 88F82130 		strb	r3, [r8, #33]
 5499 0100 B378     		ldrb	r3, [r6, #2]	@ zero_extendqisi2
 5500 0102 03F00703 		and	r3, r3, #7
 5501 0106 52F82310 		ldr	r1, [r2, r3, lsl #2]
 5502 010a FFF7FEFF 		bl	strcpy
 5503 010e B378     		ldrb	r3, [r6, #2]	@ zero_extendqisi2
 5504 0110 5B06     		lsls	r3, r3, #25
 5505 0112 4CBF     		ite	mi
 5506 0114 3C23     		movmi	r3, #60
 5507 0116 2023     		movpl	r3, #32
 5508 0118 88F82530 		strb	r3, [r8, #37]
 5509              	.L1136:
 5510 011c 059B     		ldr	r3, [sp, #20]
 5511 011e 009A     		ldr	r2, [sp]
 5512 0120 9342     		cmp	r3, r2
 5513 0122 67D0     		beq	.L1182
 5514              	.L1157:
 5515 0124 3C4A     		ldr	r2, .L1185+24
 5516 0126 8026     		movs	r6, #128
 5517 0128 02F12600 		add	r0, r2, #38
ARM GAS  C:\Users\Jay\AppData\Local\Temp\ccjVRGue.s 			page 95


 5518              	.L1159:
 5519 012c 12F8011B 		ldrb	r1, [r2], #1	@ zero_extendqisi2
 5520              	.L1158:
 5521 0130 2378     		ldrb	r3, [r4]	@ zero_extendqisi2
 5522 0132 002B     		cmp	r3, #0
 5523 0134 FCD1     		bne	.L1158
 5524 0136 8242     		cmp	r2, r0
 5525 0138 2970     		strb	r1, [r5]
 5526 013a 2670     		strb	r6, [r4]
 5527 013c F6D1     		bne	.L1159
 5528 013e 029B     		ldr	r3, [sp, #8]
 5529 0140 0133     		adds	r3, r3, #1
 5530 0142 162B     		cmp	r3, #22
 5531 0144 0293     		str	r3, [sp, #8]
 5532 0146 7FF468AF 		bne	.L1160
 5533 014a 0093     		str	r3, [sp]
 5534              	.L1144:
 5535 014c 0098     		ldr	r0, [sp]
 5536 014e 07B0     		add	sp, sp, #28
 5537              		@ sp needed
 5538 0150 BDE8F08F 		pop	{r4, r5, r6, r7, r8, r9, r10, fp, pc}
 5539              	.L1162:
 5540 0154 5F22     		movs	r2, #95
 5541 0156 BBE7     		b	.L1150
 5542              	.L1146:
 5543 0158 049B     		ldr	r3, [sp, #16]
 5544 015a 4B71     		strb	r3, [r1, #5]
 5545 015c A1E7     		b	.L1147
 5546              	.L1179:
 5547 015e 039F     		ldr	r7, [sp, #12]
 5548 0160 0126     		movs	r6, #1
 5549 0162 2D4A     		ldr	r2, .L1185+24
 5550 0164 0146     		mov	r1, r0
 5551 0166 D7F84033 		ldr	r3, [r7, #832]
 5552 016a 1870     		strb	r0, [r3]
 5553 016c 87F84963 		strb	r6, [r7, #841]
 5554 0170 02F12506 		add	r6, r2, #37
 5555 0174 88F80000 		strb	r0, [r8]
 5556 0178 8020     		movs	r0, #128
 5557              	.L1143:
 5558 017a 2378     		ldrb	r3, [r4]	@ zero_extendqisi2
 5559 017c 002B     		cmp	r3, #0
 5560 017e FCD1     		bne	.L1143
 5561 0180 B242     		cmp	r2, r6
 5562 0182 2970     		strb	r1, [r5]
 5563 0184 2070     		strb	r0, [r4]
 5564 0186 E1D0     		beq	.L1144
 5565 0188 12F8011F 		ldrb	r1, [r2, #1]!	@ zero_extendqisi2
 5566 018c F5E7     		b	.L1143
 5567              	.L1177:
 5568 018e 039B     		ldr	r3, [sp, #12]
 5569 0190 93F84833 		ldrb	r3, [r3, #840]	@ zero_extendqisi2
 5570 0194 002B     		cmp	r3, #0
 5571 0196 7FF44AAF 		bne	.L1135
 5572 019a 2049     		ldr	r1, .L1185+28
 5573 019c 1E48     		ldr	r0, .L1185+24
 5574 019e FFF7FEFF 		bl	sprint
ARM GAS  C:\Users\Jay\AppData\Local\Temp\ccjVRGue.s 			page 96


 5575 01a2 BBE7     		b	.L1136
 5576              	.L1178:
 5577 01a4 039B     		ldr	r3, [sp, #12]
 5578 01a6 93F84833 		ldrb	r3, [r3, #840]	@ zero_extendqisi2
 5579 01aa 002B     		cmp	r3, #0
 5580 01ac 7FF43FAF 		bne	.L1135
 5581 01b0 039B     		ldr	r3, [sp, #12]
 5582 01b2 1948     		ldr	r0, .L1185+24
 5583 01b4 1A49     		ldr	r1, .L1185+32
 5584 01b6 D3F84073 		ldr	r7, [r3, #832]
 5585 01ba FFF7FEFF 		bl	sprint
 5586 01be 1348     		ldr	r0, .L1185+12
 5587 01c0 2022     		movs	r2, #32
 5588 01c2 00F11A06 		add	r6, r0, #26
 5589 01c6 09E0     		b	.L1141
 5590              	.L1184:
 5591 01c8 0D2B     		cmp	r3, #13
 5592 01ca 07F10107 		add	r7, r7, #1
 5593 01ce 15D0     		beq	.L1161
 5594 01d0 0A2B     		cmp	r3, #10
 5595 01d2 13D0     		beq	.L1161
 5596              	.L1138:
 5597 01d4 B042     		cmp	r0, r6
 5598 01d6 00F8013C 		strb	r3, [r0, #-1]
 5599 01da 07D0     		beq	.L1183
 5600              	.L1141:
 5601 01dc 3B78     		ldrb	r3, [r7]	@ zero_extendqisi2
 5602 01de 0130     		adds	r0, r0, #1
 5603 01e0 002B     		cmp	r3, #0
 5604 01e2 F1D1     		bne	.L1184
 5605 01e4 B042     		cmp	r0, r6
 5606 01e6 00F8012C 		strb	r2, [r0, #-1]
 5607 01ea F7D1     		bne	.L1141
 5608              	.L1183:
 5609 01ec 0D49     		ldr	r1, .L1185+36
 5610 01ee FFF7FEFF 		bl	sprint
 5611 01f2 93E7     		b	.L1136
 5612              	.L1182:
 5613 01f4 A023     		movs	r3, #160
 5614 01f6 88F80030 		strb	r3, [r8]
 5615 01fa 93E7     		b	.L1157
 5616              	.L1161:
 5617 01fc 5F23     		movs	r3, #95
 5618 01fe E9E7     		b	.L1138
 5619              	.L1186:
 5620              		.align	2
 5621              	.L1185:
 5622 0200 00000000 		.word	.LANCHOR9
 5623 0204 00000000 		.word	.LANCHOR10
 5624 0208 01000100 		.word	scratch_buf+1
 5625 020c 07000100 		.word	scratch_buf+7
 5626 0210 00000000 		.word	.LANCHOR28
 5627 0214 22000100 		.word	scratch_buf+34
 5628 0218 00000100 		.word	scratch_buf
 5629 021c 00000000 		.word	.LC25
 5630 0220 28000000 		.word	.LC26
 5631 0224 30000000 		.word	.LC27
ARM GAS  C:\Users\Jay\AppData\Local\Temp\ccjVRGue.s 			page 97


 5632 0228 CDCCCCCC 		.word	-858993459
 5634              		.section	.text.d64_next_page,"ax",%progbits
 5635              		.align	1
 5636              		.p2align 2,,3
 5637              		.syntax unified
 5638              		.thumb
 5639              		.thumb_func
 5640              		.fpu fpv5-sp-d16
 5642              	d64_next_page:
 5643              		@ args = 0, pretend = 0, frame = 0
 5644              		@ frame_needed = 0, uses_anonymous_args = 0
 5645 0000 174A     		ldr	r2, .L1198
 5646 0002 70B5     		push	{r4, r5, r6, lr}
 5647              	.L1188:
 5648 0004 1378     		ldrb	r3, [r2]	@ zero_extendqisi2
 5649 0006 03F0FF06 		and	r6, r3, #255
 5650 000a 002B     		cmp	r3, #0
 5651 000c FAD1     		bne	.L1188
 5652 000e 154D     		ldr	r5, .L1198+4
 5653 0010 0221     		movs	r1, #2
 5654 0012 8024     		movs	r4, #128
 5655 0014 90F84933 		ldrb	r3, [r0, #841]	@ zero_extendqisi2
 5656 0018 2970     		strb	r1, [r5]
 5657 001a 1470     		strb	r4, [r2]
 5658 001c 7BB1     		cbz	r3, .L1197
 5659 001e 124B     		ldr	r3, .L1198+8
 5660 0020 3046     		mov	r0, r6
 5661 0022 1E70     		strb	r6, [r3]
 5662 0024 1946     		mov	r1, r3
 5663 0026 03F12506 		add	r6, r3, #37
 5664              	.L1192:
 5665 002a 1378     		ldrb	r3, [r2]	@ zero_extendqisi2
 5666 002c 002B     		cmp	r3, #0
 5667 002e FCD1     		bne	.L1192
 5668 0030 8E42     		cmp	r6, r1
 5669 0032 2870     		strb	r0, [r5]
 5670 0034 1470     		strb	r4, [r2]
 5671 0036 11D0     		beq	.L1187
 5672 0038 11F8010F 		ldrb	r0, [r1, #1]!	@ zero_extendqisi2
 5673 003c F5E7     		b	.L1192
 5674              	.L1197:
 5675 003e 90F84833 		ldrb	r3, [r0, #840]	@ zero_extendqisi2
 5676 0042 1621     		movs	r1, #22
 5677 0044 0446     		mov	r4, r0
 5678 0046 0133     		adds	r3, r3, #1
 5679 0048 80F84833 		strb	r3, [r0, #840]
 5680 004c FFF7FEFF 		bl	d64_send_page
 5681 0050 20B9     		cbnz	r0, .L1187
 5682 0052 94F84833 		ldrb	r3, [r4, #840]	@ zero_extendqisi2
 5683 0056 013B     		subs	r3, r3, #1
 5684 0058 84F84833 		strb	r3, [r4, #840]
 5685              	.L1187:
 5686 005c 70BD     		pop	{r4, r5, r6, pc}
 5687              	.L1199:
 5688 005e 00BF     		.align	2
 5689              	.L1198:
 5690 0060 00000000 		.word	.LANCHOR9
ARM GAS  C:\Users\Jay\AppData\Local\Temp\ccjVRGue.s 			page 98


 5691 0064 00000000 		.word	.LANCHOR10
 5692 0068 00000100 		.word	scratch_buf
 5694              		.section	.text.sdio_check_tran.constprop.96,"ax",%progbits
 5695              		.align	1
 5696              		.p2align 2,,3
 5697              		.syntax unified
 5698              		.thumb
 5699              		.thumb_func
 5700              		.fpu fpv5-sp-d16
 5702              	sdio_check_tran.constprop.96:
 5703              		@ args = 0, pretend = 0, frame = 8
 5704              		@ frame_needed = 0, uses_anonymous_args = 0
 5705 0000 0F4B     		ldr	r3, .L1212
 5706 0002 0022     		movs	r2, #0
 5707 0004 0F49     		ldr	r1, .L1212+4
 5708 0006 30B5     		push	{r4, r5, lr}
 5709 0008 1C46     		mov	r4, r3
 5710 000a 83B0     		sub	sp, sp, #12
 5711 000c 0E4D     		ldr	r5, .L1212+8
 5712 000e 5960     		str	r1, [r3, #4]
 5713 0010 9A60     		str	r2, [r3, #8]
 5714              	.L1207:
 5715 0012 2168     		ldr	r1, [r4]
 5716 0014 01AB     		add	r3, sp, #4
 5717 0016 0122     		movs	r2, #1
 5718 0018 0D20     		movs	r0, #13
 5719 001a C903     		lsls	r1, r1, #15
 5720 001c 0DD4     		bmi	.L1211
 5721 001e 2988     		ldrh	r1, [r5]
 5722 0020 0904     		lsls	r1, r1, #16
 5723 0022 FFF7FEFF 		bl	sdio_cmd_send
 5724 0026 0028     		cmp	r0, #0
 5725 0028 F3D0     		beq	.L1207
 5726 002a 019B     		ldr	r3, [sp, #4]
 5727 002c 03F4F053 		and	r3, r3, #7680
 5728 0030 B3F5006F 		cmp	r3, #2048
 5729 0034 EDD1     		bne	.L1207
 5730 0036 03B0     		add	sp, sp, #12
 5731              		@ sp needed
 5732 0038 30BD     		pop	{r4, r5, pc}
 5733              	.L1211:
 5734 003a 0020     		movs	r0, #0
 5735 003c 03B0     		add	sp, sp, #12
 5736              		@ sp needed
 5737 003e 30BD     		pop	{r4, r5, pc}
 5738              	.L1213:
 5739              		.align	2
 5740              	.L1212:
 5741 0040 10E000E0 		.word	-536813552
 5742 0044 A037A000 		.word	10500000
 5743 0048 00000000 		.word	.LANCHOR0
 5745              		.section	.text.c64_send_text,"ax",%progbits
 5746              		.align	1
 5747              		.p2align 2,,3
 5748              		.syntax unified
 5749              		.thumb
 5750              		.thumb_func
ARM GAS  C:\Users\Jay\AppData\Local\Temp\ccjVRGue.s 			page 99


 5751              		.fpu fpv5-sp-d16
 5753              	c64_send_text:
 5754              		@ args = 0, pretend = 0, frame = 0
 5755              		@ frame_needed = 0, uses_anonymous_args = 0
 5756 0000 2DE9F843 		push	{r3, r4, r5, r6, r7, r8, r9, lr}
 5757 0004 344F     		ldr	r7, .L1245
 5758 0006 01F54879 		add	r9, r1, #800
 5759 000a 0A46     		mov	r2, r1
 5760 000c 3E46     		mov	r6, r7
 5761 000e 05E0     		b	.L1219
 5762              	.L1243:
 5763 0010 5FFA88F3 		uxtb	r3, r8
 5764              	.L1217:
 5765 0014 9145     		cmp	r9, r2
 5766 0016 06F8013B 		strb	r3, [r6], #1
 5767 001a 1AD0     		beq	.L1242
 5768              	.L1219:
 5769 001c 551A     		subs	r5, r2, r1
 5770 001e 12F8013B 		ldrb	r3, [r2], #1	@ zero_extendqisi2
 5771 0022 B646     		mov	lr, r6
 5772 0024 A3F16104 		sub	r4, r3, #97
 5773 0028 A3F1410C 		sub	ip, r3, #65
 5774 002c 03F12008 		add	r8, r3, #32
 5775 0030 ADB2     		uxth	r5, r5
 5776 0032 E4B2     		uxtb	r4, r4
 5777 0034 A3B1     		cbz	r3, .L1215
 5778 0036 BCF1190F 		cmp	ip, #25
 5779 003a E9D9     		bls	.L1243
 5780 003c 192C     		cmp	r4, #25
 5781 003e A3F12004 		sub	r4, r3, #32
 5782 0042 0BD9     		bls	.L1244
 5783 0044 5F2B     		cmp	r3, #95
 5784 0046 08BF     		it	eq
 5785 0048 A423     		moveq	r3, #164
 5786 004a 9145     		cmp	r9, r2
 5787 004c 06F8013B 		strb	r3, [r6], #1
 5788 0050 E4D1     		bne	.L1219
 5789              	.L1242:
 5790 0052 40F22135 		movw	r5, #801
 5791 0056 DFF898E0 		ldr	lr, .L1245+24
 5792 005a 03E0     		b	.L1220
 5793              	.L1244:
 5794 005c E3B2     		uxtb	r3, r4
 5795 005e D9E7     		b	.L1217
 5796              	.L1215:
 5797 0060 0135     		adds	r5, r5, #1
 5798 0062 ADB2     		uxth	r5, r5
 5799              	.L1220:
 5800 0064 0023     		movs	r3, #0
 5801 0066 1D49     		ldr	r1, .L1245+4
 5802 0068 8EF80030 		strb	r3, [lr]
 5803 006c FFF7FEFF 		bl	c64_send_command
 5804 0070 0028     		cmp	r0, #0
 5805 0072 2FD0     		beq	.L1221
 5806 0074 E9B2     		uxtb	r1, r5
 5807 0076 1A4A     		ldr	r2, .L1245+8
 5808              	.L1222:
ARM GAS  C:\Users\Jay\AppData\Local\Temp\ccjVRGue.s 			page 100


 5809 0078 1378     		ldrb	r3, [r2]	@ zero_extendqisi2
 5810 007a 002B     		cmp	r3, #0
 5811 007c FCD1     		bne	.L1222
 5812 007e 194E     		ldr	r6, .L1245+12
 5813 0080 8023     		movs	r3, #128
 5814 0082 C5F30724 		ubfx	r4, r5, #8, #8
 5815 0086 3170     		strb	r1, [r6]
 5816 0088 1370     		strb	r3, [r2]
 5817              	.L1223:
 5818 008a 1378     		ldrb	r3, [r2]	@ zero_extendqisi2
 5819 008c 002B     		cmp	r3, #0
 5820 008e FCD1     		bne	.L1223
 5821 0090 8023     		movs	r3, #128
 5822 0092 3D44     		add	r5, r5, r7
 5823 0094 1049     		ldr	r1, .L1245
 5824 0096 1F46     		mov	r7, r3
 5825 0098 3470     		strb	r4, [r6]
 5826 009a 1370     		strb	r3, [r2]
 5827              	.L1225:
 5828 009c 11F8014B 		ldrb	r4, [r1], #1	@ zero_extendqisi2
 5829              	.L1224:
 5830 00a0 1378     		ldrb	r3, [r2]	@ zero_extendqisi2
 5831 00a2 002B     		cmp	r3, #0
 5832 00a4 FCD1     		bne	.L1224
 5833 00a6 A942     		cmp	r1, r5
 5834 00a8 3470     		strb	r4, [r6]
 5835 00aa 1770     		strb	r7, [r2]
 5836 00ac F6D1     		bne	.L1225
 5837 00ae 0E4B     		ldr	r3, .L1245+16
 5838              	.L1226:
 5839 00b0 1A78     		ldrb	r2, [r3]	@ zero_extendqisi2
 5840 00b2 002A     		cmp	r2, #0
 5841 00b4 FCD1     		bne	.L1226
 5842 00b6 0D4C     		ldr	r4, .L1245+20
 5843 00b8 2178     		ldrb	r1, [r4]	@ zero_extendqisi2
 5844 00ba C9B2     		uxtb	r1, r1
 5845 00bc 4022     		movs	r2, #64
 5846 00be 1A70     		strb	r2, [r3]
 5847              	.L1227:
 5848 00c0 1A78     		ldrb	r2, [r3]	@ zero_extendqisi2
 5849 00c2 002A     		cmp	r2, #0
 5850 00c4 FCD1     		bne	.L1227
 5851 00c6 2278     		ldrb	r2, [r4]	@ zero_extendqisi2
 5852 00c8 D2B2     		uxtb	r2, r2
 5853 00ca 4024     		movs	r4, #64
 5854 00cc 1C70     		strb	r4, [r3]
 5855 00ce 01B9     		cbnz	r1, .L1229
 5856 00d0 02B1     		cbz	r2, .L1221
 5857              	.L1229:
 5858 00d2 0020     		movs	r0, #0
 5859              	.L1221:
 5860 00d4 BDE8F883 		pop	{r3, r4, r5, r6, r7, r8, r9, pc}
 5861              	.L1246:
 5862              		.align	2
 5863              	.L1245:
 5864 00d8 00000100 		.word	scratch_buf
 5865 00dc 00000000 		.word	.LC28
ARM GAS  C:\Users\Jay\AppData\Local\Temp\ccjVRGue.s 			page 101


 5866 00e0 00000000 		.word	.LANCHOR9
 5867 00e4 00000000 		.word	.LANCHOR10
 5868 00e8 00000000 		.word	.LANCHOR11
 5869 00ec 00000000 		.word	.LANCHOR12
 5870 00f0 20030100 		.word	scratch_buf+800
 5872              		.section	.text.handle_failed_to_read_sd,"ax",%progbits
 5873              		.align	1
 5874              		.p2align 2,,3
 5875              		.syntax unified
 5876              		.thumb
 5877              		.thumb_func
 5878              		.fpu fpv5-sp-d16
 5880              	handle_failed_to_read_sd:
 5881              		@ Volatile: function does not return.
 5882              		@ args = 0, pretend = 0, frame = 0
 5883              		@ frame_needed = 0, uses_anonymous_args = 0
 5884 0000 08B5     		push	{r3, lr}
 5885 0002 FFF7FEFF 		bl	c64_send_exit_menu
 5886 0006 0349     		ldr	r1, .L1249
 5887 0008 0348     		ldr	r0, .L1249+4
 5888 000a FFF7FEFF 		bl	c64_send_text
 5889 000e FFF7FEFF 		bl	restart_to_menu
 5890              	.L1250:
 5891 0012 00BF     		.align	2
 5892              	.L1249:
 5893 0014 00000000 		.word	.LC29
 5894 0018 18000000 		.word	.LC30
 5896              		.section	.text.handle_file_open,"ax",%progbits
 5897              		.align	1
 5898              		.p2align 2,,3
 5899              		.syntax unified
 5900              		.thumb
 5901              		.thumb_func
 5902              		.fpu fpv5-sp-d16
 5904              	handle_file_open:
 5905              		@ args = 0, pretend = 0, frame = 0
 5906              		@ frame_needed = 0, uses_anonymous_args = 0
 5907 0000 08B5     		push	{r3, lr}
 5908 0002 0122     		movs	r2, #1
 5909 0004 FFF7FEFF 		bl	f_open
 5910 0008 28B1     		cbz	r0, .L1251
 5911 000a 034B     		ldr	r3, .L1254
 5912 000c 4FF48002 		mov	r2, #4194304
 5913 0010 9A61     		str	r2, [r3, #24]
 5914 0012 FFF7FEFF 		bl	handle_failed_to_read_sd
 5915              	.L1251:
 5916 0016 08BD     		pop	{r3, pc}
 5917              	.L1255:
 5918              		.align	2
 5919              	.L1254:
 5920 0018 00100258 		.word	1476530176
 5922              		.section	.text.d64_menu_init,"ax",%progbits
 5923              		.align	1
 5924              		.p2align 2,,3
 5925              		.syntax unified
 5926              		.thumb
 5927              		.thumb_func
ARM GAS  C:\Users\Jay\AppData\Local\Temp\ccjVRGue.s 			page 102


 5928              		.fpu fpv5-sp-d16
 5930              	d64_menu_init:
 5931              		@ args = 0, pretend = 0, frame = 0
 5932              		@ frame_needed = 0, uses_anonymous_args = 0
 5933 0000 38B5     		push	{r3, r4, r5, lr}
 5934 0002 0A4B     		ldr	r3, .L1262
 5935 0004 1A68     		ldr	r2, [r3]
 5936 0006 22B1     		cbz	r2, .L1260
 5937              	.L1257:
 5938 0008 FFF7FEFF 		bl	d64_open.constprop.89
 5939 000c 60B1     		cbz	r0, .L1261
 5940 000e 0748     		ldr	r0, .L1262
 5941 0010 38BD     		pop	{r3, r4, r5, pc}
 5942              	.L1260:
 5943 0012 074A     		ldr	r2, .L1262+4
 5944 0014 074D     		ldr	r5, .L1262+8
 5945 0016 084C     		ldr	r4, .L1262+12
 5946 0018 0849     		ldr	r1, .L1262+16
 5947 001a 1A60     		str	r2, [r3]
 5948 001c 084A     		ldr	r2, .L1262+20
 5949 001e C3E90154 		strd	r5, r4, [r3, #4]
 5950 0022 C3E90312 		strd	r1, r2, [r3, #12]
 5951 0026 EFE7     		b	.L1257
 5952              	.L1261:
 5953 0028 FFF7FEFF 		bl	handle_failed_to_read_sd
 5954              	.L1263:
 5955              		.align	2
 5956              	.L1262:
 5957 002c 00000000 		.word	.LANCHOR24
 5958 0030 00000000 		.word	d64_dir
 5959 0034 00000000 		.word	d64_dir_up
 5960 0038 00000000 		.word	d64_prev_page
 5961 003c 00000000 		.word	d64_next_page
 5962 0040 00000000 		.word	d64_select
 5964              		.section	.text.d64_skip_to_page,"ax",%progbits
 5965              		.align	1
 5966              		.p2align 2,,3
 5967              		.syntax unified
 5968              		.thumb
 5969              		.thumb_func
 5970              		.fpu fpv5-sp-d16
 5972              	d64_skip_to_page:
 5973              		@ args = 0, pretend = 0, frame = 0
 5974              		@ frame_needed = 0, uses_anonymous_args = 0
 5975 0000 2DE9F041 		push	{r4, r5, r6, r7, r8, lr}
 5976 0004 01EB8105 		add	r5, r1, r1, lsl #2
 5977 0008 80F84813 		strb	r1, [r0, #840]
 5978 000c 01EB4501 		add	r1, r1, r5, lsl #1
 5979 0010 4D00     		lsls	r5, r1, #1
 5980 0012 022D     		cmp	r5, #2
 5981 0014 17D9     		bls	.L1269
 5982 0016 8046     		mov	r8, r0
 5983 0018 00F11407 		add	r7, r0, #20
 5984 001c 0224     		movs	r4, #2
 5985 001e 03E0     		b	.L1268
 5986              	.L1276:
 5987 0020 0134     		adds	r4, r4, #1
ARM GAS  C:\Users\Jay\AppData\Local\Temp\ccjVRGue.s 			page 103


 5988 0022 A4B2     		uxth	r4, r4
 5989 0024 A542     		cmp	r5, r4
 5990 0026 0ED0     		beq	.L1269
 5991              	.L1268:
 5992 0028 3846     		mov	r0, r7
 5993 002a FFF7FEFF 		bl	d64_read_dir
 5994 002e 0646     		mov	r6, r0
 5995 0030 0028     		cmp	r0, #0
 5996 0032 F5D1     		bne	.L1276
 5997 0034 3846     		mov	r0, r7
 5998 0036 FFF7FEFF 		bl	d64_read_disk_header
 5999 003a 40B1     		cbz	r0, .L1277
 6000 003c 88F84863 		strb	r6, [r8, #840]
 6001 0040 3046     		mov	r0, r6
 6002 0042 BDE8F081 		pop	{r4, r5, r6, r7, r8, pc}
 6003              	.L1269:
 6004 0046 0126     		movs	r6, #1
 6005 0048 3046     		mov	r0, r6
 6006 004a BDE8F081 		pop	{r4, r5, r6, r7, r8, pc}
 6007              	.L1277:
 6008 004e FFF7FEFF 		bl	handle_failed_to_read_sd
 6010 0052 00BF     		.section	.text.d64_prev_page,"ax",%progbits
 6011              		.align	1
 6012              		.p2align 2,,3
 6013              		.syntax unified
 6014              		.thumb
 6015              		.thumb_func
 6016              		.fpu fpv5-sp-d16
 6018              	d64_prev_page:
 6019              		@ args = 0, pretend = 0, frame = 0
 6020              		@ frame_needed = 0, uses_anonymous_args = 0
 6021 0000 1A4A     		ldr	r2, .L1290
 6022 0002 70B5     		push	{r4, r5, r6, lr}
 6023              	.L1279:
 6024 0004 1378     		ldrb	r3, [r2]	@ zero_extendqisi2
 6025 0006 03F0FF06 		and	r6, r3, #255
 6026 000a 002B     		cmp	r3, #0
 6027 000c FAD1     		bne	.L1279
 6028 000e 184D     		ldr	r5, .L1290+4
 6029 0010 0221     		movs	r1, #2
 6030 0012 8024     		movs	r4, #128
 6031 0014 90F84833 		ldrb	r3, [r0, #840]	@ zero_extendqisi2
 6032 0018 2970     		strb	r1, [r5]
 6033 001a 1470     		strb	r4, [r2]
 6034 001c 7BB9     		cbnz	r3, .L1288
 6035 001e 154E     		ldr	r6, .L1290+8
 6036 0020 1846     		mov	r0, r3
 6037 0022 3146     		mov	r1, r6
 6038 0024 3370     		strb	r3, [r6]
 6039 0026 2536     		adds	r6, r6, #37
 6040              	.L1282:
 6041 0028 1378     		ldrb	r3, [r2]	@ zero_extendqisi2
 6042 002a 002B     		cmp	r3, #0
 6043 002c FCD1     		bne	.L1282
 6044 002e 8E42     		cmp	r6, r1
 6045 0030 2870     		strb	r0, [r5]
 6046 0032 1470     		strb	r4, [r2]
ARM GAS  C:\Users\Jay\AppData\Local\Temp\ccjVRGue.s 			page 104


 6047 0034 02D0     		beq	.L1278
 6048 0036 11F8010F 		ldrb	r0, [r1, #1]!	@ zero_extendqisi2
 6049 003a F5E7     		b	.L1282
 6050              	.L1278:
 6051 003c 70BD     		pop	{r4, r5, r6, pc}
 6052              	.L1288:
 6053 003e 0446     		mov	r4, r0
 6054 0040 1430     		adds	r0, r0, #20
 6055 0042 FFF7FEFF 		bl	d64_read_disk_header
 6056 0046 70B1     		cbz	r0, .L1289
 6057 0048 94F84813 		ldrb	r1, [r4, #840]	@ zero_extendqisi2
 6058 004c 2046     		mov	r0, r4
 6059 004e 84F84963 		strb	r6, [r4, #841]
 6060 0052 0139     		subs	r1, r1, #1
 6061 0054 C9B2     		uxtb	r1, r1
 6062 0056 FFF7FEFF 		bl	d64_skip_to_page
 6063 005a 2046     		mov	r0, r4
 6064 005c 1621     		movs	r1, #22
 6065 005e BDE87040 		pop	{r4, r5, r6, lr}
 6066 0062 FFF7FEBF 		b	d64_send_page
 6067              	.L1289:
 6068 0066 FFF7FEFF 		bl	handle_failed_to_read_sd
 6069              	.L1291:
 6070 006a 00BF     		.align	2
 6071              	.L1290:
 6072 006c 00000000 		.word	.LANCHOR9
 6073 0070 00000000 		.word	.LANCHOR10
 6074 0074 00000100 		.word	scratch_buf
 6076              		.section	.text.d64_dir,"ax",%progbits
 6077              		.align	1
 6078              		.p2align 2,,3
 6079              		.syntax unified
 6080              		.thumb
 6081              		.thumb_func
 6082              		.fpu fpv5-sp-d16
 6084              	d64_dir:
 6085              		@ args = 0, pretend = 0, frame = 0
 6086              		@ frame_needed = 0, uses_anonymous_args = 0
 6087 0000 2DE9F041 		push	{r4, r5, r6, r7, r8, lr}
 6088 0004 8046     		mov	r8, r0
 6089 0006 274C     		ldr	r4, .L1307
 6090              	.L1293:
 6091 0008 2378     		ldrb	r3, [r4]	@ zero_extendqisi2
 6092 000a 002B     		cmp	r3, #0
 6093 000c FCD1     		bne	.L1293
 6094 000e 264E     		ldr	r6, .L1307+4
 6095 0010 0127     		movs	r7, #1
 6096 0012 8025     		movs	r5, #128
 6097 0014 08F11400 		add	r0, r8, #20
 6098 0018 3770     		strb	r7, [r6]
 6099 001a 2570     		strb	r5, [r4]
 6100 001c FFF7FEFF 		bl	d64_read_disk_header
 6101 0020 0028     		cmp	r0, #0
 6102 0022 3CD0     		beq	.L1304
 6103 0024 3846     		mov	r0, r7
 6104 0026 FFF7FEFF 		bl	format_path.constprop.88
 6105 002a 2049     		ldr	r1, .L1307+8
ARM GAS  C:\Users\Jay\AppData\Local\Temp\ccjVRGue.s 			page 105


 6106 002c 01F12207 		add	r7, r1, #34
 6107              	.L1296:
 6108 0030 11F8010B 		ldrb	r0, [r1], #1	@ zero_extendqisi2
 6109              	.L1295:
 6110 0034 2378     		ldrb	r3, [r4]	@ zero_extendqisi2
 6111 0036 03F0FF02 		and	r2, r3, #255
 6112 003a 002B     		cmp	r3, #0
 6113 003c FAD1     		bne	.L1295
 6114 003e B942     		cmp	r1, r7
 6115 0040 3070     		strb	r0, [r6]
 6116 0042 2570     		strb	r5, [r4]
 6117 0044 F4D1     		bne	.L1296
 6118 0046 1A4D     		ldr	r5, .L1307+12
 6119 0048 4FF6FF73 		movw	r3, #65535
 6120 004c 88F84923 		strb	r2, [r8, #841]
 6121 0050 B5F80D60 		ldrh	r6, [r5, #13]	@ unaligned
 6122 0054 9E42     		cmp	r6, r3
 6123 0056 18D0     		beq	.L1305
 6124 0058 164C     		ldr	r4, .L1307+16
 6125 005a 4046     		mov	r0, r8
 6126 005c A4FB0634 		umull	r3, r4, r4, r6
 6127 0060 2409     		lsrs	r4, r4, #4
 6128 0062 E1B2     		uxtb	r1, r4
 6129 0064 FFF7FEFF 		bl	d64_skip_to_page
 6130 0068 1621     		movs	r1, #22
 6131 006a 30B9     		cbnz	r0, .L1306
 6132 006c 6873     		strb	r0, [r5, #13]
 6133 006e A873     		strb	r0, [r5, #14]
 6134 0070 4046     		mov	r0, r8
 6135 0072 BDE8F041 		pop	{r4, r5, r6, r7, r8, lr}
 6136 0076 FFF7FEBF 		b	d64_send_page
 6137              	.L1306:
 6138 007a 01FB1461 		mls	r1, r1, r4, r6
 6139 007e 4046     		mov	r0, r8
 6140 0080 C9B2     		uxtb	r1, r1
 6141 0082 BDE8F041 		pop	{r4, r5, r6, r7, r8, lr}
 6142 0086 FFF7FEBF 		b	d64_send_page
 6143              	.L1305:
 6144 008a 88F84823 		strb	r2, [r8, #840]
 6145 008e 4046     		mov	r0, r8
 6146 0090 6A73     		strb	r2, [r5, #13]
 6147 0092 1621     		movs	r1, #22
 6148 0094 AA73     		strb	r2, [r5, #14]
 6149 0096 BDE8F041 		pop	{r4, r5, r6, r7, r8, lr}
 6150 009a FFF7FEBF 		b	d64_send_page
 6151              	.L1304:
 6152 009e FFF7FEFF 		bl	handle_failed_to_read_sd
 6153              	.L1308:
 6154 00a2 00BF     		.align	2
 6155              	.L1307:
 6156 00a4 00000000 		.word	.LANCHOR9
 6157 00a8 00000000 		.word	.LANCHOR10
 6158 00ac 00000100 		.word	scratch_buf
 6159 00b0 00000000 		.word	dat_file
 6160 00b4 A38B2EBA 		.word	-1171354717
 6162              		.section	.text.d64_select,"ax",%progbits
 6163              		.align	1
ARM GAS  C:\Users\Jay\AppData\Local\Temp\ccjVRGue.s 			page 106


 6164              		.p2align 2,,3
 6165              		.syntax unified
 6166              		.thumb
 6167              		.thumb_func
 6168              		.fpu fpv5-sp-d16
 6170              	d64_select:
 6171              		@ args = 0, pretend = 0, frame = 0
 6172              		@ frame_needed = 0, uses_anonymous_args = 0
 6173 0000 2DE9F04F 		push	{r4, r5, r6, r7, r8, r9, r10, fp, lr}
 6174 0004 90F84843 		ldrb	r4, [r0, #840]	@ zero_extendqisi2
 6175 0008 0025     		movs	r5, #0
 6176 000a 874F     		ldr	r7, .L1375
 6177 000c 83B0     		sub	sp, sp, #12
 6178 000e 04EB8403 		add	r3, r4, r4, lsl #2
 6179 0012 8946     		mov	r9, r1
 6180 0014 7D72     		strb	r5, [r7, #9]
 6181 0016 04EB4304 		add	r4, r4, r3, lsl #1
 6182 001a FD73     		strb	r5, [r7, #15]
 6183 001c 02EB4404 		add	r4, r2, r4, lsl #1
 6184 0020 A7F80D40 		strh	r4, [r7, #13]	@ unaligned
 6185 0024 4CB9     		cbnz	r4, .L1310
 6186 0026 11F04009 		ands	r9, r1, #64
 6187 002a 4DD1     		bne	.L1365
 6188 002c 4946     		mov	r1, r9
 6189 002e FFF7FEFF 		bl	d64_dir_up
 6190 0032 4846     		mov	r0, r9
 6191              	.L1360:
 6192 0034 03B0     		add	sp, sp, #12
 6193              		@ sp needed
 6194 0036 BDE8F08F 		pop	{r4, r5, r6, r7, r8, r9, r10, fp, pc}
 6195              	.L1310:
 6196 003a 012C     		cmp	r4, #1
 6197 003c 0646     		mov	r6, r0
 6198 003e 9246     		mov	r10, r2
 6199 0040 75D0     		beq	.L1366
 6200              	.L1313:
 6201 0042 96F83C32 		ldrb	r3, [r6, #572]	@ zero_extendqisi2
 6202 0046 06F11408 		add	r8, r6, #20
 6203 004a 032B     		cmp	r3, #3
 6204 004c 00F09780 		beq	.L1367
 6205 0050 1222     		movs	r2, #18
 6206 0052 0123     		movs	r3, #1
 6207 0054 86F83E22 		strb	r2, [r6, #574]
 6208 0058 86F83F32 		strb	r3, [r6, #575]
 6209              	.L1316:
 6210 005c 0022     		movs	r2, #0
 6211 005e 06F23E33 		addw	r3, r6, #830
 6212 0062 0325     		movs	r5, #3
 6213 0064 4FF6FF7B 		movw	fp, #65535
 6214 0068 86F83D22 		strb	r2, [r6, #573]
 6215 006c C6F84433 		str	r3, [r6, #836]
 6216 0070 02E0     		b	.L1317
 6217              	.L1321:
 6218 0072 AC42     		cmp	r4, r5
 6219 0074 30D3     		bcc	.L1368
 6220              	.L1322:
 6221 0076 9DB2     		uxth	r5, r3
ARM GAS  C:\Users\Jay\AppData\Local\Temp\ccjVRGue.s 			page 107


 6222              	.L1317:
 6223 0078 4046     		mov	r0, r8
 6224 007a FFF7FEFF 		bl	d64_read_dir
 6225 007e 6B1C     		adds	r3, r5, #1
 6226 0080 0028     		cmp	r0, #0
 6227 0082 63D0     		beq	.L1369
 6228 0084 5C45     		cmp	r4, fp
 6229 0086 F4D1     		bne	.L1321
 6230 0088 D6F84423 		ldr	r2, [r6, #836]
 6231 008c 9178     		ldrb	r1, [r2, #2]	@ zero_extendqisi2
 6232 008e 01F00701 		and	r1, r1, #7
 6233 0092 0229     		cmp	r1, #2
 6234 0094 EFD1     		bne	.L1322
 6235 0096 D178     		ldrb	r1, [r2, #3]	@ zero_extendqisi2
 6236 0098 0029     		cmp	r1, #0
 6237 009a ECD0     		beq	.L1322
 6238 009c 5379     		ldrb	r3, [r2, #5]	@ zero_extendqisi2
 6239 009e 002B     		cmp	r3, #0
 6240 00a0 60D0     		beq	.L1340
 6241              	.L1320:
 6242 00a2 6248     		ldr	r0, .L1375+4
 6243 00a4 0632     		adds	r2, r2, #6
 6244 00a6 0146     		mov	r1, r0
 6245 00a8 06E0     		b	.L1364
 6246              	.L1370:
 6247 00aa 0A2B     		cmp	r3, #10
 6248 00ac 0AD0     		beq	.L1343
 6249              	.L1327:
 6250 00ae 01F8013C 		strb	r3, [r1, #-1]
 6251 00b2 12F8013B 		ldrb	r3, [r2], #1	@ zero_extendqisi2
 6252 00b6 F3B1     		cbz	r3, .L1326
 6253              	.L1364:
 6254 00b8 A02B     		cmp	r3, #160
 6255 00ba 1CD0     		beq	.L1326
 6256 00bc 0D2B     		cmp	r3, #13
 6257 00be 01F10101 		add	r1, r1, #1
 6258 00c2 F2D1     		bne	.L1370
 6259              	.L1343:
 6260 00c4 5F23     		movs	r3, #95
 6261 00c6 F2E7     		b	.L1327
 6262              	.L1365:
 6263 00c8 2146     		mov	r1, r4
 6264 00ca 5948     		ldr	r0, .L1375+8
 6265 00cc FFF7FEFF 		bl	handle_file_options
 6266 00d0 2046     		mov	r0, r4
 6267 00d2 03B0     		add	sp, sp, #12
 6268              		@ sp needed
 6269 00d4 BDE8F08F 		pop	{r4, r5, r6, r7, r8, r9, r10, fp, pc}
 6270              	.L1368:
 6271 00d8 D6F84423 		ldr	r2, [r6, #836]
 6272 00dc 5379     		ldrb	r3, [r2, #5]	@ zero_extendqisi2
 6273 00de 002B     		cmp	r3, #0
 6274 00e0 DFD1     		bne	.L1320
 6275              	.L1325:
 6276 00e2 0024     		movs	r4, #0
 6277 00e4 3046     		mov	r0, r6
 6278 00e6 7C73     		strb	r4, [r7, #13]
ARM GAS  C:\Users\Jay\AppData\Local\Temp\ccjVRGue.s 			page 108


 6279 00e8 BC73     		strb	r4, [r7, #14]
 6280 00ea FFF7FEFF 		bl	d64_dir
 6281 00ee 2046     		mov	r0, r4
 6282 00f0 03B0     		add	sp, sp, #12
 6283              		@ sp needed
 6284 00f2 BDE8F08F 		pop	{r4, r5, r6, r7, r8, r9, r10, fp, pc}
 6285              	.L1326:
 6286 00f6 0024     		movs	r4, #0
 6287 00f8 19F04005 		ands	r5, r9, #64
 6288 00fc 0C70     		strb	r4, [r1]
 6289 00fe FC77     		strb	r4, [r7, #31]
 6290 0100 1ED1     		bne	.L1371
 6291 0102 D6F84413 		ldr	r1, [r6, #836]
 6292 0106 8B78     		ldrb	r3, [r1, #2]	@ zero_extendqisi2
 6293 0108 03F00702 		and	r2, r3, #7
 6294 010c 19F00203 		ands	r3, r9, #2
 6295 0110 52D1     		bne	.L1332
 6296 0112 022A     		cmp	r2, #2
 6297 0114 02D1     		bne	.L1334
 6298 0116 CA78     		ldrb	r2, [r1, #3]	@ zero_extendqisi2
 6299 0118 002A     		cmp	r2, #0
 6300 011a 3CD1     		bne	.L1335
 6301              	.L1334:
 6302 011c 434A     		ldr	r2, .L1375+4
 6303 011e 4549     		ldr	r1, .L1375+12
 6304 0120 4548     		ldr	r0, .L1375+16
 6305 0122 FFF7FEFF 		bl	handle_unsupported_ex
 6306 0126 0020     		movs	r0, #0
 6307 0128 03B0     		add	sp, sp, #12
 6308              		@ sp needed
 6309 012a BDE8F08F 		pop	{r4, r5, r6, r7, r8, r9, r10, fp, pc}
 6310              	.L1366:
 6311 012e 11F0400F 		tst	r1, #64
 6312 0132 2AD1     		bne	.L1372
 6313 0134 11F00203 		ands	r3, r1, #2
 6314 0138 44D0     		beq	.L1373
 6315 013a 4FF6FF74 		movw	r4, #65535
 6316 013e 80E7     		b	.L1313
 6317              	.L1371:
 6318 0140 5246     		mov	r2, r10
 6319 0142 0521     		movs	r1, #5
 6320 0144 FFF7FEFF 		bl	handle_file_options
 6321 0148 2046     		mov	r0, r4
 6322 014a 73E7     		b	.L1360
 6323              	.L1369:
 6324 014c D6F84433 		ldr	r3, [r6, #836]
 6325 0150 5871     		strb	r0, [r3, #5]
 6326 0152 D6F84423 		ldr	r2, [r6, #836]
 6327 0156 5379     		ldrb	r3, [r2, #5]	@ zero_extendqisi2
 6328 0158 002B     		cmp	r3, #0
 6329 015a A2D1     		bne	.L1320
 6330 015c 4FF6FF73 		movw	r3, #65535
 6331 0160 9C42     		cmp	r4, r3
 6332 0162 BED1     		bne	.L1325
 6333              	.L1340:
 6334 0164 0024     		movs	r4, #0
 6335 0166 0123     		movs	r3, #1
ARM GAS  C:\Users\Jay\AppData\Local\Temp\ccjVRGue.s 			page 109


 6336 0168 344A     		ldr	r2, .L1375+20
 6337 016a 3549     		ldr	r1, .L1375+24
 6338 016c 3548     		ldr	r0, .L1375+28
 6339 016e BC73     		strb	r4, [r7, #14]
 6340 0170 7B73     		strb	r3, [r7, #13]
 6341 0172 FFF7FEFF 		bl	handle_unsupported_ex
 6342 0176 2046     		mov	r0, r4
 6343 0178 03B0     		add	sp, sp, #12
 6344              		@ sp needed
 6345 017a BDE8F08F 		pop	{r4, r5, r6, r7, r8, r9, r10, fp, pc}
 6346              	.L1367:
 6347 017e 2822     		movs	r2, #40
 6348 0180 86F83F32 		strb	r3, [r6, #575]
 6349 0184 86F83E22 		strb	r2, [r6, #574]
 6350 0188 68E7     		b	.L1316
 6351              	.L1372:
 6352 018a 2F48     		ldr	r0, .L1375+32
 6353 018c 0521     		movs	r1, #5
 6354 018e FFF7FEFF 		bl	handle_file_options
 6355 0192 2846     		mov	r0, r5
 6356 0194 4EE7     		b	.L1360
 6357              	.L1335:
 6358 0196 0093     		str	r3, [sp]
 6359 0198 0246     		mov	r2, r0
 6360 019a 2C49     		ldr	r1, .L1375+36
 6361 019c 2C48     		ldr	r0, .L1375+40
 6362 019e FFF7FEFF 		bl	sprint
 6363 01a2 0423     		movs	r3, #4
 6364              	.L1363:
 6365 01a4 2B48     		ldr	r0, .L1375+44
 6366 01a6 7B72     		strb	r3, [r7, #9]
 6367 01a8 FFF7FEFF 		bl	f_close
 6368 01ac 2A4B     		ldr	r3, .L1375+48
 6369 01ae 4FF48002 		mov	r2, #4194304
 6370 01b2 0120     		movs	r0, #1
 6371 01b4 9A61     		str	r2, [r3, #24]
 6372 01b6 3DE7     		b	.L1360
 6373              	.L1332:
 6374 01b8 022A     		cmp	r2, #2
 6375 01ba 0BD0     		beq	.L1374
 6376              	.L1337:
 6377 01bc 0023     		movs	r3, #0
 6378 01be FB72     		strb	r3, [r7, #11]
 6379 01c0 3B73     		strb	r3, [r7, #12]
 6380 01c2 ABE7     		b	.L1334
 6381              	.L1373:
 6382 01c4 0093     		str	r3, [sp]
 6383 01c6 204A     		ldr	r2, .L1375+32
 6384 01c8 2049     		ldr	r1, .L1375+36
 6385 01ca 2148     		ldr	r0, .L1375+40
 6386 01cc FFF7FEFF 		bl	sprint
 6387 01d0 0423     		movs	r3, #4
 6388 01d2 E7E7     		b	.L1363
 6389              	.L1374:
 6390 01d4 CB78     		ldrb	r3, [r1, #3]	@ zero_extendqisi2
 6391 01d6 002B     		cmp	r3, #0
 6392 01d8 F0D0     		beq	.L1337
ARM GAS  C:\Users\Jay\AppData\Local\Temp\ccjVRGue.s 			page 110


 6393 01da 86F83E32 		strb	r3, [r6, #574]
 6394 01de 06F23E2A 		addw	r10, r6, #574
 6395 01e2 0B79     		ldrb	r3, [r1, #4]	@ zero_extendqisi2
 6396 01e4 06F51079 		add	r9, r6, #576
 6397 01e8 194C     		ldr	r4, .L1375+40
 6398 01ea 86F83F32 		strb	r3, [r6, #575]
 6399 01ee 0AE0     		b	.L1338
 6400              	.L1339:
 6401 01f0 0246     		mov	r2, r0
 6402 01f2 0544     		add	r5, r5, r0
 6403 01f4 2046     		mov	r0, r4
 6404 01f6 1444     		add	r4, r4, r2
 6405 01f8 FFF7FEFF 		bl	memcpy
 6406 01fc 05F1FE03 		add	r3, r5, #254
 6407 0200 B3F5803F 		cmp	r3, #65536
 6408 0204 DAD8     		bhi	.L1337
 6409              	.L1338:
 6410 0206 5146     		mov	r1, r10
 6411 0208 4046     		mov	r0, r8
 6412 020a FFF7FEFF 		bl	d64_read_file_sector
 6413 020e 4946     		mov	r1, r9
 6414 0210 0028     		cmp	r0, #0
 6415 0212 EDD1     		bne	.L1339
 6416 0214 ADB2     		uxth	r5, r5
 6417 0216 022D     		cmp	r5, #2
 6418 0218 A7F80B50 		strh	r5, [r7, #11]	@ unaligned
 6419 021c 7FF67EAF 		bls	.L1334
 6420 0220 FFF7FEFF 		bl	c64_send_exit_menu
 6421 0224 0223     		movs	r3, #2
 6422 0226 BDE7     		b	.L1363
 6423              	.L1376:
 6424              		.align	2
 6425              	.L1375:
 6426 0228 00000000 		.word	dat_file
 6427 022c 0F000000 		.word	dat_file+15
 6428 0230 00000000 		.word	.LC31
 6429 0234 48000000 		.word	.LC36
 6430 0238 6C000000 		.word	.LC37
 6431 023c 00030000 		.word	dat_file+768
 6432 0240 1C000000 		.word	.LC34
 6433 0244 3C000000 		.word	.LC35
 6434 0248 04000000 		.word	.LC32
 6435 024c 08000000 		.word	.LC33
 6436 0250 00000000 		.word	dat_buffer
 6437 0254 14000000 		.word	.LANCHOR24+20
 6438 0258 00100258 		.word	1476530176
 6440              		.section	.text.handle_dir_open,"ax",%progbits
 6441              		.align	1
 6442              		.p2align 2,,3
 6443              		.syntax unified
 6444              		.thumb
 6445              		.thumb_func
 6446              		.fpu fpv5-sp-d16
 6448              	handle_dir_open:
 6449              		@ args = 0, pretend = 0, frame = 0
 6450              		@ frame_needed = 0, uses_anonymous_args = 0
 6451 0000 F8B5     		push	{r3, r4, r5, r6, r7, lr}
ARM GAS  C:\Users\Jay\AppData\Local\Temp\ccjVRGue.s 			page 111


 6452 0002 00F11804 		add	r4, r0, #24
 6453 0006 0646     		mov	r6, r0
 6454 0008 0C49     		ldr	r1, .L1380
 6455 000a 2046     		mov	r0, r4
 6456 000c FFF7FEFF 		bl	f_opendir
 6457 0010 28B1     		cbz	r0, .L1378
 6458 0012 0B4B     		ldr	r3, .L1380+4
 6459 0014 4FF48002 		mov	r2, #4194304
 6460 0018 9A61     		str	r2, [r3, #24]
 6461 001a FFF7FEFF 		bl	handle_failed_to_read_sd
 6462              	.L1378:
 6463 001e 0746     		mov	r7, r0
 6464 0020 06F14805 		add	r5, r6, #72
 6465 0024 0FCC     		ldmia	r4!, {r0, r1, r2, r3}
 6466 0026 0FC5     		stmia	r5!, {r0, r1, r2, r3}
 6467 0028 0FCC     		ldmia	r4!, {r0, r1, r2, r3}
 6468 002a 0FC5     		stmia	r5!, {r0, r1, r2, r3}
 6469 002c 94E80F00 		ldm	r4, {r0, r1, r2, r3}
 6470 0030 85E80F00 		stm	r5, {r0, r1, r2, r3}
 6471 0034 A6F87870 		strh	r7, [r6, #120]	@ movhi
 6472 0038 7775     		strb	r7, [r6, #21]
 6473 003a F8BD     		pop	{r3, r4, r5, r6, r7, pc}
 6474              	.L1381:
 6475              		.align	2
 6476              	.L1380:
 6477 003c 00000000 		.word	.LC14
 6478 0040 00100258 		.word	1476530176
 6480              		.section	.text.handle_dir_prev_page_command,"ax",%progbits
 6481              		.align	1
 6482              		.p2align 2,,3
 6483              		.syntax unified
 6484              		.thumb
 6485              		.thumb_func
 6486              		.fpu fpv5-sp-d16
 6488              	handle_dir_prev_page_command:
 6489              		@ args = 0, pretend = 0, frame = 280
 6490              		@ frame_needed = 0, uses_anonymous_args = 0
 6491 0000 2DE9F047 		push	{r4, r5, r6, r7, r8, r9, r10, lr}
 6492 0004 B0F87860 		ldrh	r6, [r0, #120]
 6493 0008 C6B0     		sub	sp, sp, #280
 6494 000a 56B3     		cbz	r6, .L1383
 6495 000c 013E     		subs	r6, r6, #1
 6496 000e 0746     		mov	r7, r0
 6497 0010 FFF7FEFF 		bl	handle_dir_open
 6498 0014 2A4A     		ldr	r2, .L1401
 6499 0016 B6B2     		uxth	r6, r6
 6500              	.L1384:
 6501 0018 1378     		ldrb	r3, [r2]	@ zero_extendqisi2
 6502 001a 002B     		cmp	r3, #0
 6503 001c FCD1     		bne	.L1384
 6504 001e 06EB8603 		add	r3, r6, r6, lsl #2
 6505 0022 2848     		ldr	r0, .L1401+4
 6506 0024 0224     		movs	r4, #2
 6507 0026 8021     		movs	r1, #128
 6508 0028 06EB4303 		add	r3, r6, r3, lsl #1
 6509 002c 0470     		strb	r4, [r0]
 6510 002e 5B00     		lsls	r3, r3, #1
ARM GAS  C:\Users\Jay\AppData\Local\Temp\ccjVRGue.s 			page 112


 6511 0030 1170     		strb	r1, [r2]
 6512 0032 9BB2     		uxth	r3, r3
 6513 0034 D3B9     		cbnz	r3, .L1397
 6514 0036 07F14808 		add	r8, r7, #72
 6515              	.L1385:
 6516 003a 4446     		mov	r4, r8
 6517 003c A7F87860 		strh	r6, [r7, #120]	@ movhi
 6518 0040 07F11805 		add	r5, r7, #24
 6519 0044 0FCC     		ldmia	r4!, {r0, r1, r2, r3}
 6520 0046 0FC5     		stmia	r5!, {r0, r1, r2, r3}
 6521 0048 0FCC     		ldmia	r4!, {r0, r1, r2, r3}
 6522 004a 0FC5     		stmia	r5!, {r0, r1, r2, r3}
 6523 004c 94E80F00 		ldm	r4, {r0, r1, r2, r3}
 6524 0050 85E80F00 		stm	r5, {r0, r1, r2, r3}
 6525              	.L1390:
 6526 0054 1621     		movs	r1, #22
 6527 0056 3846     		mov	r0, r7
 6528 0058 FFF7FEFF 		bl	sd_send_page
 6529 005c 46B0     		add	sp, sp, #280
 6530              		@ sp needed
 6531 005e BDE8F087 		pop	{r4, r5, r6, r7, r8, r9, r10, pc}
 6532              	.L1383:
 6533 0062 FFF7FEFF 		bl	reply_page_end
 6534 0066 46B0     		add	sp, sp, #280
 6535              		@ sp needed
 6536 0068 BDE8F087 		pop	{r4, r5, r6, r7, r8, r9, r10, pc}
 6537              	.L1397:
 6538 006c 3A7D     		ldrb	r2, [r7, #20]	@ zero_extendqisi2
 6539 006e EAB9     		cbnz	r2, .L1399
 6540 0070 9D1E     		subs	r5, r3, #2
 6541 0072 ADB2     		uxth	r5, r5
 6542              	.L1387:
 6543 0074 0135     		adds	r5, r5, #1
 6544 0076 07F14808 		add	r8, r7, #72
 6545 007a 0024     		movs	r4, #0
 6546 007c DFF848A0 		ldr	r10, .L1401+8
 6547 0080 4FF48009 		mov	r9, #4194304
 6548              	.L1391:
 6549 0084 6946     		mov	r1, sp
 6550 0086 4046     		mov	r0, r8
 6551 0088 FFF7FEFF 		bl	f_readdir
 6552 008c 0134     		adds	r4, r4, #1
 6553 008e CAF81890 		str	r9, [r10, #24]
 6554 0092 70B1     		cbz	r0, .L1400
 6555              	.L1388:
 6556 0094 07F11805 		add	r5, r7, #24
 6557 0098 4446     		mov	r4, r8
 6558 009a 0FCD     		ldmia	r5!, {r0, r1, r2, r3}
 6559 009c 0FC4     		stmia	r4!, {r0, r1, r2, r3}
 6560 009e 0FCD     		ldmia	r5!, {r0, r1, r2, r3}
 6561 00a0 0FC4     		stmia	r4!, {r0, r1, r2, r3}
 6562 00a2 95E80F00 		ldm	r5, {r0, r1, r2, r3}
 6563 00a6 84E80F00 		stm	r4, {r0, r1, r2, r3}
 6564 00aa D3E7     		b	.L1390
 6565              	.L1399:
 6566 00ac 5D1E     		subs	r5, r3, #1
 6567 00ae ADB2     		uxth	r5, r5
ARM GAS  C:\Users\Jay\AppData\Local\Temp\ccjVRGue.s 			page 113


 6568 00b0 E0E7     		b	.L1387
 6569              	.L1400:
 6570 00b2 9DF81630 		ldrb	r3, [sp, #22]	@ zero_extendqisi2
 6571 00b6 002B     		cmp	r3, #0
 6572 00b8 ECD0     		beq	.L1388
 6573 00ba AC42     		cmp	r4, r5
 6574 00bc E2D1     		bne	.L1391
 6575 00be BCE7     		b	.L1385
 6576              	.L1402:
 6577              		.align	2
 6578              	.L1401:
 6579 00c0 00000000 		.word	.LANCHOR9
 6580 00c4 00000000 		.word	.LANCHOR10
 6581 00c8 00100258 		.word	1476530176
 6583              		.section	.text.handle_dir_command,"ax",%progbits
 6584              		.align	1
 6585              		.p2align 2,,3
 6586              		.syntax unified
 6587              		.thumb
 6588              		.thumb_func
 6589              		.fpu fpv5-sp-d16
 6591              	handle_dir_command:
 6592              		@ args = 0, pretend = 0, frame = 328
 6593              		@ frame_needed = 0, uses_anonymous_args = 0
 6594 0000 2DE9F04F 		push	{r4, r5, r6, r7, r8, r9, r10, fp, lr}
 6595 0004 D3B0     		sub	sp, sp, #332
 6596 0006 0646     		mov	r6, r0
 6597 0008 FFF7FEFF 		bl	handle_dir_open
 6598 000c 4FF43871 		mov	r1, #736
 6599 0010 5B48     		ldr	r0, .L1429
 6600 0012 FFF7FEFF 		bl	f_getcwd
 6601 0016 5B4D     		ldr	r5, .L1429+4
 6602 0018 4FF48003 		mov	r3, #4194304
 6603 001c DFF878A1 		ldr	r10, .L1429+24
 6604 0020 0020     		movs	r0, #0
 6605 0022 AB61     		str	r3, [r5, #24]
 6606 0024 FFF7FEFF 		bl	format_path.constprop.88
 6607 0028 3075     		strb	r0, [r6, #20]
 6608 002a 9AF80033 		ldrb	r3, [r10, #768]	@ zero_extendqisi2
 6609 002e 002B     		cmp	r3, #0
 6610 0030 00F0A480 		beq	.L1417
 6611 0034 06F11807 		add	r7, r6, #24
 6612 0038 0446     		mov	r4, r0
 6613 003a EC46     		mov	ip, sp
 6614 003c A846     		mov	r8, r5
 6615 003e BE46     		mov	lr, r7
 6616 0040 06F14805 		add	r5, r6, #72
 6617 0044 0AF54079 		add	r9, r10, #768
 6618 0048 BEE80F00 		ldmia	lr!, {r0, r1, r2, r3}
 6619 004c ACE80F00 		stmia	ip!, {r0, r1, r2, r3}
 6620 0050 BEE80F00 		ldmia	lr!, {r0, r1, r2, r3}
 6621 0054 ACE80F00 		stmia	ip!, {r0, r1, r2, r3}
 6622 0058 9EE80F00 		ldm	lr, {r0, r1, r2, r3}
 6623 005c 8CE80F00 		stm	ip, {r0, r1, r2, r3}
 6624 0060 002C     		cmp	r4, #0
 6625 0062 6DD1     		bne	.L1418
 6626              	.L1428:
ARM GAS  C:\Users\Jay\AppData\Local\Temp\ccjVRGue.s 			page 114


 6627 0064 B6F87840 		ldrh	r4, [r6, #120]
 6628 0068 B4FA84F4 		clz	r4, r4
 6629 006c 6409     		lsrs	r4, r4, #5
 6630              	.L1405:
 6631 006e 4FF4800B 		mov	fp, #4194304
 6632              	.L1409:
 6633 0072 0CA9     		add	r1, sp, #48
 6634 0074 2846     		mov	r0, r5
 6635 0076 FFF7FEFF 		bl	f_readdir
 6636 007a 4FF48072 		mov	r2, #256
 6637 007e 0DF14601 		add	r1, sp, #70
 6638 0082 C8F818B0 		str	fp, [r8, #24]
 6639 0086 0028     		cmp	r0, #0
 6640 0088 39D0     		beq	.L1406
 6641 008a 0023     		movs	r3, #0
 6642 008c 8DF84630 		strb	r3, [sp, #70]
 6643              	.L1407:
 6644 0090 6C46     		mov	r4, sp
 6645 0092 4FF0000E 		mov	lr, #0
 6646 0096 A446     		mov	ip, r4
 6647 0098 0FCC     		ldmia	r4!, {r0, r1, r2, r3}
 6648 009a 0FC7     		stmia	r7!, {r0, r1, r2, r3}
 6649 009c 0FCC     		ldmia	r4!, {r0, r1, r2, r3}
 6650 009e 0FC7     		stmia	r7!, {r0, r1, r2, r3}
 6651 00a0 94E80F00 		ldm	r4, {r0, r1, r2, r3}
 6652 00a4 87E80F00 		stm	r7, {r0, r1, r2, r3}
 6653 00a8 BCE80F00 		ldmia	ip!, {r0, r1, r2, r3}
 6654 00ac 0FC5     		stmia	r5!, {r0, r1, r2, r3}
 6655 00ae BCE80F00 		ldmia	ip!, {r0, r1, r2, r3}
 6656 00b2 0FC5     		stmia	r5!, {r0, r1, r2, r3}
 6657 00b4 94E80F00 		ldm	r4, {r0, r1, r2, r3}
 6658 00b8 1624     		movs	r4, #22
 6659 00ba 85E80F00 		stm	r5, {r0, r1, r2, r3}
 6660 00be A6F878E0 		strh	lr, [r6, #120]	@ movhi
 6661              	.L1404:
 6662 00c2 314A     		ldr	r2, .L1429+8
 6663              	.L1413:
 6664 00c4 1378     		ldrb	r3, [r2]	@ zero_extendqisi2
 6665 00c6 002B     		cmp	r3, #0
 6666 00c8 FCD1     		bne	.L1413
 6667 00ca 8023     		movs	r3, #128
 6668 00cc 2F49     		ldr	r1, .L1429+12
 6669 00ce 304D     		ldr	r5, .L1429+16
 6670 00d0 0120     		movs	r0, #1
 6671 00d2 9C46     		mov	ip, r3
 6672 00d4 01F12207 		add	r7, r1, #34
 6673 00d8 2870     		strb	r0, [r5]
 6674 00da 1370     		strb	r3, [r2]
 6675              	.L1415:
 6676 00dc 11F8010B 		ldrb	r0, [r1], #1	@ zero_extendqisi2
 6677              	.L1414:
 6678 00e0 1378     		ldrb	r3, [r2]	@ zero_extendqisi2
 6679 00e2 002B     		cmp	r3, #0
 6680 00e4 FCD1     		bne	.L1414
 6681 00e6 B942     		cmp	r1, r7
 6682 00e8 2870     		strb	r0, [r5]
 6683 00ea 82F800C0 		strb	ip, [r2]
ARM GAS  C:\Users\Jay\AppData\Local\Temp\ccjVRGue.s 			page 115


 6684 00ee F5D1     		bne	.L1415
 6685 00f0 2146     		mov	r1, r4
 6686 00f2 3046     		mov	r0, r6
 6687 00f4 FFF7FEFF 		bl	sd_send_page
 6688              	.L1403:
 6689 00f8 53B0     		add	sp, sp, #332
 6690              		@ sp needed
 6691 00fa BDE8F08F 		pop	{r4, r5, r6, r7, r8, r9, r10, fp, pc}
 6692              	.L1406:
 6693 00fe 9DF84630 		ldrb	r3, [sp, #70]	@ zero_extendqisi2
 6694 0102 4846     		mov	r0, r9
 6695 0104 002B     		cmp	r3, #0
 6696 0106 C3D0     		beq	.L1407
 6697 0108 FFF7FEFF 		bl	strncmp
 6698 010c 631C     		adds	r3, r4, #1
 6699 010e C8B1     		cbz	r0, .L1408
 6700 0110 DCB2     		uxtb	r4, r3
 6701 0112 162C     		cmp	r4, #22
 6702 0114 ADD1     		bne	.L1409
 6703 0116 AC46     		mov	ip, r5
 6704 0118 3C46     		mov	r4, r7
 6705 011a B6F878E0 		ldrh	lr, [r6, #120]
 6706 011e BCE80F00 		ldmia	ip!, {r0, r1, r2, r3}
 6707 0122 0FC4     		stmia	r4!, {r0, r1, r2, r3}
 6708 0124 BCE80F00 		ldmia	ip!, {r0, r1, r2, r3}
 6709 0128 0FC4     		stmia	r4!, {r0, r1, r2, r3}
 6710 012a 9CE80F00 		ldm	ip, {r0, r1, r2, r3}
 6711 012e 0EF1010E 		add	lr, lr, #1
 6712 0132 84E80F00 		stm	r4, {r0, r1, r2, r3}
 6713 0136 347D     		ldrb	r4, [r6, #20]	@ zero_extendqisi2
 6714 0138 A6F878E0 		strh	lr, [r6, #120]	@ movhi
 6715 013c 002C     		cmp	r4, #0
 6716 013e 91D0     		beq	.L1428
 6717              	.L1418:
 6718 0140 0024     		movs	r4, #0
 6719 0142 94E7     		b	.L1405
 6720              	.L1408:
 6721 0144 0FCF     		ldmia	r7!, {r0, r1, r2, r3}
 6722 0146 0FC5     		stmia	r5!, {r0, r1, r2, r3}
 6723 0148 0FCF     		ldmia	r7!, {r0, r1, r2, r3}
 6724 014a 0FC5     		stmia	r5!, {r0, r1, r2, r3}
 6725 014c 97E80F00 		ldm	r7, {r0, r1, r2, r3}
 6726 0150 85E80F00 		stm	r5, {r0, r1, r2, r3}
 6727 0154 0CA8     		add	r0, sp, #48
 6728 0156 FFF7FEFF 		bl	get_file_type
 6729 015a 0428     		cmp	r0, #4
 6730 015c B1D1     		bne	.L1404
 6731 015e BAF80D20 		ldrh	r2, [r10, #13]	@ unaligned
 6732 0162 4FF6FF73 		movw	r3, #65535
 6733 0166 9A42     		cmp	r2, r3
 6734 0168 ABD0     		beq	.L1404
 6735 016a 0DF14600 		add	r0, sp, #70
 6736 016e FFF7FEFF 		bl	d64_menu_init
 6737 0172 0849     		ldr	r1, .L1429+20
 6738 0174 0268     		ldr	r2, [r0]
 6739 0176 0860     		str	r0, [r1]
 6740 0178 9047     		blx	r2
ARM GAS  C:\Users\Jay\AppData\Local\Temp\ccjVRGue.s 			page 116


 6741 017a BDE7     		b	.L1403
 6742              	.L1417:
 6743 017c 1624     		movs	r4, #22
 6744 017e A0E7     		b	.L1404
 6745              	.L1430:
 6746              		.align	2
 6747              	.L1429:
 6748 0180 20000000 		.word	dat_file+32
 6749 0184 00100258 		.word	1476530176
 6750 0188 00000000 		.word	.LANCHOR9
 6751 018c 00000100 		.word	scratch_buf
 6752 0190 00000000 		.word	.LANCHOR10
 6753 0194 00000000 		.word	.LANCHOR13
 6754 0198 00000000 		.word	dat_file
 6756              		.section	.text.handle_change_dir,"ax",%progbits
 6757              		.align	1
 6758              		.p2align 2,,3
 6759              		.syntax unified
 6760              		.thumb
 6761              		.thumb_func
 6762              		.fpu fpv5-sp-d16
 6764              	handle_change_dir:
 6765              		@ args = 0, pretend = 0, frame = 0
 6766              		@ frame_needed = 0, uses_anonymous_args = 0
 6767 0000 F8B5     		push	{r3, r4, r5, r6, r7, lr}
 6768 0002 0546     		mov	r5, r0
 6769 0004 0E46     		mov	r6, r1
 6770 0006 FAB1     		cbz	r2, .L1432
 6771 0008 027D     		ldrb	r2, [r0, #20]	@ zero_extendqisi2
 6772 000a EAB9     		cbnz	r2, .L1432
 6773 000c 1848     		ldr	r0, .L1449
 6774 000e 1146     		mov	r1, r2
 6775 0010 07E0     		b	.L1435
 6776              	.L1447:
 6777 0012 0132     		adds	r2, r2, #1
 6778 0014 94B2     		uxth	r4, r2
 6779 0016 2F2B     		cmp	r3, #47
 6780 0018 08BF     		it	eq
 6781 001a 2146     		moveq	r1, r4
 6782 001c B2F5387F 		cmp	r2, #736
 6783 0020 03D0     		beq	.L1433
 6784              	.L1435:
 6785 0022 10F8013F 		ldrb	r3, [r0, #1]!	@ zero_extendqisi2
 6786 0026 002B     		cmp	r3, #0
 6787 0028 F3D1     		bne	.L1447
 6788              	.L1433:
 6789 002a 541A     		subs	r4, r2, r1
 6790 002c 114F     		ldr	r7, .L1449+4
 6791 002e 2246     		mov	r2, r4
 6792 0030 3944     		add	r1, r1, r7
 6793 0032 07F53870 		add	r0, r7, #736
 6794 0036 FFF7FEFF 		bl	memcpy
 6795 003a A7F12002 		sub	r2, r7, #32
 6796 003e 0023     		movs	r3, #0
 6797 0040 2244     		add	r2, r2, r4
 6798 0042 82F80033 		strb	r3, [r2, #768]
 6799 0046 03E0     		b	.L1436
ARM GAS  C:\Users\Jay\AppData\Local\Temp\ccjVRGue.s 			page 117


 6800              	.L1432:
 6801 0048 0B4B     		ldr	r3, .L1449+8
 6802 004a 0022     		movs	r2, #0
 6803 004c 83F80023 		strb	r2, [r3, #768]
 6804              	.L1436:
 6805 0050 3046     		mov	r0, r6
 6806 0052 FFF7FEFF 		bl	f_chdir
 6807 0056 094B     		ldr	r3, .L1449+12
 6808 0058 4FF48002 		mov	r2, #4194304
 6809 005c 9A61     		str	r2, [r3, #24]
 6810 005e 20B9     		cbnz	r0, .L1448
 6811 0060 2846     		mov	r0, r5
 6812 0062 BDE8F840 		pop	{r3, r4, r5, r6, r7, lr}
 6813 0066 FFF7FEBF 		b	handle_dir_command
 6814              	.L1448:
 6815 006a FFF7FEFF 		bl	handle_failed_to_read_sd
 6816              	.L1450:
 6817 006e 00BF     		.align	2
 6818              	.L1449:
 6819 0070 1F000000 		.word	dat_file+31
 6820 0074 20000000 		.word	dat_file+32
 6821 0078 00000000 		.word	dat_file
 6822 007c 00100258 		.word	1476530176
 6824              		.section	.text.handle_dir_up_command,"ax",%progbits
 6825              		.align	1
 6826              		.p2align 2,,3
 6827              		.syntax unified
 6828              		.thumb
 6829              		.thumb_func
 6830              		.fpu fpv5-sp-d16
 6832              	handle_dir_up_command:
 6833              		@ args = 0, pretend = 0, frame = 0
 6834              		@ frame_needed = 0, uses_anonymous_args = 0
 6835              		@ link register save eliminated.
 6836 0000 19B9     		cbnz	r1, .L1453
 6837 0002 0122     		movs	r2, #1
 6838 0004 0349     		ldr	r1, .L1454
 6839 0006 FFF7FEBF 		b	handle_change_dir
 6840              	.L1453:
 6841 000a 0022     		movs	r2, #0
 6842 000c 0249     		ldr	r1, .L1454+4
 6843 000e FFF7FEBF 		b	handle_change_dir
 6844              	.L1455:
 6845 0012 00BF     		.align	2
 6846              	.L1454:
 6847 0014 00000000 		.word	.LC31
 6848 0018 00000000 		.word	.LC38
 6850              		.section	.text.handle_select_command,"ax",%progbits
 6851              		.align	1
 6852              		.p2align 2,,3
 6853              		.syntax unified
 6854              		.thumb
 6855              		.thumb_func
 6856              		.fpu fpv5-sp-d16
 6858              	handle_select_command:
 6859              		@ args = 0, pretend = 0, frame = 984
 6860              		@ frame_needed = 0, uses_anonymous_args = 0
ARM GAS  C:\Users\Jay\AppData\Local\Temp\ccjVRGue.s 			page 118


 6861 0000 2DE9F04F 		push	{r4, r5, r6, r7, r8, r9, r10, fp, lr}
 6862 0004 A94C     		ldr	r4, .L1566
 6863 0006 0025     		movs	r5, #0
 6864 0008 4FF0FF33 		mov	r3, #-1
 6865 000c ADF5777D 		sub	sp, sp, #988
 6866 0010 84F80053 		strb	r5, [r4, #768]
 6867 0014 8246     		mov	r10, r0
 6868 0016 067D     		ldrb	r6, [r0, #20]	@ zero_extendqisi2
 6869 0018 8B46     		mov	fp, r1
 6870 001a 6572     		strb	r5, [r4, #9]
 6871 001c 9146     		mov	r9, r2
 6872 001e 6373     		strb	r3, [r4, #13]
 6873 0020 A373     		strb	r3, [r4, #14]
 6874 0022 1EB9     		cbnz	r6, .L1529
 6875 0024 B0F87830 		ldrh	r3, [r0, #120]
 6876 0028 002B     		cmp	r3, #0
 6877 002a 56D0     		beq	.L1551
 6878              	.L1529:
 6879 002c C846     		mov	r8, r9
 6880              	.L1457:
 6881 002e 0AF11807 		add	r7, r10, #24
 6882 0032 0AAE     		add	r6, sp, #40
 6883 0034 0025     		movs	r5, #0
 6884 0036 0FCF     		ldmia	r7!, {r0, r1, r2, r3}
 6885 0038 0FC6     		stmia	r6!, {r0, r1, r2, r3}
 6886 003a 0FCF     		ldmia	r7!, {r0, r1, r2, r3}
 6887 003c 0FC6     		stmia	r6!, {r0, r1, r2, r3}
 6888 003e 97E80F00 		ldm	r7, {r0, r1, r2, r3}
 6889 0042 9B4F     		ldr	r7, .L1566+4
 6890 0044 86E80F00 		stm	r6, {r0, r1, r2, r3}
 6891 0048 4FF48006 		mov	r6, #4194304
 6892              	.L1463:
 6893 004c 26A9     		add	r1, sp, #152
 6894 004e 0AA8     		add	r0, sp, #40
 6895 0050 FFF7FEFF 		bl	f_readdir
 6896 0054 BE61     		str	r6, [r7, #24]
 6897 0056 0028     		cmp	r0, #0
 6898 0058 40F08881 		bne	.L1552
 6899 005c 9DF8AE30 		ldrb	r3, [sp, #174]	@ zero_extendqisi2
 6900 0060 1BB1     		cbz	r3, .L1462
 6901 0062 0135     		adds	r5, r5, #1
 6902 0064 EBB2     		uxtb	r3, r5
 6903 0066 9845     		cmp	r8, r3
 6904 0068 F0D2     		bcs	.L1463
 6905              	.L1462:
 6906 006a 914F     		ldr	r7, .L1566+4
 6907 006c 4FF48006 		mov	r6, #4194304
 6908 0070 0AA8     		add	r0, sp, #40
 6909 0072 FFF7FEFF 		bl	f_closedir
 6910 0076 BE61     		str	r6, [r7, #24]
 6911 0078 9DF8AE30 		ldrb	r3, [sp, #174]	@ zero_extendqisi2
 6912 007c 23B3     		cbz	r3, .L1553
 6913 007e 26A8     		add	r0, sp, #152
 6914 0080 FFF7FEFF 		bl	get_file_type
 6915 0084 0DF1AE01 		add	r1, sp, #174
 6916 0088 8046     		mov	r8, r0
 6917 008a 8A48     		ldr	r0, .L1566+8
ARM GAS  C:\Users\Jay\AppData\Local\Temp\ccjVRGue.s 			page 119


 6918 008c FFF7FEFF 		bl	strcpy
 6919 0090 1BF04003 		ands	r3, fp, #64
 6920 0094 3BD1     		bne	.L1554
 6921 0096 B8F1000F 		cmp	r8, #0
 6922 009a 27D0     		beq	.L1555
 6923 009c B8F1030F 		cmp	r8, #3
 6924 00a0 41D9     		bls	.L1556
 6925 00a2 B8F1FD0F 		cmp	r8, #253
 6926 00a6 00F0A380 		beq	.L1471
 6927 00aa B8F1FE0F 		cmp	r8, #254
 6928 00ae 68D0     		beq	.L1472
 6929 00b0 B8F1040F 		cmp	r8, #4
 6930 00b4 00F0D180 		beq	.L1557
 6931              	.L1467:
 6932 00b8 0DF1AE02 		add	r2, sp, #174
 6933 00bc 7E49     		ldr	r1, .L1566+12
 6934 00be 7F48     		ldr	r0, .L1566+16
 6935 00c0 0026     		movs	r6, #0
 6936 00c2 FFF7FEFF 		bl	handle_unsupported_ex
 6937 00c6 03E0     		b	.L1546
 6938              	.L1553:
 6939 00c8 5046     		mov	r0, r10
 6940 00ca 1E46     		mov	r6, r3
 6941 00cc FFF7FEFF 		bl	handle_dir_command
 6942              	.L1546:
 6943 00d0 3046     		mov	r0, r6
 6944 00d2 0DF5777D 		add	sp, sp, #988
 6945              		@ sp needed
 6946 00d6 BDE8F08F 		pop	{r4, r5, r6, r7, r8, r9, r10, fp, pc}
 6947              	.L1551:
 6948 00da 9AB9     		cbnz	r2, .L1458
 6949 00dc 11F0400F 		tst	r1, #64
 6950 00e0 4AD0     		beq	.L1459
 6951 00e2 3146     		mov	r1, r6
 6952 00e4 7648     		ldr	r0, .L1566+20
 6953 00e6 FFF7FEFF 		bl	handle_file_options
 6954 00ea F1E7     		b	.L1546
 6955              	.L1555:
 6956 00ec 4646     		mov	r6, r8
 6957 00ee 5046     		mov	r0, r10
 6958 00f0 0DF1AE01 		add	r1, sp, #174
 6959 00f4 4246     		mov	r2, r8
 6960 00f6 FFF7FEFF 		bl	handle_change_dir
 6961 00fa 3046     		mov	r0, r6
 6962 00fc 0DF5777D 		add	sp, sp, #988
 6963              		@ sp needed
 6964 0100 BDE8F08F 		pop	{r4, r5, r6, r7, r8, r9, r10, fp, pc}
 6965              	.L1458:
 6966 0104 02F1FF38 		add	r8, r2, #-1
 6967 0108 5FFA88F8 		uxtb	r8, r8
 6968 010c 8FE7     		b	.L1457
 6969              	.L1554:
 6970 010e 0026     		movs	r6, #0
 6971 0110 0DF1AE00 		add	r0, sp, #174
 6972 0114 4A46     		mov	r2, r9
 6973 0116 4146     		mov	r1, r8
 6974 0118 FFF7FEFF 		bl	handle_file_options
ARM GAS  C:\Users\Jay\AppData\Local\Temp\ccjVRGue.s 			page 120


 6975 011c 3046     		mov	r0, r6
 6976 011e 0DF5777D 		add	sp, sp, #988
 6977              		@ sp needed
 6978 0122 BDE8F08F 		pop	{r4, r5, r6, r7, r8, r9, r10, fp, pc}
 6979              	.L1556:
 6980 0126 B8F1020F 		cmp	r8, #2
 6981 012a 32D2     		bcs	.L1469
 6982 012c B8F1010F 		cmp	r8, #1
 6983 0130 C2D1     		bne	.L1467
 6984 0132 6CAD     		add	r5, sp, #432
 6985 0134 0DF15808 		add	r8, sp, #88
 6986 0138 0DF1AE01 		add	r1, sp, #174
 6987 013c 2846     		mov	r0, r5
 6988 013e FFF7FEFF 		bl	handle_file_open
 6989 0142 2846     		mov	r0, r5
 6990 0144 06AB     		add	r3, sp, #24
 6991 0146 4146     		mov	r1, r8
 6992 0148 4022     		movs	r2, #64
 6993 014a FFF7FEFF 		bl	f_read
 6994 014e 0028     		cmp	r0, #0
 6995 0150 40F09F80 		bne	.L1483
 6996 0154 069B     		ldr	r3, [sp, #24]
 6997 0156 BE61     		str	r6, [r7, #24]
 6998 0158 402B     		cmp	r3, #64
 6999 015a 05D1     		bne	.L1484
 7000 015c 594B     		ldr	r3, .L1566+24
 7001 015e D8F80020 		ldr	r2, [r8]
 7002 0162 9A42     		cmp	r2, r3
 7003 0164 00F00481 		beq	.L1558
 7004              	.L1484:
 7005 0168 0DF1AE02 		add	r2, sp, #174
 7006 016c 5249     		ldr	r1, .L1566+12
 7007 016e 5348     		ldr	r0, .L1566+16
 7008 0170 FFF7FEFF 		bl	handle_unsupported_ex
 7009              	.L1491:
 7010 0174 0026     		movs	r6, #0
 7011 0176 ABE7     		b	.L1546
 7012              	.L1459:
 7013 0178 0122     		movs	r2, #1
 7014 017a 5149     		ldr	r1, .L1566+20
 7015 017c FFF7FEFF 		bl	handle_change_dir
 7016 0180 A6E7     		b	.L1546
 7017              	.L1472:
 7018 0182 0DF1AE02 		add	r2, sp, #174
 7019 0186 5049     		ldr	r1, .L1566+28
 7020 0188 5048     		ldr	r0, .L1566+32
 7021 018a 1E46     		mov	r6, r3
 7022 018c FFF7FEFF 		bl	handle_unsupported_ex
 7023 0190 9EE7     		b	.L1546
 7024              	.L1469:
 7025 0192 6CAD     		add	r5, sp, #432
 7026 0194 0DF1AE01 		add	r1, sp, #174
 7027 0198 0193     		str	r3, [sp, #4]
 7028 019a 2846     		mov	r0, r5
 7029 019c FFF7FEFF 		bl	handle_file_open
 7030 01a0 019B     		ldr	r3, [sp, #4]
 7031 01a2 B8F1020F 		cmp	r8, #2
ARM GAS  C:\Users\Jay\AppData\Local\Temp\ccjVRGue.s 			page 121


 7032 01a6 E373     		strb	r3, [r4, #15]
 7033 01a8 00F0D180 		beq	.L1559
 7034 01ac 1A22     		movs	r2, #26
 7035 01ae 2846     		mov	r0, r5
 7036 01b0 06AB     		add	r3, sp, #24
 7037 01b2 16A9     		add	r1, sp, #88
 7038 01b4 FFF7FEFF 		bl	f_read
 7039 01b8 0028     		cmp	r0, #0
 7040 01ba 40F0C680 		bne	.L1477
 7041 01be BDF81830 		ldrh	r3, [sp, #24]
 7042 01c2 BE61     		str	r6, [r7, #24]
 7043 01c4 1A2B     		cmp	r3, #26
 7044 01c6 04D1     		bne	.L1476
 7045 01c8 414B     		ldr	r3, .L1566+36
 7046 01ca 169A     		ldr	r2, [sp, #88]
 7047 01cc 9A42     		cmp	r2, r3
 7048 01ce 00F04C82 		beq	.L1560
 7049              	.L1476:
 7050 01d2 0DF1AE02 		add	r2, sp, #174
 7051 01d6 3849     		ldr	r1, .L1566+12
 7052 01d8 3848     		ldr	r0, .L1566+16
 7053 01da 0026     		movs	r6, #0
 7054 01dc FFF7FEFF 		bl	handle_unsupported_ex
 7055              	.L1482:
 7056 01e0 2846     		mov	r0, r5
 7057 01e2 FFF7FEFF 		bl	f_close
 7058 01e6 324B     		ldr	r3, .L1566+4
 7059 01e8 4FF48002 		mov	r2, #4194304
 7060 01ec 9A61     		str	r2, [r3, #24]
 7061 01ee 6FE7     		b	.L1546
 7062              	.L1471:
 7063 01f0 1BF0010F 		tst	fp, #1
 7064 01f4 40F05482 		bne	.L1513
 7065 01f8 6CAD     		add	r5, sp, #432
 7066 01fa 0DF15808 		add	r8, sp, #88
 7067 01fe 0DF1AE01 		add	r1, sp, #174
 7068 0202 2846     		mov	r0, r5
 7069 0204 FFF7FEFF 		bl	handle_file_open
 7070 0208 2846     		mov	r0, r5
 7071 020a 4346     		mov	r3, r8
 7072 020c 4FF48032 		mov	r2, #65536
 7073 0210 3049     		ldr	r1, .L1566+40
 7074 0212 FFF7FEFF 		bl	f_read
 7075 0216 60BB     		cbnz	r0, .L1514
 7076 0218 D8F80030 		ldr	r3, [r8]
 7077 021c BE61     		str	r6, [r7, #24]
 7078 021e B3F5803F 		cmp	r3, #65536
 7079 0222 27D1     		bne	.L1516
 7080 0224 0DF16B04 		add	r4, sp, #107
 7081 0228 4146     		mov	r1, r8
 7082 022a 2B48     		ldr	r0, .L1566+44
 7083 022c 09E0     		b	.L1520
 7084              	.L1518:
 7085 022e A3F14102 		sub	r2, r3, #65
 7086 0232 192A     		cmp	r2, #25
 7087 0234 01D8     		bhi	.L1519
 7088 0236 2033     		adds	r3, r3, #32
ARM GAS  C:\Users\Jay\AppData\Local\Temp\ccjVRGue.s 			page 122


 7089 0238 DBB2     		uxtb	r3, r3
 7090              	.L1519:
 7091 023a 01F8013B 		strb	r3, [r1], #1
 7092 023e A142     		cmp	r1, r4
 7093 0240 50D0     		beq	.L1561
 7094              	.L1520:
 7095 0242 A1EB0802 		sub	r2, r1, r8
 7096 0246 10F8013B 		ldrb	r3, [r0], #1	@ zero_extendqisi2
 7097 024a D2B2     		uxtb	r2, r2
 7098 024c 002B     		cmp	r3, #0
 7099 024e 4AD0     		beq	.L1521
 7100 0250 1A06     		lsls	r2, r3, #24
 7101 0252 ECD5     		bpl	.L1518
 7102 0254 03F07F03 		and	r3, r3, #127
 7103 0258 EFE7     		b	.L1519
 7104              	.L1557:
 7105 025a 1BF00206 		ands	r6, fp, #2
 7106 025e 1AD0     		beq	.L1512
 7107 0260 1A46     		mov	r2, r3
 7108 0262 1E49     		ldr	r1, .L1566+48
 7109 0264 1B48     		ldr	r0, .L1566+40
 7110 0266 0126     		movs	r6, #1
 7111 0268 FFF7FEFF 		bl	sprint
 7112 026c 84F80980 		strb	r8, [r4, #9]
 7113 0270 2EE7     		b	.L1546
 7114              	.L1514:
 7115 0272 BE61     		str	r6, [r7, #24]
 7116              	.L1516:
 7117 0274 0DF1AE02 		add	r2, sp, #174
 7118 0278 0F49     		ldr	r1, .L1566+12
 7119 027a 1048     		ldr	r0, .L1566+16
 7120 027c FFF7FEFF 		bl	handle_unsupported_ex
 7121              	.L1524:
 7122 0280 2846     		mov	r0, r5
 7123 0282 0026     		movs	r6, #0
 7124 0284 FFF7FEFF 		bl	f_close
 7125 0288 094B     		ldr	r3, .L1566+4
 7126 028a 4FF48002 		mov	r2, #4194304
 7127 028e 9A61     		str	r2, [r3, #24]
 7128 0290 1EE7     		b	.L1546
 7129              	.L1483:
 7130 0292 BE61     		str	r6, [r7, #24]
 7131 0294 68E7     		b	.L1484
 7132              	.L1512:
 7133 0296 0DF1AE00 		add	r0, sp, #174
 7134 029a 6673     		strb	r6, [r4, #13]
 7135 029c A673     		strb	r6, [r4, #14]
 7136 029e FFF7FEFF 		bl	d64_menu_init
 7137 02a2 0F49     		ldr	r1, .L1566+52
 7138 02a4 0268     		ldr	r2, [r0]
 7139 02a6 0860     		str	r0, [r1]
 7140 02a8 9047     		blx	r2
 7141 02aa 11E7     		b	.L1546
 7142              	.L1567:
 7143              		.align	2
 7144              	.L1566:
 7145 02ac 00000000 		.word	dat_file
ARM GAS  C:\Users\Jay\AppData\Local\Temp\ccjVRGue.s 			page 123


 7146 02b0 00100258 		.word	1476530176
 7147 02b4 00030000 		.word	dat_file+768
 7148 02b8 48000000 		.word	.LC36
 7149 02bc 6C000000 		.word	.LC37
 7150 02c0 00000000 		.word	.LC31
 7151 02c4 43363420 		.word	540292675
 7152 02c8 EC000000 		.word	.LC53
 7153 02cc 10010000 		.word	.LC54
 7154 02d0 43363446 		.word	1177826883
 7155 02d4 00000000 		.word	dat_buffer
 7156 02d8 00C00000 		.word	dat_buffer+49152
 7157 02dc 84000000 		.word	.LC47
 7158 02e0 00000000 		.word	.LANCHOR13
 7159              	.L1561:
 7160 02e4 1322     		movs	r2, #19
 7161              	.L1521:
 7162 02e6 0021     		movs	r1, #0
 7163 02e8 C04B     		ldr	r3, .L1568
 7164 02ea 08F80210 		strb	r1, [r8, r2]
 7165 02ee D8F80020 		ldr	r2, [r8]
 7166 02f2 9A42     		cmp	r2, r3
 7167 02f4 BED1     		bne	.L1516
 7168 02f6 BE4A     		ldr	r2, .L1568+4
 7169 02f8 179B     		ldr	r3, [sp, #92]
 7170 02fa 9342     		cmp	r3, r2
 7171 02fc BAD1     		bne	.L1516
 7172 02fe BD4A     		ldr	r2, .L1568+8
 7173 0300 189B     		ldr	r3, [sp, #96]
 7174 0302 9342     		cmp	r3, r2
 7175 0304 B6D1     		bne	.L1516
 7176 0306 9DF86430 		ldrb	r3, [sp, #100]	@ zero_extendqisi2
 7177 030a 682B     		cmp	r3, #104
 7178 030c B2D1     		bne	.L1516
 7179 030e BA49     		ldr	r1, .L1568+12
 7180 0310 BA48     		ldr	r0, .L1568+16
 7181 0312 FFF7FEFF 		bl	build_options
 7182 0316 0446     		mov	r4, r0
 7183 0318 4146     		mov	r1, r8
 7184 031a FFF7FEFF 		bl	options_add_text_block
 7185 031e 2046     		mov	r0, r4
 7186 0320 B74A     		ldr	r2, .L1568+20
 7187 0322 B849     		ldr	r1, .L1568+24
 7188 0324 FFF7FEFF 		bl	options_add_text_element
 7189 0328 0122     		movs	r2, #1
 7190 032a 0346     		mov	r3, r0
 7191 032c B649     		ldr	r1, .L1568+28
 7192 032e 2046     		mov	r0, r4
 7193 0330 83F82D90 		strb	r9, [r3, #45]
 7194 0334 83F82C20 		strb	r2, [r3, #44]
 7195 0338 B44A     		ldr	r2, .L1568+32
 7196 033a FFF7FEFF 		bl	options_add_text_element
 7197 033e B44A     		ldr	r2, .L1568+36
 7198 0340 2368     		ldr	r3, [r4]
 7199 0342 2046     		mov	r0, r4
 7200 0344 1460     		str	r4, [r2]
 7201 0346 9847     		blx	r3
 7202 0348 9AE7     		b	.L1524
ARM GAS  C:\Users\Jay\AppData\Local\Temp\ccjVRGue.s 			page 124


 7203              	.L1477:
 7204 034a BE61     		str	r6, [r7, #24]
 7205 034c 41E7     		b	.L1476
 7206              	.L1559:
 7207 034e 2846     		mov	r0, r5
 7208 0350 FFF7FEFF 		bl	prg_load_file
 7209 0354 0028     		cmp	r0, #0
 7210 0356 3FF43CAF 		beq	.L1476
 7211              	.L1475:
 7212 035a FFF7FEFF 		bl	c64_send_exit_menu
 7213 035e 0023     		movs	r3, #0
 7214 0360 0222     		movs	r2, #2
 7215 0362 0126     		movs	r6, #1
 7216 0364 6373     		strb	r3, [r4, #13]
 7217 0366 A373     		strb	r3, [r4, #14]
 7218 0368 6272     		strb	r2, [r4, #9]
 7219 036a 39E7     		b	.L1482
 7220              	.L1552:
 7221 036c FFF7FEFF 		bl	handle_failed_to_read_sd
 7222              	.L1558:
 7223 0370 17AB     		add	r3, sp, #92
 7224 0372 A84A     		ldr	r2, .L1568+40
 7225 0374 1968     		ldr	r1, [r3]
 7226 0376 9142     		cmp	r1, r2
 7227 0378 7FF4F6AE 		bne	.L1484
 7228 037c 02F17242 		add	r2, r2, #-234881024
 7229 0380 53F8041F 		ldr	r1, [r3, #4]!
 7230 0384 02F57202 		add	r2, r2, #15859712
 7231 0388 02F60F02 		addw	r2, r2, #2063
 7232 038c 9142     		cmp	r1, r2
 7233 038e 7FF4EBAE 		bne	.L1484
 7234 0392 5A68     		ldr	r2, [r3, #4]
 7235 0394 A04B     		ldr	r3, .L1568+44
 7236 0396 9A42     		cmp	r2, r3
 7237 0398 7FF4E6AE 		bne	.L1484
 7238 039c D8F81010 		ldr	r1, [r8, #16]
 7239 03a0 B8F81430 		ldrh	r3, [r8, #20]
 7240 03a4 09BA     		rev	r1, r1
 7241 03a6 C8F81010 		str	r1, [r8, #16]
 7242              		.syntax unified
 7243              	@ 922 "stm32h7xx/cmsis/cmsis_gcc.h" 1
 7244 03aa 5BBA     		rev16 r3, r3
 7245              	@ 0 "" 2
 7246              		.thumb
 7247              		.syntax unified
 7248 03ac 9BB2     		uxth	r3, r3
 7249 03ae B8F81620 		ldrh	r2, [r8, #22]
 7250 03b2 A8F81430 		strh	r3, [r8, #20]	@ movhi
 7251              		.syntax unified
 7252              	@ 922 "stm32h7xx/cmsis/cmsis_gcc.h" 1
 7253 03b6 52BA     		rev16 r2, r2
 7254              	@ 0 "" 2
 7255              		.thumb
 7256              		.syntax unified
 7257 03b8 90B2     		uxth	r0, r2
 7258 03ba 2029     		cmp	r1, #32
 7259 03bc A8F81600 		strh	r0, [r8, #22]	@ movhi
ARM GAS  C:\Users\Jay\AppData\Local\Temp\ccjVRGue.s 			page 125


 7260 03c0 02D0     		beq	.L1532
 7261 03c2 4029     		cmp	r1, #64
 7262 03c4 7FF4D0AE 		bne	.L1484
 7263              	.L1532:
 7264 03c8 B3F5807F 		cmp	r3, #256
 7265 03cc 7FF4CCAE 		bne	.L1484
 7266 03d0 2028     		cmp	r0, #32
 7267 03d2 00F2FC80 		bhi	.L1490
 7268 03d6 914B     		ldr	r3, .L1568+48
 7269 03d8 53F82030 		ldr	r3, [r3, r0, lsl #2]
 7270 03dc 002B     		cmp	r3, #0
 7271 03de 00F0F680 		beq	.L1490
 7272 03e2 FFF7FEFF 		bl	c64_send_exit_menu
 7273 03e6 8E49     		ldr	r1, .L1568+52
 7274 03e8 8E48     		ldr	r0, .L1568+56
 7275 03ea 6FF00807 		mvn	r7, #8
 7276 03ee FFF7FEFF 		bl	c64_send_text
 7277 03f2 8D48     		ldr	r0, .L1568+60
 7278 03f4 0023     		movs	r3, #0
 7279 03f6 0DF1100A 		add	r10, sp, #16
 7280 03fa C668     		ldr	r6, [r0, #12]
 7281 03fc 4FF48032 		mov	r2, #65536
 7282 0400 DFF83092 		ldr	r9, .L1568+72
 7283 0404 FF21     		movs	r1, #255
 7284 0406 3E40     		ands	r6, r6, r7
 7285 0408 DFF838B2 		ldr	fp, .L1568+88
 7286 040c C660     		str	r6, [r0, #12]
 7287 040e 1E46     		mov	r6, r3
 7288 0410 0761     		str	r7, [r0, #16]
 7289 0412 8648     		ldr	r0, .L1568+64
 7290 0414 CAE90033 		strd	r3, r3, [r10]
 7291 0418 FFF7FEFF 		bl	memset
 7292              	.L1493:
 7293 041c 6A69     		ldr	r2, [r5, #20]
 7294 041e EB68     		ldr	r3, [r5, #12]
 7295 0420 9A42     		cmp	r2, r3
 7296 0422 00F08480 		beq	.L1562
 7297              	.L1507:
 7298 0426 1022     		movs	r2, #16
 7299 0428 06A9     		add	r1, sp, #24
 7300 042a 2846     		mov	r0, r5
 7301 042c 03AB     		add	r3, sp, #12
 7302 042e FFF7FEFF 		bl	f_read
 7303 0432 0028     		cmp	r0, #0
 7304 0434 40F0A280 		bne	.L1494
 7305 0438 039B     		ldr	r3, [sp, #12]
 7306 043a 4FF48002 		mov	r2, #4194304
 7307 043e 102B     		cmp	r3, #16
 7308 0440 C9F81820 		str	r2, [r9, #24]
 7309 0444 40F09E80 		bne	.L1495
 7310 0448 069B     		ldr	r3, [sp, #24]
 7311 044a 794A     		ldr	r2, .L1568+68
 7312 044c 9342     		cmp	r3, r2
 7313 044e 40F09980 		bne	.L1495
 7314 0452 079A     		ldr	r2, [sp, #28]
 7315 0454 BDF82030 		ldrh	r3, [sp, #32]
 7316 0458 92FA82FC 		rev	ip, r2
ARM GAS  C:\Users\Jay\AppData\Local\Temp\ccjVRGue.s 			page 126


 7317 045c CDF81CC0 		str	ip, [sp, #28]
 7318              		.syntax unified
 7319              	@ 922 "stm32h7xx/cmsis/cmsis_gcc.h" 1
 7320 0460 5BBA     		rev16 r3, r3
 7321              	@ 0 "" 2
 7322              		.thumb
 7323              		.syntax unified
 7324 0462 ADF82030 		strh	r3, [sp, #32]	@ movhi
 7325 0466 BDF82230 		ldrh	r3, [sp, #34]
 7326              		.syntax unified
 7327              	@ 922 "stm32h7xx/cmsis/cmsis_gcc.h" 1
 7328 046a 5BBA     		rev16 r3, r3
 7329              	@ 0 "" 2
 7330              		.thumb
 7331              		.syntax unified
 7332 046c 98B2     		uxth	r0, r3
 7333 046e BDF82410 		ldrh	r1, [sp, #36]
 7334 0472 ADF82200 		strh	r0, [sp, #34]	@ movhi
 7335              		.syntax unified
 7336              	@ 922 "stm32h7xx/cmsis/cmsis_gcc.h" 1
 7337 0476 49BA     		rev16 r1, r1
 7338              	@ 0 "" 2
 7339              		.thumb
 7340              		.syntax unified
 7341 0478 89B2     		uxth	r1, r1
 7342 047a BDF82670 		ldrh	r7, [sp, #38]
 7343 047e ADF82410 		strh	r1, [sp, #36]	@ movhi
 7344              		.syntax unified
 7345              	@ 922 "stm32h7xx/cmsis/cmsis_gcc.h" 1
 7346 0482 7FBA     		rev16 r7, r7
 7347              	@ 0 "" 2
 7348              		.thumb
 7349              		.syntax unified
 7350 0484 BAB2     		uxth	r2, r7
 7351 0486 02F1100E 		add	lr, r2, #16
 7352 048a 1746     		mov	r7, r2
 7353 048c ADF82620 		strh	r2, [sp, #38]	@ movhi
 7354 0490 F445     		cmp	ip, lr
 7355 0492 77D3     		bcc	.L1495
 7356 0494 B1F5004F 		cmp	r1, #32768
 7357 0498 00F09480 		beq	.L1563
 7358 049c 21F4804C 		bic	ip, r1, #16384
 7359 04a0 BCF5204F 		cmp	ip, #40960
 7360 04a4 03D1     		bne	.L1499
 7361 04a6 B2F5005F 		cmp	r2, #8192
 7362 04aa 40F2D980 		bls	.L1564
 7363              	.L1499:
 7364 04ae B1F5704F 		cmp	r1, #61440
 7365 04b2 67D1     		bne	.L1495
 7366 04b4 B7F5805F 		cmp	r7, #4096
 7367 04b8 64D1     		bne	.L1495
 7368 04ba 9FB2     		uxth	r7, r3
 7369 04bc BF03     		lsls	r7, r7, #14
 7370 04be 07F54057 		add	r7, r7, #12288
 7371              	.L1498:
 7372 04c2 0328     		cmp	r0, #3
 7373 04c4 78D9     		bls	.L1526
ARM GAS  C:\Users\Jay\AppData\Local\Temp\ccjVRGue.s 			page 127


 7374 04c6 5946     		mov	r1, fp
 7375              	.L1527:
 7376 04c8 03AB     		add	r3, sp, #12
 7377 04ca 2846     		mov	r0, r5
 7378 04cc FFF7FEFF 		bl	f_read
 7379 04d0 0028     		cmp	r0, #0
 7380 04d2 6FD1     		bne	.L1530
 7381 04d4 039A     		ldr	r2, [sp, #12]
 7382              	.L1500:
 7383 04d6 4FF48003 		mov	r3, #4194304
 7384 04da C9F81830 		str	r3, [r9, #24]
 7385 04de BDF82630 		ldrh	r3, [sp, #38]
 7386 04e2 9342     		cmp	r3, r2
 7387 04e4 4ED1     		bne	.L1495
 7388 04e6 BDF82220 		ldrh	r2, [sp, #34]
 7389 04ea 111F     		subs	r1, r2, #4
 7390 04ec 3B29     		cmp	r1, #59
 7391 04ee 66D8     		bhi	.L1501
 7392 04f0 D208     		lsrs	r2, r2, #3
 7393 04f2 07F10061 		add	r1, r7, #134217728
 7394 04f6 1AF80200 		ldrb	r0, [r10, r2]	@ zero_extendqisi2
 7395 04fa 0028     		cmp	r0, #0
 7396 04fc 72D1     		bne	.L1531
 7397 04fe 101D     		adds	r0, r2, #4
 7398 0500 4FF0010C 		mov	ip, #1
 7399 0504 4027     		movs	r7, #64
 7400 0506 40B2     		sxtb	r0, r0
 7401 0508 0AF802C0 		strb	ip, [r10, r2]
 7402 050c C9F81870 		str	r7, [r9, #24]
 7403              	.L1502:
 7404 0510 5A46     		mov	r2, fp
 7405 0512 FFF7FEFF 		bl	flash_sector_program
 7406 0516 BDF82220 		ldrh	r2, [sp, #34]
 7407              	.L1503:
 7408 051a 9642     		cmp	r6, r2
 7409 051c 3FF67EAF 		bhi	.L1493
 7410 0520 0132     		adds	r2, r2, #1
 7411 0522 EB68     		ldr	r3, [r5, #12]
 7412 0524 D6B2     		uxtb	r6, r2
 7413 0526 6A69     		ldr	r2, [r5, #20]
 7414 0528 9A42     		cmp	r2, r3
 7415 052a 7FF47CAF 		bne	.L1507
 7416              	.L1562:
 7417 052e 414B     		ldr	r3, .L1568+72
 7418 0530 4FF48002 		mov	r2, #4194304
 7419 0534 9A61     		str	r2, [r3, #24]
 7420 0536 4EB3     		cbz	r6, .L1506
 7421 0538 3F4A     		ldr	r2, .L1568+76
 7422 053a 042E     		cmp	r6, #4
 7423 053c 9368     		ldr	r3, [r2, #8]
 7424 053e 43F00103 		orr	r3, r3, #1
 7425 0542 9360     		str	r3, [r2, #8]
 7426 0544 08D9     		bls	.L1510
 7427 0546 B303     		lsls	r3, r6, #14
 7428 0548 3C49     		ldr	r1, .L1568+80
 7429 054a 03F10063 		add	r3, r3, #134217728
 7430              	.L1511:
ARM GAS  C:\Users\Jay\AppData\Local\Temp\ccjVRGue.s 			page 128


 7431 054e 0868     		ldr	r0, [r1]
 7432 0550 0431     		adds	r1, r1, #4
 7433 0552 9942     		cmp	r1, r3
 7434 0554 1060     		str	r0, [r2]
 7435 0556 FAD1     		bne	.L1511
 7436              	.L1510:
 7437 0558 374A     		ldr	r2, .L1568+76
 7438 055a 0123     		movs	r3, #1
 7439 055c B8F81600 		ldrh	r0, [r8, #22]
 7440 0560 1268     		ldr	r2, [r2]
 7441 0562 98F81810 		ldrb	r1, [r8, #24]	@ zero_extendqisi2
 7442 0566 2261     		str	r2, [r4, #16]	@ unaligned
 7443 0568 98F81920 		ldrb	r2, [r8, #25]	@ zero_extendqisi2
 7444 056c E673     		strb	r6, [r4, #15]
 7445 056e 1E46     		mov	r6, r3
 7446 0570 A4F80B00 		strh	r0, [r4, #11]	@ unaligned
 7447 0574 6173     		strb	r1, [r4, #13]
 7448 0576 A273     		strb	r2, [r4, #14]
 7449 0578 6372     		strb	r3, [r4, #9]
 7450 057a A9E5     		b	.L1546
 7451              	.L1494:
 7452 057c 2D4B     		ldr	r3, .L1568+72
 7453 057e 4FF48002 		mov	r2, #4194304
 7454 0582 9A61     		str	r2, [r3, #24]
 7455              	.L1495:
 7456 0584 2B4B     		ldr	r3, .L1568+72
 7457 0586 4FF48002 		mov	r2, #4194304
 7458 058a 9A61     		str	r2, [r3, #24]
 7459              	.L1506:
 7460 058c 264B     		ldr	r3, .L1568+60
 7461 058e DB68     		ldr	r3, [r3, #12]
 7462 0590 1907     		lsls	r1, r3, #28
 7463 0592 40F18280 		bpl	.L1565
 7464              	.L1509:
 7465 0596 0DF1AE02 		add	r2, sp, #174
 7466 059a 2949     		ldr	r1, .L1568+84
 7467 059c 2948     		ldr	r0, .L1568+88
 7468 059e FFF7FEFF 		bl	sprint
 7469 05a2 2849     		ldr	r1, .L1568+88
 7470 05a4 2848     		ldr	r0, .L1568+92
 7471 05a6 FFF7FEFF 		bl	c64_send_text
 7472 05aa 2849     		ldr	r1, .L1568+96
 7473 05ac 2848     		ldr	r0, .L1568+100
 7474 05ae FFF7FEFF 		bl	c64_send_command
 7475 05b2 DFE5     		b	.L1491
 7476              	.L1530:
 7477 05b4 0022     		movs	r2, #0
 7478 05b6 8EE7     		b	.L1500
 7479              	.L1526:
 7480 05b8 1C49     		ldr	r1, .L1568+64
 7481 05ba 3944     		add	r1, r1, r7
 7482 05bc 84E7     		b	.L1527
 7483              	.L1501:
 7484 05be 3F2A     		cmp	r2, #63
 7485 05c0 ABD9     		bls	.L1503
 7486 05c2 2BE7     		b	.L1493
 7487              	.L1563:
ARM GAS  C:\Users\Jay\AppData\Local\Temp\ccjVRGue.s 			page 129


 7488 05c4 B2F5804F 		cmp	r2, #16384
 7489 05c8 DCD8     		bhi	.L1495
 7490 05ca 8703     		lsls	r7, r0, #14
 7491 05cc 79E7     		b	.L1498
 7492              	.L1490:
 7493 05ce 92B2     		uxth	r2, r2
 7494 05d0 2049     		ldr	r1, .L1568+104
 7495 05d2 1C48     		ldr	r0, .L1568+88
 7496 05d4 FFF7FEFF 		bl	sprint
 7497 05d8 1F4A     		ldr	r2, .L1568+108
 7498 05da 1A49     		ldr	r1, .L1568+88
 7499 05dc 1F48     		ldr	r0, .L1568+112
 7500 05de FFF7FEFF 		bl	handle_unsupported_ex
 7501 05e2 C7E5     		b	.L1491
 7502              	.L1531:
 7503 05e4 4FF0FF30 		mov	r0, #-1
 7504 05e8 92E7     		b	.L1502
 7505              	.L1569:
 7506 05ea 00BF     		.align	2
 7507              	.L1568:
 7508 05ec 4B756E67 		.word	1735292235
 7509 05f0 20467520 		.word	544556576
 7510 05f4 466C6173 		.word	1935764550
 7511 05f8 98000000 		.word	.LC49
 7512 05fc BC000000 		.word	.LC50
 7513 0600 D0000000 		.word	.LC51
 7514 0604 00000000 		.word	options_prev_select
 7515 0608 00000000 		.word	options_prev_dir
 7516 060c 00000000 		.word	.LC15
 7517 0610 00000000 		.word	.LANCHOR13
 7518 0614 43415254 		.word	1414676803
 7519 0618 45202020 		.word	538976325
 7520 061c 00000000 		.word	.LANCHOR29
 7521 0620 38000000 		.word	.LC42
 7522 0624 54000000 		.word	.LC43
 7523 0628 00000140 		.word	1073807360
 7524 062c 00000000 		.word	dat_buffer
 7525 0630 43484950 		.word	1346979907
 7526 0634 00100258 		.word	1476530176
 7527 0638 004C0258 		.word	1476545536
 7528 063c 00000108 		.word	134283264
 7529 0640 58000000 		.word	.LC44
 7530 0644 00000100 		.word	scratch_buf
 7531 0648 18000000 		.word	.LC30
 7532 064c 78000000 		.word	.LC45
 7533 0650 80000000 		.word	.LC46
 7534 0654 1C000000 		.word	.LC41
 7535 0658 00030000 		.word	dat_file+768
 7536 065c 6C000000 		.word	.LC37
 7537              	.L1564:
 7538 0660 9FB2     		uxth	r7, r3
 7539 0662 BF03     		lsls	r7, r7, #14
 7540 0664 07F50057 		add	r7, r7, #8192
 7541 0668 2BE7     		b	.L1498
 7542              	.L1560:
 7543 066a 179A     		ldr	r2, [sp, #92]
 7544 066c 204B     		ldr	r3, .L1570
ARM GAS  C:\Users\Jay\AppData\Local\Temp\ccjVRGue.s 			page 130


 7545 066e 9A42     		cmp	r2, r3
 7546 0670 7FF4AFAD 		bne	.L1476
 7547 0674 2846     		mov	r0, r5
 7548 0676 4FF00008 		mov	r8, #0
 7549 067a FFF7FEFF 		bl	prg_load_file
 7550 067e 0028     		cmp	r0, #0
 7551 0680 3FF4A7AD 		beq	.L1476
 7552 0684 18AE     		add	r6, sp, #96
 7553 0686 1B4F     		ldr	r7, .L1570+4
 7554 0688 84F81F80 		strb	r8, [r4, #31]
 7555 068c 0FCE     		ldmia	r6!, {r0, r1, r2, r3}
 7556 068e C4F80F00 		str	r0, [r4, #15]	@ unaligned
 7557 0692 7960     		str	r1, [r7, #4]	@ unaligned
 7558 0694 BA60     		str	r2, [r7, #8]	@ unaligned
 7559 0696 FB60     		str	r3, [r7, #12]	@ unaligned
 7560 0698 5FE6     		b	.L1475
 7561              	.L1565:
 7562 069a FFF7FEFF 		bl	c64_interface.part.23
 7563 069e 7AE7     		b	.L1509
 7564              	.L1513:
 7565 06a0 0193     		str	r3, [sp, #4]
 7566 06a2 FFF7FEFF 		bl	c64_send_exit_menu
 7567 06a6 019B     		ldr	r3, [sp, #4]
 7568 06a8 4FF00064 		mov	r4, #134217728
 7569 06ac 1249     		ldr	r1, .L1570+8
 7570 06ae 1348     		ldr	r0, .L1570+12
 7571 06b0 1E46     		mov	r6, r3
 7572 06b2 FFF7FEFF 		bl	c64_send_text
 7573 06b6 124B     		ldr	r3, .L1570+16
 7574 06b8 6FF00801 		mvn	r1, #8
 7575 06bc DFF84480 		ldr	r8, .L1570+20
 7576 06c0 DA68     		ldr	r2, [r3, #12]
 7577 06c2 0A40     		ands	r2, r2, r1
 7578 06c4 DA60     		str	r2, [r3, #12]
 7579 06c6 1961     		str	r1, [r3, #16]
 7580              	.L1525:
 7581 06c8 7D69     		ldr	r5, [r7, #20]
 7582 06ca 70B2     		sxtb	r0, r6
 7583 06cc 4FF48043 		mov	r3, #16384
 7584 06d0 0136     		adds	r6, r6, #1
 7585 06d2 85F04005 		eor	r5, r5, #64
 7586 06d6 08EB0402 		add	r2, r8, r4
 7587 06da 2146     		mov	r1, r4
 7588 06dc 1C44     		add	r4, r4, r3
 7589 06de 7D61     		str	r5, [r7, #20]
 7590 06e0 FFF7FEFF 		bl	flash_sector_program
 7591 06e4 042E     		cmp	r6, #4
 7592 06e6 EFD1     		bne	.L1525
 7593 06e8 FFF7FEFF 		bl	save_dat
 7594 06ec FFF7FEFF 		bl	restart_to_menu
 7595              	.L1571:
 7596              		.align	2
 7597              	.L1570:
 7598 06f0 696C6500 		.word	6646889
 7599 06f4 0F000000 		.word	dat_file+15
 7600 06f8 D8000000 		.word	.LC52
 7601 06fc 54000000 		.word	.LC43
ARM GAS  C:\Users\Jay\AppData\Local\Temp\ccjVRGue.s 			page 131


 7602 0700 00000140 		.word	1073807360
 7603 0704 000000F8 		.word	dat_buffer-134217728
 7605              		.section	.text.settings_save,"ax",%progbits
 7606              		.align	1
 7607              		.p2align 2,,3
 7608              		.syntax unified
 7609              		.thumb
 7610              		.thumb_func
 7611              		.fpu fpv5-sp-d16
 7613              	settings_save:
 7614              		@ Volatile: function does not return.
 7615              		@ args = 0, pretend = 0, frame = 0
 7616              		@ frame_needed = 0, uses_anonymous_args = 0
 7617 0000 0A4A     		ldr	r2, .L1574
 7618 0002 08B5     		push	{r3, lr}
 7619 0004 0A4B     		ldr	r3, .L1574+4
 7620 0006 1278     		ldrb	r2, [r2]	@ zero_extendqisi2
 7621 0008 1A72     		strb	r2, [r3, #8]
 7622 000a FFF7FEFF 		bl	c64_send_exit_menu
 7623 000e 0949     		ldr	r1, .L1574+8
 7624 0010 0948     		ldr	r0, .L1574+12
 7625 0012 FFF7FEFF 		bl	c64_send_text
 7626 0016 094B     		ldr	r3, .L1574+16
 7627 0018 6FF00801 		mvn	r1, #8
 7628 001c DA68     		ldr	r2, [r3, #12]
 7629 001e 0A40     		ands	r2, r2, r1
 7630 0020 DA60     		str	r2, [r3, #12]
 7631 0022 1961     		str	r1, [r3, #16]
 7632 0024 FFF7FEFF 		bl	save_dat
 7633 0028 FFF7FEFF 		bl	restart_to_menu
 7634              	.L1575:
 7635              		.align	2
 7636              	.L1574:
 7637 002c 00000000 		.word	.LANCHOR27
 7638 0030 00000000 		.word	dat_file
 7639 0034 00000000 		.word	.LC55
 7640 0038 54000000 		.word	.LC43
 7641 003c 00000140 		.word	1073807360
 7643              		.section	.text.kcs_init,"ax",%progbits
 7644              		.align	1
 7645              		.p2align 2,,3
 7646              		.syntax unified
 7647              		.thumb
 7648              		.thumb_func
 7649              		.fpu fpv5-sp-d16
 7651              	kcs_init:
 7652              		@ args = 0, pretend = 0, frame = 0
 7653              		@ frame_needed = 0, uses_anonymous_args = 0
 7654              		@ link register save eliminated.
 7655 0000 30B4     		push	{r4, r5}
 7656 0002 0749     		ldr	r1, .L1578
 7657 0004 0025     		movs	r5, #0
 7658 0006 074B     		ldr	r3, .L1578+4
 7659 0008 4024     		movs	r4, #64
 7660 000a 0D70     		strb	r5, [r1]
 7661 000c 4FF0C070 		mov	r0, #25165824
 7662 0010 054A     		ldr	r2, .L1578+8
ARM GAS  C:\Users\Jay\AppData\Local\Temp\ccjVRGue.s 			page 132


 7663 0012 0649     		ldr	r1, .L1578+12
 7664 0014 9C61     		str	r4, [r3, #24]
 7665 0016 9861     		str	r0, [r3, #24]
 7666 0018 1160     		str	r1, [r2]
 7667 001a 30BC     		pop	{r4, r5}
 7668 001c 7047     		bx	lr
 7669              	.L1579:
 7670 001e 00BF     		.align	2
 7671              	.L1578:
 7672 0020 00000000 		.word	.LANCHOR30
 7673 0024 00100258 		.word	1476530176
 7674 0028 00000000 		.word	.LANCHOR7
 7675 002c 00000000 		.word	dat_buffer
 7677              		.section	.text.crt_handler,"ax",%progbits
 7678              		.align	1
 7679              		.p2align 2,,3
 7680              		.global	crt_handler
 7681              		.syntax unified
 7682              		.thumb
 7683              		.thumb_func
 7684              		.fpu fpv5-sp-d16
 7686              	crt_handler:
 7687              		@ args = 0, pretend = 0, frame = 8
 7688              		@ frame_needed = 0, uses_anonymous_args = 0
 7689 0000 2DE9F04F 		push	{r4, r5, r6, r7, r8, r9, r10, fp, lr}
 7690 0004 D84E     		ldr	r6, .L1671
 7691 0006 83B0     		sub	sp, sp, #12
 7692 0008 3369     		ldr	r3, [r6, #16]
 7693 000a 1807     		lsls	r0, r3, #28
 7694 000c 40F1FC81 		bpl	.L1580
 7695 0010 D64B     		ldr	r3, .L1671+4
 7696 0012 4FF40012 		mov	r2, #2097152
 7697 0016 DFF86C83 		ldr	r8, .L1671+28
 7698 001a 9C46     		mov	ip, r3
 7699 001c D44F     		ldr	r7, .L1671+8
 7700 001e DFF868E3 		ldr	lr, .L1671+32
 7701 0022 DFF86893 		ldr	r9, .L1671+36
 7702 0026 9A61     		str	r2, [r3, #24]
 7703              	.L1621:
 7704 0028 D8F81040 		ldr	r4, [r8, #16]
 7705 002c 3969     		ldr	r1, [r7, #16]
 7706 002e DCF81050 		ldr	r5, [ip, #16]
 7707 0032 0BB2     		sxth	r3, r1
 7708 0034 DEF81020 		ldr	r2, [lr, #16]
 7709 0038 ED00     		lsls	r5, r5, #3
 7710 003a 9800     		lsls	r0, r3, #2
 7711 003c 03F00402 		and	r2, r3, #4
 7712 0040 4FEA031A 		lsl	r10, r3, #4
 7713 0044 00F00800 		and	r0, r0, #8
 7714 0048 2DB2     		sxth	r5, r5
 7715 004a 0AF0100A 		and	r10, r10, #16
 7716 004e 40EA0A00 		orr	r0, r0, r10
 7717 0052 4FEA430A 		lsl	r10, r3, #1
 7718 0056 1043     		orrs	r0, r0, r2
 7719 0058 0AF4006A 		and	r10, r10, #2048
 7720 005c DA00     		lsls	r2, r3, #3
 7721 005e 40EA0A00 		orr	r0, r0, r10
ARM GAS  C:\Users\Jay\AppData\Local\Temp\ccjVRGue.s 			page 133


 7722 0062 5B01     		lsls	r3, r3, #5
 7723 0064 02F48052 		and	r2, r2, #4096
 7724 0068 C1F3001A 		ubfx	r10, r1, #4, #1
 7725 006c 03F40053 		and	r3, r3, #8192
 7726 0070 0243     		orrs	r2, r2, r0
 7727 0072 05F48040 		and	r0, r5, #16384
 7728 0076 25F4FF45 		bic	r5, r5, #32640
 7729 007a 1A43     		orrs	r2, r2, r3
 7730 007c 8B10     		asrs	r3, r1, #2
 7731 007e 25F07F05 		bic	r5, r5, #127
 7732 0082 0243     		orrs	r2, r2, r0
 7733 0084 4811     		asrs	r0, r1, #5
 7734 0086 2A43     		orrs	r2, r2, r5
 7735 0088 03F00205 		and	r5, r3, #2
 7736 008c E311     		asrs	r3, r4, #7
 7737 008e 00F48070 		and	r0, r0, #256
 7738 0092 42EA0A02 		orr	r2, r2, r10
 7739 0096 2411     		asrs	r4, r4, #4
 7740 0098 03F02003 		and	r3, r3, #32
 7741 009c 2A43     		orrs	r2, r2, r5
 7742 009e 04F04004 		and	r4, r4, #64
 7743 00a2 CD10     		asrs	r5, r1, #3
 7744 00a4 1343     		orrs	r3, r3, r2
 7745 00a6 4910     		asrs	r1, r1, #1
 7746 00a8 05F40072 		and	r2, r5, #512
 7747 00ac 2343     		orrs	r3, r3, r4
 7748 00ae 01F48061 		and	r1, r1, #1024
 7749 00b2 0343     		orrs	r3, r3, r0
 7750 00b4 1343     		orrs	r3, r3, r2
 7751 00b6 0B43     		orrs	r3, r3, r1
 7752 00b8 9BB2     		uxth	r3, r3
 7753 00ba DEF81010 		ldr	r1, [lr, #16]
 7754 00be D8F81000 		ldr	r0, [r8, #16]
 7755 00c2 3A69     		ldr	r2, [r7, #16]
 7756 00c4 01F03005 		and	r5, r1, #48
 7757 00c8 4411     		asrs	r4, r0, #5
 7758 00ca C2F3C032 		ubfx	r2, r2, #15, #1
 7759 00ce C011     		asrs	r0, r0, #7
 7760 00d0 04F00204 		and	r4, r4, #2
 7761 00d4 2A43     		orrs	r2, r2, r5
 7762 00d6 00F00400 		and	r0, r0, #4
 7763 00da 8D11     		asrs	r5, r1, #6
 7764 00dc 2243     		orrs	r2, r2, r4
 7765 00de 8910     		asrs	r1, r1, #2
 7766 00e0 05F00805 		and	r5, r5, #8
 7767 00e4 DCF81040 		ldr	r4, [ip, #16]
 7768 00e8 0243     		orrs	r2, r2, r0
 7769 00ea 01F04001 		and	r1, r1, #64
 7770 00ee 2A43     		orrs	r2, r2, r5
 7771 00f0 0A43     		orrs	r2, r2, r1
 7772 00f2 2104     		lsls	r1, r4, #16
 7773 00f4 48BF     		it	mi
 7774 00f6 62F07F02 		ornmi	r2, r2, #127
 7775 00fa D2B2     		uxtb	r2, r2
 7776 00fc 02F00901 		and	r1, r2, #9
 7777 0100 0129     		cmp	r1, #1
 7778 0102 00F08D81 		beq	.L1669
ARM GAS  C:\Users\Jay\AppData\Local\Temp\ccjVRGue.s 			page 134


 7779 0106 D107     		lsls	r1, r2, #31
 7780 0108 40F18181 		bpl	.L1595
 7781 010c 02F0C001 		and	r1, r2, #192
 7782 0110 C029     		cmp	r1, #192
 7783 0112 6AD0     		beq	.L1585
 7784 0114 9749     		ldr	r1, .L1671+12
 7785 0116 C3F30D03 		ubfx	r3, r3, #0, #14
 7786 011a 9748     		ldr	r0, .L1671+16
 7787 011c 0968     		ldr	r1, [r1]
 7788 011e C95C     		ldrb	r1, [r1, r3]	@ zero_extendqisi2
 7789 0120 11F0010F 		tst	r1, #1
 7790 0124 0CBF     		ite	eq
 7791 0126 4FF40034 		moveq	r4, #131072
 7792 012a 0224     		movne	r4, #2
 7793 012c 11F0020F 		tst	r1, #2
 7794 0130 0CBF     		ite	eq
 7795 0132 4FF48035 		moveq	r5, #65536
 7796 0136 0125     		movne	r5, #1
 7797 0138 11F0040F 		tst	r1, #4
 7798 013c 44EA0504 		orr	r4, r4, r5
 7799 0140 0CBF     		ite	eq
 7800 0142 4FF00073 		moveq	r3, #33554432
 7801 0146 4FF40073 		movne	r3, #512
 7802 014a 11F0080F 		tst	r1, #8
 7803 014e CCF81840 		str	r4, [ip, #24]
 7804 0152 0CBF     		ite	eq
 7805 0154 4FF08075 		moveq	r5, #16777216
 7806 0158 4FF48075 		movne	r5, #256
 7807 015c 11F0100F 		tst	r1, #16
 7808 0160 43EA0503 		orr	r3, r3, r5
 7809 0164 0CBF     		ite	eq
 7810 0166 4FF40004 		moveq	r4, #8388608
 7811 016a 8024     		movne	r4, #128
 7812 016c 11F0200F 		tst	r1, #32
 7813 0170 43EA0403 		orr	r3, r3, r4
 7814 0174 0CBF     		ite	eq
 7815 0176 4FF48004 		moveq	r4, #4194304
 7816 017a 4024     		movne	r4, #64
 7817 017c 11F0400F 		tst	r1, #64
 7818 0180 43EA0403 		orr	r3, r3, r4
 7819 0184 0CBF     		ite	eq
 7820 0186 4FF40014 		moveq	r4, #2097152
 7821 018a 2024     		movne	r4, #32
 7822 018c 11F0800F 		tst	r1, #128
 7823 0190 43EA0403 		orr	r3, r3, r4
 7824 0194 0CBF     		ite	eq
 7825 0196 4FF40011 		moveq	r1, #2097152
 7826 019a 2021     		movne	r1, #32
 7827 019c C9F81830 		str	r3, [r9, #24]
 7828 01a0 B961     		str	r1, [r7, #24]
 7829 01a2 DCF80030 		ldr	r3, [ip]
 7830 01a6 03F00F03 		and	r3, r3, #15
 7831 01aa CCF80030 		str	r3, [ip]
 7832 01ae D9F80030 		ldr	r3, [r9]
 7833 01b2 1840     		ands	r0, r0, r3
 7834 01b4 C9F80000 		str	r0, [r9]
 7835 01b8 3B68     		ldr	r3, [r7]
ARM GAS  C:\Users\Jay\AppData\Local\Temp\ccjVRGue.s 			page 135


 7836 01ba 03F44063 		and	r3, r3, #3072
 7837 01be 3B60     		str	r3, [r7]
 7838              	.L1604:
 7839 01c0 736A     		ldr	r3, [r6, #36]
 7840 01c2 932B     		cmp	r3, #147
 7841 01c4 FCD9     		bls	.L1604
 7842              	.L1668:
 7843 01c6 DCF80030 		ldr	r3, [ip]
 7844 01ca 23F00F03 		bic	r3, r3, #15
 7845 01ce CCF80030 		str	r3, [ip]
 7846 01d2 D9F80030 		ldr	r3, [r9]
 7847 01d6 23F47F23 		bic	r3, r3, #1044480
 7848 01da 23F44063 		bic	r3, r3, #3072
 7849 01de C9F80030 		str	r3, [r9]
 7850 01e2 3B68     		ldr	r3, [r7]
 7851 01e4 23F44063 		bic	r3, r3, #3072
 7852 01e8 3B60     		str	r3, [r7]
 7853              	.L1585:
 7854 01ea D506     		lsls	r5, r2, #27
 7855 01ec 00F10481 		bmi	.L1670
 7856              	.L1606:
 7857 01f0 736A     		ldr	r3, [r6, #36]
 7858 01f2 532B     		cmp	r3, #83
 7859 01f4 FCD8     		bhi	.L1606
 7860 01f6 614B     		ldr	r3, .L1671+20
 7861 01f8 716A     		ldr	r1, [r6, #36]
 7862 01fa 1A46     		mov	r2, r3
 7863 01fc 5960     		str	r1, [r3, #4]
 7864              	.L1607:
 7865 01fe 5368     		ldr	r3, [r2, #4]
 7866 0200 112B     		cmp	r3, #17
 7867 0202 FCD9     		bls	.L1607
 7868 0204 D8F81010 		ldr	r1, [r8, #16]
 7869 0208 3A69     		ldr	r2, [r7, #16]
 7870 020a DCF81000 		ldr	r0, [ip, #16]
 7871 020e DEF81030 		ldr	r3, [lr, #16]
 7872 0212 5A4C     		ldr	r4, .L1671+20
 7873              	.L1608:
 7874 0214 6368     		ldr	r3, [r4, #4]
 7875 0216 202B     		cmp	r3, #32
 7876 0218 FCD9     		bls	.L1608
 7877 021a DEF81040 		ldr	r4, [lr, #16]
 7878 021e D8F81030 		ldr	r3, [r8, #16]
 7879 0222 D7F810A0 		ldr	r10, [r7, #16]
 7880 0226 04F0300B 		and	fp, r4, #48
 7881 022a 5D11     		asrs	r5, r3, #5
 7882 022c CAF3C03A 		ubfx	r10, r10, #15, #1
 7883 0230 DB11     		asrs	r3, r3, #7
 7884 0232 05F00205 		and	r5, r5, #2
 7885 0236 4AEA0B0A 		orr	r10, r10, fp
 7886 023a 03F00403 		and	r3, r3, #4
 7887 023e 4FEAA41B 		asr	fp, r4, #6
 7888 0242 4AEA050A 		orr	r10, r10, r5
 7889 0246 A410     		asrs	r4, r4, #2
 7890 0248 0BF0080B 		and	fp, fp, #8
 7891 024c DCF81050 		ldr	r5, [ip, #16]
 7892 0250 4AEA0303 		orr	r3, r10, r3
ARM GAS  C:\Users\Jay\AppData\Local\Temp\ccjVRGue.s 			page 136


 7893 0254 04F04004 		and	r4, r4, #64
 7894 0258 43EA0B03 		orr	r3, r3, fp
 7895 025c 2343     		orrs	r3, r3, r4
 7896 025e 2C04     		lsls	r4, r5, #16
 7897 0260 48BF     		it	mi
 7898 0262 63F07F03 		ornmi	r3, r3, #127
 7899 0266 03F0C003 		and	r3, r3, #192
 7900 026a C02B     		cmp	r3, #192
 7901 026c 00F0BF80 		beq	.L1610
 7902 0270 13B2     		sxth	r3, r2
 7903 0272 434C     		ldr	r4, .L1671+24
 7904 0274 C2F3001B 		ubfx	fp, r2, #4, #1
 7905 0278 03F00405 		and	r5, r3, #4
 7906 027c 04EAC000 		and	r0, r4, r0, lsl #3
 7907 0280 5C01     		lsls	r4, r3, #5
 7908 0282 2843     		orrs	r0, r0, r5
 7909 0284 4FEAC30A 		lsl	r10, r3, #3
 7910 0288 04F40054 		and	r4, r4, #8192
 7911 028c 5D00     		lsls	r5, r3, #1
 7912 028e 0AF4805A 		and	r10, r10, #4096
 7913 0292 0443     		orrs	r4, r4, r0
 7914 0294 05F40065 		and	r5, r5, #2048
 7915 0298 1801     		lsls	r0, r3, #4
 7916 029a 44EA0A04 		orr	r4, r4, r10
 7917 029e 9B00     		lsls	r3, r3, #2
 7918 02a0 4FEAE11A 		asr	r10, r1, #7
 7919 02a4 2C43     		orrs	r4, r4, r5
 7920 02a6 00F01005 		and	r5, r0, #16
 7921 02aa 03F00803 		and	r3, r3, #8
 7922 02ae 9010     		asrs	r0, r2, #2
 7923 02b0 2C43     		orrs	r4, r4, r5
 7924 02b2 0911     		asrs	r1, r1, #4
 7925 02b4 00F00200 		and	r0, r0, #2
 7926 02b8 0AF0200A 		and	r10, r10, #32
 7927 02bc 2343     		orrs	r3, r3, r4
 7928 02be 01F04001 		and	r1, r1, #64
 7929 02c2 5511     		asrs	r5, r2, #5
 7930 02c4 43EA0B03 		orr	r3, r3, fp
 7931 02c8 D410     		asrs	r4, r2, #3
 7932 02ca 05F48075 		and	r5, r5, #256
 7933 02ce 5210     		asrs	r2, r2, #1
 7934 02d0 1843     		orrs	r0, r0, r3
 7935 02d2 284B     		ldr	r3, .L1671+12
 7936 02d4 04F4007B 		and	fp, r4, #512
 7937 02d8 02F48062 		and	r2, r2, #1024
 7938 02dc 1B68     		ldr	r3, [r3]
 7939 02de 264C     		ldr	r4, .L1671+16
 7940 02e0 0193     		str	r3, [sp, #4]
 7941 02e2 40EA0A03 		orr	r3, r0, r10
 7942 02e6 2548     		ldr	r0, .L1671+20
 7943 02e8 0B43     		orrs	r3, r3, r1
 7944 02ea 2B43     		orrs	r3, r3, r5
 7945 02ec 43EA0B03 		orr	r3, r3, fp
 7946 02f0 1343     		orrs	r3, r3, r2
 7947 02f2 019A     		ldr	r2, [sp, #4]
 7948 02f4 C3F30D03 		ubfx	r3, r3, #0, #14
 7949 02f8 D25C     		ldrb	r2, [r2, r3]	@ zero_extendqisi2
ARM GAS  C:\Users\Jay\AppData\Local\Temp\ccjVRGue.s 			page 137


 7950 02fa 12F0010F 		tst	r2, #1
 7951 02fe 0CBF     		ite	eq
 7952 0300 4FF40031 		moveq	r1, #131072
 7953 0304 0221     		movne	r1, #2
 7954 0306 12F0020F 		tst	r2, #2
 7955 030a 0CBF     		ite	eq
 7956 030c 4FF48035 		moveq	r5, #65536
 7957 0310 0125     		movne	r5, #1
 7958 0312 12F0040F 		tst	r2, #4
 7959 0316 41EA0501 		orr	r1, r1, r5
 7960 031a 0CBF     		ite	eq
 7961 031c 4FF00073 		moveq	r3, #33554432
 7962 0320 4FF40073 		movne	r3, #512
 7963 0324 12F0080F 		tst	r2, #8
 7964 0328 CCF81810 		str	r1, [ip, #24]
 7965 032c 0CBF     		ite	eq
 7966 032e 4FF08075 		moveq	r5, #16777216
 7967 0332 4FF48075 		movne	r5, #256
 7968 0336 12F0100F 		tst	r2, #16
 7969 033a 43EA0503 		orr	r3, r3, r5
 7970 033e 0CBF     		ite	eq
 7971 0340 4FF40001 		moveq	r1, #8388608
 7972 0344 8021     		movne	r1, #128
 7973 0346 12F0200F 		tst	r2, #32
 7974 034a 43EA0103 		orr	r3, r3, r1
 7975 034e 0CBF     		ite	eq
 7976 0350 4FF48001 		moveq	r1, #4194304
 7977 0354 4021     		movne	r1, #64
 7978 0356 12F0400F 		tst	r2, #64
 7979 035a 43EA0103 		orr	r3, r3, r1
 7980 035e 0CBF     		ite	eq
 7981 0360 4FF40011 		moveq	r1, #2097152
 7982 0364 2021     		movne	r1, #32
 7983 0366 13E0     		b	.L1672
 7984              	.L1673:
 7985              		.align	2
 7986              	.L1671:
 7987 0368 00000140 		.word	1073807360
 7988 036c 00100258 		.word	1476530176
 7989 0370 000C0258 		.word	1476529152
 7990 0374 00000000 		.word	.LANCHOR7
 7991 0378 00FC0F00 		.word	1047552
 7992 037c 001000E0 		.word	-536866816
 7993 0380 00C0FFFF 		.word	-16384
 7994 0384 00080258 		.word	1476528128
 7995 0388 00000258 		.word	1476526080
 7996 038c 00040258 		.word	1476527104
 7997              	.L1672:
 7998 0390 12F0800F 		tst	r2, #128
 7999 0394 43EA0103 		orr	r3, r3, r1
 8000 0398 0CBF     		ite	eq
 8001 039a 4FF40012 		moveq	r2, #2097152
 8002 039e 2022     		movne	r2, #32
 8003 03a0 C9F81830 		str	r3, [r9, #24]
 8004 03a4 BA61     		str	r2, [r7, #24]
 8005 03a6 DCF80030 		ldr	r3, [ip]
 8006 03aa 03F00F03 		and	r3, r3, #15
ARM GAS  C:\Users\Jay\AppData\Local\Temp\ccjVRGue.s 			page 138


 8007 03ae CCF80030 		str	r3, [ip]
 8008 03b2 D9F80030 		ldr	r3, [r9]
 8009 03b6 1C40     		ands	r4, r4, r3
 8010 03b8 C9F80040 		str	r4, [r9]
 8011 03bc 3B68     		ldr	r3, [r7]
 8012 03be 03F44063 		and	r3, r3, #3072
 8013 03c2 3B60     		str	r3, [r7]
 8014              	.L1619:
 8015 03c4 4368     		ldr	r3, [r0, #4]
 8016 03c6 3C2B     		cmp	r3, #60
 8017 03c8 FCD9     		bls	.L1619
 8018 03ca DCF80030 		ldr	r3, [ip]
 8019 03ce 23F00F03 		bic	r3, r3, #15
 8020 03d2 CCF80030 		str	r3, [ip]
 8021 03d6 D9F80030 		ldr	r3, [r9]
 8022 03da 23F47F23 		bic	r3, r3, #1044480
 8023 03de 23F44063 		bic	r3, r3, #3072
 8024 03e2 C9F80030 		str	r3, [r9]
 8025 03e6 3B68     		ldr	r3, [r7]
 8026 03e8 23F44063 		bic	r3, r3, #3072
 8027 03ec 3B60     		str	r3, [r7]
 8028              	.L1610:
 8029 03ee 514A     		ldr	r2, .L1674
 8030              	.L1620:
 8031 03f0 5368     		ldr	r3, [r2, #4]
 8032 03f2 602B     		cmp	r3, #96
 8033 03f4 FCD9     		bls	.L1620
 8034 03f6 17E6     		b	.L1621
 8035              	.L1670:
 8036 03f8 4F4B     		ldr	r3, .L1674+4
 8037 03fa 6FF00801 		mvn	r1, #8
 8038 03fe DA68     		ldr	r2, [r3, #12]
 8039 0400 0A40     		ands	r2, r2, r1
 8040 0402 DA60     		str	r2, [r3, #12]
 8041 0404 1961     		str	r1, [r3, #16]
 8042 0406 1961     		str	r1, [r3, #16]
 8043              	.L1580:
 8044 0408 03B0     		add	sp, sp, #12
 8045              		@ sp needed
 8046 040a BDE8F08F 		pop	{r4, r5, r6, r7, r8, r9, r10, fp, pc}
 8047              	.L1595:
 8048              	.L1605:
 8049 040e 736A     		ldr	r3, [r6, #36]
 8050 0410 812B     		cmp	r3, #129
 8051 0412 FCD9     		bls	.L1605
 8052 0414 D9F81030 		ldr	r3, [r9, #16]
 8053 0418 DCF81030 		ldr	r3, [ip, #16]
 8054 041c 3B69     		ldr	r3, [r7, #16]
 8055 041e E4E6     		b	.L1585
 8056              	.L1669:
 8057              		.syntax unified
 8058              	@ 44 "cartridges/crt_normal.c" 1
 8059 0420 00BF     		nop
 8060              	@ 0 "" 2
 8061              	@ 44 "cartridges/crt_normal.c" 1
 8062 0422 00BF     		nop
 8063              	@ 0 "" 2
ARM GAS  C:\Users\Jay\AppData\Local\Temp\ccjVRGue.s 			page 139


 8064              	@ 44 "cartridges/crt_normal.c" 1
 8065 0424 00BF     		nop
 8066              	@ 0 "" 2
 8067              	@ 44 "cartridges/crt_normal.c" 1
 8068 0426 00BF     		nop
 8069              	@ 0 "" 2
 8070              	@ 44 "cartridges/crt_normal.c" 1
 8071 0428 00BF     		nop
 8072              	@ 0 "" 2
 8073              	@ 44 "cartridges/crt_normal.c" 1
 8074 042a 00BF     		nop
 8075              	@ 0 "" 2
 8076              	@ 44 "cartridges/crt_normal.c" 1
 8077 042c 00BF     		nop
 8078              	@ 0 "" 2
 8079              		.thumb
 8080              		.syntax unified
 8081 042e DEF81010 		ldr	r1, [lr, #16]
 8082 0432 D8F81000 		ldr	r0, [r8, #16]
 8083 0436 3A69     		ldr	r2, [r7, #16]
 8084 0438 01F03005 		and	r5, r1, #48
 8085 043c 4411     		asrs	r4, r0, #5
 8086 043e C2F3C032 		ubfx	r2, r2, #15, #1
 8087 0442 C011     		asrs	r0, r0, #7
 8088 0444 04F00204 		and	r4, r4, #2
 8089 0448 2A43     		orrs	r2, r2, r5
 8090 044a 00F00400 		and	r0, r0, #4
 8091 044e 8D11     		asrs	r5, r1, #6
 8092 0450 2243     		orrs	r2, r2, r4
 8093 0452 8910     		asrs	r1, r1, #2
 8094 0454 05F00805 		and	r5, r5, #8
 8095 0458 DCF81040 		ldr	r4, [ip, #16]
 8096 045c 0243     		orrs	r2, r2, r0
 8097 045e 01F04001 		and	r1, r1, #64
 8098 0462 2004     		lsls	r0, r4, #16
 8099 0464 42EA0502 		orr	r2, r2, r5
 8100 0468 42EA0102 		orr	r2, r2, r1
 8101 046c 48BF     		it	mi
 8102 046e 62F07F02 		ornmi	r2, r2, #127
 8103 0472 D2B2     		uxtb	r2, r2
 8104 0474 02F0C001 		and	r1, r2, #192
 8105 0478 C029     		cmp	r1, #192
 8106 047a 3FF4B6AE 		beq	.L1585
 8107 047e 2F49     		ldr	r1, .L1674+8
 8108 0480 C3F30D03 		ubfx	r3, r3, #0, #14
 8109 0484 2E48     		ldr	r0, .L1674+12
 8110 0486 0968     		ldr	r1, [r1]
 8111 0488 C95C     		ldrb	r1, [r1, r3]	@ zero_extendqisi2
 8112 048a 11F0010F 		tst	r1, #1
 8113 048e 0CBF     		ite	eq
 8114 0490 4FF40034 		moveq	r4, #131072
 8115 0494 0224     		movne	r4, #2
 8116 0496 11F0020F 		tst	r1, #2
 8117 049a 0CBF     		ite	eq
 8118 049c 4FF48035 		moveq	r5, #65536
 8119 04a0 0125     		movne	r5, #1
 8120 04a2 11F0040F 		tst	r1, #4
ARM GAS  C:\Users\Jay\AppData\Local\Temp\ccjVRGue.s 			page 140


 8121 04a6 44EA0504 		orr	r4, r4, r5
 8122 04aa 0CBF     		ite	eq
 8123 04ac 4FF00073 		moveq	r3, #33554432
 8124 04b0 4FF40073 		movne	r3, #512
 8125 04b4 11F0080F 		tst	r1, #8
 8126 04b8 CCF81840 		str	r4, [ip, #24]
 8127 04bc 0CBF     		ite	eq
 8128 04be 4FF08075 		moveq	r5, #16777216
 8129 04c2 4FF48075 		movne	r5, #256
 8130 04c6 11F0100F 		tst	r1, #16
 8131 04ca 43EA0503 		orr	r3, r3, r5
 8132 04ce 0CBF     		ite	eq
 8133 04d0 4FF40004 		moveq	r4, #8388608
 8134 04d4 8024     		movne	r4, #128
 8135 04d6 11F0200F 		tst	r1, #32
 8136 04da 43EA0403 		orr	r3, r3, r4
 8137 04de 0CBF     		ite	eq
 8138 04e0 4FF48004 		moveq	r4, #4194304
 8139 04e4 4024     		movne	r4, #64
 8140 04e6 11F0400F 		tst	r1, #64
 8141 04ea 43EA0403 		orr	r3, r3, r4
 8142 04ee 0CBF     		ite	eq
 8143 04f0 4FF40014 		moveq	r4, #2097152
 8144 04f4 2024     		movne	r4, #32
 8145 04f6 11F0800F 		tst	r1, #128
 8146 04fa 43EA0403 		orr	r3, r3, r4
 8147 04fe 0CBF     		ite	eq
 8148 0500 4FF40011 		moveq	r1, #2097152
 8149 0504 2021     		movne	r1, #32
 8150 0506 C9F81830 		str	r3, [r9, #24]
 8151 050a B961     		str	r1, [r7, #24]
 8152 050c DCF80030 		ldr	r3, [ip]
 8153 0510 03F00F03 		and	r3, r3, #15
 8154 0514 CCF80030 		str	r3, [ip]
 8155 0518 D9F80030 		ldr	r3, [r9]
 8156 051c 0340     		ands	r3, r3, r0
 8157 051e C9F80030 		str	r3, [r9]
 8158 0522 3B68     		ldr	r3, [r7]
 8159 0524 03F44063 		and	r3, r3, #3072
 8160 0528 3B60     		str	r3, [r7]
 8161              	.L1594:
 8162 052a 736A     		ldr	r3, [r6, #36]
 8163 052c 932B     		cmp	r3, #147
 8164 052e FCD9     		bls	.L1594
 8165 0530 49E6     		b	.L1668
 8166              	.L1675:
 8167 0532 00BF     		.align	2
 8168              	.L1674:
 8169 0534 001000E0 		.word	-536866816
 8170 0538 00000140 		.word	1073807360
 8171 053c 00000000 		.word	.LANCHOR7
 8172 0540 00FC0F00 		.word	1047552
 8174              		.section	.text.fc3_handler,"ax",%progbits
 8175              		.align	1
 8176              		.p2align 2,,3
 8177              		.global	fc3_handler
 8178              		.syntax unified
ARM GAS  C:\Users\Jay\AppData\Local\Temp\ccjVRGue.s 			page 141


 8179              		.thumb
 8180              		.thumb_func
 8181              		.fpu fpv5-sp-d16
 8183              	fc3_handler:
 8184              		@ args = 0, pretend = 0, frame = 0
 8185              		@ frame_needed = 0, uses_anonymous_args = 0
 8186 0000 DB4B     		ldr	r3, .L1797
 8187 0002 1B69     		ldr	r3, [r3, #16]
 8188 0004 1807     		lsls	r0, r3, #28
 8189 0006 40F18982 		bpl	.L1781
 8190 000a DA4B     		ldr	r3, .L1797+4
 8191 000c 4FF40012 		mov	r2, #2097152
 8192 0010 2DE9F04F 		push	{r4, r5, r6, r7, r8, r9, r10, fp, lr}
 8193 0014 9C46     		mov	ip, r3
 8194 0016 DFF87493 		ldr	r9, .L1797+28
 8195 001a DFF874E3 		ldr	lr, .L1797+32
 8196 001e DFF87483 		ldr	r8, .L1797+36
 8197 0022 DFF874B3 		ldr	fp, .L1797+40
 8198 0026 DFF874A3 		ldr	r10, .L1797+44
 8199 002a 9A61     		str	r2, [r3, #24]
 8200              	.L1728:
 8201 002c D9F81040 		ldr	r4, [r9, #16]
 8202 0030 DEF81010 		ldr	r1, [lr, #16]
 8203 0034 DCF81050 		ldr	r5, [ip, #16]
 8204 0038 0BB2     		sxth	r3, r1
 8205 003a D8F81020 		ldr	r2, [r8, #16]
 8206 003e ED00     		lsls	r5, r5, #3
 8207 0040 9800     		lsls	r0, r3, #2
 8208 0042 03F00402 		and	r2, r3, #4
 8209 0046 1E01     		lsls	r6, r3, #4
 8210 0048 00F00800 		and	r0, r0, #8
 8211 004c 2DB2     		sxth	r5, r5
 8212 004e 06F01006 		and	r6, r6, #16
 8213 0052 3043     		orrs	r0, r0, r6
 8214 0054 5E00     		lsls	r6, r3, #1
 8215 0056 1043     		orrs	r0, r0, r2
 8216 0058 06F40066 		and	r6, r6, #2048
 8217 005c DA00     		lsls	r2, r3, #3
 8218 005e 3043     		orrs	r0, r0, r6
 8219 0060 5B01     		lsls	r3, r3, #5
 8220 0062 02F48052 		and	r2, r2, #4096
 8221 0066 C1F30016 		ubfx	r6, r1, #4, #1
 8222 006a 03F40053 		and	r3, r3, #8192
 8223 006e 0243     		orrs	r2, r2, r0
 8224 0070 05F48040 		and	r0, r5, #16384
 8225 0074 25F4FF45 		bic	r5, r5, #32640
 8226 0078 1A43     		orrs	r2, r2, r3
 8227 007a 8B10     		asrs	r3, r1, #2
 8228 007c 25F07F05 		bic	r5, r5, #127
 8229 0080 0243     		orrs	r2, r2, r0
 8230 0082 4811     		asrs	r0, r1, #5
 8231 0084 2A43     		orrs	r2, r2, r5
 8232 0086 03F00205 		and	r5, r3, #2
 8233 008a E311     		asrs	r3, r4, #7
 8234 008c 00F48070 		and	r0, r0, #256
 8235 0090 3243     		orrs	r2, r2, r6
 8236 0092 2411     		asrs	r4, r4, #4
ARM GAS  C:\Users\Jay\AppData\Local\Temp\ccjVRGue.s 			page 142


 8237 0094 03F02003 		and	r3, r3, #32
 8238 0098 2A43     		orrs	r2, r2, r5
 8239 009a 04F04004 		and	r4, r4, #64
 8240 009e CD10     		asrs	r5, r1, #3
 8241 00a0 1343     		orrs	r3, r3, r2
 8242 00a2 4910     		asrs	r1, r1, #1
 8243 00a4 05F40072 		and	r2, r5, #512
 8244 00a8 2343     		orrs	r3, r3, r4
 8245 00aa 01F48061 		and	r1, r1, #1024
 8246 00ae 0343     		orrs	r3, r3, r0
 8247 00b0 1343     		orrs	r3, r3, r2
 8248 00b2 0B43     		orrs	r3, r3, r1
 8249 00b4 9BB2     		uxth	r3, r3
 8250 00b6 D8F81010 		ldr	r1, [r8, #16]
 8251 00ba D9F81000 		ldr	r0, [r9, #16]
 8252 00be DEF81020 		ldr	r2, [lr, #16]
 8253 00c2 01F03005 		and	r5, r1, #48
 8254 00c6 4411     		asrs	r4, r0, #5
 8255 00c8 C2F3C032 		ubfx	r2, r2, #15, #1
 8256 00cc C011     		asrs	r0, r0, #7
 8257 00ce 04F00204 		and	r4, r4, #2
 8258 00d2 2A43     		orrs	r2, r2, r5
 8259 00d4 00F00400 		and	r0, r0, #4
 8260 00d8 8D11     		asrs	r5, r1, #6
 8261 00da 2243     		orrs	r2, r2, r4
 8262 00dc 8910     		asrs	r1, r1, #2
 8263 00de 05F00805 		and	r5, r5, #8
 8264 00e2 DCF81040 		ldr	r4, [ip, #16]
 8265 00e6 0243     		orrs	r2, r2, r0
 8266 00e8 01F04001 		and	r1, r1, #64
 8267 00ec 2A43     		orrs	r2, r2, r5
 8268 00ee 0A43     		orrs	r2, r2, r1
 8269 00f0 2104     		lsls	r1, r4, #16
 8270 00f2 48BF     		it	mi
 8271 00f4 62F07F02 		ornmi	r2, r2, #127
 8272 00f8 D2B2     		uxtb	r2, r2
 8273 00fa 02F00901 		and	r1, r2, #9
 8274 00fe 0129     		cmp	r1, #1
 8275 0100 00F06B81 		beq	.L1789
 8276 0104 12F00100 		ands	r0, r2, #1
 8277 0108 40F04A81 		bne	.L1790
 8278 010c 9BF80010 		ldrb	r1, [fp]	@ zero_extendqisi2
 8279 0110 91B1     		cbz	r1, .L1706
 8280 0112 0131     		adds	r1, r1, #1
 8281 0114 C9B2     		uxtb	r1, r1
 8282 0116 0429     		cmp	r1, #4
 8283 0118 8BF80010 		strb	r1, [fp]
 8284 011c 0CD1     		bne	.L1706
 8285 011e 4025     		movs	r5, #64
 8286 0120 4FF40004 		mov	r4, #8388608
 8287 0124 4DF6FF71 		movw	r1, #57343
 8288 0128 CCF81850 		str	r5, [ip, #24]
 8289 012c CCF81840 		str	r4, [ip, #24]
 8290 0130 8BF80000 		strb	r0, [fp]
 8291 0134 9048     		ldr	r0, .L1797+8
 8292 0136 0180     		strh	r1, [r0]	@ movhi
 8293              	.L1706:
ARM GAS  C:\Users\Jay\AppData\Local\Temp\ccjVRGue.s 			page 143


 8294 0138 DAF81010 		ldr	r1, [r10, #16]
 8295 013c DCF81060 		ldr	r6, [ip, #16]
 8296 0140 C811     		asrs	r0, r1, #7
 8297 0142 7500     		lsls	r5, r6, #1
 8298 0144 C6F34006 		ubfx	r6, r6, #1, #1
 8299 0148 00F00404 		and	r4, r0, #4
 8300 014c 05F00200 		and	r0, r5, #2
 8301 0150 4D11     		asrs	r5, r1, #5
 8302 0152 3043     		orrs	r0, r0, r6
 8303 0154 05F00805 		and	r5, r5, #8
 8304 0158 2043     		orrs	r0, r0, r4
 8305 015a CC10     		asrs	r4, r1, #3
 8306 015c 2843     		orrs	r0, r0, r5
 8307 015e 04F01004 		and	r4, r4, #16
 8308 0162 4D10     		asrs	r5, r1, #1
 8309 0164 2043     		orrs	r0, r0, r4
 8310 0166 4900     		lsls	r1, r1, #1
 8311 0168 05F02005 		and	r5, r5, #32
 8312 016c DEF81040 		ldr	r4, [lr, #16]
 8313 0170 01F04001 		and	r1, r1, #64
 8314 0174 2843     		orrs	r0, r0, r5
 8315 0176 A406     		lsls	r4, r4, #26
 8316 0178 41EA0001 		orr	r1, r1, r0
 8317 017c 48BF     		it	mi
 8318 017e 61F07F01 		ornmi	r1, r1, #127
 8319 0182 5007     		lsls	r0, r2, #29
 8320 0184 04D4     		bmi	.L1692
 8321 0186 7C48     		ldr	r0, .L1797+8
 8322 0188 0088     		ldrh	r0, [r0]
 8323 018a 9842     		cmp	r0, r3
 8324 018c 00F02D82 		beq	.L1791
 8325              	.L1692:
 8326 0190 D506     		lsls	r5, r2, #27
 8327 0192 00F11881 		bmi	.L1779
 8328              	.L1795:
 8329 0196 764A     		ldr	r2, .L1797
 8330              	.L1713:
 8331 0198 536A     		ldr	r3, [r2, #36]
 8332 019a 532B     		cmp	r3, #83
 8333 019c FCD8     		bhi	.L1713
 8334 019e 774B     		ldr	r3, .L1797+12
 8335 01a0 516A     		ldr	r1, [r2, #36]
 8336 01a2 1A46     		mov	r2, r3
 8337 01a4 5960     		str	r1, [r3, #4]
 8338              	.L1714:
 8339 01a6 5368     		ldr	r3, [r2, #4]
 8340 01a8 112B     		cmp	r3, #17
 8341 01aa FCD9     		bls	.L1714
 8342 01ac D9F81010 		ldr	r1, [r9, #16]
 8343 01b0 DEF81020 		ldr	r2, [lr, #16]
 8344 01b4 DCF81000 		ldr	r0, [ip, #16]
 8345 01b8 D8F81030 		ldr	r3, [r8, #16]
 8346 01bc 6F4C     		ldr	r4, .L1797+12
 8347              	.L1715:
 8348 01be 6368     		ldr	r3, [r4, #4]
 8349 01c0 202B     		cmp	r3, #32
 8350 01c2 FCD9     		bls	.L1715
ARM GAS  C:\Users\Jay\AppData\Local\Temp\ccjVRGue.s 			page 144


 8351 01c4 D8F81050 		ldr	r5, [r8, #16]
 8352 01c8 D9F81070 		ldr	r7, [r9, #16]
 8353 01cc DEF81040 		ldr	r4, [lr, #16]
 8354 01d0 05F03006 		and	r6, r5, #48
 8355 01d4 7B11     		asrs	r3, r7, #5
 8356 01d6 C4F3C034 		ubfx	r4, r4, #15, #1
 8357 01da FF11     		asrs	r7, r7, #7
 8358 01dc 03F00203 		and	r3, r3, #2
 8359 01e0 3443     		orrs	r4, r4, r6
 8360 01e2 07F00407 		and	r7, r7, #4
 8361 01e6 AE11     		asrs	r6, r5, #6
 8362 01e8 2343     		orrs	r3, r3, r4
 8363 01ea AD10     		asrs	r5, r5, #2
 8364 01ec 06F00806 		and	r6, r6, #8
 8365 01f0 DCF81040 		ldr	r4, [ip, #16]
 8366 01f4 3B43     		orrs	r3, r3, r7
 8367 01f6 05F04005 		and	r5, r5, #64
 8368 01fa 2404     		lsls	r4, r4, #16
 8369 01fc 43EA0603 		orr	r3, r3, r6
 8370 0200 43EA0503 		orr	r3, r3, r5
 8371 0204 48BF     		it	mi
 8372 0206 63F07F03 		ornmi	r3, r3, #127
 8373 020a 03F0C603 		and	r3, r3, #198
 8374 020e C62B     		cmp	r3, #198
 8375 0210 04D1     		bne	.L1792
 8376              	.L1717:
 8377 0212 5A4A     		ldr	r2, .L1797+12
 8378              	.L1727:
 8379 0214 5368     		ldr	r3, [r2, #4]
 8380 0216 602B     		cmp	r3, #96
 8381 0218 FCD9     		bls	.L1727
 8382 021a 07E7     		b	.L1728
 8383              	.L1792:
 8384 021c 16B2     		sxth	r6, r2
 8385 021e 584D     		ldr	r5, .L1797+16
 8386 0220 C2F30014 		ubfx	r4, r2, #4, #1
 8387 0224 05EAC000 		and	r0, r5, r0, lsl #3
 8388 0228 06F00403 		and	r3, r6, #4
 8389 022c 7701     		lsls	r7, r6, #5
 8390 022e 0343     		orrs	r3, r3, r0
 8391 0230 F000     		lsls	r0, r6, #3
 8392 0232 07F40057 		and	r7, r7, #8192
 8393 0236 7500     		lsls	r5, r6, #1
 8394 0238 00F48050 		and	r0, r0, #4096
 8395 023c 3B43     		orrs	r3, r3, r7
 8396 023e 05F40065 		and	r5, r5, #2048
 8397 0242 0343     		orrs	r3, r3, r0
 8398 0244 3001     		lsls	r0, r6, #4
 8399 0246 B600     		lsls	r6, r6, #2
 8400 0248 2B43     		orrs	r3, r3, r5
 8401 024a 00F01005 		and	r5, r0, #16
 8402 024e 06F00806 		and	r6, r6, #8
 8403 0252 9010     		asrs	r0, r2, #2
 8404 0254 1D43     		orrs	r5, r5, r3
 8405 0256 CB11     		asrs	r3, r1, #7
 8406 0258 00F00200 		and	r0, r0, #2
 8407 025c 0911     		asrs	r1, r1, #4
ARM GAS  C:\Users\Jay\AppData\Local\Temp\ccjVRGue.s 			page 145


 8408 025e 3543     		orrs	r5, r5, r6
 8409 0260 03F02007 		and	r7, r3, #32
 8410 0264 5311     		asrs	r3, r2, #5
 8411 0266 01F04001 		and	r1, r1, #64
 8412 026a 2C43     		orrs	r4, r4, r5
 8413 026c D510     		asrs	r5, r2, #3
 8414 026e 03F48076 		and	r6, r3, #256
 8415 0272 5210     		asrs	r2, r2, #1
 8416 0274 2043     		orrs	r0, r0, r4
 8417 0276 05F40075 		and	r5, r5, #512
 8418 027a 02F48062 		and	r2, r2, #1024
 8419 027e 414C     		ldr	r4, .L1797+20
 8420 0280 40EA0703 		orr	r3, r0, r7
 8421 0284 4048     		ldr	r0, .L1797+24
 8422 0286 2468     		ldr	r4, [r4]
 8423 0288 0B43     		orrs	r3, r3, r1
 8424 028a 3C49     		ldr	r1, .L1797+12
 8425 028c 3343     		orrs	r3, r3, r6
 8426 028e 2B43     		orrs	r3, r3, r5
 8427 0290 1343     		orrs	r3, r3, r2
 8428 0292 C3F30D03 		ubfx	r3, r3, #0, #14
 8429 0296 E25C     		ldrb	r2, [r4, r3]	@ zero_extendqisi2
 8430 0298 12F0010F 		tst	r2, #1
 8431 029c 0CBF     		ite	eq
 8432 029e 4FF40034 		moveq	r4, #131072
 8433 02a2 0224     		movne	r4, #2
 8434 02a4 12F0020F 		tst	r2, #2
 8435 02a8 0CBF     		ite	eq
 8436 02aa 4FF48035 		moveq	r5, #65536
 8437 02ae 0125     		movne	r5, #1
 8438 02b0 12F0040F 		tst	r2, #4
 8439 02b4 44EA0504 		orr	r4, r4, r5
 8440 02b8 0CBF     		ite	eq
 8441 02ba 4FF00073 		moveq	r3, #33554432
 8442 02be 4FF40073 		movne	r3, #512
 8443 02c2 12F0080F 		tst	r2, #8
 8444 02c6 CCF81840 		str	r4, [ip, #24]
 8445 02ca 0CBF     		ite	eq
 8446 02cc 4FF08075 		moveq	r5, #16777216
 8447 02d0 4FF48075 		movne	r5, #256
 8448 02d4 12F0100F 		tst	r2, #16
 8449 02d8 43EA0503 		orr	r3, r3, r5
 8450 02dc 0CBF     		ite	eq
 8451 02de 4FF40004 		moveq	r4, #8388608
 8452 02e2 8024     		movne	r4, #128
 8453 02e4 12F0200F 		tst	r2, #32
 8454 02e8 43EA0403 		orr	r3, r3, r4
 8455 02ec 0CBF     		ite	eq
 8456 02ee 4FF48004 		moveq	r4, #4194304
 8457 02f2 4024     		movne	r4, #64
 8458 02f4 12F0400F 		tst	r2, #64
 8459 02f8 43EA0403 		orr	r3, r3, r4
 8460 02fc 0CBF     		ite	eq
 8461 02fe 4FF40014 		moveq	r4, #2097152
 8462 0302 2024     		movne	r4, #32
 8463 0304 12F0800F 		tst	r2, #128
 8464 0308 43EA0403 		orr	r3, r3, r4
ARM GAS  C:\Users\Jay\AppData\Local\Temp\ccjVRGue.s 			page 146


 8465 030c 0CBF     		ite	eq
 8466 030e 4FF40012 		moveq	r2, #2097152
 8467 0312 2022     		movne	r2, #32
 8468 0314 CAF81830 		str	r3, [r10, #24]
 8469 0318 CEF81820 		str	r2, [lr, #24]
 8470 031c DCF80030 		ldr	r3, [ip]
 8471 0320 03F00F03 		and	r3, r3, #15
 8472 0324 CCF80030 		str	r3, [ip]
 8473 0328 DAF80030 		ldr	r3, [r10]
 8474 032c 1840     		ands	r0, r0, r3
 8475 032e CAF80000 		str	r0, [r10]
 8476 0332 DEF80030 		ldr	r3, [lr]
 8477 0336 03F44063 		and	r3, r3, #3072
 8478 033a CEF80030 		str	r3, [lr]
 8479              	.L1726:
 8480 033e 4B68     		ldr	r3, [r1, #4]
 8481 0340 3C2B     		cmp	r3, #60
 8482 0342 FCD9     		bls	.L1726
 8483 0344 DCF80030 		ldr	r3, [ip]
 8484 0348 23F00F03 		bic	r3, r3, #15
 8485 034c CCF80030 		str	r3, [ip]
 8486 0350 DAF80030 		ldr	r3, [r10]
 8487 0354 23F47F23 		bic	r3, r3, #1044480
 8488 0358 23F44063 		bic	r3, r3, #3072
 8489 035c CAF80030 		str	r3, [r10]
 8490 0360 DEF80030 		ldr	r3, [lr]
 8491 0364 23F44063 		bic	r3, r3, #3072
 8492 0368 CEF80030 		str	r3, [lr]
 8493 036c 51E7     		b	.L1717
 8494              	.L1798:
 8495 036e 00BF     		.align	2
 8496              	.L1797:
 8497 0370 00000140 		.word	1073807360
 8498 0374 00100258 		.word	1476530176
 8499 0378 00000000 		.word	.LANCHOR8
 8500 037c 001000E0 		.word	-536866816
 8501 0380 00C0FFFF 		.word	-16384
 8502 0384 00000000 		.word	.LANCHOR7
 8503 0388 00FC0F00 		.word	1047552
 8504 038c 00080258 		.word	1476528128
 8505 0390 000C0258 		.word	1476529152
 8506 0394 00000258 		.word	1476526080
 8507 0398 00000000 		.word	.LANCHOR31
 8508 039c 00040258 		.word	1476527104
 8509              	.L1790:
 8510 03a0 02F0C601 		and	r1, r2, #198
 8511 03a4 C629     		cmp	r1, #198
 8512 03a6 40F0C280 		bne	.L1793
 8513              	.L1694:
 8514 03aa 9506     		lsls	r5, r2, #26
 8515 03ac 00F1B780 		bmi	.L1794
 8516 03b0 9BF80030 		ldrb	r3, [fp]	@ zero_extendqisi2
 8517 03b4 002B     		cmp	r3, #0
 8518 03b6 3FF4EBAE 		beq	.L1692
 8519 03ba 0123     		movs	r3, #1
 8520 03bc D506     		lsls	r5, r2, #27
 8521 03be 8BF80030 		strb	r3, [fp]
ARM GAS  C:\Users\Jay\AppData\Local\Temp\ccjVRGue.s 			page 147


 8522 03c2 7FF5E8AE 		bpl	.L1795
 8523              	.L1779:
 8524 03c6 AA4B     		ldr	r3, .L1799
 8525 03c8 6FF00801 		mvn	r1, #8
 8526 03cc DA68     		ldr	r2, [r3, #12]
 8527 03ce 0A40     		ands	r2, r2, r1
 8528 03d0 DA60     		str	r2, [r3, #12]
 8529 03d2 1961     		str	r1, [r3, #16]
 8530 03d4 1961     		str	r1, [r3, #16]
 8531 03d6 BDE8F08F 		pop	{r4, r5, r6, r7, r8, r9, r10, fp, pc}
 8532              	.L1789:
 8533              		.syntax unified
 8534              	@ 136 "cartridges/final_cartridge_3.c" 1
 8535 03da 00BF     		nop
 8536              	@ 0 "" 2
 8537              	@ 136 "cartridges/final_cartridge_3.c" 1
 8538 03dc 00BF     		nop
 8539              	@ 0 "" 2
 8540              	@ 136 "cartridges/final_cartridge_3.c" 1
 8541 03de 00BF     		nop
 8542              	@ 0 "" 2
 8543              	@ 136 "cartridges/final_cartridge_3.c" 1
 8544 03e0 00BF     		nop
 8545              	@ 0 "" 2
 8546              	@ 136 "cartridges/final_cartridge_3.c" 1
 8547 03e2 00BF     		nop
 8548              	@ 0 "" 2
 8549              	@ 136 "cartridges/final_cartridge_3.c" 1
 8550 03e4 00BF     		nop
 8551              	@ 0 "" 2
 8552              	@ 136 "cartridges/final_cartridge_3.c" 1
 8553 03e6 00BF     		nop
 8554              	@ 0 "" 2
 8555              		.thumb
 8556              		.syntax unified
 8557 03e8 D8F81010 		ldr	r1, [r8, #16]
 8558 03ec D9F81000 		ldr	r0, [r9, #16]
 8559 03f0 DEF81020 		ldr	r2, [lr, #16]
 8560 03f4 01F03005 		and	r5, r1, #48
 8561 03f8 4411     		asrs	r4, r0, #5
 8562 03fa C2F3C032 		ubfx	r2, r2, #15, #1
 8563 03fe C011     		asrs	r0, r0, #7
 8564 0400 04F00204 		and	r4, r4, #2
 8565 0404 2A43     		orrs	r2, r2, r5
 8566 0406 00F00400 		and	r0, r0, #4
 8567 040a 8D11     		asrs	r5, r1, #6
 8568 040c 2243     		orrs	r2, r2, r4
 8569 040e 8910     		asrs	r1, r1, #2
 8570 0410 05F00805 		and	r5, r5, #8
 8571 0414 DCF81040 		ldr	r4, [ip, #16]
 8572 0418 0243     		orrs	r2, r2, r0
 8573 041a 01F04001 		and	r1, r1, #64
 8574 041e 2704     		lsls	r7, r4, #16
 8575 0420 42EA0502 		orr	r2, r2, r5
 8576 0424 42EA0102 		orr	r2, r2, r1
 8577 0428 48BF     		it	mi
 8578 042a 62F07F02 		ornmi	r2, r2, #127
ARM GAS  C:\Users\Jay\AppData\Local\Temp\ccjVRGue.s 			page 148


 8579 042e D2B2     		uxtb	r2, r2
 8580 0430 02F0C601 		and	r1, r2, #198
 8581 0434 C629     		cmp	r1, #198
 8582 0436 B8D0     		beq	.L1694
 8583 0438 8E49     		ldr	r1, .L1799+4
 8584 043a C3F30D03 		ubfx	r3, r3, #0, #14
 8585 043e 8E48     		ldr	r0, .L1799+8
 8586 0440 0968     		ldr	r1, [r1]
 8587 0442 CC5C     		ldrb	r4, [r1, r3]	@ zero_extendqisi2
 8588 0444 8A49     		ldr	r1, .L1799
 8589 0446 14F0010F 		tst	r4, #1
 8590 044a 0CBF     		ite	eq
 8591 044c 4FF40035 		moveq	r5, #131072
 8592 0450 0225     		movne	r5, #2
 8593 0452 14F0020F 		tst	r4, #2
 8594 0456 0CBF     		ite	eq
 8595 0458 4FF48036 		moveq	r6, #65536
 8596 045c 0126     		movne	r6, #1
 8597 045e 14F0040F 		tst	r4, #4
 8598 0462 45EA0605 		orr	r5, r5, r6
 8599 0466 0CBF     		ite	eq
 8600 0468 4FF00073 		moveq	r3, #33554432
 8601 046c 4FF40073 		movne	r3, #512
 8602 0470 14F0080F 		tst	r4, #8
 8603 0474 CCF81850 		str	r5, [ip, #24]
 8604 0478 0CBF     		ite	eq
 8605 047a 4FF08076 		moveq	r6, #16777216
 8606 047e 4FF48076 		movne	r6, #256
 8607 0482 14F0100F 		tst	r4, #16
 8608 0486 43EA0603 		orr	r3, r3, r6
 8609 048a 0CBF     		ite	eq
 8610 048c 4FF40005 		moveq	r5, #8388608
 8611 0490 8025     		movne	r5, #128
 8612 0492 14F0200F 		tst	r4, #32
 8613 0496 43EA0503 		orr	r3, r3, r5
 8614 049a 0CBF     		ite	eq
 8615 049c 4FF48005 		moveq	r5, #4194304
 8616 04a0 4025     		movne	r5, #64
 8617 04a2 14F0400F 		tst	r4, #64
 8618 04a6 43EA0503 		orr	r3, r3, r5
 8619 04aa 0CBF     		ite	eq
 8620 04ac 4FF40015 		moveq	r5, #2097152
 8621 04b0 2025     		movne	r5, #32
 8622 04b2 14F0800F 		tst	r4, #128
 8623 04b6 43EA0503 		orr	r3, r3, r5
 8624 04ba 0CBF     		ite	eq
 8625 04bc 4FF40014 		moveq	r4, #2097152
 8626 04c0 2024     		movne	r4, #32
 8627 04c2 CAF81830 		str	r3, [r10, #24]
 8628 04c6 CEF81840 		str	r4, [lr, #24]
 8629 04ca DCF80030 		ldr	r3, [ip]
 8630 04ce 03F00F03 		and	r3, r3, #15
 8631 04d2 CCF80030 		str	r3, [ip]
 8632 04d6 DAF80030 		ldr	r3, [r10]
 8633 04da 1840     		ands	r0, r0, r3
 8634 04dc CAF80000 		str	r0, [r10]
 8635 04e0 DEF80030 		ldr	r3, [lr]
ARM GAS  C:\Users\Jay\AppData\Local\Temp\ccjVRGue.s 			page 149


 8636 04e4 03F44063 		and	r3, r3, #3072
 8637 04e8 CEF80030 		str	r3, [lr]
 8638              	.L1690:
 8639 04ec 4B6A     		ldr	r3, [r1, #36]
 8640 04ee 932B     		cmp	r3, #147
 8641 04f0 FCD9     		bls	.L1690
 8642              	.L1786:
 8643 04f2 DCF80030 		ldr	r3, [ip]
 8644 04f6 23F00F03 		bic	r3, r3, #15
 8645 04fa CCF80030 		str	r3, [ip]
 8646 04fe DAF80030 		ldr	r3, [r10]
 8647 0502 23F47F23 		bic	r3, r3, #1044480
 8648 0506 23F44063 		bic	r3, r3, #3072
 8649 050a CAF80030 		str	r3, [r10]
 8650 050e DEF80030 		ldr	r3, [lr]
 8651 0512 23F44063 		bic	r3, r3, #3072
 8652 0516 CEF80030 		str	r3, [lr]
 8653 051a 39E6     		b	.L1692
 8654              	.L1781:
 8655 051c 7047     		bx	lr
 8656              	.L1794:
 8657 051e 4FF08041 		mov	r1, #1073741824
 8658 0522 0123     		movs	r3, #1
 8659 0524 CEF81810 		str	r1, [lr, #24]
 8660 0528 8BF80030 		strb	r3, [fp]
 8661 052c 30E6     		b	.L1692
 8662              	.L1793:
 8663 052e 5149     		ldr	r1, .L1799+4
 8664 0530 C3F30D03 		ubfx	r3, r3, #0, #14
 8665 0534 5048     		ldr	r0, .L1799+8
 8666 0536 0968     		ldr	r1, [r1]
 8667 0538 CC5C     		ldrb	r4, [r1, r3]	@ zero_extendqisi2
 8668 053a 4D49     		ldr	r1, .L1799
 8669 053c 14F0010F 		tst	r4, #1
 8670 0540 0CBF     		ite	eq
 8671 0542 4FF40035 		moveq	r5, #131072
 8672 0546 0225     		movne	r5, #2
 8673 0548 14F0020F 		tst	r4, #2
 8674 054c 0CBF     		ite	eq
 8675 054e 4FF48036 		moveq	r6, #65536
 8676 0552 0126     		movne	r6, #1
 8677 0554 14F0040F 		tst	r4, #4
 8678 0558 45EA0605 		orr	r5, r5, r6
 8679 055c 0CBF     		ite	eq
 8680 055e 4FF00073 		moveq	r3, #33554432
 8681 0562 4FF40073 		movne	r3, #512
 8682 0566 14F0080F 		tst	r4, #8
 8683 056a CCF81850 		str	r5, [ip, #24]
 8684 056e 0CBF     		ite	eq
 8685 0570 4FF08076 		moveq	r6, #16777216
 8686 0574 4FF48076 		movne	r6, #256
 8687 0578 14F0100F 		tst	r4, #16
 8688 057c 43EA0603 		orr	r3, r3, r6
 8689 0580 0CBF     		ite	eq
 8690 0582 4FF40005 		moveq	r5, #8388608
 8691 0586 8025     		movne	r5, #128
 8692 0588 14F0200F 		tst	r4, #32
ARM GAS  C:\Users\Jay\AppData\Local\Temp\ccjVRGue.s 			page 150


 8693 058c 43EA0503 		orr	r3, r3, r5
 8694 0590 0CBF     		ite	eq
 8695 0592 4FF48005 		moveq	r5, #4194304
 8696 0596 4025     		movne	r5, #64
 8697 0598 14F0400F 		tst	r4, #64
 8698 059c 43EA0503 		orr	r3, r3, r5
 8699 05a0 0CBF     		ite	eq
 8700 05a2 4FF40015 		moveq	r5, #2097152
 8701 05a6 2025     		movne	r5, #32
 8702 05a8 14F0800F 		tst	r4, #128
 8703 05ac 43EA0503 		orr	r3, r3, r5
 8704 05b0 0CBF     		ite	eq
 8705 05b2 4FF40014 		moveq	r4, #2097152
 8706 05b6 2024     		movne	r4, #32
 8707 05b8 CAF81830 		str	r3, [r10, #24]
 8708 05bc CEF81840 		str	r4, [lr, #24]
 8709 05c0 DCF80030 		ldr	r3, [ip]
 8710 05c4 03F00F03 		and	r3, r3, #15
 8711 05c8 CCF80030 		str	r3, [ip]
 8712 05cc DAF80030 		ldr	r3, [r10]
 8713 05d0 1840     		ands	r0, r0, r3
 8714 05d2 CAF80000 		str	r0, [r10]
 8715 05d6 DEF80030 		ldr	r3, [lr]
 8716 05da 03F44063 		and	r3, r3, #3072
 8717 05de CEF80030 		str	r3, [lr]
 8718              	.L1703:
 8719 05e2 4B6A     		ldr	r3, [r1, #36]
 8720 05e4 932B     		cmp	r3, #147
 8721 05e6 FCD9     		bls	.L1703
 8722 05e8 83E7     		b	.L1786
 8723              	.L1791:
 8724 05ea C9B2     		uxtb	r1, r1
 8725 05ec 2348     		ldr	r0, .L1799+12
 8726 05ee 214B     		ldr	r3, .L1799+4
 8727 05f0 01F00F04 		and	r4, r1, #15
 8728 05f4 50F82400 		ldr	r0, [r0, r4, lsl #2]
 8729 05f8 1860     		str	r0, [r3]
 8730 05fa 4B06     		lsls	r3, r1, #25
 8731 05fc 2048     		ldr	r0, .L1799+16
 8732 05fe 4CBF     		ite	mi
 8733 0600 4FF48043 		movmi	r3, #16384
 8734 0604 4FF08043 		movpl	r3, #1073741824
 8735 0608 CEF81830 		str	r3, [lr, #24]
 8736 060c 4B09     		lsrs	r3, r1, #5
 8737 060e C1F30111 		ubfx	r1, r1, #4, #2
 8738 0612 03F00403 		and	r3, r3, #4
 8739 0616 1943     		orrs	r1, r1, r3
 8740 0618 50F82110 		ldr	r1, [r0, r1, lsl #2]
 8741 061c CF06     		lsls	r7, r1, #27
 8742 061e 1FD4     		bmi	.L1796
 8743              	.L1711:
 8744 0620 CB01     		lsls	r3, r1, #7
 8745 0622 8E06     		lsls	r6, r1, #26
 8746 0624 4FEA8150 		lsl	r0, r1, #22
 8747 0628 DBB2     		uxtb	r3, r3
 8748 062a 00F40000 		and	r0, r0, #8388608
 8749 062e 4FEA8114 		lsl	r4, r1, #6
ARM GAS  C:\Users\Jay\AppData\Local\Temp\ccjVRGue.s 			page 151


 8750 0632 43EA0003 		orr	r3, r3, r0
 8751 0636 04F48074 		and	r4, r4, #256
 8752 063a 4FEA4150 		lsl	r0, r1, #21
 8753 063e 43EA0403 		orr	r3, r3, r4
 8754 0642 00F08070 		and	r0, r0, #16777216
 8755 0646 43EA0003 		orr	r3, r3, r0
 8756 064a 0DD5     		bpl	.L1712
 8757 064c 4FF48000 		mov	r0, #4194304
 8758 0650 0021     		movs	r1, #0
 8759 0652 CCF81800 		str	r0, [ip, #24]
 8760 0656 CCF81830 		str	r3, [ip, #24]
 8761 065a 0A4B     		ldr	r3, .L1799+20
 8762 065c 1980     		strh	r1, [r3]	@ movhi
 8763 065e 97E5     		b	.L1692
 8764              	.L1796:
 8765 0660 4023     		movs	r3, #64
 8766 0662 CCF81830 		str	r3, [ip, #24]
 8767 0666 DBE7     		b	.L1711
 8768              	.L1712:
 8769 0668 CCF81830 		str	r3, [ip, #24]
 8770 066c 90E5     		b	.L1692
 8771              	.L1800:
 8772 066e 00BF     		.align	2
 8773              	.L1799:
 8774 0670 00000140 		.word	1073807360
 8775 0674 00000000 		.word	.LANCHOR7
 8776 0678 00FC0F00 		.word	1047552
 8777 067c 00000000 		.word	.LANCHOR32
 8778 0680 00000000 		.word	.LANCHOR33
 8779 0684 00000000 		.word	.LANCHOR8
 8781              		.section	.text.magic_desk_handler,"ax",%progbits
 8782              		.align	1
 8783              		.p2align 2,,3
 8784              		.global	magic_desk_handler
 8785              		.syntax unified
 8786              		.thumb
 8787              		.thumb_func
 8788              		.fpu fpv5-sp-d16
 8790              	magic_desk_handler:
 8791              		@ args = 0, pretend = 0, frame = 0
 8792              		@ frame_needed = 0, uses_anonymous_args = 0
 8793 0000 8E4B     		ldr	r3, .L1831
 8794 0002 1A69     		ldr	r2, [r3, #16]
 8795 0004 1207     		lsls	r2, r2, #28
 8796 0006 00D4     		bmi	.L1827
 8797 0008 7047     		bx	lr
 8798              	.L1827:
 8799 000a 2DE9F041 		push	{r4, r5, r6, r7, r8, lr}
 8800 000e 6FF01802 		mvn	r2, #24
 8801 0012 8B4C     		ldr	r4, .L1831+4
 8802 0014 8B48     		ldr	r0, .L1831+8
 8803 0016 1A61     		str	r2, [r3, #16]
 8804 0018 2769     		ldr	r7, [r4, #16]
 8805 001a 0669     		ldr	r6, [r0, #16]
 8806 001c FA11     		asrs	r2, r7, #7
 8807 001e 8A49     		ldr	r1, .L1831+12
 8808 0020 0FFA86FE 		sxth	lr, r6
ARM GAS  C:\Users\Jay\AppData\Local\Temp\ccjVRGue.s 			page 152


 8809 0024 02F0200C 		and	ip, r2, #32
 8810 0028 3F11     		asrs	r7, r7, #4
 8811 002a 4FEA8E05 		lsl	r5, lr, #2
 8812 002e 0EF00402 		and	r2, lr, #4
 8813 0032 4FEA0E13 		lsl	r3, lr, #4
 8814 0036 07F04007 		and	r7, r7, #64
 8815 003a 05F00805 		and	r5, r5, #8
 8816 003e 4FEA4E08 		lsl	r8, lr, #1
 8817 0042 03F01003 		and	r3, r3, #16
 8818 0046 08F40068 		and	r8, r8, #2048
 8819 004a 1D43     		orrs	r5, r5, r3
 8820 004c 0B69     		ldr	r3, [r1, #16]
 8821 004e 1543     		orrs	r5, r5, r2
 8822 0050 4FEACE02 		lsl	r2, lr, #3
 8823 0054 DB00     		lsls	r3, r3, #3
 8824 0056 45EA0805 		orr	r5, r5, r8
 8825 005a 4FEA4E1E 		lsl	lr, lr, #5
 8826 005e 02F48052 		and	r2, r2, #4096
 8827 0062 1BB2     		sxth	r3, r3
 8828 0064 0EF4005E 		and	lr, lr, #8192
 8829 0068 2A43     		orrs	r2, r2, r5
 8830 006a 784D     		ldr	r5, .L1831+16
 8831 006c 42EA0E02 		orr	r2, r2, lr
 8832 0070 03F4804E 		and	lr, r3, #16384
 8833 0074 1D40     		ands	r5, r5, r3
 8834 0076 C6F30013 		ubfx	r3, r6, #4, #1
 8835 007a 42EA0E02 		orr	r2, r2, lr
 8836 007e 2A43     		orrs	r2, r2, r5
 8837 0080 B510     		asrs	r5, r6, #2
 8838 0082 1A43     		orrs	r2, r2, r3
 8839 0084 05F00205 		and	r5, r5, #2
 8840 0088 7311     		asrs	r3, r6, #5
 8841 008a 2A43     		orrs	r2, r2, r5
 8842 008c F510     		asrs	r5, r6, #3
 8843 008e 03F4807E 		and	lr, r3, #256
 8844 0092 7610     		asrs	r6, r6, #1
 8845 0094 42EA0C02 		orr	r2, r2, ip
 8846 0098 05F40075 		and	r5, r5, #512
 8847 009c 06F48066 		and	r6, r6, #1024
 8848 00a0 DFF8ACC1 		ldr	ip, .L1831+20
 8849 00a4 42EA0703 		orr	r3, r2, r7
 8850 00a8 DCF81020 		ldr	r2, [ip, #16]
 8851 00ac 43EA0E03 		orr	r3, r3, lr
 8852 00b0 2B43     		orrs	r3, r3, r5
 8853 00b2 3343     		orrs	r3, r3, r6
 8854 00b4 9BB2     		uxth	r3, r3
 8855 00b6 DCF81050 		ldr	r5, [ip, #16]
 8856 00ba 2469     		ldr	r4, [r4, #16]
 8857 00bc 0069     		ldr	r0, [r0, #16]
 8858 00be 05F0300C 		and	ip, r5, #48
 8859 00c2 6211     		asrs	r2, r4, #5
 8860 00c4 0E69     		ldr	r6, [r1, #16]
 8861 00c6 C0F3C031 		ubfx	r1, r0, #15, #1
 8862 00ca E411     		asrs	r4, r4, #7
 8863 00cc 02F00202 		and	r2, r2, #2
 8864 00d0 AF11     		asrs	r7, r5, #6
 8865 00d2 41EA0C01 		orr	r1, r1, ip
ARM GAS  C:\Users\Jay\AppData\Local\Temp\ccjVRGue.s 			page 153


 8866 00d6 04F00404 		and	r4, r4, #4
 8867 00da A810     		asrs	r0, r5, #2
 8868 00dc 07F00807 		and	r7, r7, #8
 8869 00e0 0A43     		orrs	r2, r2, r1
 8870 00e2 00F04001 		and	r1, r0, #64
 8871 00e6 2243     		orrs	r2, r2, r4
 8872 00e8 3404     		lsls	r4, r6, #16
 8873 00ea 42EA0702 		orr	r2, r2, r7
 8874 00ee 42EA0102 		orr	r2, r2, r1
 8875 00f2 48BF     		it	mi
 8876 00f4 62F07F02 		ornmi	r2, r2, #127
 8877 00f8 D007     		lsls	r0, r2, #31
 8878 00fa 52D4     		bmi	.L1828
 8879 00fc 5449     		ldr	r1, .L1831+20
 8880 00fe 5048     		ldr	r0, .L1831+4
 8881 0100 504A     		ldr	r2, .L1831+8
 8882 0102 0969     		ldr	r1, [r1, #16]
 8883 0104 0069     		ldr	r0, [r0, #16]
 8884 0106 1269     		ldr	r2, [r2, #16]
 8885 0108 01F03004 		and	r4, r1, #48
 8886 010c 4511     		asrs	r5, r0, #5
 8887 010e C2F3C032 		ubfx	r2, r2, #15, #1
 8888 0112 C011     		asrs	r0, r0, #7
 8889 0114 05F00205 		and	r5, r5, #2
 8890 0118 2243     		orrs	r2, r2, r4
 8891 011a 00F00400 		and	r0, r0, #4
 8892 011e 8C11     		asrs	r4, r1, #6
 8893 0120 2A43     		orrs	r2, r2, r5
 8894 0122 8910     		asrs	r1, r1, #2
 8895 0124 04F00804 		and	r4, r4, #8
 8896 0128 474D     		ldr	r5, .L1831+12
 8897 012a 0243     		orrs	r2, r2, r0
 8898 012c 01F04001 		and	r1, r1, #64
 8899 0130 2869     		ldr	r0, [r5, #16]
 8900 0132 2243     		orrs	r2, r2, r4
 8901 0134 0604     		lsls	r6, r0, #16
 8902 0136 42EA0102 		orr	r2, r2, r1
 8903 013a 48BF     		it	mi
 8904 013c 62F07F02 		ornmi	r2, r2, #127
 8905 0140 D1B2     		uxtb	r1, r2
 8906 0142 444A     		ldr	r2, .L1831+24
 8907 0144 404C     		ldr	r4, .L1831+12
 8908 0146 1069     		ldr	r0, [r2, #16]
 8909 0148 2269     		ldr	r2, [r4, #16]
 8910 014a C611     		asrs	r6, r0, #7
 8911 014c 5700     		lsls	r7, r2, #1
 8912 014e C2F34002 		ubfx	r2, r2, #1, #1
 8913 0152 06F00406 		and	r6, r6, #4
 8914 0156 4511     		asrs	r5, r0, #5
 8915 0158 07F00207 		and	r7, r7, #2
 8916 015c 05F00805 		and	r5, r5, #8
 8917 0160 3A43     		orrs	r2, r2, r7
 8918 0162 3243     		orrs	r2, r2, r6
 8919 0164 C610     		asrs	r6, r0, #3
 8920 0166 2A43     		orrs	r2, r2, r5
 8921 0168 06F01006 		and	r6, r6, #16
 8922 016c 4510     		asrs	r5, r0, #1
ARM GAS  C:\Users\Jay\AppData\Local\Temp\ccjVRGue.s 			page 154


 8923 016e 3243     		orrs	r2, r2, r6
 8924 0170 344E     		ldr	r6, .L1831+8
 8925 0172 05F02005 		and	r5, r5, #32
 8926 0176 4000     		lsls	r0, r0, #1
 8927 0178 2A43     		orrs	r2, r2, r5
 8928 017a 3569     		ldr	r5, [r6, #16]
 8929 017c 00F04000 		and	r0, r0, #64
 8930 0180 AD06     		lsls	r5, r5, #26
 8931 0182 42EA0002 		orr	r2, r2, r0
 8932 0186 31D4     		bmi	.L1829
 8933 0188 8907     		lsls	r1, r1, #30
 8934 018a 2DD4     		bmi	.L1801
 8935 018c B3F55E4F 		cmp	r3, #56832
 8936 0190 2AD1     		bne	.L1801
 8937 0192 02F03F02 		and	r2, r2, #63
 8938 0196 3049     		ldr	r1, .L1831+28
 8939 0198 304B     		ldr	r3, .L1831+32
 8940 019a 51F82220 		ldr	r2, [r1, r2, lsl #2]
 8941 019e 1A60     		str	r2, [r3]
 8942 01a0 22E0     		b	.L1801
 8943              	.L1828:
 8944 01a2 2B49     		ldr	r1, .L1831+20
 8945 01a4 2648     		ldr	r0, .L1831+4
 8946 01a6 274A     		ldr	r2, .L1831+8
 8947 01a8 0969     		ldr	r1, [r1, #16]
 8948 01aa 0069     		ldr	r0, [r0, #16]
 8949 01ac 1269     		ldr	r2, [r2, #16]
 8950 01ae 01F03004 		and	r4, r1, #48
 8951 01b2 4511     		asrs	r5, r0, #5
 8952 01b4 C2F3C032 		ubfx	r2, r2, #15, #1
 8953 01b8 C011     		asrs	r0, r0, #7
 8954 01ba 05F00205 		and	r5, r5, #2
 8955 01be 2243     		orrs	r2, r2, r4
 8956 01c0 00F00400 		and	r0, r0, #4
 8957 01c4 8C11     		asrs	r4, r1, #6
 8958 01c6 2A43     		orrs	r2, r2, r5
 8959 01c8 8910     		asrs	r1, r1, #2
 8960 01ca 04F00804 		and	r4, r4, #8
 8961 01ce 1E4D     		ldr	r5, .L1831+12
 8962 01d0 0243     		orrs	r2, r2, r0
 8963 01d2 01F04001 		and	r1, r1, #64
 8964 01d6 2869     		ldr	r0, [r5, #16]
 8965 01d8 2243     		orrs	r2, r2, r4
 8966 01da 0A43     		orrs	r2, r2, r1
 8967 01dc 0104     		lsls	r1, r0, #16
 8968 01de 48BF     		it	mi
 8969 01e0 62F07F02 		ornmi	r2, r2, #127
 8970 01e4 5206     		lsls	r2, r2, #25
 8971 01e6 0DD5     		bpl	.L1830
 8972              	.L1801:
 8973 01e8 BDE8F081 		pop	{r4, r5, r6, r7, r8, pc}
 8974              	.L1829:
 8975 01ec 8807     		lsls	r0, r1, #30
 8976 01ee FBD4     		bmi	.L1801
 8977 01f0 B3F55E4F 		cmp	r3, #56832
 8978 01f4 F8D1     		bne	.L1801
 8979 01f6 4FF48002 		mov	r2, #4194304
ARM GAS  C:\Users\Jay\AppData\Local\Temp\ccjVRGue.s 			page 155


 8980 01fa 4FF4C073 		mov	r3, #384
 8981 01fe A261     		str	r2, [r4, #24]
 8982 0200 A361     		str	r3, [r4, #24]
 8983 0202 F1E7     		b	.L1801
 8984              	.L1830:
 8985 0204 154A     		ldr	r2, .L1831+32
 8986 0206 C3F30C03 		ubfx	r3, r3, #0, #13
 8987 020a 1268     		ldr	r2, [r2]
 8988 020c D05C     		ldrb	r0, [r2, r3]	@ zero_extendqisi2
 8989 020e FFF7FEFF 		bl	c64_data_write
 8990 0212 0A4A     		ldr	r2, .L1831
 8991              	.L1808:
 8992 0214 1369     		ldr	r3, [r2, #16]
 8993 0216 DF06     		lsls	r7, r3, #27
 8994 0218 FCD5     		bpl	.L1808
 8995 021a 0B4C     		ldr	r4, .L1831+12
 8996 021c 0D48     		ldr	r0, .L1831+24
 8997 021e 2268     		ldr	r2, [r4]
 8998 0220 0F4B     		ldr	r3, .L1831+36
 8999 0222 22F00F02 		bic	r2, r2, #15
 9000 0226 0749     		ldr	r1, .L1831+8
 9001 0228 2260     		str	r2, [r4]
 9002 022a 0268     		ldr	r2, [r0]
 9003 022c 1340     		ands	r3, r3, r2
 9004 022e 0360     		str	r3, [r0]
 9005 0230 0B68     		ldr	r3, [r1]
 9006 0232 23F44063 		bic	r3, r3, #3072
 9007 0236 0B60     		str	r3, [r1]
 9008 0238 D6E7     		b	.L1801
 9009              	.L1832:
 9010 023a 00BF     		.align	2
 9011              	.L1831:
 9012 023c 00000140 		.word	1073807360
 9013 0240 00080258 		.word	1476528128
 9014 0244 000C0258 		.word	1476529152
 9015 0248 00100258 		.word	1476530176
 9016 024c 0080FFFF 		.word	-32768
 9017 0250 00000258 		.word	1476526080
 9018 0254 00040258 		.word	1476527104
 9019 0258 00000000 		.word	.LANCHOR32
 9020 025c 00000000 		.word	.LANCHOR7
 9021 0260 FF03F0FF 		.word	-1047553
 9023              		.section	.text.kcs_handler,"ax",%progbits
 9024              		.align	1
 9025              		.p2align 2,,3
 9026              		.global	kcs_handler
 9027              		.syntax unified
 9028              		.thumb
 9029              		.thumb_func
 9030              		.fpu fpv5-sp-d16
 9032              	kcs_handler:
 9033              		@ args = 0, pretend = 0, frame = 0
 9034              		@ frame_needed = 0, uses_anonymous_args = 0
 9035 0000 2DE9F84F 		push	{r3, r4, r5, r6, r7, r8, r9, r10, fp, lr}
 9036 0004 AB4B     		ldr	r3, .L1988
 9037 0006 1B69     		ldr	r3, [r3, #16]
 9038 0008 1807     		lsls	r0, r3, #28
ARM GAS  C:\Users\Jay\AppData\Local\Temp\ccjVRGue.s 			page 156


 9039 000a 40F1BB81 		bpl	.L1833
 9040 000e AA4B     		ldr	r3, .L1988+4
 9041 0010 4FF40012 		mov	r2, #2097152
 9042 0014 A94D     		ldr	r5, .L1988+8
 9043 0016 AA4C     		ldr	r4, .L1988+12
 9044 0018 AA4E     		ldr	r6, .L1988+16
 9045 001a 9A61     		str	r2, [r3, #24]
 9046              	.L1900:
 9047 001c 2F69     		ldr	r7, [r5, #16]
 9048 001e 2169     		ldr	r1, [r4, #16]
 9049 0020 A548     		ldr	r0, .L1988+4
 9050 0022 4FEAE719 		asr	r9, r7, #7
 9051 0026 0FFA81FE 		sxth	lr, r1
 9052 002a A74B     		ldr	r3, .L1988+20
 9053 002c 0269     		ldr	r2, [r0, #16]
 9054 002e 09F02009 		and	r9, r9, #32
 9055 0032 4FEA8E0C 		lsl	ip, lr, #2
 9056 0036 0EF00408 		and	r8, lr, #4
 9057 003a 4FEA0E1B 		lsl	fp, lr, #4
 9058 003e 0CF0080C 		and	ip, ip, #8
 9059 0042 4FEA4E0A 		lsl	r10, lr, #1
 9060 0046 0BF0100B 		and	fp, fp, #16
 9061 004a 3F11     		asrs	r7, r7, #4
 9062 004c 0AF4006A 		and	r10, r10, #2048
 9063 0050 4CEA0B0C 		orr	ip, ip, fp
 9064 0054 07F04007 		and	r7, r7, #64
 9065 0058 4CEA080C 		orr	ip, ip, r8
 9066 005c 4FEACE08 		lsl	r8, lr, #3
 9067 0060 4FEA4E1E 		lsl	lr, lr, #5
 9068 0064 4CEA0A0C 		orr	ip, ip, r10
 9069 0068 08F4805A 		and	r10, r8, #4096
 9070 006c 4FEAC208 		lsl	r8, r2, #3
 9071 0070 0EF4005E 		and	lr, lr, #8192
 9072 0074 4CEA0A02 		orr	r2, ip, r10
 9073 0078 C1F3001C 		ubfx	ip, r1, #4, #1
 9074 007c 0FFA88F8 		sxth	r8, r8
 9075 0080 42EA0E02 		orr	r2, r2, lr
 9076 0084 4FEAA10A 		asr	r10, r1, #2
 9077 0088 08F4804E 		and	lr, r8, #16384
 9078 008c 08EA0303 		and	r3, r8, r3
 9079 0090 0AF0020A 		and	r10, r10, #2
 9080 0094 4FEA6118 		asr	r8, r1, #5
 9081 0098 42EA0E02 		orr	r2, r2, lr
 9082 009c 08F48078 		and	r8, r8, #256
 9083 00a0 1A43     		orrs	r2, r2, r3
 9084 00a2 CB10     		asrs	r3, r1, #3
 9085 00a4 4910     		asrs	r1, r1, #1
 9086 00a6 42EA0C02 		orr	r2, r2, ip
 9087 00aa DFF82CC2 		ldr	ip, .L1988+36
 9088 00ae 03F4007E 		and	lr, r3, #512
 9089 00b2 01F48061 		and	r1, r1, #1024
 9090 00b6 42EA0A02 		orr	r2, r2, r10
 9091 00ba DCF81030 		ldr	r3, [ip, #16]
 9092 00be 42EA0903 		orr	r3, r2, r9
 9093 00c2 3B43     		orrs	r3, r3, r7
 9094 00c4 43EA0803 		orr	r3, r3, r8
 9095 00c8 43EA0E03 		orr	r3, r3, lr
ARM GAS  C:\Users\Jay\AppData\Local\Temp\ccjVRGue.s 			page 157


 9096 00cc 0B43     		orrs	r3, r3, r1
 9097 00ce 9FB2     		uxth	r7, r3
 9098 00d0 DCF81020 		ldr	r2, [ip, #16]
 9099 00d4 D5F810C0 		ldr	ip, [r5, #16]
 9100 00d8 2169     		ldr	r1, [r4, #16]
 9101 00da 02F0300E 		and	lr, r2, #48
 9102 00de 4FEA6C19 		asr	r9, ip, #5
 9103 00e2 0069     		ldr	r0, [r0, #16]
 9104 00e4 C1F3C031 		ubfx	r1, r1, #15, #1
 9105 00e8 4FEAEC1C 		asr	ip, ip, #7
 9106 00ec 09F00209 		and	r9, r9, #2
 9107 00f0 4FEAA218 		asr	r8, r2, #6
 9108 00f4 41EA0E01 		orr	r1, r1, lr
 9109 00f8 0CF0040E 		and	lr, ip, #4
 9110 00fc 4FEAA20C 		asr	ip, r2, #2
 9111 0100 08F00808 		and	r8, r8, #8
 9112 0104 41EA0902 		orr	r2, r1, r9
 9113 0108 0CF04001 		and	r1, ip, #64
 9114 010c 42EA0E02 		orr	r2, r2, lr
 9115 0110 42EA0802 		orr	r2, r2, r8
 9116 0114 0A43     		orrs	r2, r2, r1
 9117 0116 0104     		lsls	r1, r0, #16
 9118 0118 48BF     		it	mi
 9119 011a 62F07F02 		ornmi	r2, r2, #127
 9120 011e 5FFA82F8 		uxtb	r8, r2
 9121 0122 08F00902 		and	r2, r8, #9
 9122 0126 012A     		cmp	r2, #1
 9123 0128 00F05082 		beq	.L1977
 9124 012c 18F00100 		ands	r0, r8, #1
 9125 0130 00F0D680 		beq	.L1854
 9126 0134 08F0C202 		and	r2, r8, #194
 9127 0138 C22A     		cmp	r2, #194
 9128 013a 00F0D981 		beq	.L1855
 9129 013e 6349     		ldr	r1, .L1988+24
 9130 0140 C7F30D02 		ubfx	r2, r7, #0, #14
 9131 0144 5C48     		ldr	r0, .L1988+4
 9132 0146 0968     		ldr	r1, [r1]
 9133 0148 614F     		ldr	r7, .L1988+28
 9134 014a 895C     		ldrb	r1, [r1, r2]	@ zero_extendqisi2
 9135 014c DFF88CC1 		ldr	ip, .L1988+40
 9136 0150 11F0010F 		tst	r1, #1
 9137 0154 0CBF     		ite	eq
 9138 0156 4FF4003E 		moveq	lr, #131072
 9139 015a 4FF0020E 		movne	lr, #2
 9140 015e 11F0020F 		tst	r1, #2
 9141 0162 0CBF     		ite	eq
 9142 0164 4FF48039 		moveq	r9, #65536
 9143 0168 4FF00109 		movne	r9, #1
 9144 016c 11F0040F 		tst	r1, #4
 9145 0170 4EEA090E 		orr	lr, lr, r9
 9146 0174 0CBF     		ite	eq
 9147 0176 4FF00072 		moveq	r2, #33554432
 9148 017a 4FF40072 		movne	r2, #512
 9149 017e 11F0080F 		tst	r1, #8
 9150 0182 C0F818E0 		str	lr, [r0, #24]
 9151 0186 0CBF     		ite	eq
 9152 0188 4FF08079 		moveq	r9, #16777216
ARM GAS  C:\Users\Jay\AppData\Local\Temp\ccjVRGue.s 			page 158


 9153 018c 4FF48079 		movne	r9, #256
 9154 0190 11F0100F 		tst	r1, #16
 9155 0194 42EA0902 		orr	r2, r2, r9
 9156 0198 0CBF     		ite	eq
 9157 019a 4FF4000E 		moveq	lr, #8388608
 9158 019e 4FF0800E 		movne	lr, #128
 9159 01a2 11F0200F 		tst	r1, #32
 9160 01a6 42EA0E02 		orr	r2, r2, lr
 9161 01aa 0CBF     		ite	eq
 9162 01ac 4FF4800E 		moveq	lr, #4194304
 9163 01b0 4FF0400E 		movne	lr, #64
 9164 01b4 11F0400F 		tst	r1, #64
 9165 01b8 42EA0E02 		orr	r2, r2, lr
 9166 01bc 0CBF     		ite	eq
 9167 01be 4FF4001E 		moveq	lr, #2097152
 9168 01c2 4FF0200E 		movne	lr, #32
 9169 01c6 11F0800F 		tst	r1, #128
 9170 01ca 42EA0E02 		orr	r2, r2, lr
 9171 01ce 0CBF     		ite	eq
 9172 01d0 4FF40011 		moveq	r1, #2097152
 9173 01d4 2021     		movne	r1, #32
 9174 01d6 BA61     		str	r2, [r7, #24]
 9175 01d8 18F0020F 		tst	r8, #2
 9176 01dc A161     		str	r1, [r4, #24]
 9177 01de 0268     		ldr	r2, [r0]
 9178 01e0 02F00F02 		and	r2, r2, #15
 9179 01e4 0260     		str	r2, [r0]
 9180 01e6 3A68     		ldr	r2, [r7]
 9181 01e8 02EA0C02 		and	r2, r2, ip
 9182 01ec 3A60     		str	r2, [r7]
 9183 01ee 2268     		ldr	r2, [r4]
 9184 01f0 02F44062 		and	r2, r2, #3072
 9185 01f4 2260     		str	r2, [r4]
 9186 01f6 00F0AF82 		beq	.L1978
 9187              	.L1864:
 9188 01fa 2E4A     		ldr	r2, .L1988
 9189              	.L1876:
 9190 01fc 536A     		ldr	r3, [r2, #36]
 9191 01fe 932B     		cmp	r3, #147
 9192 0200 FCD9     		bls	.L1876
 9193              	.L1976:
 9194 0202 2D49     		ldr	r1, .L1988+4
 9195 0204 324A     		ldr	r2, .L1988+28
 9196 0206 0B68     		ldr	r3, [r1]
 9197 0208 23F00F03 		bic	r3, r3, #15
 9198 020c 0B60     		str	r3, [r1]
 9199 020e 1368     		ldr	r3, [r2]
 9200 0210 3340     		ands	r3, r3, r6
 9201 0212 1360     		str	r3, [r2]
 9202 0214 2368     		ldr	r3, [r4]
 9203 0216 23F44063 		bic	r3, r3, #3072
 9204 021a 2360     		str	r3, [r4]
 9205              	.L1853:
 9206 021c 18F0100F 		tst	r8, #16
 9207 0220 40F0A880 		bne	.L1974
 9208              	.L1982:
 9209 0224 234A     		ldr	r2, .L1988
ARM GAS  C:\Users\Jay\AppData\Local\Temp\ccjVRGue.s 			page 159


 9210              	.L1885:
 9211 0226 536A     		ldr	r3, [r2, #36]
 9212 0228 532B     		cmp	r3, #83
 9213 022a FCD8     		bhi	.L1885
 9214 022c 294B     		ldr	r3, .L1988+32
 9215 022e 516A     		ldr	r1, [r2, #36]
 9216 0230 1A46     		mov	r2, r3
 9217 0232 5960     		str	r1, [r3, #4]
 9218              	.L1886:
 9219 0234 5368     		ldr	r3, [r2, #4]
 9220 0236 112B     		cmp	r3, #17
 9221 0238 FCD9     		bls	.L1886
 9222 023a 1F48     		ldr	r0, .L1988+4
 9223 023c 264B     		ldr	r3, .L1988+36
 9224 023e 2969     		ldr	r1, [r5, #16]
 9225 0240 2269     		ldr	r2, [r4, #16]
 9226 0242 0069     		ldr	r0, [r0, #16]
 9227 0244 1B69     		ldr	r3, [r3, #16]
 9228 0246 234F     		ldr	r7, .L1988+32
 9229              	.L1887:
 9230 0248 7B68     		ldr	r3, [r7, #4]
 9231 024a 202B     		cmp	r3, #32
 9232 024c FCD9     		bls	.L1887
 9233 024e 224B     		ldr	r3, .L1988+36
 9234 0250 194F     		ldr	r7, .L1988+4
 9235 0252 D3F810C0 		ldr	ip, [r3, #16]
 9236 0256 D5F810E0 		ldr	lr, [r5, #16]
 9237 025a 2369     		ldr	r3, [r4, #16]
 9238 025c 0CF03008 		and	r8, ip, #48
 9239 0260 4FEA6E19 		asr	r9, lr, #5
 9240 0264 3F69     		ldr	r7, [r7, #16]
 9241 0266 C3F3C033 		ubfx	r3, r3, #15, #1
 9242 026a 4FEAEE1E 		asr	lr, lr, #7
 9243 026e 09F00209 		and	r9, r9, #2
 9244 0272 3F04     		lsls	r7, r7, #16
 9245 0274 43EA0803 		orr	r3, r3, r8
 9246 0278 0EF0040E 		and	lr, lr, #4
 9247 027c 4FEAAC18 		asr	r8, ip, #6
 9248 0280 43EA0903 		orr	r3, r3, r9
 9249 0284 4FEAAC0C 		asr	ip, ip, #2
 9250 0288 08F00808 		and	r8, r8, #8
 9251 028c 43EA0E03 		orr	r3, r3, lr
 9252 0290 0CF0400C 		and	ip, ip, #64
 9253 0294 43EA0803 		orr	r3, r3, r8
 9254 0298 43EA0C03 		orr	r3, r3, ip
 9255 029c 48BF     		it	mi
 9256 029e 63F07F03 		ornmi	r3, r3, #127
 9257 02a2 03F0C003 		and	r3, r3, #192
 9258 02a6 C02B     		cmp	r3, #192
 9259 02a8 6ED1     		bne	.L1979
 9260              	.L1889:
 9261 02aa 0A4A     		ldr	r2, .L1988+32
 9262              	.L1899:
 9263 02ac 5368     		ldr	r3, [r2, #4]
 9264 02ae 602B     		cmp	r3, #96
 9265 02b0 FCD9     		bls	.L1899
 9266 02b2 B3E6     		b	.L1900
ARM GAS  C:\Users\Jay\AppData\Local\Temp\ccjVRGue.s 			page 160


 9267              	.L1989:
 9268              		.align	2
 9269              	.L1988:
 9270 02b4 00000140 		.word	1073807360
 9271 02b8 00100258 		.word	1476530176
 9272 02bc 00080258 		.word	1476528128
 9273 02c0 000C0258 		.word	1476529152
 9274 02c4 FF03F0FF 		.word	-1047553
 9275 02c8 0080FFFF 		.word	-32768
 9276 02cc 00000000 		.word	.LANCHOR7
 9277 02d0 00040258 		.word	1476527104
 9278 02d4 001000E0 		.word	-536866816
 9279 02d8 00000258 		.word	1476526080
 9280 02dc 00FC0F00 		.word	1047552
 9281              	.L1854:
 9282 02e0 B149     		ldr	r1, .L1990
 9283 02e2 0A78     		ldrb	r2, [r1]	@ zero_extendqisi2
 9284 02e4 2AB1     		cbz	r2, .L1879
 9285 02e6 0132     		adds	r2, r2, #1
 9286 02e8 D2B2     		uxtb	r2, r2
 9287 02ea 042A     		cmp	r2, #4
 9288 02ec 0A70     		strb	r2, [r1]
 9289 02ee 00F08582 		beq	.L1980
 9290              	.L1879:
 9291 02f2 AE49     		ldr	r1, .L1990+4
 9292 02f4 AE4A     		ldr	r2, .L1990+8
 9293 02f6 0969     		ldr	r1, [r1, #16]
 9294 02f8 1269     		ldr	r2, [r2, #16]
 9295 02fa 4FEAE11C 		asr	ip, r1, #7
 9296 02fe 4FEA420E 		lsl	lr, r2, #1
 9297 0302 C2F34002 		ubfx	r2, r2, #1, #1
 9298 0306 0CF0040C 		and	ip, ip, #4
 9299 030a 4811     		asrs	r0, r1, #5
 9300 030c 0EF0020E 		and	lr, lr, #2
 9301 0310 00F00800 		and	r0, r0, #8
 9302 0314 42EA0E02 		orr	r2, r2, lr
 9303 0318 42EA0C02 		orr	r2, r2, ip
 9304 031c 4FEAE10C 		asr	ip, r1, #3
 9305 0320 0243     		orrs	r2, r2, r0
 9306 0322 0CF0100C 		and	ip, ip, #16
 9307 0326 4810     		asrs	r0, r1, #1
 9308 0328 42EA0C02 		orr	r2, r2, ip
 9309 032c 4900     		lsls	r1, r1, #1
 9310 032e 00F02000 		and	r0, r0, #32
 9311 0332 D4F810C0 		ldr	ip, [r4, #16]
 9312 0336 01F04001 		and	r1, r1, #64
 9313 033a 0243     		orrs	r2, r2, r0
 9314 033c 1CF0200F 		tst	ip, #32
 9315 0340 42EA0102 		orr	r2, r2, r1
 9316 0344 18BF     		it	ne
 9317 0346 62F07F02 		ornne	r2, r2, #127
 9318 034a 18F0020F 		tst	r8, #2
 9319 034e 00F02882 		beq	.L1981
 9320 0352 18F0040F 		tst	r8, #4
 9321 0356 7FF461AF 		bne	.L1853
 9322 035a 4FF48043 		mov	r3, #16384
 9323 035e 07F07F07 		and	r7, r7, #127
ARM GAS  C:\Users\Jay\AppData\Local\Temp\ccjVRGue.s 			page 161


 9324 0362 9448     		ldr	r0, .L1990+12
 9325 0364 18F0100F 		tst	r8, #16
 9326 0368 9149     		ldr	r1, .L1990+8
 9327 036a C255     		strb	r2, [r0, r7]
 9328 036c 8B61     		str	r3, [r1, #24]
 9329 036e A361     		str	r3, [r4, #24]
 9330 0370 3FF458AF 		beq	.L1982
 9331              	.L1974:
 9332 0374 904B     		ldr	r3, .L1990+16
 9333 0376 6FF00801 		mvn	r1, #8
 9334 037a DA68     		ldr	r2, [r3, #12]
 9335 037c 0A40     		ands	r2, r2, r1
 9336 037e DA60     		str	r2, [r3, #12]
 9337 0380 1961     		str	r1, [r3, #16]
 9338 0382 1961     		str	r1, [r3, #16]
 9339              	.L1833:
 9340 0384 BDE8F88F 		pop	{r3, r4, r5, r6, r7, r8, r9, r10, fp, pc}
 9341              	.L1979:
 9342 0388 0FFA82FC 		sxth	ip, r2
 9343 038c 8B4B     		ldr	r3, .L1990+20
 9344 038e C2F30017 		ubfx	r7, r2, #4, #1
 9345 0392 0CF00408 		and	r8, ip, #4
 9346 0396 4FEA4C1E 		lsl	lr, ip, #5
 9347 039a 03EAC000 		and	r0, r3, r0, lsl #3
 9348 039e 4FEA0C19 		lsl	r9, ip, #4
 9349 03a2 40EA0803 		orr	r3, r0, r8
 9350 03a6 4FEACC08 		lsl	r8, ip, #3
 9351 03aa 0EF40050 		and	r0, lr, #8192
 9352 03ae 4FEA4C0E 		lsl	lr, ip, #1
 9353 03b2 08F48058 		and	r8, r8, #4096
 9354 03b6 4FEA8C0C 		lsl	ip, ip, #2
 9355 03ba 1843     		orrs	r0, r0, r3
 9356 03bc 0EF40063 		and	r3, lr, #2048
 9357 03c0 09F01009 		and	r9, r9, #16
 9358 03c4 0CF0080E 		and	lr, ip, #8
 9359 03c8 40EA0800 		orr	r0, r0, r8
 9360 03cc 4FEAA208 		asr	r8, r2, #2
 9361 03d0 1843     		orrs	r0, r0, r3
 9362 03d2 08F00208 		and	r8, r8, #2
 9363 03d6 CB11     		asrs	r3, r1, #7
 9364 03d8 40EA0900 		orr	r0, r0, r9
 9365 03dc 0911     		asrs	r1, r1, #4
 9366 03de 03F0200C 		and	ip, r3, #32
 9367 03e2 5311     		asrs	r3, r2, #5
 9368 03e4 40EA0E00 		orr	r0, r0, lr
 9369 03e8 01F04001 		and	r1, r1, #64
 9370 03ec 4FEAE20E 		asr	lr, r2, #3
 9371 03f0 3843     		orrs	r0, r0, r7
 9372 03f2 03F48077 		and	r7, r3, #256
 9373 03f6 0EF4007E 		and	lr, lr, #512
 9374 03fa 5210     		asrs	r2, r2, #1
 9375 03fc 40EA0800 		orr	r0, r0, r8
 9376 0400 DFF8C081 		ldr	r8, .L1990+28
 9377 0404 02F48062 		and	r2, r2, #1024
 9378 0408 40EA0C03 		orr	r3, r0, ip
 9379 040c D8F800C0 		ldr	ip, [r8]
 9380 0410 6748     		ldr	r0, .L1990+8
ARM GAS  C:\Users\Jay\AppData\Local\Temp\ccjVRGue.s 			page 162


 9381 0412 0B43     		orrs	r3, r3, r1
 9382 0414 6549     		ldr	r1, .L1990+4
 9383 0416 3B43     		orrs	r3, r3, r7
 9384 0418 694F     		ldr	r7, .L1990+24
 9385 041a 43EA0E03 		orr	r3, r3, lr
 9386 041e DFF8A8E1 		ldr	lr, .L1990+32
 9387 0422 1343     		orrs	r3, r3, r2
 9388 0424 C3F30D03 		ubfx	r3, r3, #0, #14
 9389 0428 1CF80320 		ldrb	r2, [ip, r3]	@ zero_extendqisi2
 9390 042c 12F0010F 		tst	r2, #1
 9391 0430 0CBF     		ite	eq
 9392 0432 4FF4003C 		moveq	ip, #131072
 9393 0436 4FF0020C 		movne	ip, #2
 9394 043a 12F0020F 		tst	r2, #2
 9395 043e 0CBF     		ite	eq
 9396 0440 4FF48038 		moveq	r8, #65536
 9397 0444 4FF00108 		movne	r8, #1
 9398 0448 12F0040F 		tst	r2, #4
 9399 044c 4CEA080C 		orr	ip, ip, r8
 9400 0450 0CBF     		ite	eq
 9401 0452 4FF00073 		moveq	r3, #33554432
 9402 0456 4FF40073 		movne	r3, #512
 9403 045a 12F0080F 		tst	r2, #8
 9404 045e C0F818C0 		str	ip, [r0, #24]
 9405 0462 0CBF     		ite	eq
 9406 0464 4FF08078 		moveq	r8, #16777216
 9407 0468 4FF48078 		movne	r8, #256
 9408 046c 12F0100F 		tst	r2, #16
 9409 0470 43EA0803 		orr	r3, r3, r8
 9410 0474 0CBF     		ite	eq
 9411 0476 4FF4000C 		moveq	ip, #8388608
 9412 047a 4FF0800C 		movne	ip, #128
 9413 047e 12F0200F 		tst	r2, #32
 9414 0482 43EA0C03 		orr	r3, r3, ip
 9415 0486 0CBF     		ite	eq
 9416 0488 4FF4800C 		moveq	ip, #4194304
 9417 048c 4FF0400C 		movne	ip, #64
 9418 0490 12F0400F 		tst	r2, #64
 9419 0494 43EA0C03 		orr	r3, r3, ip
 9420 0498 0CBF     		ite	eq
 9421 049a 4FF4001C 		moveq	ip, #2097152
 9422 049e 4FF0200C 		movne	ip, #32
 9423 04a2 12F0800F 		tst	r2, #128
 9424 04a6 43EA0C03 		orr	r3, r3, ip
 9425 04aa 0CBF     		ite	eq
 9426 04ac 4FF40012 		moveq	r2, #2097152
 9427 04b0 2022     		movne	r2, #32
 9428 04b2 8B61     		str	r3, [r1, #24]
 9429 04b4 A261     		str	r2, [r4, #24]
 9430 04b6 0368     		ldr	r3, [r0]
 9431 04b8 03F00F03 		and	r3, r3, #15
 9432 04bc 0360     		str	r3, [r0]
 9433 04be 0B68     		ldr	r3, [r1]
 9434 04c0 1F40     		ands	r7, r7, r3
 9435 04c2 0F60     		str	r7, [r1]
 9436 04c4 2368     		ldr	r3, [r4]
 9437 04c6 03F44063 		and	r3, r3, #3072
ARM GAS  C:\Users\Jay\AppData\Local\Temp\ccjVRGue.s 			page 163


 9438 04ca 2360     		str	r3, [r4]
 9439              	.L1898:
 9440 04cc DEF80430 		ldr	r3, [lr, #4]
 9441 04d0 3C2B     		cmp	r3, #60
 9442 04d2 FBD9     		bls	.L1898
 9443 04d4 3649     		ldr	r1, .L1990+8
 9444 04d6 354A     		ldr	r2, .L1990+4
 9445 04d8 0B68     		ldr	r3, [r1]
 9446 04da 23F00F03 		bic	r3, r3, #15
 9447 04de 0B60     		str	r3, [r1]
 9448 04e0 1368     		ldr	r3, [r2]
 9449 04e2 3340     		ands	r3, r3, r6
 9450 04e4 1360     		str	r3, [r2]
 9451 04e6 2368     		ldr	r3, [r4]
 9452 04e8 23F44063 		bic	r3, r3, #3072
 9453 04ec 2360     		str	r3, [r4]
 9454 04ee DCE6     		b	.L1889
 9455              	.L1855:
 9456 04f0 18F0040F 		tst	r8, #4
 9457 04f4 40F0B980 		bne	.L1867
 9458 04f8 2E4B     		ldr	r3, .L1990+12
 9459 04fa 07F07F07 		and	r7, r7, #127
 9460 04fe 2C48     		ldr	r0, .L1990+8
 9461 0500 DA5D     		ldrb	r2, [r3, r7]	@ zero_extendqisi2
 9462 0502 2A49     		ldr	r1, .L1990+4
 9463 0504 12F0010F 		tst	r2, #1
 9464 0508 2D4F     		ldr	r7, .L1990+24
 9465 050a 0CBF     		ite	eq
 9466 050c 4FF4003C 		moveq	ip, #131072
 9467 0510 4FF0020C 		movne	ip, #2
 9468 0514 12F0020F 		tst	r2, #2
 9469 0518 0CBF     		ite	eq
 9470 051a 4FF4803E 		moveq	lr, #65536
 9471 051e 4FF0010E 		movne	lr, #1
 9472 0522 12F0040F 		tst	r2, #4
 9473 0526 4CEA0E0C 		orr	ip, ip, lr
 9474 052a 0CBF     		ite	eq
 9475 052c 4FF00073 		moveq	r3, #33554432
 9476 0530 4FF40073 		movne	r3, #512
 9477 0534 12F0080F 		tst	r2, #8
 9478 0538 C0F818C0 		str	ip, [r0, #24]
 9479 053c 0CBF     		ite	eq
 9480 053e 4FF0807E 		moveq	lr, #16777216
 9481 0542 4FF4807E 		movne	lr, #256
 9482 0546 12F0100F 		tst	r2, #16
 9483 054a 43EA0E03 		orr	r3, r3, lr
 9484 054e 0CBF     		ite	eq
 9485 0550 4FF4000C 		moveq	ip, #8388608
 9486 0554 4FF0800C 		movne	ip, #128
 9487 0558 12F0200F 		tst	r2, #32
 9488 055c 43EA0C03 		orr	r3, r3, ip
 9489 0560 0CBF     		ite	eq
 9490 0562 4FF4800C 		moveq	ip, #4194304
 9491 0566 4FF0400C 		movne	ip, #64
 9492 056a 12F0400F 		tst	r2, #64
 9493 056e 43EA0C03 		orr	r3, r3, ip
 9494 0572 0CBF     		ite	eq
ARM GAS  C:\Users\Jay\AppData\Local\Temp\ccjVRGue.s 			page 164


 9495 0574 4FF4001C 		moveq	ip, #2097152
 9496 0578 4FF0200C 		movne	ip, #32
 9497 057c 12F0800F 		tst	r2, #128
 9498 0580 43EA0C03 		orr	r3, r3, ip
 9499 0584 0CBF     		ite	eq
 9500 0586 4FF40012 		moveq	r2, #2097152
 9501 058a 2022     		movne	r2, #32
 9502 058c 8B61     		str	r3, [r1, #24]
 9503 058e A261     		str	r2, [r4, #24]
 9504 0590 0368     		ldr	r3, [r0]
 9505 0592 03F00F03 		and	r3, r3, #15
 9506 0596 0360     		str	r3, [r0]
 9507 0598 0B68     		ldr	r3, [r1]
 9508 059a 3B40     		ands	r3, r3, r7
 9509 059c 0B60     		str	r3, [r1]
 9510 059e 2368     		ldr	r3, [r4]
 9511 05a0 03F44063 		and	r3, r3, #3072
 9512 05a4 2360     		str	r3, [r4]
 9513 05a6 28E6     		b	.L1864
 9514              	.L1991:
 9515              		.align	2
 9516              	.L1990:
 9517 05a8 00000000 		.word	.LANCHOR31
 9518 05ac 00040258 		.word	1476527104
 9519 05b0 00100258 		.word	1476530176
 9520 05b4 00000000 		.word	crt_ram_buf
 9521 05b8 00000140 		.word	1073807360
 9522 05bc 00C0FFFF 		.word	-16384
 9523 05c0 00FC0F00 		.word	1047552
 9524 05c4 00000000 		.word	.LANCHOR7
 9525 05c8 001000E0 		.word	-536866816
 9526              	.L1977:
 9527              		.syntax unified
 9528              	@ 138 "cartridges/kcs_power_cartridge.c" 1
 9529 05cc 00BF     		nop
 9530              	@ 0 "" 2
 9531              	@ 138 "cartridges/kcs_power_cartridge.c" 1
 9532 05ce 00BF     		nop
 9533              	@ 0 "" 2
 9534              	@ 138 "cartridges/kcs_power_cartridge.c" 1
 9535 05d0 00BF     		nop
 9536              	@ 0 "" 2
 9537              	@ 138 "cartridges/kcs_power_cartridge.c" 1
 9538 05d2 00BF     		nop
 9539              	@ 0 "" 2
 9540              	@ 138 "cartridges/kcs_power_cartridge.c" 1
 9541 05d4 00BF     		nop
 9542              	@ 0 "" 2
 9543              	@ 138 "cartridges/kcs_power_cartridge.c" 1
 9544 05d6 00BF     		nop
 9545              	@ 0 "" 2
 9546              	@ 138 "cartridges/kcs_power_cartridge.c" 1
 9547 05d8 00BF     		nop
 9548              	@ 0 "" 2
 9549              		.thumb
 9550              		.syntax unified
 9551 05da A54A     		ldr	r2, .L1992
ARM GAS  C:\Users\Jay\AppData\Local\Temp\ccjVRGue.s 			page 165


 9552 05dc A548     		ldr	r0, .L1992+4
 9553 05de 1169     		ldr	r1, [r2, #16]
 9554 05e0 D5F810C0 		ldr	ip, [r5, #16]
 9555 05e4 2269     		ldr	r2, [r4, #16]
 9556 05e6 01F0300E 		and	lr, r1, #48
 9557 05ea 4FEA6C18 		asr	r8, ip, #5
 9558 05ee 0069     		ldr	r0, [r0, #16]
 9559 05f0 C2F3C032 		ubfx	r2, r2, #15, #1
 9560 05f4 4FEAEC1C 		asr	ip, ip, #7
 9561 05f8 08F00208 		and	r8, r8, #2
 9562 05fc 0004     		lsls	r0, r0, #16
 9563 05fe 42EA0E02 		orr	r2, r2, lr
 9564 0602 0CF0040C 		and	ip, ip, #4
 9565 0606 4FEAA11E 		asr	lr, r1, #6
 9566 060a 42EA0802 		orr	r2, r2, r8
 9567 060e 4FEAA108 		asr	r8, r1, #2
 9568 0612 0EF00801 		and	r1, lr, #8
 9569 0616 42EA0C02 		orr	r2, r2, ip
 9570 061a 08F04008 		and	r8, r8, #64
 9571 061e 42EA0102 		orr	r2, r2, r1
 9572 0622 42EA0802 		orr	r2, r2, r8
 9573 0626 48BF     		it	mi
 9574 0628 62F07F02 		ornmi	r2, r2, #127
 9575 062c 5FFA82F8 		uxtb	r8, r2
 9576 0630 08F0C202 		and	r2, r8, #194
 9577 0634 C22A     		cmp	r2, #194
 9578 0636 2DD1     		bne	.L1983
 9579 0638 18F0040F 		tst	r8, #4
 9580 063c 00F0D480 		beq	.L1984
 9581 0640 18F02003 		ands	r3, r8, #32
 9582 0644 40F01081 		bne	.L1985
 9583 0648 8B4A     		ldr	r2, .L1992+8
 9584 064a 1178     		ldrb	r1, [r2]	@ zero_extendqisi2
 9585 064c 0029     		cmp	r1, #0
 9586 064e 3FF4E5AD 		beq	.L1853
 9587 0652 4FF08041 		mov	r1, #1073741824
 9588 0656 DFF81CC2 		ldr	ip, .L1992+4
 9589 065a 8848     		ldr	r0, .L1992+12
 9590 065c 0127     		movs	r7, #1
 9591 065e CCF81810 		str	r1, [ip, #24]
 9592 0662 A161     		str	r1, [r4, #24]
 9593 0664 1370     		strb	r3, [r2]
 9594 0666 0770     		strb	r7, [r0]
 9595 0668 D8E5     		b	.L1853
 9596              	.L1867:
 9597 066a 18F02002 		ands	r2, r8, #32
 9598 066e 824B     		ldr	r3, .L1992+8
 9599 0670 40F0C180 		bne	.L1986
 9600 0674 1978     		ldrb	r1, [r3]	@ zero_extendqisi2
 9601 0676 0029     		cmp	r1, #0
 9602 0678 3FF4D0AD 		beq	.L1853
 9603 067c 4FF08041 		mov	r1, #1073741824
 9604 0680 DFF8F0C1 		ldr	ip, .L1992+4
 9605 0684 7D48     		ldr	r0, .L1992+12
 9606 0686 0127     		movs	r7, #1
 9607 0688 CCF81810 		str	r1, [ip, #24]
 9608 068c A161     		str	r1, [r4, #24]
ARM GAS  C:\Users\Jay\AppData\Local\Temp\ccjVRGue.s 			page 166


 9609 068e 1A70     		strb	r2, [r3]
 9610 0690 0770     		strb	r7, [r0]
 9611 0692 C3E5     		b	.L1853
 9612              	.L1983:
 9613 0694 7A49     		ldr	r1, .L1992+16
 9614 0696 C7F30D02 		ubfx	r2, r7, #0, #14
 9615 069a 7648     		ldr	r0, .L1992+4
 9616 069c 0968     		ldr	r1, [r1]
 9617 069e 794F     		ldr	r7, .L1992+20
 9618 06a0 895C     		ldrb	r1, [r1, r2]	@ zero_extendqisi2
 9619 06a2 DFF8F4C1 		ldr	ip, .L1992+40
 9620 06a6 11F0010F 		tst	r1, #1
 9621 06aa 0CBF     		ite	eq
 9622 06ac 4FF4003E 		moveq	lr, #131072
 9623 06b0 4FF0020E 		movne	lr, #2
 9624 06b4 11F0020F 		tst	r1, #2
 9625 06b8 0CBF     		ite	eq
 9626 06ba 4FF48039 		moveq	r9, #65536
 9627 06be 4FF00109 		movne	r9, #1
 9628 06c2 11F0040F 		tst	r1, #4
 9629 06c6 4EEA090E 		orr	lr, lr, r9
 9630 06ca 0CBF     		ite	eq
 9631 06cc 4FF00072 		moveq	r2, #33554432
 9632 06d0 4FF40072 		movne	r2, #512
 9633 06d4 11F0080F 		tst	r1, #8
 9634 06d8 C0F818E0 		str	lr, [r0, #24]
 9635 06dc 0CBF     		ite	eq
 9636 06de 4FF08079 		moveq	r9, #16777216
 9637 06e2 4FF48079 		movne	r9, #256
 9638 06e6 11F0100F 		tst	r1, #16
 9639 06ea 42EA0902 		orr	r2, r2, r9
 9640 06ee 0CBF     		ite	eq
 9641 06f0 4FF4000E 		moveq	lr, #8388608
 9642 06f4 4FF0800E 		movne	lr, #128
 9643 06f8 11F0200F 		tst	r1, #32
 9644 06fc 42EA0E02 		orr	r2, r2, lr
 9645 0700 0CBF     		ite	eq
 9646 0702 4FF4800E 		moveq	lr, #4194304
 9647 0706 4FF0400E 		movne	lr, #64
 9648 070a 11F0400F 		tst	r1, #64
 9649 070e 42EA0E02 		orr	r2, r2, lr
 9650 0712 0CBF     		ite	eq
 9651 0714 4FF4001E 		moveq	lr, #2097152
 9652 0718 4FF0200E 		movne	lr, #32
 9653 071c 11F0800F 		tst	r1, #128
 9654 0720 42EA0E02 		orr	r2, r2, lr
 9655 0724 0CBF     		ite	eq
 9656 0726 4FF40011 		moveq	r1, #2097152
 9657 072a 2021     		movne	r1, #32
 9658 072c BA61     		str	r2, [r7, #24]
 9659 072e 18F0020F 		tst	r8, #2
 9660 0732 A161     		str	r1, [r4, #24]
 9661 0734 0268     		ldr	r2, [r0]
 9662 0736 02F00F02 		and	r2, r2, #15
 9663 073a 0260     		str	r2, [r0]
 9664 073c 3A68     		ldr	r2, [r7]
 9665 073e 02EA0C02 		and	r2, r2, ip
ARM GAS  C:\Users\Jay\AppData\Local\Temp\ccjVRGue.s 			page 167


 9666 0742 3A60     		str	r2, [r7]
 9667 0744 2268     		ldr	r2, [r4]
 9668 0746 02F44062 		and	r2, r2, #3072
 9669 074a 2260     		str	r2, [r4]
 9670 074c 67D0     		beq	.L1987
 9671              	.L1847:
 9672 074e 4E4A     		ldr	r2, .L1992+24
 9673              	.L1850:
 9674 0750 536A     		ldr	r3, [r2, #36]
 9675 0752 932B     		cmp	r3, #147
 9676 0754 FCD9     		bls	.L1850
 9677 0756 54E5     		b	.L1976
 9678              	.L1978:
 9679 0758 03F00202 		and	r2, r3, #2
 9680 075c 4B4B     		ldr	r3, .L1992+28
 9681 075e 4C49     		ldr	r1, .L1992+32
 9682 0760 42F00102 		orr	r2, r2, #1
 9683 0764 52B2     		sxtb	r2, r2
 9684 0766 53F82230 		ldr	r3, [r3, r2, lsl #2]
 9685 076a 0A70     		strb	r2, [r1]
 9686 076c DF06     		lsls	r7, r3, #27
 9687 076e 01D5     		bpl	.L1865
 9688 0770 4022     		movs	r2, #64
 9689 0772 8261     		str	r2, [r0, #24]
 9690              	.L1865:
 9691 0774 9806     		lsls	r0, r3, #26
 9692 0776 03D5     		bpl	.L1866
 9693 0778 3E4A     		ldr	r2, .L1992+4
 9694 077a 4FF48001 		mov	r1, #4194304
 9695 077e 9161     		str	r1, [r2, #24]
 9696              	.L1866:
 9697 0780 DA01     		lsls	r2, r3, #7
 9698 0782 3C48     		ldr	r0, .L1992+4
 9699 0784 9F05     		lsls	r7, r3, #22
 9700 0786 9901     		lsls	r1, r3, #6
 9701 0788 D2B2     		uxtb	r2, r2
 9702 078a 07F40007 		and	r7, r7, #8388608
 9703 078e 5B05     		lsls	r3, r3, #21
 9704 0790 01F48071 		and	r1, r1, #256
 9705 0794 3A43     		orrs	r2, r2, r7
 9706 0796 03F08073 		and	r3, r3, #16777216
 9707 079a 0A43     		orrs	r2, r2, r1
 9708 079c 1343     		orrs	r3, r3, r2
 9709 079e 8361     		str	r3, [r0, #24]
 9710 07a0 2BE5     		b	.L1864
 9711              	.L1981:
 9712 07a2 03F00203 		and	r3, r3, #2
 9713 07a6 394A     		ldr	r2, .L1992+28
 9714 07a8 3949     		ldr	r1, .L1992+32
 9715 07aa 52F82320 		ldr	r2, [r2, r3, lsl #2]
 9716 07ae 0B70     		strb	r3, [r1]
 9717 07b0 D106     		lsls	r1, r2, #27
 9718 07b2 02D5     		bpl	.L1883
 9719 07b4 2F4B     		ldr	r3, .L1992+4
 9720 07b6 4021     		movs	r1, #64
 9721 07b8 9961     		str	r1, [r3, #24]
 9722              	.L1883:
ARM GAS  C:\Users\Jay\AppData\Local\Temp\ccjVRGue.s 			page 168


 9723 07ba 9306     		lsls	r3, r2, #26
 9724 07bc 03D5     		bpl	.L1884
 9725 07be 2D4B     		ldr	r3, .L1992+4
 9726 07c0 4FF48001 		mov	r1, #4194304
 9727 07c4 9961     		str	r1, [r3, #24]
 9728              	.L1884:
 9729 07c6 D301     		lsls	r3, r2, #7
 9730 07c8 2A48     		ldr	r0, .L1992+4
 9731 07ca 9705     		lsls	r7, r2, #22
 9732 07cc 9101     		lsls	r1, r2, #6
 9733 07ce DBB2     		uxtb	r3, r3
 9734 07d0 07F40007 		and	r7, r7, #8388608
 9735 07d4 5205     		lsls	r2, r2, #21
 9736 07d6 01F48071 		and	r1, r1, #256
 9737 07da 3B43     		orrs	r3, r3, r7
 9738 07dc 02F08072 		and	r2, r2, #16777216
 9739 07e0 0B43     		orrs	r3, r3, r1
 9740 07e2 1A43     		orrs	r2, r2, r3
 9741 07e4 8261     		str	r2, [r0, #24]
 9742 07e6 19E5     		b	.L1853
 9743              	.L1984:
 9744 07e8 07F07F07 		and	r7, r7, #127
 9745 07ec 294B     		ldr	r3, .L1992+36
 9746 07ee D85D     		ldrb	r0, [r3, r7]	@ zero_extendqisi2
 9747 07f0 FFF7FEFF 		bl	c64_data_write
 9748 07f4 ABE7     		b	.L1847
 9749              	.L1986:
 9750 07f6 0122     		movs	r2, #1
 9751 07f8 1A70     		strb	r2, [r3]
 9752 07fa 0FE5     		b	.L1853
 9753              	.L1980:
 9754 07fc DFF890C0 		ldr	ip, .L1992+32
 9755 0800 4FF00209 		mov	r9, #2
 9756 0804 1B4A     		ldr	r2, .L1992+4
 9757 0806 4FF0400E 		mov	lr, #64
 9758 080a 8CF80090 		strb	r9, [ip]
 9759 080e DFF88CC0 		ldr	ip, .L1992+44
 9760 0812 C2F818E0 		str	lr, [r2, #24]
 9761 0816 C2F818C0 		str	ip, [r2, #24]
 9762 081a 0870     		strb	r0, [r1]
 9763 081c 69E5     		b	.L1879
 9764              	.L1987:
 9765 081e 03F00202 		and	r2, r3, #2
 9766 0822 1A4B     		ldr	r3, .L1992+28
 9767 0824 1A49     		ldr	r1, .L1992+32
 9768 0826 42F00102 		orr	r2, r2, #1
 9769 082a 52B2     		sxtb	r2, r2
 9770 082c 53F82230 		ldr	r3, [r3, r2, lsl #2]
 9771 0830 0A70     		strb	r2, [r1]
 9772 0832 D906     		lsls	r1, r3, #27
 9773 0834 01D5     		bpl	.L1848
 9774 0836 4022     		movs	r2, #64
 9775 0838 8261     		str	r2, [r0, #24]
 9776              	.L1848:
 9777 083a 9A06     		lsls	r2, r3, #26
 9778 083c 03D5     		bpl	.L1849
 9779 083e 0D4A     		ldr	r2, .L1992+4
ARM GAS  C:\Users\Jay\AppData\Local\Temp\ccjVRGue.s 			page 169


 9780 0840 4FF48001 		mov	r1, #4194304
 9781 0844 9161     		str	r1, [r2, #24]
 9782              	.L1849:
 9783 0846 DA01     		lsls	r2, r3, #7
 9784 0848 0A48     		ldr	r0, .L1992+4
 9785 084a 9F05     		lsls	r7, r3, #22
 9786 084c 9901     		lsls	r1, r3, #6
 9787 084e D2B2     		uxtb	r2, r2
 9788 0850 07F40007 		and	r7, r7, #8388608
 9789 0854 5B05     		lsls	r3, r3, #21
 9790 0856 01F48071 		and	r1, r1, #256
 9791 085a 3A43     		orrs	r2, r2, r7
 9792 085c 03F08073 		and	r3, r3, #16777216
 9793 0860 0A43     		orrs	r2, r2, r1
 9794 0862 1343     		orrs	r3, r3, r2
 9795 0864 8361     		str	r3, [r0, #24]
 9796 0866 72E7     		b	.L1847
 9797              	.L1985:
 9798 0868 034B     		ldr	r3, .L1992+8
 9799 086a 0122     		movs	r2, #1
 9800 086c 1A70     		strb	r2, [r3]
 9801 086e D5E4     		b	.L1853
 9802              	.L1993:
 9803              		.align	2
 9804              	.L1992:
 9805 0870 00000258 		.word	1476526080
 9806 0874 00100258 		.word	1476530176
 9807 0878 00000000 		.word	.LANCHOR35
 9808 087c 00000000 		.word	.LANCHOR31
 9809 0880 00000000 		.word	.LANCHOR7
 9810 0884 00040258 		.word	1476527104
 9811 0888 00000140 		.word	1073807360
 9812 088c 00000000 		.word	.LANCHOR34
 9813 0890 00000000 		.word	.LANCHOR30
 9814 0894 00000000 		.word	crt_ram_buf
 9815 0898 00FC0F00 		.word	1047552
 9816 089c 00018000 		.word	8388864
 9818              		.section	.text.ef_launcher_handler,"ax",%progbits
 9819              		.align	1
 9820              		.p2align 2,,3
 9821              		.global	ef_launcher_handler
 9822              		.syntax unified
 9823              		.thumb
 9824              		.thumb_func
 9825              		.fpu fpv5-sp-d16
 9827              	ef_launcher_handler:
 9828              		@ args = 0, pretend = 0, frame = 0
 9829              		@ frame_needed = 0, uses_anonymous_args = 0
 9830 0000 B24B     		ldr	r3, .L2030
 9831 0002 1A69     		ldr	r2, [r3, #16]
 9832 0004 1207     		lsls	r2, r2, #28
 9833 0006 00D4     		bmi	.L2028
 9834 0008 7047     		bx	lr
 9835              	.L2028:
 9836 000a 2DE9F041 		push	{r4, r5, r6, r7, r8, lr}
 9837 000e 6FF01802 		mvn	r2, #24
 9838 0012 AF4C     		ldr	r4, .L2030+4
ARM GAS  C:\Users\Jay\AppData\Local\Temp\ccjVRGue.s 			page 170


 9839 0014 AF48     		ldr	r0, .L2030+8
 9840 0016 1A61     		str	r2, [r3, #16]
 9841 0018 2769     		ldr	r7, [r4, #16]
 9842 001a 0669     		ldr	r6, [r0, #16]
 9843 001c FA11     		asrs	r2, r7, #7
 9844 001e AE49     		ldr	r1, .L2030+12
 9845 0020 0FFA86FE 		sxth	lr, r6
 9846 0024 02F0200C 		and	ip, r2, #32
 9847 0028 3F11     		asrs	r7, r7, #4
 9848 002a 4FEA8E05 		lsl	r5, lr, #2
 9849 002e 0EF00402 		and	r2, lr, #4
 9850 0032 4FEA0E13 		lsl	r3, lr, #4
 9851 0036 07F04007 		and	r7, r7, #64
 9852 003a 05F00805 		and	r5, r5, #8
 9853 003e 4FEA4E08 		lsl	r8, lr, #1
 9854 0042 03F01003 		and	r3, r3, #16
 9855 0046 08F40068 		and	r8, r8, #2048
 9856 004a 1D43     		orrs	r5, r5, r3
 9857 004c 0B69     		ldr	r3, [r1, #16]
 9858 004e 1543     		orrs	r5, r5, r2
 9859 0050 4FEACE02 		lsl	r2, lr, #3
 9860 0054 DB00     		lsls	r3, r3, #3
 9861 0056 45EA0805 		orr	r5, r5, r8
 9862 005a 4FEA4E1E 		lsl	lr, lr, #5
 9863 005e 02F48052 		and	r2, r2, #4096
 9864 0062 1BB2     		sxth	r3, r3
 9865 0064 0EF4005E 		and	lr, lr, #8192
 9866 0068 2A43     		orrs	r2, r2, r5
 9867 006a 9C4D     		ldr	r5, .L2030+16
 9868 006c 42EA0E02 		orr	r2, r2, lr
 9869 0070 03F4804E 		and	lr, r3, #16384
 9870 0074 1D40     		ands	r5, r5, r3
 9871 0076 C6F30013 		ubfx	r3, r6, #4, #1
 9872 007a 42EA0E02 		orr	r2, r2, lr
 9873 007e 2A43     		orrs	r2, r2, r5
 9874 0080 B510     		asrs	r5, r6, #2
 9875 0082 1A43     		orrs	r2, r2, r3
 9876 0084 05F00205 		and	r5, r5, #2
 9877 0088 7311     		asrs	r3, r6, #5
 9878 008a 2A43     		orrs	r2, r2, r5
 9879 008c F510     		asrs	r5, r6, #3
 9880 008e 03F4807E 		and	lr, r3, #256
 9881 0092 7610     		asrs	r6, r6, #1
 9882 0094 42EA0C02 		orr	r2, r2, ip
 9883 0098 05F40075 		and	r5, r5, #512
 9884 009c 06F48066 		and	r6, r6, #1024
 9885 00a0 DFF83CC2 		ldr	ip, .L2030+20
 9886 00a4 42EA0703 		orr	r3, r2, r7
 9887 00a8 DCF81020 		ldr	r2, [ip, #16]
 9888 00ac 43EA0E03 		orr	r3, r3, lr
 9889 00b0 2B43     		orrs	r3, r3, r5
 9890 00b2 3343     		orrs	r3, r3, r6
 9891 00b4 9BB2     		uxth	r3, r3
 9892 00b6 DCF81050 		ldr	r5, [ip, #16]
 9893 00ba 2469     		ldr	r4, [r4, #16]
 9894 00bc 0069     		ldr	r0, [r0, #16]
 9895 00be 05F0300C 		and	ip, r5, #48
ARM GAS  C:\Users\Jay\AppData\Local\Temp\ccjVRGue.s 			page 171


 9896 00c2 6211     		asrs	r2, r4, #5
 9897 00c4 0E69     		ldr	r6, [r1, #16]
 9898 00c6 C0F3C031 		ubfx	r1, r0, #15, #1
 9899 00ca E411     		asrs	r4, r4, #7
 9900 00cc 02F00202 		and	r2, r2, #2
 9901 00d0 AF11     		asrs	r7, r5, #6
 9902 00d2 41EA0C01 		orr	r1, r1, ip
 9903 00d6 04F00404 		and	r4, r4, #4
 9904 00da A810     		asrs	r0, r5, #2
 9905 00dc 07F00807 		and	r7, r7, #8
 9906 00e0 0A43     		orrs	r2, r2, r1
 9907 00e2 00F04001 		and	r1, r0, #64
 9908 00e6 2243     		orrs	r2, r2, r4
 9909 00e8 3404     		lsls	r4, r6, #16
 9910 00ea 42EA0702 		orr	r2, r2, r7
 9911 00ee 42EA0102 		orr	r2, r2, r1
 9912 00f2 48BF     		it	mi
 9913 00f4 62F07F02 		ornmi	r2, r2, #127
 9914 00f8 D007     		lsls	r0, r2, #31
 9915 00fa 38D5     		bpl	.L1998
 9916 00fc 7849     		ldr	r1, .L2030+20
 9917 00fe 7448     		ldr	r0, .L2030+4
 9918 0100 744A     		ldr	r2, .L2030+8
 9919 0102 0969     		ldr	r1, [r1, #16]
 9920 0104 0069     		ldr	r0, [r0, #16]
 9921 0106 1269     		ldr	r2, [r2, #16]
 9922 0108 01F03004 		and	r4, r1, #48
 9923 010c 4511     		asrs	r5, r0, #5
 9924 010e C2F3C032 		ubfx	r2, r2, #15, #1
 9925 0112 C011     		asrs	r0, r0, #7
 9926 0114 05F00205 		and	r5, r5, #2
 9927 0118 2243     		orrs	r2, r2, r4
 9928 011a 00F00400 		and	r0, r0, #4
 9929 011e 8C11     		asrs	r4, r1, #6
 9930 0120 2A43     		orrs	r2, r2, r5
 9931 0122 8910     		asrs	r1, r1, #2
 9932 0124 04F00804 		and	r4, r4, #8
 9933 0128 6B4D     		ldr	r5, .L2030+12
 9934 012a 0243     		orrs	r2, r2, r0
 9935 012c 01F04001 		and	r1, r1, #64
 9936 0130 2869     		ldr	r0, [r5, #16]
 9937 0132 2243     		orrs	r2, r2, r4
 9938 0134 0A43     		orrs	r2, r2, r1
 9939 0136 0104     		lsls	r1, r0, #16
 9940 0138 48BF     		it	mi
 9941 013a 62F07F02 		ornmi	r2, r2, #127
 9942 013e D2B2     		uxtb	r2, r2
 9943 0140 02F0C001 		and	r1, r2, #192
 9944 0144 C029     		cmp	r1, #192
 9945 0146 74D1     		bne	.L2029
 9946 0148 12F00204 		ands	r4, r2, #2
 9947 014c 7CD1     		bne	.L2002
 9948 014e 4DF60962 		movw	r2, #56841
 9949 0152 9342     		cmp	r3, r2
 9950 0154 00F08680 		beq	.L2004
 9951 0158 4DF60A62 		movw	r2, #56842
 9952 015c 9342     		cmp	r3, r2
ARM GAS  C:\Users\Jay\AppData\Local\Temp\ccjVRGue.s 			page 172


 9953 015e 5FD1     		bne	.L1994
 9954 0160 604B     		ldr	r3, .L2030+24
 9955 0162 1878     		ldrb	r0, [r3]	@ zero_extendqisi2
 9956 0164 FFF7FEFF 		bl	c64_data_write
 9957 0168 5F4B     		ldr	r3, .L2030+28
 9958 016a 1C70     		strb	r4, [r3]
 9959 016c 68E0     		b	.L2001
 9960              	.L1998:
 9961 016e 5C4A     		ldr	r2, .L2030+20
 9962 0170 5748     		ldr	r0, .L2030+4
 9963 0172 5849     		ldr	r1, .L2030+8
 9964 0174 1269     		ldr	r2, [r2, #16]
 9965 0176 0069     		ldr	r0, [r0, #16]
 9966 0178 0969     		ldr	r1, [r1, #16]
 9967 017a 02F03004 		and	r4, r2, #48
 9968 017e 4511     		asrs	r5, r0, #5
 9969 0180 C1F3C031 		ubfx	r1, r1, #15, #1
 9970 0184 C011     		asrs	r0, r0, #7
 9971 0186 05F00205 		and	r5, r5, #2
 9972 018a 2143     		orrs	r1, r1, r4
 9973 018c 00F00400 		and	r0, r0, #4
 9974 0190 9411     		asrs	r4, r2, #6
 9975 0192 2943     		orrs	r1, r1, r5
 9976 0194 9210     		asrs	r2, r2, #2
 9977 0196 04F00804 		and	r4, r4, #8
 9978 019a 4F4D     		ldr	r5, .L2030+12
 9979 019c 0143     		orrs	r1, r1, r0
 9980 019e 02F04002 		and	r2, r2, #64
 9981 01a2 2869     		ldr	r0, [r5, #16]
 9982 01a4 2143     		orrs	r1, r1, r4
 9983 01a6 0604     		lsls	r6, r0, #16
 9984 01a8 41EA0201 		orr	r1, r1, r2
 9985 01ac 48BF     		it	mi
 9986 01ae 61F07F01 		ornmi	r1, r1, #127
 9987 01b2 C9B2     		uxtb	r1, r1
 9988 01b4 4D48     		ldr	r0, .L2030+32
 9989 01b6 484A     		ldr	r2, .L2030+12
 9990 01b8 0069     		ldr	r0, [r0, #16]
 9991 01ba 1269     		ldr	r2, [r2, #16]
 9992 01bc C511     		asrs	r5, r0, #7
 9993 01be 5600     		lsls	r6, r2, #1
 9994 01c0 C2F34002 		ubfx	r2, r2, #1, #1
 9995 01c4 05F00405 		and	r5, r5, #4
 9996 01c8 4411     		asrs	r4, r0, #5
 9997 01ca 06F00206 		and	r6, r6, #2
 9998 01ce 04F00804 		and	r4, r4, #8
 9999 01d2 3243     		orrs	r2, r2, r6
 10000 01d4 2A43     		orrs	r2, r2, r5
 10001 01d6 C510     		asrs	r5, r0, #3
 10002 01d8 2243     		orrs	r2, r2, r4
 10003 01da 05F01005 		and	r5, r5, #16
 10004 01de 4410     		asrs	r4, r0, #1
 10005 01e0 2A43     		orrs	r2, r2, r5
 10006 01e2 4000     		lsls	r0, r0, #1
 10007 01e4 04F02004 		and	r4, r4, #32
 10008 01e8 3A4D     		ldr	r5, .L2030+8
 10009 01ea 00F04000 		and	r0, r0, #64
ARM GAS  C:\Users\Jay\AppData\Local\Temp\ccjVRGue.s 			page 173


 10010 01ee 2243     		orrs	r2, r2, r4
 10011 01f0 2C69     		ldr	r4, [r5, #16]
 10012 01f2 0243     		orrs	r2, r2, r0
 10013 01f4 A506     		lsls	r5, r4, #26
 10014 01f6 48BF     		it	mi
 10015 01f8 62F07F02 		ornmi	r2, r2, #127
 10016 01fc 11F00200 		ands	r0, r1, #2
 10017 0200 D2B2     		uxtb	r2, r2
 10018 0202 0FD1     		bne	.L2009
 10019 0204 03F07F03 		and	r3, r3, #127
 10020 0208 022B     		cmp	r3, #2
 10021 020a 33D0     		beq	.L2010
 10022 020c 0A2B     		cmp	r3, #10
 10023 020e 24D0     		beq	.L2011
 10024 0210 33B9     		cbnz	r3, .L1994
 10025 0212 02F03F02 		and	r2, r2, #63
 10026 0216 3649     		ldr	r1, .L2030+36
 10027 0218 364B     		ldr	r3, .L2030+40
 10028 021a 51F82220 		ldr	r2, [r1, r2, lsl #2]
 10029 021e 1A60     		str	r2, [r3]
 10030              	.L1994:
 10031 0220 BDE8F081 		pop	{r4, r5, r6, r7, r8, pc}
 10032              	.L2009:
 10033 0224 4907     		lsls	r1, r1, #29
 10034 0226 FBD4     		bmi	.L1994
 10035 0228 03F07F03 		and	r3, r3, #127
 10036 022c 3249     		ldr	r1, .L2030+44
 10037 022e CA54     		strb	r2, [r1, r3]
 10038 0230 F6E7     		b	.L1994
 10039              	.L2029:
 10040 0232 304A     		ldr	r2, .L2030+40
 10041 0234 C3F30D03 		ubfx	r3, r3, #0, #14
 10042 0238 1268     		ldr	r2, [r2]
 10043 023a D05C     		ldrb	r0, [r2, r3]	@ zero_extendqisi2
 10044 023c FFF7FEFF 		bl	c64_data_write
 10045              	.L2001:
 10046 0240 BDE8F041 		pop	{r4, r5, r6, r7, r8, lr}
 10047 0244 FFF7FEBF 		b	ef_launcher_handler.part.51
 10048              	.L2002:
 10049 0248 5707     		lsls	r7, r2, #29
 10050 024a E9D4     		bmi	.L1994
 10051 024c 03F07F03 		and	r3, r3, #127
 10052 0250 294A     		ldr	r2, .L2030+44
 10053 0252 D05C     		ldrb	r0, [r2, r3]	@ zero_extendqisi2
 10054 0254 FFF7FEFF 		bl	c64_data_write
 10055 0258 F2E7     		b	.L2001
 10056              	.L2011:
 10057 025a 2849     		ldr	r1, .L2030+48
 10058 025c 284B     		ldr	r3, .L2030+52
 10059 025e 0A70     		strb	r2, [r1]
 10060 0260 1870     		strb	r0, [r3]
 10061 0262 DDE7     		b	.L1994
 10062              	.L2004:
 10063 0264 204A     		ldr	r2, .L2030+28
 10064 0266 264B     		ldr	r3, .L2030+52
 10065 0268 1078     		ldrb	r0, [r2]	@ zero_extendqisi2
 10066 026a 1B78     		ldrb	r3, [r3]	@ zero_extendqisi2
ARM GAS  C:\Users\Jay\AppData\Local\Temp\ccjVRGue.s 			page 174


 10067 026c 1843     		orrs	r0, r0, r3
 10068 026e FFF7FEFF 		bl	c64_data_write
 10069 0272 E5E7     		b	.L2001
 10070              	.L2010:
 10071 0274 5309     		lsrs	r3, r2, #5
 10072 0276 02F00204 		and	r4, r2, #2
 10073 027a C2F38001 		ubfx	r1, r2, #2, #1
 10074 027e 2148     		ldr	r0, .L2030+56
 10075 0280 03F00403 		and	r3, r3, #4
 10076 0284 21EA0201 		bic	r1, r1, r2
 10077 0288 43EA0402 		orr	r2, r3, r4
 10078 028c 0A43     		orrs	r2, r2, r1
 10079 028e 50F82230 		ldr	r3, [r0, r2, lsl #2]
 10080 0292 DC06     		lsls	r4, r3, #27
 10081 0294 02D5     		bpl	.L2013
 10082 0296 104A     		ldr	r2, .L2030+12
 10083 0298 4021     		movs	r1, #64
 10084 029a 9161     		str	r1, [r2, #24]
 10085              	.L2013:
 10086 029c 9806     		lsls	r0, r3, #26
 10087 029e 03D5     		bpl	.L2014
 10088 02a0 0D4A     		ldr	r2, .L2030+12
 10089 02a2 4FF48001 		mov	r1, #4194304
 10090 02a6 9161     		str	r1, [r2, #24]
 10091              	.L2014:
 10092 02a8 DA01     		lsls	r2, r3, #7
 10093 02aa 0B4C     		ldr	r4, .L2030+12
 10094 02ac 9805     		lsls	r0, r3, #22
 10095 02ae 9901     		lsls	r1, r3, #6
 10096 02b0 D2B2     		uxtb	r2, r2
 10097 02b2 00F40000 		and	r0, r0, #8388608
 10098 02b6 5B05     		lsls	r3, r3, #21
 10099 02b8 01F48071 		and	r1, r1, #256
 10100 02bc 0243     		orrs	r2, r2, r0
 10101 02be 03F08073 		and	r3, r3, #16777216
 10102 02c2 0A43     		orrs	r2, r2, r1
 10103 02c4 1343     		orrs	r3, r3, r2
 10104 02c6 A361     		str	r3, [r4, #24]
 10105 02c8 AAE7     		b	.L1994
 10106              	.L2031:
 10107 02ca 00BF     		.align	2
 10108              	.L2030:
 10109 02cc 00000140 		.word	1073807360
 10110 02d0 00080258 		.word	1476528128
 10111 02d4 000C0258 		.word	1476529152
 10112 02d8 00100258 		.word	1476530176
 10113 02dc 0080FFFF 		.word	-32768
 10114 02e0 00000258 		.word	1476526080
 10115 02e4 00000000 		.word	.LANCHOR10
 10116 02e8 00000000 		.word	.LANCHOR9
 10117 02ec 00040258 		.word	1476527104
 10118 02f0 00000000 		.word	.LANCHOR32
 10119 02f4 00000000 		.word	.LANCHOR7
 10120 02f8 00000000 		.word	crt_ram_buf
 10121 02fc 00000000 		.word	.LANCHOR12
 10122 0300 00000000 		.word	.LANCHOR11
 10123 0304 00000000 		.word	.LANCHOR36
ARM GAS  C:\Users\Jay\AppData\Local\Temp\ccjVRGue.s 			page 175


 10125              		.section	.text.c64gs_handler,"ax",%progbits
 10126              		.align	1
 10127              		.p2align 2,,3
 10128              		.global	c64gs_handler
 10129              		.syntax unified
 10130              		.thumb
 10131              		.thumb_func
 10132              		.fpu fpv5-sp-d16
 10134              	c64gs_handler:
 10135              		@ args = 0, pretend = 0, frame = 0
 10136              		@ frame_needed = 0, uses_anonymous_args = 0
 10137 0000 724B     		ldr	r3, .L2047
 10138 0002 1A69     		ldr	r2, [r3, #16]
 10139 0004 1207     		lsls	r2, r2, #28
 10140 0006 00D4     		bmi	.L2045
 10141 0008 7047     		bx	lr
 10142              	.L2045:
 10143 000a 2DE9F041 		push	{r4, r5, r6, r7, r8, lr}
 10144 000e 6FF01802 		mvn	r2, #24
 10145 0012 6F4C     		ldr	r4, .L2047+4
 10146 0014 6F48     		ldr	r0, .L2047+8
 10147 0016 1A61     		str	r2, [r3, #16]
 10148 0018 2769     		ldr	r7, [r4, #16]
 10149 001a 0669     		ldr	r6, [r0, #16]
 10150 001c FA11     		asrs	r2, r7, #7
 10151 001e 6E49     		ldr	r1, .L2047+12
 10152 0020 0FFA86FE 		sxth	lr, r6
 10153 0024 02F0200C 		and	ip, r2, #32
 10154 0028 3F11     		asrs	r7, r7, #4
 10155 002a 4FEA8E05 		lsl	r5, lr, #2
 10156 002e 0EF00402 		and	r2, lr, #4
 10157 0032 4FEA0E13 		lsl	r3, lr, #4
 10158 0036 07F04007 		and	r7, r7, #64
 10159 003a 05F00805 		and	r5, r5, #8
 10160 003e 4FEA4E08 		lsl	r8, lr, #1
 10161 0042 03F01003 		and	r3, r3, #16
 10162 0046 08F40068 		and	r8, r8, #2048
 10163 004a 1D43     		orrs	r5, r5, r3
 10164 004c 0B69     		ldr	r3, [r1, #16]
 10165 004e 1543     		orrs	r5, r5, r2
 10166 0050 4FEACE02 		lsl	r2, lr, #3
 10167 0054 DB00     		lsls	r3, r3, #3
 10168 0056 45EA0805 		orr	r5, r5, r8
 10169 005a 4FEA4E1E 		lsl	lr, lr, #5
 10170 005e 02F48052 		and	r2, r2, #4096
 10171 0062 1BB2     		sxth	r3, r3
 10172 0064 0EF4005E 		and	lr, lr, #8192
 10173 0068 2A43     		orrs	r2, r2, r5
 10174 006a 5C4D     		ldr	r5, .L2047+16
 10175 006c 42EA0E02 		orr	r2, r2, lr
 10176 0070 03F4804E 		and	lr, r3, #16384
 10177 0074 1D40     		ands	r5, r5, r3
 10178 0076 C6F30013 		ubfx	r3, r6, #4, #1
 10179 007a 42EA0E02 		orr	r2, r2, lr
 10180 007e 2A43     		orrs	r2, r2, r5
 10181 0080 B510     		asrs	r5, r6, #2
 10182 0082 1A43     		orrs	r2, r2, r3
ARM GAS  C:\Users\Jay\AppData\Local\Temp\ccjVRGue.s 			page 176


 10183 0084 05F00205 		and	r5, r5, #2
 10184 0088 7311     		asrs	r3, r6, #5
 10185 008a 2A43     		orrs	r2, r2, r5
 10186 008c F510     		asrs	r5, r6, #3
 10187 008e 03F4807E 		and	lr, r3, #256
 10188 0092 7610     		asrs	r6, r6, #1
 10189 0094 42EA0C02 		orr	r2, r2, ip
 10190 0098 05F40075 		and	r5, r5, #512
 10191 009c 06F48066 		and	r6, r6, #1024
 10192 00a0 DFF83CC1 		ldr	ip, .L2047+20
 10193 00a4 42EA0703 		orr	r3, r2, r7
 10194 00a8 DCF81020 		ldr	r2, [ip, #16]
 10195 00ac 43EA0E03 		orr	r3, r3, lr
 10196 00b0 2B43     		orrs	r3, r3, r5
 10197 00b2 3343     		orrs	r3, r3, r6
 10198 00b4 9BB2     		uxth	r3, r3
 10199 00b6 DCF81050 		ldr	r5, [ip, #16]
 10200 00ba 2469     		ldr	r4, [r4, #16]
 10201 00bc 0069     		ldr	r0, [r0, #16]
 10202 00be 05F03007 		and	r7, r5, #48
 10203 00c2 0E69     		ldr	r6, [r1, #16]
 10204 00c4 6211     		asrs	r2, r4, #5
 10205 00c6 C0F3C031 		ubfx	r1, r0, #15, #1
 10206 00ca E411     		asrs	r4, r4, #7
 10207 00cc 02F00202 		and	r2, r2, #2
 10208 00d0 A811     		asrs	r0, r5, #6
 10209 00d2 3943     		orrs	r1, r1, r7
 10210 00d4 04F00404 		and	r4, r4, #4
 10211 00d8 00F00800 		and	r0, r0, #8
 10212 00dc AD10     		asrs	r5, r5, #2
 10213 00de 0A43     		orrs	r2, r2, r1
 10214 00e0 3704     		lsls	r7, r6, #16
 10215 00e2 05F04005 		and	r5, r5, #64
 10216 00e6 42EA0402 		orr	r2, r2, r4
 10217 00ea 42EA0002 		orr	r2, r2, r0
 10218 00ee 42EA0502 		orr	r2, r2, r5
 10219 00f2 48BF     		it	mi
 10220 00f4 62F07F02 		ornmi	r2, r2, #127
 10221 00f8 D607     		lsls	r6, r2, #31
 10222 00fa 2AD5     		bpl	.L2036
 10223 00fc 3849     		ldr	r1, .L2047+20
 10224 00fe 3448     		ldr	r0, .L2047+4
 10225 0100 344A     		ldr	r2, .L2047+8
 10226 0102 0969     		ldr	r1, [r1, #16]
 10227 0104 0069     		ldr	r0, [r0, #16]
 10228 0106 1269     		ldr	r2, [r2, #16]
 10229 0108 01F03004 		and	r4, r1, #48
 10230 010c 4511     		asrs	r5, r0, #5
 10231 010e C2F3C032 		ubfx	r2, r2, #15, #1
 10232 0112 C011     		asrs	r0, r0, #7
 10233 0114 05F00205 		and	r5, r5, #2
 10234 0118 2243     		orrs	r2, r2, r4
 10235 011a 00F00400 		and	r0, r0, #4
 10236 011e 8C11     		asrs	r4, r1, #6
 10237 0120 2A43     		orrs	r2, r2, r5
 10238 0122 8910     		asrs	r1, r1, #2
 10239 0124 04F00804 		and	r4, r4, #8
ARM GAS  C:\Users\Jay\AppData\Local\Temp\ccjVRGue.s 			page 177


 10240 0128 2B4D     		ldr	r5, .L2047+12
 10241 012a 0243     		orrs	r2, r2, r0
 10242 012c 01F04001 		and	r1, r1, #64
 10243 0130 2869     		ldr	r0, [r5, #16]
 10244 0132 2243     		orrs	r2, r2, r4
 10245 0134 0504     		lsls	r5, r0, #16
 10246 0136 42EA0102 		orr	r2, r2, r1
 10247 013a 48BF     		it	mi
 10248 013c 62F07F02 		ornmi	r2, r2, #127
 10249 0140 D2B2     		uxtb	r2, r2
 10250 0142 5406     		lsls	r4, r2, #25
 10251 0144 37D5     		bpl	.L2046
 10252 0146 9007     		lsls	r0, r2, #30
 10253 0148 33D4     		bmi	.L2032
 10254 014a 264B     		ldr	r3, .L2047+24
 10255 014c 264A     		ldr	r2, .L2047+28
 10256 014e 1A60     		str	r2, [r3]
 10257 0150 2FE0     		b	.L2032
 10258              	.L2036:
 10259 0152 2349     		ldr	r1, .L2047+20
 10260 0154 1E48     		ldr	r0, .L2047+4
 10261 0156 1F4A     		ldr	r2, .L2047+8
 10262 0158 0969     		ldr	r1, [r1, #16]
 10263 015a 0069     		ldr	r0, [r0, #16]
 10264 015c 1269     		ldr	r2, [r2, #16]
 10265 015e 01F03004 		and	r4, r1, #48
 10266 0162 4511     		asrs	r5, r0, #5
 10267 0164 C2F3C032 		ubfx	r2, r2, #15, #1
 10268 0168 C011     		asrs	r0, r0, #7
 10269 016a 05F00205 		and	r5, r5, #2
 10270 016e 2243     		orrs	r2, r2, r4
 10271 0170 00F00400 		and	r0, r0, #4
 10272 0174 8C11     		asrs	r4, r1, #6
 10273 0176 2A43     		orrs	r2, r2, r5
 10274 0178 8910     		asrs	r1, r1, #2
 10275 017a 04F00804 		and	r4, r4, #8
 10276 017e 164D     		ldr	r5, .L2047+12
 10277 0180 0243     		orrs	r2, r2, r0
 10278 0182 01F04001 		and	r1, r1, #64
 10279 0186 2869     		ldr	r0, [r5, #16]
 10280 0188 2243     		orrs	r2, r2, r4
 10281 018a 0A43     		orrs	r2, r2, r1
 10282 018c 0104     		lsls	r1, r0, #16
 10283 018e 48BF     		it	mi
 10284 0190 62F07F02 		ornmi	r2, r2, #127
 10285 0194 154C     		ldr	r4, .L2047+32
 10286 0196 9207     		lsls	r2, r2, #30
 10287 0198 0F48     		ldr	r0, .L2047+12
 10288 019a 0E49     		ldr	r1, .L2047+8
 10289 019c 2469     		ldr	r4, [r4, #16]
 10290 019e 0069     		ldr	r0, [r0, #16]
 10291 01a0 0969     		ldr	r1, [r1, #16]
 10292 01a2 06D4     		bmi	.L2032
 10293 01a4 03F03F03 		and	r3, r3, #63
 10294 01a8 1149     		ldr	r1, .L2047+36
 10295 01aa 0E4A     		ldr	r2, .L2047+24
 10296 01ac 51F82330 		ldr	r3, [r1, r3, lsl #2]
ARM GAS  C:\Users\Jay\AppData\Local\Temp\ccjVRGue.s 			page 178


 10297 01b0 1360     		str	r3, [r2]
 10298              	.L2032:
 10299 01b2 BDE8F081 		pop	{r4, r5, r6, r7, r8, pc}
 10300              	.L2046:
 10301 01b6 0B4A     		ldr	r2, .L2047+24
 10302 01b8 C3F30C03 		ubfx	r3, r3, #0, #13
 10303 01bc 1268     		ldr	r2, [r2]
 10304 01be D05C     		ldrb	r0, [r2, r3]	@ zero_extendqisi2
 10305 01c0 FFF7FEFF 		bl	c64_data_write
 10306 01c4 BDE8F041 		pop	{r4, r5, r6, r7, r8, lr}
 10307 01c8 FFF7FEBF 		b	c64gs_handler.part.40
 10308              	.L2048:
 10309              		.align	2
 10310              	.L2047:
 10311 01cc 00000140 		.word	1073807360
 10312 01d0 00080258 		.word	1476528128
 10313 01d4 000C0258 		.word	1476529152
 10314 01d8 00100258 		.word	1476530176
 10315 01dc 0080FFFF 		.word	-32768
 10316 01e0 00000258 		.word	1476526080
 10317 01e4 00000000 		.word	.LANCHOR7
 10318 01e8 00000000 		.word	dat_buffer
 10319 01ec 00040258 		.word	1476527104
 10320 01f0 00000000 		.word	.LANCHOR32
 10322              		.section	.text.ss5_handler,"ax",%progbits
 10323              		.align	1
 10324              		.p2align 2,,3
 10325              		.global	ss5_handler
 10326              		.syntax unified
 10327              		.thumb
 10328              		.thumb_func
 10329              		.fpu fpv5-sp-d16
 10331              	ss5_handler:
 10332              		@ args = 0, pretend = 0, frame = 0
 10333              		@ frame_needed = 0, uses_anonymous_args = 0
 10334 0000 B94B     		ldr	r3, .L2208
 10335 0002 1B69     		ldr	r3, [r3, #16]
 10336 0004 1B07     		lsls	r3, r3, #28
 10337 0006 40F10282 		bpl	.L2188
 10338 000a B84B     		ldr	r3, .L2208+4
 10339 000c 4FF40012 		mov	r2, #2097152
 10340 0010 DFF8F0C2 		ldr	ip, .L2208+28
 10341 0014 2DE9F04F 		push	{r4, r5, r6, r7, r8, r9, r10, fp, lr}
 10342 0018 DFF8ECA2 		ldr	r10, .L2208+32
 10343 001c 1F46     		mov	r7, r3
 10344 001e DFF8EC82 		ldr	r8, .L2208+36
 10345 0022 DFF8ECE2 		ldr	lr, .L2208+40
 10346 0026 9A61     		str	r2, [r3, #24]
 10347              	.L2110:
 10348 0028 D8F81040 		ldr	r4, [r8, #16]
 10349 002c DCF81000 		ldr	r0, [ip, #16]
 10350 0030 3D69     		ldr	r5, [r7, #16]
 10351 0032 03B2     		sxth	r3, r0
 10352 0034 DEF81020 		ldr	r2, [lr, #16]
 10353 0038 ED00     		lsls	r5, r5, #3
 10354 003a 9900     		lsls	r1, r3, #2
 10355 003c 03F00409 		and	r9, r3, #4
ARM GAS  C:\Users\Jay\AppData\Local\Temp\ccjVRGue.s 			page 179


 10356 0040 1A01     		lsls	r2, r3, #4
 10357 0042 01F00801 		and	r1, r1, #8
 10358 0046 5E00     		lsls	r6, r3, #1
 10359 0048 02F01002 		and	r2, r2, #16
 10360 004c 2DB2     		sxth	r5, r5
 10361 004e 06F40066 		and	r6, r6, #2048
 10362 0052 1143     		orrs	r1, r1, r2
 10363 0054 DA00     		lsls	r2, r3, #3
 10364 0056 5B01     		lsls	r3, r3, #5
 10365 0058 41EA0901 		orr	r1, r1, r9
 10366 005c 02F48052 		and	r2, r2, #4096
 10367 0060 03F40053 		and	r3, r3, #8192
 10368 0064 3143     		orrs	r1, r1, r6
 10369 0066 05F48046 		and	r6, r5, #16384
 10370 006a 25F4FF45 		bic	r5, r5, #32640
 10371 006e 0A43     		orrs	r2, r2, r1
 10372 0070 C0F30011 		ubfx	r1, r0, #4, #1
 10373 0074 25F07F05 		bic	r5, r5, #127
 10374 0078 1A43     		orrs	r2, r2, r3
 10375 007a 8310     		asrs	r3, r0, #2
 10376 007c 3243     		orrs	r2, r2, r6
 10377 007e 2A43     		orrs	r2, r2, r5
 10378 0080 03F00205 		and	r5, r3, #2
 10379 0084 E311     		asrs	r3, r4, #7
 10380 0086 0A43     		orrs	r2, r2, r1
 10381 0088 2411     		asrs	r4, r4, #4
 10382 008a 03F02003 		and	r3, r3, #32
 10383 008e 4111     		asrs	r1, r0, #5
 10384 0090 2A43     		orrs	r2, r2, r5
 10385 0092 04F04004 		and	r4, r4, #64
 10386 0096 C510     		asrs	r5, r0, #3
 10387 0098 01F48071 		and	r1, r1, #256
 10388 009c 1343     		orrs	r3, r3, r2
 10389 009e 4010     		asrs	r0, r0, #1
 10390 00a0 05F40072 		and	r2, r5, #512
 10391 00a4 2343     		orrs	r3, r3, r4
 10392 00a6 00F48060 		and	r0, r0, #1024
 10393 00aa 0B43     		orrs	r3, r3, r1
 10394 00ac 1343     		orrs	r3, r3, r2
 10395 00ae 0343     		orrs	r3, r3, r0
 10396 00b0 9BB2     		uxth	r3, r3
 10397 00b2 DEF81010 		ldr	r1, [lr, #16]
 10398 00b6 D8F81000 		ldr	r0, [r8, #16]
 10399 00ba DCF81020 		ldr	r2, [ip, #16]
 10400 00be 01F03005 		and	r5, r1, #48
 10401 00c2 4411     		asrs	r4, r0, #5
 10402 00c4 C2F3C032 		ubfx	r2, r2, #15, #1
 10403 00c8 C011     		asrs	r0, r0, #7
 10404 00ca 04F00204 		and	r4, r4, #2
 10405 00ce 2A43     		orrs	r2, r2, r5
 10406 00d0 00F00400 		and	r0, r0, #4
 10407 00d4 8D11     		asrs	r5, r1, #6
 10408 00d6 2243     		orrs	r2, r2, r4
 10409 00d8 8910     		asrs	r1, r1, #2
 10410 00da 05F00805 		and	r5, r5, #8
 10411 00de 3C69     		ldr	r4, [r7, #16]
 10412 00e0 0243     		orrs	r2, r2, r0
ARM GAS  C:\Users\Jay\AppData\Local\Temp\ccjVRGue.s 			page 180


 10413 00e2 01F04001 		and	r1, r1, #64
 10414 00e6 2004     		lsls	r0, r4, #16
 10415 00e8 42EA0502 		orr	r2, r2, r5
 10416 00ec 42EA0102 		orr	r2, r2, r1
 10417 00f0 48BF     		it	mi
 10418 00f2 62F07F02 		ornmi	r2, r2, #127
 10419 00f6 D2B2     		uxtb	r2, r2
 10420 00f8 02F00901 		and	r1, r2, #9
 10421 00fc 0129     		cmp	r1, #1
 10422 00fe 00F00981 		beq	.L2199
 10423 0102 12F00100 		ands	r0, r2, #1
 10424 0106 6CD1     		bne	.L2200
 10425 0108 7949     		ldr	r1, .L2208+8
 10426 010a 0978     		ldrb	r1, [r1]	@ zero_extendqisi2
 10427 010c 31B1     		cbz	r1, .L2193
 10428 010e 0131     		adds	r1, r1, #1
 10429 0110 774C     		ldr	r4, .L2208+8
 10430 0112 C9B2     		uxtb	r1, r1
 10431 0114 0429     		cmp	r1, #4
 10432 0116 2170     		strb	r1, [r4]
 10433 0118 00F07D81 		beq	.L2100
 10434              	.L2193:
 10435 011c DAF80040 		ldr	r4, [r10]
 10436              	.L2099:
 10437 0120 7449     		ldr	r1, .L2208+12
 10438 0122 0969     		ldr	r1, [r1, #16]
 10439 0124 3869     		ldr	r0, [r7, #16]
 10440 0126 4FEAE119 		asr	r9, r1, #7
 10441 012a DCF81050 		ldr	r5, [ip, #16]
 10442 012e 4FEA400B 		lsl	fp, r0, #1
 10443 0132 C0F34000 		ubfx	r0, r0, #1, #1
 10444 0136 09F00409 		and	r9, r9, #4
 10445 013a 4E11     		asrs	r6, r1, #5
 10446 013c 0BF0020B 		and	fp, fp, #2
 10447 0140 AD06     		lsls	r5, r5, #26
 10448 0142 06F00806 		and	r6, r6, #8
 10449 0146 40EA0B00 		orr	r0, r0, fp
 10450 014a 40EA0900 		orr	r0, r0, r9
 10451 014e 4FEAE109 		asr	r9, r1, #3
 10452 0152 40EA0600 		orr	r0, r0, r6
 10453 0156 09F01009 		and	r9, r9, #16
 10454 015a 4FEA6106 		asr	r6, r1, #1
 10455 015e 40EA0900 		orr	r0, r0, r9
 10456 0162 4FEA4101 		lsl	r1, r1, #1
 10457 0166 06F02006 		and	r6, r6, #32
 10458 016a 01F04001 		and	r1, r1, #64
 10459 016e 40EA0600 		orr	r0, r0, r6
 10460 0172 41EA0001 		orr	r1, r1, r0
 10461 0176 48BF     		it	mi
 10462 0178 61F07F01 		ornmi	r1, r1, #127
 10463 017c 64B1     		cbz	r4, .L2075
 10464 017e 9007     		lsls	r0, r2, #30
 10465 0180 C9B2     		uxtb	r1, r1
 10466 0182 40F10B81 		bpl	.L2201
 10467 0186 5006     		lsls	r0, r2, #25
 10468 0188 06D4     		bmi	.L2075
 10469 018a 5B48     		ldr	r0, .L2208+16
ARM GAS  C:\Users\Jay\AppData\Local\Temp\ccjVRGue.s 			page 181


 10470 018c 0068     		ldr	r0, [r0]
 10471 018e 8442     		cmp	r4, r0
 10472 0190 02D0     		beq	.L2075
 10473 0192 C3F30C03 		ubfx	r3, r3, #0, #13
 10474 0196 E154     		strb	r1, [r4, r3]
 10475              	.L2075:
 10476 0198 D206     		lsls	r2, r2, #27
 10477 019a 00F19B80 		bmi	.L2185
 10478              	.L2203:
 10479 019e 524A     		ldr	r2, .L2208
 10480              	.L2106:
 10481 01a0 536A     		ldr	r3, [r2, #36]
 10482 01a2 532B     		cmp	r3, #83
 10483 01a4 FCD8     		bhi	.L2106
 10484 01a6 554B     		ldr	r3, .L2208+20
 10485 01a8 516A     		ldr	r1, [r2, #36]
 10486 01aa 1A46     		mov	r2, r3
 10487 01ac 5960     		str	r1, [r3, #4]
 10488              	.L2107:
 10489 01ae 5368     		ldr	r3, [r2, #4]
 10490 01b0 112B     		cmp	r3, #17
 10491 01b2 FCD9     		bls	.L2107
 10492 01b4 D8F81030 		ldr	r3, [r8, #16]
 10493 01b8 DCF81030 		ldr	r3, [ip, #16]
 10494 01bc 3B69     		ldr	r3, [r7, #16]
 10495 01be DEF81030 		ldr	r3, [lr, #16]
 10496 01c2 4E4A     		ldr	r2, .L2208+20
 10497              	.L2108:
 10498 01c4 5368     		ldr	r3, [r2, #4]
 10499 01c6 202B     		cmp	r3, #32
 10500 01c8 FCD9     		bls	.L2108
 10501 01ca DEF81030 		ldr	r3, [lr, #16]
 10502 01ce 4B4A     		ldr	r2, .L2208+20
 10503 01d0 D8F81030 		ldr	r3, [r8, #16]
 10504 01d4 DCF81030 		ldr	r3, [ip, #16]
 10505 01d8 3B69     		ldr	r3, [r7, #16]
 10506              	.L2109:
 10507 01da 5368     		ldr	r3, [r2, #4]
 10508 01dc 602B     		cmp	r3, #96
 10509 01de FCD9     		bls	.L2109
 10510 01e0 22E7     		b	.L2110
 10511              	.L2200:
 10512 01e2 DAF80010 		ldr	r1, [r10]
 10513 01e6 0029     		cmp	r1, #0
 10514 01e8 00F0C680 		beq	.L2077
 10515 01ec 5006     		lsls	r0, r2, #25
 10516 01ee 40F12581 		bpl	.L2202
 10517 01f2 02F08201 		and	r1, r2, #130
 10518 01f6 8229     		cmp	r1, #130
 10519 01f8 00F0BE80 		beq	.L2077
 10520 01fc 3E49     		ldr	r1, .L2208+16
 10521 01fe C3F30D03 		ubfx	r3, r3, #0, #14
 10522 0202 3C48     		ldr	r0, .L2208+12
 10523 0204 0968     		ldr	r1, [r1]
 10524              	.L2192:
 10525 0206 C95C     		ldrb	r1, [r1, r3]	@ zero_extendqisi2
 10526 0208 3D4C     		ldr	r4, .L2208+24
ARM GAS  C:\Users\Jay\AppData\Local\Temp\ccjVRGue.s 			page 182


 10527 020a 11F0010F 		tst	r1, #1
 10528 020e 0CBF     		ite	eq
 10529 0210 4FF40035 		moveq	r5, #131072
 10530 0214 0225     		movne	r5, #2
 10531 0216 11F0020F 		tst	r1, #2
 10532 021a 0CBF     		ite	eq
 10533 021c 4FF48036 		moveq	r6, #65536
 10534 0220 0126     		movne	r6, #1
 10535 0222 11F0040F 		tst	r1, #4
 10536 0226 45EA0605 		orr	r5, r5, r6
 10537 022a 0CBF     		ite	eq
 10538 022c 4FF00073 		moveq	r3, #33554432
 10539 0230 4FF40073 		movne	r3, #512
 10540 0234 11F0080F 		tst	r1, #8
 10541 0238 BD61     		str	r5, [r7, #24]
 10542 023a 0CBF     		ite	eq
 10543 023c 4FF08076 		moveq	r6, #16777216
 10544 0240 4FF48076 		movne	r6, #256
 10545 0244 11F0100F 		tst	r1, #16
 10546 0248 43EA0603 		orr	r3, r3, r6
 10547 024c 0CBF     		ite	eq
 10548 024e 4FF40005 		moveq	r5, #8388608
 10549 0252 8025     		movne	r5, #128
 10550 0254 11F0200F 		tst	r1, #32
 10551 0258 43EA0503 		orr	r3, r3, r5
 10552 025c 0CBF     		ite	eq
 10553 025e 4FF48005 		moveq	r5, #4194304
 10554 0262 4025     		movne	r5, #64
 10555 0264 11F0400F 		tst	r1, #64
 10556 0268 43EA0503 		orr	r3, r3, r5
 10557 026c 0CBF     		ite	eq
 10558 026e 4FF40015 		moveq	r5, #2097152
 10559 0272 2025     		movne	r5, #32
 10560 0274 11F0800F 		tst	r1, #128
 10561 0278 43EA0503 		orr	r3, r3, r5
 10562 027c 0CBF     		ite	eq
 10563 027e 4FF40011 		moveq	r1, #2097152
 10564 0282 2021     		movne	r1, #32
 10565 0284 8361     		str	r3, [r0, #24]
 10566 0286 CCF81810 		str	r1, [ip, #24]
 10567 028a 3B68     		ldr	r3, [r7]
 10568 028c 1649     		ldr	r1, .L2208
 10569 028e 03F00F03 		and	r3, r3, #15
 10570 0292 3B60     		str	r3, [r7]
 10571 0294 0368     		ldr	r3, [r0]
 10572 0296 2340     		ands	r3, r3, r4
 10573 0298 0360     		str	r3, [r0]
 10574 029a DCF80030 		ldr	r3, [ip]
 10575 029e 03F44063 		and	r3, r3, #3072
 10576 02a2 CCF80030 		str	r3, [ip]
 10577              	.L2096:
 10578 02a6 4B6A     		ldr	r3, [r1, #36]
 10579 02a8 932B     		cmp	r3, #147
 10580 02aa FCD9     		bls	.L2096
 10581              	.L2196:
 10582 02ac 3B68     		ldr	r3, [r7]
 10583 02ae D206     		lsls	r2, r2, #27
ARM GAS  C:\Users\Jay\AppData\Local\Temp\ccjVRGue.s 			page 183


 10584 02b0 1049     		ldr	r1, .L2208+12
 10585 02b2 23F00F03 		bic	r3, r3, #15
 10586 02b6 3B60     		str	r3, [r7]
 10587 02b8 0B68     		ldr	r3, [r1]
 10588 02ba 23F47F23 		bic	r3, r3, #1044480
 10589 02be 23F44063 		bic	r3, r3, #3072
 10590 02c2 0B60     		str	r3, [r1]
 10591 02c4 DCF80030 		ldr	r3, [ip]
 10592 02c8 23F44063 		bic	r3, r3, #3072
 10593 02cc CCF80030 		str	r3, [ip]
 10594 02d0 7FF565AF 		bpl	.L2203
 10595              	.L2185:
 10596 02d4 044B     		ldr	r3, .L2208
 10597 02d6 6FF00801 		mvn	r1, #8
 10598 02da DA68     		ldr	r2, [r3, #12]
 10599 02dc 0A40     		ands	r2, r2, r1
 10600 02de DA60     		str	r2, [r3, #12]
 10601 02e0 1961     		str	r1, [r3, #16]
 10602 02e2 1961     		str	r1, [r3, #16]
 10603 02e4 BDE8F08F 		pop	{r4, r5, r6, r7, r8, r9, r10, fp, pc}
 10604              	.L2209:
 10605              		.align	2
 10606              	.L2208:
 10607 02e8 00000140 		.word	1073807360
 10608 02ec 00100258 		.word	1476530176
 10609 02f0 00000000 		.word	.LANCHOR31
 10610 02f4 00040258 		.word	1476527104
 10611 02f8 00000000 		.word	.LANCHOR6
 10612 02fc 001000E0 		.word	-536866816
 10613 0300 00FC0F00 		.word	1047552
 10614 0304 000C0258 		.word	1476529152
 10615 0308 00000000 		.word	.LANCHOR7
 10616 030c 00080258 		.word	1476528128
 10617 0310 00000258 		.word	1476526080
 10618              	.L2199:
 10619              		.syntax unified
 10620              	@ 155 "cartridges/super_snapshot_5.c" 1
 10621 0314 00BF     		nop
 10622              	@ 0 "" 2
 10623              	@ 155 "cartridges/super_snapshot_5.c" 1
 10624 0316 00BF     		nop
 10625              	@ 0 "" 2
 10626              	@ 155 "cartridges/super_snapshot_5.c" 1
 10627 0318 00BF     		nop
 10628              	@ 0 "" 2
 10629              	@ 155 "cartridges/super_snapshot_5.c" 1
 10630 031a 00BF     		nop
 10631              	@ 0 "" 2
 10632              	@ 155 "cartridges/super_snapshot_5.c" 1
 10633 031c 00BF     		nop
 10634              	@ 0 "" 2
 10635              	@ 155 "cartridges/super_snapshot_5.c" 1
 10636 031e 00BF     		nop
 10637              	@ 0 "" 2
 10638              	@ 155 "cartridges/super_snapshot_5.c" 1
 10639 0320 00BF     		nop
 10640              	@ 0 "" 2
ARM GAS  C:\Users\Jay\AppData\Local\Temp\ccjVRGue.s 			page 184


 10641              		.thumb
 10642              		.syntax unified
 10643 0322 DEF81010 		ldr	r1, [lr, #16]
 10644 0326 D8F81000 		ldr	r0, [r8, #16]
 10645 032a DCF81020 		ldr	r2, [ip, #16]
 10646 032e 01F03005 		and	r5, r1, #48
 10647 0332 4411     		asrs	r4, r0, #5
 10648 0334 C2F3C032 		ubfx	r2, r2, #15, #1
 10649 0338 C011     		asrs	r0, r0, #7
 10650 033a 04F00204 		and	r4, r4, #2
 10651 033e 2A43     		orrs	r2, r2, r5
 10652 0340 00F00400 		and	r0, r0, #4
 10653 0344 8D11     		asrs	r5, r1, #6
 10654 0346 2243     		orrs	r2, r2, r4
 10655 0348 8910     		asrs	r1, r1, #2
 10656 034a 05F00805 		and	r5, r5, #8
 10657 034e 3C69     		ldr	r4, [r7, #16]
 10658 0350 0243     		orrs	r2, r2, r0
 10659 0352 01F04001 		and	r1, r1, #64
 10660 0356 2A43     		orrs	r2, r2, r5
 10661 0358 0A43     		orrs	r2, r2, r1
 10662 035a 2104     		lsls	r1, r4, #16
 10663 035c DAF80010 		ldr	r1, [r10]
 10664 0360 48BF     		it	mi
 10665 0362 62F07F02 		ornmi	r2, r2, #127
 10666 0366 D2B2     		uxtb	r2, r2
 10667 0368 31B1     		cbz	r1, .L2077
 10668 036a 5406     		lsls	r4, r2, #25
 10669 036c 40F1C380 		bpl	.L2204
 10670 0370 02F08201 		and	r1, r2, #130
 10671 0374 8229     		cmp	r1, #130
 10672 0376 65D1     		bne	.L2205
 10673              	.L2077:
 10674 0378 12F02001 		ands	r1, r2, #32
 10675 037c 634B     		ldr	r3, .L2210
 10676 037e 47D1     		bne	.L2206
 10677 0380 1878     		ldrb	r0, [r3]	@ zero_extendqisi2
 10678 0382 0028     		cmp	r0, #0
 10679 0384 3FF408AF 		beq	.L2075
 10680 0388 4FF08040 		mov	r0, #1073741824
 10681 038c 0124     		movs	r4, #1
 10682 038e B861     		str	r0, [r7, #24]
 10683 0390 CCF81800 		str	r0, [ip, #24]
 10684 0394 1970     		strb	r1, [r3]
 10685 0396 5E4B     		ldr	r3, .L2210+4
 10686 0398 1C70     		strb	r4, [r3]
 10687 039a FDE6     		b	.L2075
 10688              	.L2201:
 10689 039c CC08     		lsrs	r4, r1, #3
 10690 039e C1F38005 		ubfx	r5, r1, #2, #1
 10691 03a2 4B08     		lsrs	r3, r1, #1
 10692 03a4 01F00301 		and	r1, r1, #3
 10693 03a8 04F00204 		and	r4, r4, #2
 10694 03ac 5948     		ldr	r0, .L2210+8
 10695 03ae 03F00403 		and	r3, r3, #4
 10696 03b2 594E     		ldr	r6, .L2210+12
 10697 03b4 2C43     		orrs	r4, r4, r5
ARM GAS  C:\Users\Jay\AppData\Local\Temp\ccjVRGue.s 			page 185


 10698 03b6 1943     		orrs	r1, r1, r3
 10699 03b8 584B     		ldr	r3, .L2210+16
 10700 03ba 50F82450 		ldr	r5, [r0, r4, lsl #2]
 10701 03be 53F82100 		ldr	r0, [r3, r1, lsl #2]
 10702 03c2 3560     		str	r5, [r6]
 10703 03c4 C306     		lsls	r3, r0, #27
 10704 03c6 01D5     		bpl	.L2103
 10705 03c8 4023     		movs	r3, #64
 10706 03ca BB61     		str	r3, [r7, #24]
 10707              	.L2103:
 10708 03cc C101     		lsls	r1, r0, #7
 10709 03ce 8605     		lsls	r6, r0, #22
 10710 03d0 C9B2     		uxtb	r1, r1
 10711 03d2 06F40006 		and	r6, r6, #8388608
 10712 03d6 8301     		lsls	r3, r0, #6
 10713 03d8 3143     		orrs	r1, r1, r6
 10714 03da 03F48073 		and	r3, r3, #256
 10715 03de 4605     		lsls	r6, r0, #21
 10716 03e0 0B43     		orrs	r3, r3, r1
 10717 03e2 06F08071 		and	r1, r6, #16777216
 10718 03e6 8606     		lsls	r6, r0, #26
 10719 03e8 43EA0103 		orr	r3, r3, r1
 10720 03ec 20D5     		bpl	.L2104
 10721 03ee 4FF48004 		mov	r4, #4194304
 10722 03f2 0021     		movs	r1, #0
 10723 03f4 BC61     		str	r4, [r7, #24]
 10724 03f6 BB61     		str	r3, [r7, #24]
 10725 03f8 CAF80010 		str	r1, [r10]
 10726              	.L2105:
 10727 03fc C407     		lsls	r4, r0, #31
 10728 03fe 7FF5CBAE 		bpl	.L2075
 10729 0402 4FF48043 		mov	r3, #16384
 10730 0406 BB61     		str	r3, [r7, #24]
 10731 0408 CCF81830 		str	r3, [ip, #24]
 10732 040c C4E6     		b	.L2075
 10733              	.L2188:
 10734 040e 7047     		bx	lr
 10735              	.L2206:
 10736 0410 0121     		movs	r1, #1
 10737 0412 1970     		strb	r1, [r3]
 10738 0414 C0E6     		b	.L2075
 10739              	.L2100:
 10740 0416 424D     		ldr	r5, .L2210+20
 10741 0418 4026     		movs	r6, #64
 10742 041a 3F49     		ldr	r1, .L2210+12
 10743 041c BE61     		str	r6, [r7, #24]
 10744 041e BD61     		str	r5, [r7, #24]
 10745 0420 3B4D     		ldr	r5, .L2210+4
 10746 0422 404C     		ldr	r4, .L2210+24
 10747 0424 2870     		strb	r0, [r5]
 10748 0426 4048     		ldr	r0, .L2210+28
 10749 0428 CAF80040 		str	r4, [r10]
 10750 042c 0860     		str	r0, [r1]
 10751 042e 77E6     		b	.L2099
 10752              	.L2104:
 10753 0430 BB61     		str	r3, [r7, #24]
 10754 0432 C301     		lsls	r3, r0, #7
ARM GAS  C:\Users\Jay\AppData\Local\Temp\ccjVRGue.s 			page 186


 10755 0434 63D5     		bpl	.L2207
 10756 0436 CAF80050 		str	r5, [r10]
 10757 043a DFE7     		b	.L2105
 10758              	.L2202:
 10759 043c C3F30D03 		ubfx	r3, r3, #0, #14
 10760 0440 3A48     		ldr	r0, .L2210+32
 10761 0442 E0E6     		b	.L2192
 10762              	.L2205:
 10763 0444 3449     		ldr	r1, .L2210+12
 10764 0446 C3F30D03 		ubfx	r3, r3, #0, #14
 10765 044a 3848     		ldr	r0, .L2210+32
 10766 044c 0968     		ldr	r1, [r1]
 10767              	.L2191:
 10768 044e C95C     		ldrb	r1, [r1, r3]	@ zero_extendqisi2
 10769 0450 374C     		ldr	r4, .L2210+36
 10770 0452 11F0010F 		tst	r1, #1
 10771 0456 0CBF     		ite	eq
 10772 0458 4FF40035 		moveq	r5, #131072
 10773 045c 0225     		movne	r5, #2
 10774 045e 11F0020F 		tst	r1, #2
 10775 0462 0CBF     		ite	eq
 10776 0464 4FF48036 		moveq	r6, #65536
 10777 0468 0126     		movne	r6, #1
 10778 046a 11F0040F 		tst	r1, #4
 10779 046e 45EA0605 		orr	r5, r5, r6
 10780 0472 0CBF     		ite	eq
 10781 0474 4FF00073 		moveq	r3, #33554432
 10782 0478 4FF40073 		movne	r3, #512
 10783 047c 11F0080F 		tst	r1, #8
 10784 0480 BD61     		str	r5, [r7, #24]
 10785 0482 0CBF     		ite	eq
 10786 0484 4FF08076 		moveq	r6, #16777216
 10787 0488 4FF48076 		movne	r6, #256
 10788 048c 11F0100F 		tst	r1, #16
 10789 0490 43EA0603 		orr	r3, r3, r6
 10790 0494 0CBF     		ite	eq
 10791 0496 4FF40005 		moveq	r5, #8388608
 10792 049a 8025     		movne	r5, #128
 10793 049c 11F0200F 		tst	r1, #32
 10794 04a0 43EA0503 		orr	r3, r3, r5
 10795 04a4 0CBF     		ite	eq
 10796 04a6 4FF48005 		moveq	r5, #4194304
 10797 04aa 4025     		movne	r5, #64
 10798 04ac 11F0400F 		tst	r1, #64
 10799 04b0 43EA0503 		orr	r3, r3, r5
 10800 04b4 0CBF     		ite	eq
 10801 04b6 4FF40015 		moveq	r5, #2097152
 10802 04ba 2025     		movne	r5, #32
 10803 04bc 11F0800F 		tst	r1, #128
 10804 04c0 43EA0503 		orr	r3, r3, r5
 10805 04c4 0CBF     		ite	eq
 10806 04c6 4FF40011 		moveq	r1, #2097152
 10807 04ca 2021     		movne	r1, #32
 10808 04cc 8361     		str	r3, [r0, #24]
 10809 04ce CCF81810 		str	r1, [ip, #24]
 10810 04d2 3B68     		ldr	r3, [r7]
 10811 04d4 1749     		ldr	r1, .L2210+40
ARM GAS  C:\Users\Jay\AppData\Local\Temp\ccjVRGue.s 			page 187


 10812 04d6 03F00F03 		and	r3, r3, #15
 10813 04da 3B60     		str	r3, [r7]
 10814 04dc 0368     		ldr	r3, [r0]
 10815 04de 2340     		ands	r3, r3, r4
 10816 04e0 0360     		str	r3, [r0]
 10817 04e2 DCF80030 		ldr	r3, [ip]
 10818 04e6 03F44063 		and	r3, r3, #3072
 10819 04ea CCF80030 		str	r3, [ip]
 10820              	.L2064:
 10821 04ee 4B6A     		ldr	r3, [r1, #36]
 10822 04f0 932B     		cmp	r3, #147
 10823 04f2 FCD9     		bls	.L2064
 10824 04f4 DAE6     		b	.L2196
 10825              	.L2204:
 10826 04f6 C3F30D03 		ubfx	r3, r3, #0, #14
 10827 04fa 0C48     		ldr	r0, .L2210+32
 10828 04fc A7E7     		b	.L2191
 10829              	.L2207:
 10830 04fe 0E4B     		ldr	r3, .L2210+44
 10831 0500 53F82430 		ldr	r3, [r3, r4, lsl #2]
 10832 0504 CAF80030 		str	r3, [r10]
 10833 0508 78E7     		b	.L2105
 10834              	.L2211:
 10835 050a 00BF     		.align	2
 10836              	.L2210:
 10837 050c 00000000 		.word	.LANCHOR35
 10838 0510 00000000 		.word	.LANCHOR31
 10839 0514 00000000 		.word	.LANCHOR32
 10840 0518 00000000 		.word	.LANCHOR6
 10841 051c 00000000 		.word	.LANCHOR37
 10842 0520 00018000 		.word	8388864
 10843 0524 00000000 		.word	crt_ram_buf
 10844 0528 00000000 		.word	dat_buffer
 10845 052c 00040258 		.word	1476527104
 10846 0530 00FC0F00 		.word	1047552
 10847 0534 00000140 		.word	1073807360
 10848 0538 00000000 		.word	.LANCHOR38
 10850              		.section	.text.zaxxon_handler,"ax",%progbits
 10851              		.align	1
 10852              		.p2align 2,,3
 10853              		.global	zaxxon_handler
 10854              		.syntax unified
 10855              		.thumb
 10856              		.thumb_func
 10857              		.fpu fpv5-sp-d16
 10859              	zaxxon_handler:
 10860              		@ args = 0, pretend = 0, frame = 0
 10861              		@ frame_needed = 0, uses_anonymous_args = 0
 10862 0000 F8B5     		push	{r3, r4, r5, r6, r7, lr}
 10863 0002 5D4B     		ldr	r3, .L2224
 10864 0004 1A69     		ldr	r2, [r3, #16]
 10865 0006 1407     		lsls	r4, r2, #28
 10866 0008 00D4     		bmi	.L2222
 10867              	.L2212:
 10868 000a F8BD     		pop	{r3, r4, r5, r6, r7, pc}
 10869              	.L2222:
 10870 000c 6FF01804 		mvn	r4, #24
ARM GAS  C:\Users\Jay\AppData\Local\Temp\ccjVRGue.s 			page 188


 10871 0010 5A48     		ldr	r0, .L2224+4
 10872 0012 5B4A     		ldr	r2, .L2224+8
 10873 0014 5B49     		ldr	r1, .L2224+12
 10874 0016 5C4F     		ldr	r7, .L2224+16
 10875 0018 1C61     		str	r4, [r3, #16]
 10876 001a 0569     		ldr	r5, [r0, #16]
 10877 001c 1469     		ldr	r4, [r2, #16]
 10878 001e 0E69     		ldr	r6, [r1, #16]
 10879 0020 3B69     		ldr	r3, [r7, #16]
 10880 0022 3B69     		ldr	r3, [r7, #16]
 10881 0024 0069     		ldr	r0, [r0, #16]
 10882 0026 1269     		ldr	r2, [r2, #16]
 10883 0028 03F03007 		and	r7, r3, #48
 10884 002c 4FEA601C 		asr	ip, r0, #5
 10885 0030 0969     		ldr	r1, [r1, #16]
 10886 0032 C2F3C032 		ubfx	r2, r2, #15, #1
 10887 0036 C011     		asrs	r0, r0, #7
 10888 0038 0CF0020C 		and	ip, ip, #2
 10889 003c 3A43     		orrs	r2, r2, r7
 10890 003e 00F00400 		and	r0, r0, #4
 10891 0042 9F11     		asrs	r7, r3, #6
 10892 0044 42EA0C02 		orr	r2, r2, ip
 10893 0048 9B10     		asrs	r3, r3, #2
 10894 004a 07F00807 		and	r7, r7, #8
 10895 004e 0243     		orrs	r2, r2, r0
 10896 0050 03F04003 		and	r3, r3, #64
 10897 0054 0804     		lsls	r0, r1, #16
 10898 0056 42EA0702 		orr	r2, r2, r7
 10899 005a 42EA0302 		orr	r2, r2, r3
 10900 005e 48BF     		it	mi
 10901 0060 62F07F02 		ornmi	r2, r2, #127
 10902 0064 D107     		lsls	r1, r2, #31
 10903 0066 6BD5     		bpl	.L2216
 10904 0068 4549     		ldr	r1, .L2224+8
 10905 006a C4F3001C 		ubfx	ip, r4, #4, #1
 10906 006e 464B     		ldr	r3, .L2224+16
 10907 0070 424A     		ldr	r2, .L2224+4
 10908 0072 1B69     		ldr	r3, [r3, #16]
 10909 0074 1269     		ldr	r2, [r2, #16]
 10910 0076 0869     		ldr	r0, [r1, #16]
 10911 0078 03F03001 		and	r1, r3, #48
 10912 007c 5711     		asrs	r7, r2, #5
 10913 007e C0F3C030 		ubfx	r0, r0, #15, #1
 10914 0082 D211     		asrs	r2, r2, #7
 10915 0084 07F00207 		and	r7, r7, #2
 10916 0088 0843     		orrs	r0, r0, r1
 10917 008a 02F00402 		and	r2, r2, #4
 10918 008e 9911     		asrs	r1, r3, #6
 10919 0090 3843     		orrs	r0, r0, r7
 10920 0092 9B10     		asrs	r3, r3, #2
 10921 0094 01F00801 		and	r1, r1, #8
 10922 0098 3A4F     		ldr	r7, .L2224+12
 10923 009a 1043     		orrs	r0, r0, r2
 10924 009c 03F04003 		and	r3, r3, #64
 10925 00a0 3A69     		ldr	r2, [r7, #16]
 10926 00a2 27B2     		sxth	r7, r4
 10927 00a4 0843     		orrs	r0, r0, r1
ARM GAS  C:\Users\Jay\AppData\Local\Temp\ccjVRGue.s 			page 189


 10928 00a6 3949     		ldr	r1, .L2224+20
 10929 00a8 1204     		lsls	r2, r2, #16
 10930 00aa 4FEAC702 		lsl	r2, r7, #3
 10931 00ae 40EA0300 		orr	r0, r0, r3
 10932 00b2 01EAC601 		and	r1, r1, r6, lsl #3
 10933 00b6 07F00403 		and	r3, r7, #4
 10934 00ba 4FEA4716 		lsl	r6, r7, #5
 10935 00be 02F48052 		and	r2, r2, #4096
 10936 00c2 48BF     		it	mi
 10937 00c4 60F07F00 		ornmi	r0, r0, #127
 10938 00c8 1943     		orrs	r1, r1, r3
 10939 00ca 06F40056 		and	r6, r6, #8192
 10940 00ce 7B00     		lsls	r3, r7, #1
 10941 00d0 3143     		orrs	r1, r1, r6
 10942 00d2 A610     		asrs	r6, r4, #2
 10943 00d4 03F40063 		and	r3, r3, #2048
 10944 00d8 1143     		orrs	r1, r1, r2
 10945 00da 3A01     		lsls	r2, r7, #4
 10946 00dc BF00     		lsls	r7, r7, #2
 10947 00de 06F00206 		and	r6, r6, #2
 10948 00e2 1943     		orrs	r1, r1, r3
 10949 00e4 02F01002 		and	r2, r2, #16
 10950 00e8 07F00807 		and	r7, r7, #8
 10951 00ec EB11     		asrs	r3, r5, #7
 10952 00ee 0A43     		orrs	r2, r2, r1
 10953 00f0 2D11     		asrs	r5, r5, #4
 10954 00f2 03F02003 		and	r3, r3, #32
 10955 00f6 E110     		asrs	r1, r4, #3
 10956 00f8 3A43     		orrs	r2, r2, r7
 10957 00fa 05F04005 		and	r5, r5, #64
 10958 00fe 6711     		asrs	r7, r4, #5
 10959 0100 01F40071 		and	r1, r1, #512
 10960 0104 42EA0C02 		orr	r2, r2, ip
 10961 0108 6410     		asrs	r4, r4, #1
 10962 010a 07F48077 		and	r7, r7, #256
 10963 010e 3243     		orrs	r2, r2, r6
 10964 0110 04F48064 		and	r4, r4, #1024
 10965 0114 1343     		orrs	r3, r3, r2
 10966 0116 2B43     		orrs	r3, r3, r5
 10967 0118 3B43     		orrs	r3, r3, r7
 10968 011a 0B43     		orrs	r3, r3, r1
 10969 011c 2343     		orrs	r3, r3, r4
 10970 011e 9CB2     		uxth	r4, r3
 10971 0120 4306     		lsls	r3, r0, #25
 10972 0122 1AD5     		bpl	.L2223
 10973 0124 0028     		cmp	r0, #0
 10974 0126 FFF670AF 		blt	.L2212
 10975 012a 194A     		ldr	r2, .L2224+24
 10976 012c C4F30D03 		ubfx	r3, r4, #0, #14
 10977 0130 1268     		ldr	r2, [r2]
 10978 0132 D05C     		ldrb	r0, [r2, r3]	@ zero_extendqisi2
 10979 0134 FFF7FEFF 		bl	c64_data_write
 10980              	.L2219:
 10981 0138 BDE8F840 		pop	{r3, r4, r5, r6, r7, lr}
 10982 013c FFF7FEBF 		b	zaxxon_handler.part.44
 10983              	.L2216:
 10984 0140 0F4B     		ldr	r3, .L2224+8
ARM GAS  C:\Users\Jay\AppData\Local\Temp\ccjVRGue.s 			page 190


 10985 0142 104A     		ldr	r2, .L2224+12
 10986 0144 1048     		ldr	r0, .L2224+16
 10987 0146 0D49     		ldr	r1, .L2224+4
 10988 0148 0069     		ldr	r0, [r0, #16]
 10989 014a 0969     		ldr	r1, [r1, #16]
 10990 014c 1969     		ldr	r1, [r3, #16]
 10991 014e 1169     		ldr	r1, [r2, #16]
 10992 0150 1049     		ldr	r1, .L2224+28
 10993 0152 0969     		ldr	r1, [r1, #16]
 10994 0154 1269     		ldr	r2, [r2, #16]
 10995 0156 1B69     		ldr	r3, [r3, #16]
 10996 0158 F8BD     		pop	{r3, r4, r5, r6, r7, pc}
 10997              	.L2223:
 10998 015a 0F4A     		ldr	r2, .L2224+32
 10999 015c C4F30B03 		ubfx	r3, r4, #0, #12
 11000 0160 1268     		ldr	r2, [r2]
 11001 0162 D05C     		ldrb	r0, [r2, r3]	@ zero_extendqisi2
 11002 0164 FFF7FEFF 		bl	c64_data_write
 11003 0168 C4F30033 		ubfx	r3, r4, #12, #1
 11004 016c 0B49     		ldr	r1, .L2224+36
 11005 016e 084A     		ldr	r2, .L2224+24
 11006 0170 51F82330 		ldr	r3, [r1, r3, lsl #2]
 11007 0174 1360     		str	r3, [r2]
 11008 0176 DFE7     		b	.L2219
 11009              	.L2225:
 11010              		.align	2
 11011              	.L2224:
 11012 0178 00000140 		.word	1073807360
 11013 017c 00080258 		.word	1476528128
 11014 0180 000C0258 		.word	1476529152
 11015 0184 00100258 		.word	1476530176
 11016 0188 00000258 		.word	1476526080
 11017 018c 00C0FFFF 		.word	-16384
 11018 0190 00000000 		.word	.LANCHOR7
 11019 0194 00040258 		.word	1476527104
 11020 0198 00000000 		.word	.LANCHOR6
 11021 019c 00000000 		.word	.LANCHOR32
 11023              		.section	.text.epyx_handler,"ax",%progbits
 11024              		.align	1
 11025              		.p2align 2,,3
 11026              		.global	epyx_handler
 11027              		.syntax unified
 11028              		.thumb
 11029              		.thumb_func
 11030              		.fpu fpv5-sp-d16
 11032              	epyx_handler:
 11033              		@ args = 0, pretend = 0, frame = 0
 11034              		@ frame_needed = 0, uses_anonymous_args = 0
 11035 0000 F8B5     		push	{r3, r4, r5, r6, r7, lr}
 11036 0002 6E4B     		ldr	r3, .L2245
 11037 0004 1A69     		ldr	r2, [r3, #16]
 11038 0006 1007     		lsls	r0, r2, #28
 11039 0008 00D4     		bmi	.L2241
 11040              	.L2226:
 11041 000a F8BD     		pop	{r3, r4, r5, r6, r7, pc}
 11042              	.L2241:
 11043 000c 6FF01804 		mvn	r4, #24
ARM GAS  C:\Users\Jay\AppData\Local\Temp\ccjVRGue.s 			page 191


 11044 0010 6B48     		ldr	r0, .L2245+4
 11045 0012 6C4A     		ldr	r2, .L2245+8
 11046 0014 6C49     		ldr	r1, .L2245+12
 11047 0016 6D4F     		ldr	r7, .L2245+16
 11048 0018 1C61     		str	r4, [r3, #16]
 11049 001a 0569     		ldr	r5, [r0, #16]
 11050 001c 1469     		ldr	r4, [r2, #16]
 11051 001e 0E69     		ldr	r6, [r1, #16]
 11052 0020 3B69     		ldr	r3, [r7, #16]
 11053 0022 3B69     		ldr	r3, [r7, #16]
 11054 0024 0069     		ldr	r0, [r0, #16]
 11055 0026 1269     		ldr	r2, [r2, #16]
 11056 0028 03F03007 		and	r7, r3, #48
 11057 002c 4FEA601C 		asr	ip, r0, #5
 11058 0030 0969     		ldr	r1, [r1, #16]
 11059 0032 C2F3C032 		ubfx	r2, r2, #15, #1
 11060 0036 C011     		asrs	r0, r0, #7
 11061 0038 0CF0020C 		and	ip, ip, #2
 11062 003c 0904     		lsls	r1, r1, #16
 11063 003e 42EA0702 		orr	r2, r2, r7
 11064 0042 00F00400 		and	r0, r0, #4
 11065 0046 4FEAA317 		asr	r7, r3, #6
 11066 004a 42EA0C02 		orr	r2, r2, ip
 11067 004e 4FEAA303 		asr	r3, r3, #2
 11068 0052 07F00807 		and	r7, r7, #8
 11069 0056 42EA0002 		orr	r2, r2, r0
 11070 005a 03F04003 		and	r3, r3, #64
 11071 005e 42EA0702 		orr	r2, r2, r7
 11072 0062 42EA0302 		orr	r2, r2, r3
 11073 0066 48BF     		it	mi
 11074 0068 62F07F02 		ornmi	r2, r2, #127
 11075 006c D307     		lsls	r3, r2, #31
 11076 006e 76D5     		bpl	.L2230
 11077 0070 5449     		ldr	r1, .L2245+8
 11078 0072 C4F3001C 		ubfx	ip, r4, #4, #1
 11079 0076 554B     		ldr	r3, .L2245+16
 11080 0078 514A     		ldr	r2, .L2245+4
 11081 007a 1B69     		ldr	r3, [r3, #16]
 11082 007c 1269     		ldr	r2, [r2, #16]
 11083 007e 0869     		ldr	r0, [r1, #16]
 11084 0080 03F03001 		and	r1, r3, #48
 11085 0084 5711     		asrs	r7, r2, #5
 11086 0086 C0F3C030 		ubfx	r0, r0, #15, #1
 11087 008a D211     		asrs	r2, r2, #7
 11088 008c 07F00207 		and	r7, r7, #2
 11089 0090 0843     		orrs	r0, r0, r1
 11090 0092 02F00402 		and	r2, r2, #4
 11091 0096 9911     		asrs	r1, r3, #6
 11092 0098 3843     		orrs	r0, r0, r7
 11093 009a 4B4F     		ldr	r7, .L2245+12
 11094 009c 01F00801 		and	r1, r1, #8
 11095 00a0 9B10     		asrs	r3, r3, #2
 11096 00a2 1043     		orrs	r0, r0, r2
 11097 00a4 3A69     		ldr	r2, [r7, #16]
 11098 00a6 03F04003 		and	r3, r3, #64
 11099 00aa 1704     		lsls	r7, r2, #16
 11100 00ac 40EA0100 		orr	r0, r0, r1
ARM GAS  C:\Users\Jay\AppData\Local\Temp\ccjVRGue.s 			page 192


 11101 00b0 27B2     		sxth	r7, r4
 11102 00b2 4749     		ldr	r1, .L2245+20
 11103 00b4 40EA0300 		orr	r0, r0, r3
 11104 00b8 01EAC601 		and	r1, r1, r6, lsl #3
 11105 00bc 07F00403 		and	r3, r7, #4
 11106 00c0 4FEA4716 		lsl	r6, r7, #5
 11107 00c4 48BF     		it	mi
 11108 00c6 60F07F00 		ornmi	r0, r0, #127
 11109 00ca 1943     		orrs	r1, r1, r3
 11110 00cc FA00     		lsls	r2, r7, #3
 11111 00ce 06F40056 		and	r6, r6, #8192
 11112 00d2 7B00     		lsls	r3, r7, #1
 11113 00d4 02F48052 		and	r2, r2, #4096
 11114 00d8 C0B2     		uxtb	r0, r0
 11115 00da 3143     		orrs	r1, r1, r6
 11116 00dc 03F40063 		and	r3, r3, #2048
 11117 00e0 A610     		asrs	r6, r4, #2
 11118 00e2 1143     		orrs	r1, r1, r2
 11119 00e4 3A01     		lsls	r2, r7, #4
 11120 00e6 BF00     		lsls	r7, r7, #2
 11121 00e8 06F00206 		and	r6, r6, #2
 11122 00ec 1943     		orrs	r1, r1, r3
 11123 00ee 02F01002 		and	r2, r2, #16
 11124 00f2 07F00807 		and	r7, r7, #8
 11125 00f6 EB11     		asrs	r3, r5, #7
 11126 00f8 0A43     		orrs	r2, r2, r1
 11127 00fa 2D11     		asrs	r5, r5, #4
 11128 00fc 03F02003 		and	r3, r3, #32
 11129 0100 E110     		asrs	r1, r4, #3
 11130 0102 3A43     		orrs	r2, r2, r7
 11131 0104 05F04005 		and	r5, r5, #64
 11132 0108 6711     		asrs	r7, r4, #5
 11133 010a 01F40071 		and	r1, r1, #512
 11134 010e 42EA0C02 		orr	r2, r2, ip
 11135 0112 6410     		asrs	r4, r4, #1
 11136 0114 07F48077 		and	r7, r7, #256
 11137 0118 3243     		orrs	r2, r2, r6
 11138 011a 04F48064 		and	r4, r4, #1024
 11139 011e 1343     		orrs	r3, r3, r2
 11140 0120 2B43     		orrs	r3, r3, r5
 11141 0122 3B43     		orrs	r3, r3, r7
 11142 0124 0B43     		orrs	r3, r3, r1
 11143 0126 4106     		lsls	r1, r0, #25
 11144 0128 43EA0403 		orr	r3, r3, r4
 11145 012c 9BB2     		uxth	r3, r3
 11146 012e 23D5     		bpl	.L2242
 11147 0130 4207     		lsls	r2, r0, #29
 11148 0132 3AD5     		bpl	.L2243
 11149 0134 8307     		lsls	r3, r0, #30
 11150 0136 2ED5     		bpl	.L2244
 11151 0138 264A     		ldr	r2, .L2245+24
 11152 013a 1388     		ldrh	r3, [r2]
 11153 013c 002B     		cmp	r3, #0
 11154 013e 3FF464AF 		beq	.L2226
 11155 0142 013B     		subs	r3, r3, #1
 11156 0144 9BB2     		uxth	r3, r3
 11157 0146 1380     		strh	r3, [r2]	@ movhi
ARM GAS  C:\Users\Jay\AppData\Local\Temp\ccjVRGue.s 			page 193


 11158 0148 002B     		cmp	r3, #0
 11159 014a 7FF45EAF 		bne	.L2226
 11160 014e 1E4B     		ldr	r3, .L2245+12
 11161 0150 4FF48001 		mov	r1, #4194304
 11162 0154 4FF4C072 		mov	r2, #384
 11163 0158 9961     		str	r1, [r3, #24]
 11164 015a 9A61     		str	r2, [r3, #24]
 11165 015c F8BD     		pop	{r3, r4, r5, r6, r7, pc}
 11166              	.L2230:
 11167 015e 194B     		ldr	r3, .L2245+8
 11168 0160 194A     		ldr	r2, .L2245+12
 11169 0162 1A48     		ldr	r0, .L2245+16
 11170 0164 1649     		ldr	r1, .L2245+4
 11171 0166 0069     		ldr	r0, [r0, #16]
 11172 0168 0969     		ldr	r1, [r1, #16]
 11173 016a 1969     		ldr	r1, [r3, #16]
 11174 016c 1169     		ldr	r1, [r2, #16]
 11175 016e 1A49     		ldr	r1, .L2245+28
 11176 0170 0969     		ldr	r1, [r1, #16]
 11177 0172 1269     		ldr	r2, [r2, #16]
 11178 0174 1B69     		ldr	r3, [r3, #16]
 11179 0176 F8BD     		pop	{r3, r4, r5, r6, r7, pc}
 11180              	.L2242:
 11181 0178 184A     		ldr	r2, .L2245+32
 11182 017a 4FF40070 		mov	r0, #512
 11183 017e C3F30C03 		ubfx	r3, r3, #0, #13
 11184 0182 1449     		ldr	r1, .L2245+24
 11185 0184 1268     		ldr	r2, [r2]
 11186 0186 0880     		strh	r0, [r1]	@ movhi
 11187 0188 D05C     		ldrb	r0, [r2, r3]	@ zero_extendqisi2
 11188 018a FFF7FEFF 		bl	c64_data_write
 11189              	.L2233:
 11190 018e BDE8F840 		pop	{r3, r4, r5, r6, r7, lr}
 11191 0192 FFF7FEBF 		b	epyx_handler.part.38
 11192              	.L2244:
 11193 0196 0C4B     		ldr	r3, .L2245+12
 11194 0198 4FF40074 		mov	r4, #512
 11195 019c 0D48     		ldr	r0, .L2245+24
 11196 019e 4021     		movs	r1, #64
 11197 01a0 0F4A     		ldr	r2, .L2245+36
 11198 01a2 0480     		strh	r4, [r0]	@ movhi
 11199 01a4 9961     		str	r1, [r3, #24]
 11200 01a6 9A61     		str	r2, [r3, #24]
 11201 01a8 F8BD     		pop	{r3, r4, r5, r6, r7, pc}
 11202              	.L2243:
 11203 01aa 0C4A     		ldr	r2, .L2245+32
 11204 01ac C3F30C03 		ubfx	r3, r3, #0, #13
 11205 01b0 1268     		ldr	r2, [r2]
 11206 01b2 D05C     		ldrb	r0, [r2, r3]	@ zero_extendqisi2
 11207 01b4 FFF7FEFF 		bl	c64_data_write
 11208 01b8 E9E7     		b	.L2233
 11209              	.L2246:
 11210 01ba 00BF     		.align	2
 11211              	.L2245:
 11212 01bc 00000140 		.word	1073807360
 11213 01c0 00080258 		.word	1476528128
 11214 01c4 000C0258 		.word	1476529152
ARM GAS  C:\Users\Jay\AppData\Local\Temp\ccjVRGue.s 			page 194


 11215 01c8 00100258 		.word	1476530176
 11216 01cc 00000258 		.word	1476526080
 11217 01d0 00C0FFFF 		.word	-16384
 11218 01d4 00000000 		.word	.LANCHOR39
 11219 01d8 00040258 		.word	1476527104
 11220 01dc 00000000 		.word	.LANCHOR7
 11221 01e0 80000001 		.word	16777344
 11223              		.section	.text.dinamic_handler,"ax",%progbits
 11224              		.align	1
 11225              		.p2align 2,,3
 11226              		.global	dinamic_handler
 11227              		.syntax unified
 11228              		.thumb
 11229              		.thumb_func
 11230              		.fpu fpv5-sp-d16
 11232              	dinamic_handler:
 11233              		@ args = 0, pretend = 0, frame = 0
 11234              		@ frame_needed = 0, uses_anonymous_args = 0
 11235 0000 F8B5     		push	{r3, r4, r5, r6, r7, lr}
 11236 0002 5D4B     		ldr	r3, .L2258
 11237 0004 1A69     		ldr	r2, [r3, #16]
 11238 0006 1007     		lsls	r0, r2, #28
 11239 0008 00D4     		bmi	.L2256
 11240              	.L2247:
 11241 000a F8BD     		pop	{r3, r4, r5, r6, r7, pc}
 11242              	.L2256:
 11243 000c 6FF01804 		mvn	r4, #24
 11244 0010 5A48     		ldr	r0, .L2258+4
 11245 0012 5B4A     		ldr	r2, .L2258+8
 11246 0014 5B49     		ldr	r1, .L2258+12
 11247 0016 5C4F     		ldr	r7, .L2258+16
 11248 0018 1C61     		str	r4, [r3, #16]
 11249 001a 0569     		ldr	r5, [r0, #16]
 11250 001c 1469     		ldr	r4, [r2, #16]
 11251 001e 0E69     		ldr	r6, [r1, #16]
 11252 0020 3B69     		ldr	r3, [r7, #16]
 11253 0022 3B69     		ldr	r3, [r7, #16]
 11254 0024 0069     		ldr	r0, [r0, #16]
 11255 0026 1269     		ldr	r2, [r2, #16]
 11256 0028 03F03007 		and	r7, r3, #48
 11257 002c 4FEA601C 		asr	ip, r0, #5
 11258 0030 0969     		ldr	r1, [r1, #16]
 11259 0032 C2F3C032 		ubfx	r2, r2, #15, #1
 11260 0036 C011     		asrs	r0, r0, #7
 11261 0038 0CF0020C 		and	ip, ip, #2
 11262 003c 0904     		lsls	r1, r1, #16
 11263 003e 42EA0702 		orr	r2, r2, r7
 11264 0042 00F00400 		and	r0, r0, #4
 11265 0046 4FEAA317 		asr	r7, r3, #6
 11266 004a 42EA0C02 		orr	r2, r2, ip
 11267 004e 4FEAA303 		asr	r3, r3, #2
 11268 0052 07F00807 		and	r7, r7, #8
 11269 0056 42EA0002 		orr	r2, r2, r0
 11270 005a 03F04003 		and	r3, r3, #64
 11271 005e 42EA0702 		orr	r2, r2, r7
 11272 0062 42EA0302 		orr	r2, r2, r3
 11273 0066 48BF     		it	mi
ARM GAS  C:\Users\Jay\AppData\Local\Temp\ccjVRGue.s 			page 195


 11274 0068 62F07F02 		ornmi	r2, r2, #127
 11275 006c D307     		lsls	r3, r2, #31
 11276 006e 6AD5     		bpl	.L2251
 11277 0070 4349     		ldr	r1, .L2258+8
 11278 0072 C4F3001C 		ubfx	ip, r4, #4, #1
 11279 0076 444B     		ldr	r3, .L2258+16
 11280 0078 404A     		ldr	r2, .L2258+4
 11281 007a 1B69     		ldr	r3, [r3, #16]
 11282 007c 1269     		ldr	r2, [r2, #16]
 11283 007e 0869     		ldr	r0, [r1, #16]
 11284 0080 03F03001 		and	r1, r3, #48
 11285 0084 5711     		asrs	r7, r2, #5
 11286 0086 C0F3C030 		ubfx	r0, r0, #15, #1
 11287 008a D211     		asrs	r2, r2, #7
 11288 008c 07F00207 		and	r7, r7, #2
 11289 0090 0843     		orrs	r0, r0, r1
 11290 0092 02F00402 		and	r2, r2, #4
 11291 0096 9911     		asrs	r1, r3, #6
 11292 0098 3843     		orrs	r0, r0, r7
 11293 009a 3A4F     		ldr	r7, .L2258+12
 11294 009c 01F00801 		and	r1, r1, #8
 11295 00a0 9B10     		asrs	r3, r3, #2
 11296 00a2 1043     		orrs	r0, r0, r2
 11297 00a4 3A69     		ldr	r2, [r7, #16]
 11298 00a6 03F04003 		and	r3, r3, #64
 11299 00aa 1704     		lsls	r7, r2, #16
 11300 00ac 40EA0100 		orr	r0, r0, r1
 11301 00b0 27B2     		sxth	r7, r4
 11302 00b2 3649     		ldr	r1, .L2258+20
 11303 00b4 40EA0300 		orr	r0, r0, r3
 11304 00b8 01EAC601 		and	r1, r1, r6, lsl #3
 11305 00bc 07F00403 		and	r3, r7, #4
 11306 00c0 4FEA4716 		lsl	r6, r7, #5
 11307 00c4 48BF     		it	mi
 11308 00c6 60F07F00 		ornmi	r0, r0, #127
 11309 00ca 1943     		orrs	r1, r1, r3
 11310 00cc FA00     		lsls	r2, r7, #3
 11311 00ce 06F40056 		and	r6, r6, #8192
 11312 00d2 7B00     		lsls	r3, r7, #1
 11313 00d4 02F48052 		and	r2, r2, #4096
 11314 00d8 C0B2     		uxtb	r0, r0
 11315 00da 3143     		orrs	r1, r1, r6
 11316 00dc 03F40063 		and	r3, r3, #2048
 11317 00e0 A610     		asrs	r6, r4, #2
 11318 00e2 1143     		orrs	r1, r1, r2
 11319 00e4 3A01     		lsls	r2, r7, #4
 11320 00e6 BF00     		lsls	r7, r7, #2
 11321 00e8 06F00206 		and	r6, r6, #2
 11322 00ec 1943     		orrs	r1, r1, r3
 11323 00ee 02F01002 		and	r2, r2, #16
 11324 00f2 07F00807 		and	r7, r7, #8
 11325 00f6 EB11     		asrs	r3, r5, #7
 11326 00f8 0A43     		orrs	r2, r2, r1
 11327 00fa 2D11     		asrs	r5, r5, #4
 11328 00fc 03F02003 		and	r3, r3, #32
 11329 0100 E110     		asrs	r1, r4, #3
 11330 0102 3A43     		orrs	r2, r2, r7
ARM GAS  C:\Users\Jay\AppData\Local\Temp\ccjVRGue.s 			page 196


 11331 0104 05F04005 		and	r5, r5, #64
 11332 0108 6711     		asrs	r7, r4, #5
 11333 010a 01F40071 		and	r1, r1, #512
 11334 010e 42EA0C02 		orr	r2, r2, ip
 11335 0112 6410     		asrs	r4, r4, #1
 11336 0114 07F48077 		and	r7, r7, #256
 11337 0118 3243     		orrs	r2, r2, r6
 11338 011a 04F48064 		and	r4, r4, #1024
 11339 011e 1343     		orrs	r3, r3, r2
 11340 0120 2B43     		orrs	r3, r3, r5
 11341 0122 3B43     		orrs	r3, r3, r7
 11342 0124 0B43     		orrs	r3, r3, r1
 11343 0126 4106     		lsls	r1, r0, #25
 11344 0128 43EA0403 		orr	r3, r3, r4
 11345 012c 9BB2     		uxth	r3, r3
 11346 012e 17D5     		bpl	.L2257
 11347 0130 8207     		lsls	r2, r0, #30
 11348 0132 3FF56AAF 		bmi	.L2247
 11349 0136 03F03F03 		and	r3, r3, #63
 11350 013a 1549     		ldr	r1, .L2258+24
 11351 013c 154A     		ldr	r2, .L2258+28
 11352 013e 51F82330 		ldr	r3, [r1, r3, lsl #2]
 11353 0142 1360     		str	r3, [r2]
 11354 0144 F8BD     		pop	{r3, r4, r5, r6, r7, pc}
 11355              	.L2251:
 11356 0146 0E4B     		ldr	r3, .L2258+8
 11357 0148 0E4A     		ldr	r2, .L2258+12
 11358 014a 0F48     		ldr	r0, .L2258+16
 11359 014c 0B49     		ldr	r1, .L2258+4
 11360 014e 0069     		ldr	r0, [r0, #16]
 11361 0150 0969     		ldr	r1, [r1, #16]
 11362 0152 1969     		ldr	r1, [r3, #16]
 11363 0154 1169     		ldr	r1, [r2, #16]
 11364 0156 1049     		ldr	r1, .L2258+32
 11365 0158 0969     		ldr	r1, [r1, #16]
 11366 015a 1269     		ldr	r2, [r2, #16]
 11367 015c 1B69     		ldr	r3, [r3, #16]
 11368 015e F8BD     		pop	{r3, r4, r5, r6, r7, pc}
 11369              	.L2257:
 11370 0160 0C4A     		ldr	r2, .L2258+28
 11371 0162 C3F30C03 		ubfx	r3, r3, #0, #13
 11372 0166 1268     		ldr	r2, [r2]
 11373 0168 D05C     		ldrb	r0, [r2, r3]	@ zero_extendqisi2
 11374 016a FFF7FEFF 		bl	c64_data_write
 11375 016e BDE8F840 		pop	{r3, r4, r5, r6, r7, lr}
 11376 0172 FFF7FEBF 		b	dinamic_handler.part.42
 11377              	.L2259:
 11378 0176 00BF     		.align	2
 11379              	.L2258:
 11380 0178 00000140 		.word	1073807360
 11381 017c 00080258 		.word	1476528128
 11382 0180 000C0258 		.word	1476529152
 11383 0184 00100258 		.word	1476530176
 11384 0188 00000258 		.word	1476526080
 11385 018c 00C0FFFF 		.word	-16384
 11386 0190 00000000 		.word	.LANCHOR32
 11387 0194 00000000 		.word	.LANCHOR7
ARM GAS  C:\Users\Jay\AppData\Local\Temp\ccjVRGue.s 			page 197


 11388 0198 00040258 		.word	1476527104
 11390              		.section	.text.comal80_handler,"ax",%progbits
 11391              		.align	1
 11392              		.p2align 2,,3
 11393              		.global	comal80_handler
 11394              		.syntax unified
 11395              		.thumb
 11396              		.thumb_func
 11397              		.fpu fpv5-sp-d16
 11399              	comal80_handler:
 11400              		@ args = 0, pretend = 0, frame = 0
 11401              		@ frame_needed = 0, uses_anonymous_args = 0
 11402 0000 F8B5     		push	{r3, r4, r5, r6, r7, lr}
 11403 0002 864B     		ldr	r3, .L2282
 11404 0004 1A69     		ldr	r2, [r3, #16]
 11405 0006 1107     		lsls	r1, r2, #28
 11406 0008 00D4     		bmi	.L2280
 11407              	.L2260:
 11408 000a F8BD     		pop	{r3, r4, r5, r6, r7, pc}
 11409              	.L2280:
 11410 000c 6FF01800 		mvn	r0, #24
 11411 0010 834E     		ldr	r6, .L2282+4
 11412 0012 844F     		ldr	r7, .L2282+8
 11413 0014 8449     		ldr	r1, .L2282+12
 11414 0016 854A     		ldr	r2, .L2282+16
 11415 0018 1861     		str	r0, [r3, #16]
 11416 001a 3469     		ldr	r4, [r6, #16]
 11417 001c 3869     		ldr	r0, [r7, #16]
 11418 001e 0D69     		ldr	r5, [r1, #16]
 11419 0020 1369     		ldr	r3, [r2, #16]
 11420 0022 1269     		ldr	r2, [r2, #16]
 11421 0024 3669     		ldr	r6, [r6, #16]
 11422 0026 3B69     		ldr	r3, [r7, #16]
 11423 0028 02F03007 		and	r7, r2, #48
 11424 002c 4FEA661C 		asr	ip, r6, #5
 11425 0030 0969     		ldr	r1, [r1, #16]
 11426 0032 C3F3C033 		ubfx	r3, r3, #15, #1
 11427 0036 F611     		asrs	r6, r6, #7
 11428 0038 0CF0020C 		and	ip, ip, #2
 11429 003c 3B43     		orrs	r3, r3, r7
 11430 003e 06F00406 		and	r6, r6, #4
 11431 0042 9711     		asrs	r7, r2, #6
 11432 0044 43EA0C03 		orr	r3, r3, ip
 11433 0048 9210     		asrs	r2, r2, #2
 11434 004a 07F00807 		and	r7, r7, #8
 11435 004e 3343     		orrs	r3, r3, r6
 11436 0050 02F04002 		and	r2, r2, #64
 11437 0054 3B43     		orrs	r3, r3, r7
 11438 0056 1343     		orrs	r3, r3, r2
 11439 0058 0A04     		lsls	r2, r1, #16
 11440 005a 48BF     		it	mi
 11441 005c 63F07F03 		ornmi	r3, r3, #127
 11442 0060 DF07     		lsls	r7, r3, #31
 11443 0062 78D5     		bpl	.L2264
 11444 0064 714A     		ldr	r2, .L2282+16
 11445 0066 6E49     		ldr	r1, .L2282+4
 11446 0068 6E4B     		ldr	r3, .L2282+8
ARM GAS  C:\Users\Jay\AppData\Local\Temp\ccjVRGue.s 			page 198


 11447 006a 1269     		ldr	r2, [r2, #16]
 11448 006c 0969     		ldr	r1, [r1, #16]
 11449 006e 1B69     		ldr	r3, [r3, #16]
 11450 0070 02F03006 		and	r6, r2, #48
 11451 0074 4F11     		asrs	r7, r1, #5
 11452 0076 C3F3C033 		ubfx	r3, r3, #15, #1
 11453 007a C911     		asrs	r1, r1, #7
 11454 007c 07F00207 		and	r7, r7, #2
 11455 0080 3343     		orrs	r3, r3, r6
 11456 0082 01F00401 		and	r1, r1, #4
 11457 0086 9611     		asrs	r6, r2, #6
 11458 0088 3B43     		orrs	r3, r3, r7
 11459 008a 9210     		asrs	r2, r2, #2
 11460 008c 06F00806 		and	r6, r6, #8
 11461 0090 654F     		ldr	r7, .L2282+12
 11462 0092 0B43     		orrs	r3, r3, r1
 11463 0094 02F04002 		and	r2, r2, #64
 11464 0098 3969     		ldr	r1, [r7, #16]
 11465 009a 3343     		orrs	r3, r3, r6
 11466 009c 0E04     		lsls	r6, r1, #16
 11467 009e 43EA0203 		orr	r3, r3, r2
 11468 00a2 48BF     		it	mi
 11469 00a4 63F07F03 		ornmi	r3, r3, #127
 11470 00a8 03F0C003 		and	r3, r3, #192
 11471 00ac C02B     		cmp	r3, #192
 11472 00ae ACD0     		beq	.L2260
 11473 00b0 06B2     		sxth	r6, r0
 11474 00b2 5F49     		ldr	r1, .L2282+20
 11475 00b4 C0F30017 		ubfx	r7, r0, #4, #1
 11476 00b8 4FEAA00C 		asr	ip, r0, #2
 11477 00bc 06F00403 		and	r3, r6, #4
 11478 00c0 01EAC501 		and	r1, r1, r5, lsl #3
 11479 00c4 7501     		lsls	r5, r6, #5
 11480 00c6 0CF0020C 		and	ip, ip, #2
 11481 00ca 1943     		orrs	r1, r1, r3
 11482 00cc F200     		lsls	r2, r6, #3
 11483 00ce 05F40055 		and	r5, r5, #8192
 11484 00d2 7300     		lsls	r3, r6, #1
 11485 00d4 02F48052 		and	r2, r2, #4096
 11486 00d8 2943     		orrs	r1, r1, r5
 11487 00da 03F40063 		and	r3, r3, #2048
 11488 00de 4511     		asrs	r5, r0, #5
 11489 00e0 1143     		orrs	r1, r1, r2
 11490 00e2 3201     		lsls	r2, r6, #4
 11491 00e4 B600     		lsls	r6, r6, #2
 11492 00e6 05F48075 		and	r5, r5, #256
 11493 00ea 1943     		orrs	r1, r1, r3
 11494 00ec 02F01002 		and	r2, r2, #16
 11495 00f0 06F00806 		and	r6, r6, #8
 11496 00f4 E311     		asrs	r3, r4, #7
 11497 00f6 0A43     		orrs	r2, r2, r1
 11498 00f8 2411     		asrs	r4, r4, #4
 11499 00fa 03F02003 		and	r3, r3, #32
 11500 00fe C110     		asrs	r1, r0, #3
 11501 0100 3243     		orrs	r2, r2, r6
 11502 0102 04F04004 		and	r4, r4, #64
 11503 0106 01F40071 		and	r1, r1, #512
ARM GAS  C:\Users\Jay\AppData\Local\Temp\ccjVRGue.s 			page 199


 11504 010a 4010     		asrs	r0, r0, #1
 11505 010c 3A43     		orrs	r2, r2, r7
 11506 010e 494E     		ldr	r6, .L2282+24
 11507 0110 00F48060 		and	r0, r0, #1024
 11508 0114 42EA0C02 		orr	r2, r2, ip
 11509 0118 1343     		orrs	r3, r3, r2
 11510 011a 3268     		ldr	r2, [r6]
 11511 011c 2343     		orrs	r3, r3, r4
 11512 011e 2B43     		orrs	r3, r3, r5
 11513 0120 0B43     		orrs	r3, r3, r1
 11514 0122 0343     		orrs	r3, r3, r0
 11515 0124 C3F30D03 		ubfx	r3, r3, #0, #14
 11516 0128 D05C     		ldrb	r0, [r2, r3]	@ zero_extendqisi2
 11517 012a FFF7FEFF 		bl	c64_data_write
 11518 012e 3B4A     		ldr	r2, .L2282
 11519              	.L2267:
 11520 0130 1369     		ldr	r3, [r2, #16]
 11521 0132 DC06     		lsls	r4, r3, #27
 11522 0134 FCD5     		bpl	.L2267
 11523 0136 3C4C     		ldr	r4, .L2282+12
 11524 0138 3F48     		ldr	r0, .L2282+28
 11525 013a 2268     		ldr	r2, [r4]
 11526 013c 3F4B     		ldr	r3, .L2282+32
 11527 013e 22F00F02 		bic	r2, r2, #15
 11528 0142 3849     		ldr	r1, .L2282+8
 11529 0144 2260     		str	r2, [r4]
 11530 0146 0268     		ldr	r2, [r0]
 11531 0148 1340     		ands	r3, r3, r2
 11532 014a 0360     		str	r3, [r0]
 11533 014c 0B68     		ldr	r3, [r1]
 11534 014e 23F44063 		bic	r3, r3, #3072
 11535 0152 0B60     		str	r3, [r1]
 11536 0154 F8BD     		pop	{r3, r4, r5, r6, r7, pc}
 11537              	.L2264:
 11538 0156 354A     		ldr	r2, .L2282+16
 11539 0158 3149     		ldr	r1, .L2282+4
 11540 015a 324B     		ldr	r3, .L2282+8
 11541 015c 1269     		ldr	r2, [r2, #16]
 11542 015e 0969     		ldr	r1, [r1, #16]
 11543 0160 1B69     		ldr	r3, [r3, #16]
 11544 0162 02F03000 		and	r0, r2, #48
 11545 0166 4D11     		asrs	r5, r1, #5
 11546 0168 2F4C     		ldr	r4, .L2282+12
 11547 016a C3F3C033 		ubfx	r3, r3, #15, #1
 11548 016e C911     		asrs	r1, r1, #7
 11549 0170 05F00205 		and	r5, r5, #2
 11550 0174 2469     		ldr	r4, [r4, #16]
 11551 0176 0343     		orrs	r3, r3, r0
 11552 0178 01F00401 		and	r1, r1, #4
 11553 017c 9011     		asrs	r0, r2, #6
 11554 017e 2B43     		orrs	r3, r3, r5
 11555 0180 9210     		asrs	r2, r2, #2
 11556 0182 00F00800 		and	r0, r0, #8
 11557 0186 0B43     		orrs	r3, r3, r1
 11558 0188 02F04002 		and	r2, r2, #64
 11559 018c 0343     		orrs	r3, r3, r0
 11560 018e 2004     		lsls	r0, r4, #16
ARM GAS  C:\Users\Jay\AppData\Local\Temp\ccjVRGue.s 			page 200


 11561 0190 43EA0203 		orr	r3, r3, r2
 11562 0194 48BF     		it	mi
 11563 0196 63F07F03 		ornmi	r3, r3, #127
 11564 019a DAB2     		uxtb	r2, r3
 11565 019c 2649     		ldr	r1, .L2282+28
 11566 019e 224B     		ldr	r3, .L2282+12
 11567 01a0 0969     		ldr	r1, [r1, #16]
 11568 01a2 1B69     		ldr	r3, [r3, #16]
 11569 01a4 CD11     		asrs	r5, r1, #7
 11570 01a6 1F48     		ldr	r0, .L2282+8
 11571 01a8 5E00     		lsls	r6, r3, #1
 11572 01aa C3F34003 		ubfx	r3, r3, #1, #1
 11573 01ae 05F00405 		and	r5, r5, #4
 11574 01b2 0469     		ldr	r4, [r0, #16]
 11575 01b4 06F00206 		and	r6, r6, #2
 11576 01b8 4811     		asrs	r0, r1, #5
 11577 01ba 3343     		orrs	r3, r3, r6
 11578 01bc 00F00800 		and	r0, r0, #8
 11579 01c0 2B43     		orrs	r3, r3, r5
 11580 01c2 CD10     		asrs	r5, r1, #3
 11581 01c4 0343     		orrs	r3, r3, r0
 11582 01c6 05F01005 		and	r5, r5, #16
 11583 01ca 4810     		asrs	r0, r1, #1
 11584 01cc 2B43     		orrs	r3, r3, r5
 11585 01ce 4900     		lsls	r1, r1, #1
 11586 01d0 00F02000 		and	r0, r0, #32
 11587 01d4 01F04001 		and	r1, r1, #64
 11588 01d8 0343     		orrs	r3, r3, r0
 11589 01da 0B43     		orrs	r3, r3, r1
 11590 01dc A106     		lsls	r1, r4, #26
 11591 01de 48BF     		it	mi
 11592 01e0 63F07F03 		ornmi	r3, r3, #127
 11593 01e4 9207     		lsls	r2, r2, #30
 11594 01e6 3FF510AF 		bmi	.L2260
 11595 01ea DBB2     		uxtb	r3, r3
 11596 01ec 1449     		ldr	r1, .L2282+36
 11597 01ee 114A     		ldr	r2, .L2282+24
 11598 01f0 03F00700 		and	r0, r3, #7
 11599 01f4 13F0400F 		tst	r3, #64
 11600 01f8 0B4B     		ldr	r3, .L2282+12
 11601 01fa 51F82010 		ldr	r1, [r1, r0, lsl #2]
 11602 01fe 1160     		str	r1, [r2]
 11603 0200 05D1     		bne	.L2281
 11604 0202 4021     		movs	r1, #64
 11605 0204 4FF0C072 		mov	r2, #25165824
 11606 0208 9961     		str	r1, [r3, #24]
 11607 020a 9A61     		str	r2, [r3, #24]
 11608 020c F8BD     		pop	{r3, r4, r5, r6, r7, pc}
 11609              	.L2281:
 11610 020e 4FF48001 		mov	r1, #4194304
 11611 0212 4FF4C072 		mov	r2, #384
 11612 0216 9961     		str	r1, [r3, #24]
 11613 0218 9A61     		str	r2, [r3, #24]
 11614 021a F8BD     		pop	{r3, r4, r5, r6, r7, pc}
 11615              	.L2283:
 11616              		.align	2
 11617              	.L2282:
ARM GAS  C:\Users\Jay\AppData\Local\Temp\ccjVRGue.s 			page 201


 11618 021c 00000140 		.word	1073807360
 11619 0220 00080258 		.word	1476528128
 11620 0224 000C0258 		.word	1476529152
 11621 0228 00100258 		.word	1476530176
 11622 022c 00000258 		.word	1476526080
 11623 0230 00C0FFFF 		.word	-16384
 11624 0234 00000000 		.word	.LANCHOR7
 11625 0238 00040258 		.word	1476527104
 11626 023c FF03F0FF 		.word	-1047553
 11627 0240 00000000 		.word	.LANCHOR32
 11629              		.section	.text.simons_basic_handler,"ax",%progbits
 11630              		.align	1
 11631              		.p2align 2,,3
 11632              		.global	simons_basic_handler
 11633              		.syntax unified
 11634              		.thumb
 11635              		.thumb_func
 11636              		.fpu fpv5-sp-d16
 11638              	simons_basic_handler:
 11639              		@ args = 0, pretend = 0, frame = 0
 11640              		@ frame_needed = 0, uses_anonymous_args = 0
 11641 0000 F8B5     		push	{r3, r4, r5, r6, r7, lr}
 11642 0002 694B     		ldr	r3, .L2296
 11643 0004 1A69     		ldr	r2, [r3, #16]
 11644 0006 1707     		lsls	r7, r2, #28
 11645 0008 00D4     		bmi	.L2294
 11646              	.L2284:
 11647 000a F8BD     		pop	{r3, r4, r5, r6, r7, pc}
 11648              	.L2294:
 11649 000c 6FF01802 		mvn	r2, #24
 11650 0010 664E     		ldr	r6, .L2296+4
 11651 0012 674F     		ldr	r7, .L2296+8
 11652 0014 674D     		ldr	r5, .L2296+12
 11653 0016 684C     		ldr	r4, .L2296+16
 11654 0018 1A61     		str	r2, [r3, #16]
 11655 001a 3169     		ldr	r1, [r6, #16]
 11656 001c 3A69     		ldr	r2, [r7, #16]
 11657 001e 2869     		ldr	r0, [r5, #16]
 11658 0020 2369     		ldr	r3, [r4, #16]
 11659 0022 2469     		ldr	r4, [r4, #16]
 11660 0024 3669     		ldr	r6, [r6, #16]
 11661 0026 3B69     		ldr	r3, [r7, #16]
 11662 0028 04F03007 		and	r7, r4, #48
 11663 002c 4FEA661C 		asr	ip, r6, #5
 11664 0030 2D69     		ldr	r5, [r5, #16]
 11665 0032 C3F3C033 		ubfx	r3, r3, #15, #1
 11666 0036 F611     		asrs	r6, r6, #7
 11667 0038 0CF0020C 		and	ip, ip, #2
 11668 003c 3B43     		orrs	r3, r3, r7
 11669 003e 06F00406 		and	r6, r6, #4
 11670 0042 A711     		asrs	r7, r4, #6
 11671 0044 43EA0C03 		orr	r3, r3, ip
 11672 0048 A410     		asrs	r4, r4, #2
 11673 004a 07F00807 		and	r7, r7, #8
 11674 004e 3343     		orrs	r3, r3, r6
 11675 0050 04F04004 		and	r4, r4, #64
 11676 0054 2E04     		lsls	r6, r5, #16
ARM GAS  C:\Users\Jay\AppData\Local\Temp\ccjVRGue.s 			page 202


 11677 0056 43EA0703 		orr	r3, r3, r7
 11678 005a 43EA0403 		orr	r3, r3, r4
 11679 005e 48BF     		it	mi
 11680 0060 63F07F03 		ornmi	r3, r3, #127
 11681 0064 DD07     		lsls	r5, r3, #31
 11682 0066 2DD5     		bpl	.L2288
 11683 0068 534C     		ldr	r4, .L2296+16
 11684 006a 504D     		ldr	r5, .L2296+4
 11685 006c 504B     		ldr	r3, .L2296+8
 11686 006e 2469     		ldr	r4, [r4, #16]
 11687 0070 2D69     		ldr	r5, [r5, #16]
 11688 0072 1B69     		ldr	r3, [r3, #16]
 11689 0074 04F03006 		and	r6, r4, #48
 11690 0078 6F11     		asrs	r7, r5, #5
 11691 007a C3F3C033 		ubfx	r3, r3, #15, #1
 11692 007e ED11     		asrs	r5, r5, #7
 11693 0080 07F00207 		and	r7, r7, #2
 11694 0084 3343     		orrs	r3, r3, r6
 11695 0086 05F00405 		and	r5, r5, #4
 11696 008a A611     		asrs	r6, r4, #6
 11697 008c 3B43     		orrs	r3, r3, r7
 11698 008e A410     		asrs	r4, r4, #2
 11699 0090 06F00806 		and	r6, r6, #8
 11700 0094 474F     		ldr	r7, .L2296+12
 11701 0096 2B43     		orrs	r3, r3, r5
 11702 0098 04F04004 		and	r4, r4, #64
 11703 009c 3D69     		ldr	r5, [r7, #16]
 11704 009e 3343     		orrs	r3, r3, r6
 11705 00a0 2343     		orrs	r3, r3, r4
 11706 00a2 2C04     		lsls	r4, r5, #16
 11707 00a4 48BF     		it	mi
 11708 00a6 63F07F03 		ornmi	r3, r3, #127
 11709 00aa DBB2     		uxtb	r3, r3
 11710 00ac 03F0C004 		and	r4, r3, #192
 11711 00b0 C02C     		cmp	r4, #192
 11712 00b2 37D1     		bne	.L2295
 11713 00b4 9907     		lsls	r1, r3, #30
 11714 00b6 A8D4     		bmi	.L2284
 11715 00b8 3E4B     		ldr	r3, .L2296+12
 11716 00ba 4021     		movs	r1, #64
 11717 00bc 3F4A     		ldr	r2, .L2296+20
 11718 00be 9961     		str	r1, [r3, #24]
 11719 00c0 9A61     		str	r2, [r3, #24]
 11720 00c2 F8BD     		pop	{r3, r4, r5, r6, r7, pc}
 11721              	.L2288:
 11722 00c4 3C4A     		ldr	r2, .L2296+16
 11723 00c6 3949     		ldr	r1, .L2296+4
 11724 00c8 394B     		ldr	r3, .L2296+8
 11725 00ca 1269     		ldr	r2, [r2, #16]
 11726 00cc 0969     		ldr	r1, [r1, #16]
 11727 00ce 1B69     		ldr	r3, [r3, #16]
 11728 00d0 02F03000 		and	r0, r2, #48
 11729 00d4 4D11     		asrs	r5, r1, #5
 11730 00d6 374C     		ldr	r4, .L2296+12
 11731 00d8 C3F3C033 		ubfx	r3, r3, #15, #1
 11732 00dc C911     		asrs	r1, r1, #7
 11733 00de 05F00205 		and	r5, r5, #2
ARM GAS  C:\Users\Jay\AppData\Local\Temp\ccjVRGue.s 			page 203


 11734 00e2 2469     		ldr	r4, [r4, #16]
 11735 00e4 0343     		orrs	r3, r3, r0
 11736 00e6 01F00401 		and	r1, r1, #4
 11737 00ea 9011     		asrs	r0, r2, #6
 11738 00ec 2B43     		orrs	r3, r3, r5
 11739 00ee 9210     		asrs	r2, r2, #2
 11740 00f0 00F00800 		and	r0, r0, #8
 11741 00f4 0B43     		orrs	r3, r3, r1
 11742 00f6 02F04002 		and	r2, r2, #64
 11743 00fa 0343     		orrs	r3, r3, r0
 11744 00fc 1343     		orrs	r3, r3, r2
 11745 00fe 2204     		lsls	r2, r4, #16
 11746 0100 48BF     		it	mi
 11747 0102 63F07F03 		ornmi	r3, r3, #127
 11748 0106 2E48     		ldr	r0, .L2296+24
 11749 0108 9B07     		lsls	r3, r3, #30
 11750 010a 2A4A     		ldr	r2, .L2296+12
 11751 010c 2849     		ldr	r1, .L2296+8
 11752 010e 0069     		ldr	r0, [r0, #16]
 11753 0110 1069     		ldr	r0, [r2, #16]
 11754 0112 0969     		ldr	r1, [r1, #16]
 11755 0114 3FF579AF 		bmi	.L2284
 11756 0118 4021     		movs	r1, #64
 11757 011a 4FF0C073 		mov	r3, #25165824
 11758 011e 9161     		str	r1, [r2, #24]
 11759 0120 9361     		str	r3, [r2, #24]
 11760 0122 F8BD     		pop	{r3, r4, r5, r6, r7, pc}
 11761              	.L2295:
 11762 0124 15B2     		sxth	r5, r2
 11763 0126 274C     		ldr	r4, .L2296+28
 11764 0128 C2F30016 		ubfx	r6, r2, #4, #1
 11765 012c 05F00403 		and	r3, r5, #4
 11766 0130 04EAC004 		and	r4, r4, r0, lsl #3
 11767 0134 6F01     		lsls	r7, r5, #5
 11768 0136 1C43     		orrs	r4, r4, r3
 11769 0138 E800     		lsls	r0, r5, #3
 11770 013a 07F40057 		and	r7, r7, #8192
 11771 013e 6B00     		lsls	r3, r5, #1
 11772 0140 00F48050 		and	r0, r0, #4096
 11773 0144 3C43     		orrs	r4, r4, r7
 11774 0146 03F40063 		and	r3, r3, #2048
 11775 014a 9710     		asrs	r7, r2, #2
 11776 014c 0443     		orrs	r4, r4, r0
 11777 014e 2801     		lsls	r0, r5, #4
 11778 0150 AD00     		lsls	r5, r5, #2
 11779 0152 07F00207 		and	r7, r7, #2
 11780 0156 1C43     		orrs	r4, r4, r3
 11781 0158 00F01000 		and	r0, r0, #16
 11782 015c 05F00805 		and	r5, r5, #8
 11783 0160 CB11     		asrs	r3, r1, #7
 11784 0162 2043     		orrs	r0, r0, r4
 11785 0164 0911     		asrs	r1, r1, #4
 11786 0166 03F02003 		and	r3, r3, #32
 11787 016a D410     		asrs	r4, r2, #3
 11788 016c 2843     		orrs	r0, r0, r5
 11789 016e 01F04001 		and	r1, r1, #64
 11790 0172 5511     		asrs	r5, r2, #5
ARM GAS  C:\Users\Jay\AppData\Local\Temp\ccjVRGue.s 			page 204


 11791 0174 04F40074 		and	r4, r4, #512
 11792 0178 3043     		orrs	r0, r0, r6
 11793 017a 5210     		asrs	r2, r2, #1
 11794 017c 05F48075 		and	r5, r5, #256
 11795 0180 114E     		ldr	r6, .L2296+32
 11796 0182 3843     		orrs	r0, r0, r7
 11797 0184 02F48062 		and	r2, r2, #1024
 11798 0188 0343     		orrs	r3, r3, r0
 11799 018a 3068     		ldr	r0, [r6]
 11800 018c 0B43     		orrs	r3, r3, r1
 11801 018e 2B43     		orrs	r3, r3, r5
 11802 0190 2343     		orrs	r3, r3, r4
 11803 0192 1343     		orrs	r3, r3, r2
 11804 0194 C3F30D03 		ubfx	r3, r3, #0, #14
 11805 0198 C05C     		ldrb	r0, [r0, r3]	@ zero_extendqisi2
 11806 019a FFF7FEFF 		bl	c64_data_write
 11807 019e BDE8F840 		pop	{r3, r4, r5, r6, r7, lr}
 11808 01a2 FFF7FEBF 		b	simons_basic_handler.part.37
 11809              	.L2297:
 11810 01a6 00BF     		.align	2
 11811              	.L2296:
 11812 01a8 00000140 		.word	1073807360
 11813 01ac 00080258 		.word	1476528128
 11814 01b0 000C0258 		.word	1476529152
 11815 01b4 00100258 		.word	1476530176
 11816 01b8 00000258 		.word	1476526080
 11817 01bc 80000001 		.word	16777344
 11818 01c0 00040258 		.word	1476527104
 11819 01c4 00C0FFFF 		.word	-16384
 11820 01c8 00000000 		.word	.LANCHOR7
 11822              		.section	.text.ef_handler,"ax",%progbits
 11823              		.align	1
 11824              		.p2align 2,,3
 11825              		.global	ef_handler
 11826              		.syntax unified
 11827              		.thumb
 11828              		.thumb_func
 11829              		.fpu fpv5-sp-d16
 11831              	ef_handler:
 11832              		@ args = 0, pretend = 0, frame = 0
 11833              		@ frame_needed = 0, uses_anonymous_args = 0
 11834 0000 D54B     		ldr	r3, .L2516
 11835 0002 1B69     		ldr	r3, [r3, #16]
 11836 0004 1B07     		lsls	r3, r3, #28
 11837 0006 40F10B84 		bpl	.L2503
 11838 000a D44B     		ldr	r3, .L2516+4
 11839 000c 4FF40012 		mov	r2, #2097152
 11840 0010 2DE9F047 		push	{r4, r5, r6, r7, r8, r9, r10, lr}
 11841 0014 D24D     		ldr	r5, .L2516+8
 11842 0016 D34C     		ldr	r4, .L2516+12
 11843 0018 D34E     		ldr	r6, .L2516+16
 11844 001a 9A61     		str	r2, [r3, #24]
 11845              	.L2408:
 11846 001c 2F69     		ldr	r7, [r5, #16]
 11847 001e 2169     		ldr	r1, [r4, #16]
 11848 0020 CE48     		ldr	r0, .L2516+4
 11849 0022 4FEAE719 		asr	r9, r7, #7
ARM GAS  C:\Users\Jay\AppData\Local\Temp\ccjVRGue.s 			page 205


 11850 0026 0FFA81FE 		sxth	lr, r1
 11851 002a D04B     		ldr	r3, .L2516+20
 11852 002c 09F02009 		and	r9, r9, #32
 11853 0030 3F11     		asrs	r7, r7, #4
 11854 0032 4FEA8E0C 		lsl	ip, lr, #2
 11855 0036 0EF00402 		and	r2, lr, #4
 11856 003a 4FEA0E18 		lsl	r8, lr, #4
 11857 003e 07F04007 		and	r7, r7, #64
 11858 0042 0CF0080C 		and	ip, ip, #8
 11859 0046 4FEA4E0A 		lsl	r10, lr, #1
 11860 004a 08F01008 		and	r8, r8, #16
 11861 004e 0AF4006A 		and	r10, r10, #2048
 11862 0052 4CEA080C 		orr	ip, ip, r8
 11863 0056 4FEACE08 		lsl	r8, lr, #3
 11864 005a 4FEA4E1E 		lsl	lr, lr, #5
 11865 005e 4CEA020C 		orr	ip, ip, r2
 11866 0062 0269     		ldr	r2, [r0, #16]
 11867 0064 0EF4005E 		and	lr, lr, #8192
 11868 0068 4CEA0A0C 		orr	ip, ip, r10
 11869 006c 08F4805A 		and	r10, r8, #4096
 11870 0070 4FEAC208 		lsl	r8, r2, #3
 11871 0074 4CEA0A02 		orr	r2, ip, r10
 11872 0078 C1F3001C 		ubfx	ip, r1, #4, #1
 11873 007c 0FFA88F8 		sxth	r8, r8
 11874 0080 42EA0E02 		orr	r2, r2, lr
 11875 0084 4FEAA10A 		asr	r10, r1, #2
 11876 0088 08F4804E 		and	lr, r8, #16384
 11877 008c 08EA0303 		and	r3, r8, r3
 11878 0090 0AF0020A 		and	r10, r10, #2
 11879 0094 4FEA6118 		asr	r8, r1, #5
 11880 0098 42EA0E02 		orr	r2, r2, lr
 11881 009c 08F48078 		and	r8, r8, #256
 11882 00a0 1A43     		orrs	r2, r2, r3
 11883 00a2 CB10     		asrs	r3, r1, #3
 11884 00a4 4910     		asrs	r1, r1, #1
 11885 00a6 42EA0C02 		orr	r2, r2, ip
 11886 00aa DFF8D8C2 		ldr	ip, .L2516+44
 11887 00ae 03F4007E 		and	lr, r3, #512
 11888 00b2 01F48061 		and	r1, r1, #1024
 11889 00b6 42EA0A02 		orr	r2, r2, r10
 11890 00ba DCF81030 		ldr	r3, [ip, #16]
 11891 00be 42EA0903 		orr	r3, r2, r9
 11892 00c2 3B43     		orrs	r3, r3, r7
 11893 00c4 43EA0803 		orr	r3, r3, r8
 11894 00c8 43EA0E03 		orr	r3, r3, lr
 11895 00cc 0B43     		orrs	r3, r3, r1
 11896 00ce 9BB2     		uxth	r3, r3
 11897 00d0 DCF810E0 		ldr	lr, [ip, #16]
 11898 00d4 2A69     		ldr	r2, [r5, #16]
 11899 00d6 2169     		ldr	r1, [r4, #16]
 11900 00d8 0EF03009 		and	r9, lr, #48
 11901 00dc 4FEA6218 		asr	r8, r2, #5
 11902 00e0 0769     		ldr	r7, [r0, #16]
 11903 00e2 C1F3C031 		ubfx	r1, r1, #15, #1
 11904 00e6 4FEAE21C 		asr	ip, r2, #7
 11905 00ea 08F00202 		and	r2, r8, #2
 11906 00ee 4FEAAE18 		asr	r8, lr, #6
ARM GAS  C:\Users\Jay\AppData\Local\Temp\ccjVRGue.s 			page 206


 11907 00f2 41EA0901 		orr	r1, r1, r9
 11908 00f6 0CF0040C 		and	ip, ip, #4
 11909 00fa 4FEAAE00 		asr	r0, lr, #2
 11910 00fe 08F00808 		and	r8, r8, #8
 11911 0102 0A43     		orrs	r2, r2, r1
 11912 0104 00F04001 		and	r1, r0, #64
 11913 0108 3804     		lsls	r0, r7, #16
 11914 010a 42EA0C02 		orr	r2, r2, ip
 11915 010e 42EA0802 		orr	r2, r2, r8
 11916 0112 42EA0102 		orr	r2, r2, r1
 11917 0116 48BF     		it	mi
 11918 0118 62F07F02 		ornmi	r2, r2, #127
 11919 011c D7B2     		uxtb	r7, r2
 11920 011e 07F00902 		and	r2, r7, #9
 11921 0122 012A     		cmp	r2, #1
 11922 0124 00F0EE81 		beq	.L2511
 11923 0128 F807     		lsls	r0, r7, #31
 11924 012a 40F1BA80 		bpl	.L2318
 11925 012e 07F0C002 		and	r2, r7, #192
 11926 0132 C02A     		cmp	r2, #192
 11927 0134 40F02E82 		bne	.L2512
 11928 0138 17F00201 		ands	r1, r7, #2
 11929 013c 40F09682 		bne	.L2329
 11930 0140 4DF60962 		movw	r2, #56841
 11931 0144 9342     		cmp	r3, r2
 11932 0146 00F06C84 		beq	.L2330
 11933 014a 4DF60A62 		movw	r2, #56842
 11934 014e 9342     		cmp	r3, r2
 11935 0150 00F0BE83 		beq	.L2331
 11936              	.L2314:
 11937 0154 F806     		lsls	r0, r7, #27
 11938 0156 00F1ED80 		bmi	.L2501
 11939              	.L2514:
 11940 015a 7F4A     		ldr	r2, .L2516
 11941              	.L2365:
 11942 015c 536A     		ldr	r3, [r2, #36]
 11943 015e 532B     		cmp	r3, #83
 11944 0160 FCD8     		bhi	.L2365
 11945 0162 834B     		ldr	r3, .L2516+24
 11946 0164 516A     		ldr	r1, [r2, #36]
 11947 0166 1A46     		mov	r2, r3
 11948 0168 5960     		str	r1, [r3, #4]
 11949              	.L2366:
 11950 016a 5368     		ldr	r3, [r2, #4]
 11951 016c 112B     		cmp	r3, #17
 11952 016e FCD9     		bls	.L2366
 11953 0170 2F69     		ldr	r7, [r5, #16]
 11954 0172 2169     		ldr	r1, [r4, #16]
 11955 0174 7948     		ldr	r0, .L2516+4
 11956 0176 4FEAE719 		asr	r9, r7, #7
 11957 017a 0FFA81FE 		sxth	lr, r1
 11958 017e 7B4B     		ldr	r3, .L2516+20
 11959 0180 09F02009 		and	r9, r9, #32
 11960 0184 3F11     		asrs	r7, r7, #4
 11961 0186 4FEA8E0C 		lsl	ip, lr, #2
 11962 018a 0EF00402 		and	r2, lr, #4
 11963 018e 4FEA0E18 		lsl	r8, lr, #4
ARM GAS  C:\Users\Jay\AppData\Local\Temp\ccjVRGue.s 			page 207


 11964 0192 07F04007 		and	r7, r7, #64
 11965 0196 0CF0080C 		and	ip, ip, #8
 11966 019a 4FEA4E0A 		lsl	r10, lr, #1
 11967 019e 08F01008 		and	r8, r8, #16
 11968 01a2 0AF4006A 		and	r10, r10, #2048
 11969 01a6 4CEA080C 		orr	ip, ip, r8
 11970 01aa 4FEACE08 		lsl	r8, lr, #3
 11971 01ae 4FEA4E1E 		lsl	lr, lr, #5
 11972 01b2 4CEA020C 		orr	ip, ip, r2
 11973 01b6 0269     		ldr	r2, [r0, #16]
 11974 01b8 0EF4005E 		and	lr, lr, #8192
 11975 01bc 4CEA0A0C 		orr	ip, ip, r10
 11976 01c0 08F4805A 		and	r10, r8, #4096
 11977 01c4 4FEAC208 		lsl	r8, r2, #3
 11978 01c8 4CEA0A02 		orr	r2, ip, r10
 11979 01cc C1F3001C 		ubfx	ip, r1, #4, #1
 11980 01d0 0FFA88F8 		sxth	r8, r8
 11981 01d4 42EA0E02 		orr	r2, r2, lr
 11982 01d8 4FEAA10A 		asr	r10, r1, #2
 11983 01dc 08F4804E 		and	lr, r8, #16384
 11984 01e0 08EA0303 		and	r3, r8, r3
 11985 01e4 0AF0020A 		and	r10, r10, #2
 11986 01e8 4FEA6118 		asr	r8, r1, #5
 11987 01ec 42EA0E02 		orr	r2, r2, lr
 11988 01f0 08F48078 		and	r8, r8, #256
 11989 01f4 1A43     		orrs	r2, r2, r3
 11990 01f6 CB10     		asrs	r3, r1, #3
 11991 01f8 4910     		asrs	r1, r1, #1
 11992 01fa 42EA0C02 		orr	r2, r2, ip
 11993 01fe DFF884C1 		ldr	ip, .L2516+44
 11994 0202 03F4007E 		and	lr, r3, #512
 11995 0206 01F48061 		and	r1, r1, #1024
 11996 020a 42EA0A02 		orr	r2, r2, r10
 11997 020e DCF81030 		ldr	r3, [ip, #16]
 11998 0212 42EA0903 		orr	r3, r2, r9
 11999 0216 3B43     		orrs	r3, r3, r7
 12000 0218 43EA0803 		orr	r3, r3, r8
 12001 021c 43EA0E03 		orr	r3, r3, lr
 12002 0220 0B43     		orrs	r3, r3, r1
 12003 0222 9BB2     		uxth	r3, r3
 12004 0224 DCF81020 		ldr	r2, [ip, #16]
 12005 0228 D5F810C0 		ldr	ip, [r5, #16]
 12006 022c 2169     		ldr	r1, [r4, #16]
 12007 022e 02F03009 		and	r9, r2, #48
 12008 0232 4FEA6C18 		asr	r8, ip, #5
 12009 0236 0769     		ldr	r7, [r0, #16]
 12010 0238 C1F3C031 		ubfx	r1, r1, #15, #1
 12011 023c 4FEAEC1C 		asr	ip, ip, #7
 12012 0240 08F00208 		and	r8, r8, #2
 12013 0244 4FEAA21E 		asr	lr, r2, #6
 12014 0248 41EA0901 		orr	r1, r1, r9
 12015 024c 9010     		asrs	r0, r2, #2
 12016 024e 0CF0040C 		and	ip, ip, #4
 12017 0252 0EF0080E 		and	lr, lr, #8
 12018 0256 41EA0802 		orr	r2, r1, r8
 12019 025a 00F04001 		and	r1, r0, #64
 12020 025e 42EA0C02 		orr	r2, r2, ip
ARM GAS  C:\Users\Jay\AppData\Local\Temp\ccjVRGue.s 			page 208


 12021 0262 42EA0E02 		orr	r2, r2, lr
 12022 0266 0A43     		orrs	r2, r2, r1
 12023 0268 3904     		lsls	r1, r7, #16
 12024 026a 48BF     		it	mi
 12025 026c 62F07F02 		ornmi	r2, r2, #127
 12026 0270 D2B2     		uxtb	r2, r2
 12027 0272 02F0C001 		and	r1, r2, #192
 12028 0276 C029     		cmp	r1, #192
 12029 0278 40F08680 		bne	.L2513
 12030 027c 12F00201 		ands	r1, r2, #2
 12031 0280 40F0EC80 		bne	.L2378
 12032 0284 4DF60962 		movw	r2, #56841
 12033 0288 9342     		cmp	r3, r2
 12034 028a 00F0CA82 		beq	.L2380
 12035 028e 4DF60A62 		movw	r2, #56842
 12036 0292 9342     		cmp	r3, r2
 12037 0294 00F06782 		beq	.L2381
 12038              	.L2379:
 12039 0298 354A     		ldr	r2, .L2516+24
 12040              	.L2407:
 12041 029a 5368     		ldr	r3, [r2, #4]
 12042 029c 602B     		cmp	r3, #96
 12043 029e FCD9     		bls	.L2407
 12044 02a0 BCE6     		b	.L2408
 12045              	.L2318:
 12046 02a2 2D49     		ldr	r1, .L2516
 12047              	.L2357:
 12048 02a4 4A6A     		ldr	r2, [r1, #36]
 12049 02a6 812A     		cmp	r2, #129
 12050 02a8 FCD9     		bls	.L2357
 12051 02aa 3249     		ldr	r1, .L2516+28
 12052 02ac 2B4A     		ldr	r2, .L2516+4
 12053 02ae 0969     		ldr	r1, [r1, #16]
 12054 02b0 1269     		ldr	r2, [r2, #16]
 12055 02b2 4FEAE11C 		asr	ip, r1, #7
 12056 02b6 4FEA420E 		lsl	lr, r2, #1
 12057 02ba C2F34002 		ubfx	r2, r2, #1, #1
 12058 02be 0CF0040C 		and	ip, ip, #4
 12059 02c2 4811     		asrs	r0, r1, #5
 12060 02c4 0EF0020E 		and	lr, lr, #2
 12061 02c8 00F00800 		and	r0, r0, #8
 12062 02cc 42EA0E02 		orr	r2, r2, lr
 12063 02d0 42EA0C02 		orr	r2, r2, ip
 12064 02d4 4FEAE10C 		asr	ip, r1, #3
 12065 02d8 0243     		orrs	r2, r2, r0
 12066 02da 0CF0100C 		and	ip, ip, #16
 12067 02de 4810     		asrs	r0, r1, #1
 12068 02e0 42EA0C02 		orr	r2, r2, ip
 12069 02e4 4900     		lsls	r1, r1, #1
 12070 02e6 00F02000 		and	r0, r0, #32
 12071 02ea D4F810C0 		ldr	ip, [r4, #16]
 12072 02ee 01F04001 		and	r1, r1, #64
 12073 02f2 0243     		orrs	r2, r2, r0
 12074 02f4 1CF0200F 		tst	ip, #32
 12075 02f8 42EA0102 		orr	r2, r2, r1
 12076 02fc 18BF     		it	ne
 12077 02fe 62F07F02 		ornne	r2, r2, #127
ARM GAS  C:\Users\Jay\AppData\Local\Temp\ccjVRGue.s 			page 209


 12078 0302 17F00201 		ands	r1, r7, #2
 12079 0306 D2B2     		uxtb	r2, r2
 12080 0308 1ED1     		bne	.L2359
 12081 030a 03F07F03 		and	r3, r3, #127
 12082 030e 022B     		cmp	r3, #2
 12083 0310 00F05A83 		beq	.L2360
 12084 0314 0A2B     		cmp	r3, #10
 12085 0316 00F0D682 		beq	.L2361
 12086 031a 002B     		cmp	r3, #0
 12087 031c 7FF41AAF 		bne	.L2314
 12088 0320 02F03F02 		and	r2, r2, #63
 12089 0324 1449     		ldr	r1, .L2516+32
 12090 0326 154B     		ldr	r3, .L2516+36
 12091 0328 F806     		lsls	r0, r7, #27
 12092 032a 51F82220 		ldr	r2, [r1, r2, lsl #2]
 12093 032e 1A60     		str	r2, [r3]
 12094 0330 7FF513AF 		bpl	.L2514
 12095              	.L2501:
 12096 0334 084B     		ldr	r3, .L2516
 12097 0336 6FF00801 		mvn	r1, #8
 12098 033a DA68     		ldr	r2, [r3, #12]
 12099 033c 0A40     		ands	r2, r2, r1
 12100 033e DA60     		str	r2, [r3, #12]
 12101 0340 1961     		str	r1, [r3, #16]
 12102 0342 1961     		str	r1, [r3, #16]
 12103 0344 BDE8F087 		pop	{r4, r5, r6, r7, r8, r9, r10, pc}
 12104              	.L2359:
 12105 0348 7907     		lsls	r1, r7, #29
 12106 034a 3FF503AF 		bmi	.L2314
 12107 034e 03F07F03 		and	r3, r3, #127
 12108 0352 0B49     		ldr	r1, .L2516+40
 12109 0354 CA54     		strb	r2, [r1, r3]
 12110 0356 FDE6     		b	.L2314
 12111              	.L2517:
 12112              		.align	2
 12113              	.L2516:
 12114 0358 00000140 		.word	1073807360
 12115 035c 00100258 		.word	1476530176
 12116 0360 00080258 		.word	1476528128
 12117 0364 000C0258 		.word	1476529152
 12118 0368 FF03F0FF 		.word	-1047553
 12119 036c 0080FFFF 		.word	-32768
 12120 0370 001000E0 		.word	-536866816
 12121 0374 00040258 		.word	1476527104
 12122 0378 00000000 		.word	.LANCHOR32
 12123 037c 00000000 		.word	.LANCHOR7
 12124 0380 00000000 		.word	crt_ram_buf
 12125 0384 00000258 		.word	1476526080
 12126              	.L2513:
 12127 0388 BD4A     		ldr	r2, .L2518
 12128 038a C3F30D03 		ubfx	r3, r3, #0, #14
 12129 038e BD48     		ldr	r0, .L2518+4
 12130 0390 1268     		ldr	r2, [r2]
 12131 0392 BD49     		ldr	r1, .L2518+8
 12132 0394 D25C     		ldrb	r2, [r2, r3]	@ zero_extendqisi2
 12133 0396 BD4F     		ldr	r7, .L2518+12
 12134 0398 12F0010F 		tst	r2, #1
ARM GAS  C:\Users\Jay\AppData\Local\Temp\ccjVRGue.s 			page 210


 12135 039c 0CBF     		ite	eq
 12136 039e 4FF4003C 		moveq	ip, #131072
 12137 03a2 4FF0020C 		movne	ip, #2
 12138 03a6 12F0020F 		tst	r2, #2
 12139 03aa 0CBF     		ite	eq
 12140 03ac 4FF4803E 		moveq	lr, #65536
 12141 03b0 4FF0010E 		movne	lr, #1
 12142 03b4 12F0040F 		tst	r2, #4
 12143 03b8 4CEA0E0C 		orr	ip, ip, lr
 12144 03bc 0CBF     		ite	eq
 12145 03be 4FF00073 		moveq	r3, #33554432
 12146 03c2 4FF40073 		movne	r3, #512
 12147 03c6 12F0080F 		tst	r2, #8
 12148 03ca C0F818C0 		str	ip, [r0, #24]
 12149 03ce 0CBF     		ite	eq
 12150 03d0 4FF0807E 		moveq	lr, #16777216
 12151 03d4 4FF4807E 		movne	lr, #256
 12152 03d8 12F0100F 		tst	r2, #16
 12153 03dc 43EA0E03 		orr	r3, r3, lr
 12154 03e0 0CBF     		ite	eq
 12155 03e2 4FF4000C 		moveq	ip, #8388608
 12156 03e6 4FF0800C 		movne	ip, #128
 12157 03ea 12F0200F 		tst	r2, #32
 12158 03ee 43EA0C03 		orr	r3, r3, ip
 12159 03f2 0CBF     		ite	eq
 12160 03f4 4FF4800C 		moveq	ip, #4194304
 12161 03f8 4FF0400C 		movne	ip, #64
 12162 03fc 12F0400F 		tst	r2, #64
 12163 0400 43EA0C03 		orr	r3, r3, ip
 12164 0404 0CBF     		ite	eq
 12165 0406 4FF4001C 		moveq	ip, #2097152
 12166 040a 4FF0200C 		movne	ip, #32
 12167 040e 12F0800F 		tst	r2, #128
 12168 0412 43EA0C03 		orr	r3, r3, ip
 12169 0416 0CBF     		ite	eq
 12170 0418 4FF40012 		moveq	r2, #2097152
 12171 041c 2022     		movne	r2, #32
 12172 041e 8B61     		str	r3, [r1, #24]
 12173 0420 A261     		str	r2, [r4, #24]
 12174 0422 0268     		ldr	r2, [r0]
 12175 0424 02F00F02 		and	r2, r2, #15
 12176 0428 0260     		str	r2, [r0]
 12177              	.L2509:
 12178 042a 0B68     		ldr	r3, [r1]
 12179 042c 3B40     		ands	r3, r3, r7
 12180 042e 0B60     		str	r3, [r1]
 12181 0430 2368     		ldr	r3, [r4]
 12182 0432 03F44063 		and	r3, r3, #3072
 12183 0436 2360     		str	r3, [r4]
 12184              	.L2390:
 12185 0438 954A     		ldr	r2, .L2518+16
 12186              	.L2377:
 12187 043a 5368     		ldr	r3, [r2, #4]
 12188 043c 3C2B     		cmp	r3, #60
 12189 043e FCD9     		bls	.L2377
 12190 0440 9049     		ldr	r1, .L2518+4
 12191 0442 914A     		ldr	r2, .L2518+8
ARM GAS  C:\Users\Jay\AppData\Local\Temp\ccjVRGue.s 			page 211


 12192 0444 0B68     		ldr	r3, [r1]
 12193 0446 23F00F03 		bic	r3, r3, #15
 12194 044a 0B60     		str	r3, [r1]
 12195 044c 1368     		ldr	r3, [r2]
 12196 044e 3340     		ands	r3, r3, r6
 12197 0450 1360     		str	r3, [r2]
 12198 0452 2368     		ldr	r3, [r4]
 12199 0454 23F44063 		bic	r3, r3, #3072
 12200 0458 2360     		str	r3, [r4]
 12201 045a 1DE7     		b	.L2379
 12202              	.L2378:
 12203 045c 5207     		lsls	r2, r2, #29
 12204 045e 3FF51BAF 		bmi	.L2379
 12205 0462 03F07F03 		and	r3, r3, #127
 12206 0466 8B4A     		ldr	r2, .L2518+20
 12207 0468 8648     		ldr	r0, .L2518+4
 12208 046a D25C     		ldrb	r2, [r2, r3]	@ zero_extendqisi2
 12209 046c 8649     		ldr	r1, .L2518+8
 12210 046e 12F0010F 		tst	r2, #1
 12211 0472 864F     		ldr	r7, .L2518+12
 12212 0474 0CBF     		ite	eq
 12213 0476 4FF4003C 		moveq	ip, #131072
 12214 047a 4FF0020C 		movne	ip, #2
 12215 047e 12F0020F 		tst	r2, #2
 12216 0482 0CBF     		ite	eq
 12217 0484 4FF4803E 		moveq	lr, #65536
 12218 0488 4FF0010E 		movne	lr, #1
 12219 048c 12F0040F 		tst	r2, #4
 12220 0490 4CEA0E0C 		orr	ip, ip, lr
 12221 0494 0CBF     		ite	eq
 12222 0496 4FF00073 		moveq	r3, #33554432
 12223 049a 4FF40073 		movne	r3, #512
 12224 049e 12F0080F 		tst	r2, #8
 12225 04a2 C0F818C0 		str	ip, [r0, #24]
 12226 04a6 0CBF     		ite	eq
 12227 04a8 4FF0807E 		moveq	lr, #16777216
 12228 04ac 4FF4807E 		movne	lr, #256
 12229 04b0 12F0100F 		tst	r2, #16
 12230 04b4 43EA0E03 		orr	r3, r3, lr
 12231 04b8 0CBF     		ite	eq
 12232 04ba 4FF4000C 		moveq	ip, #8388608
 12233 04be 4FF0800C 		movne	ip, #128
 12234 04c2 12F0200F 		tst	r2, #32
 12235 04c6 43EA0C03 		orr	r3, r3, ip
 12236 04ca 0CBF     		ite	eq
 12237 04cc 4FF4800C 		moveq	ip, #4194304
 12238 04d0 4FF0400C 		movne	ip, #64
 12239 04d4 12F0400F 		tst	r2, #64
 12240 04d8 43EA0C03 		orr	r3, r3, ip
 12241 04dc 0CBF     		ite	eq
 12242 04de 4FF4001C 		moveq	ip, #2097152
 12243 04e2 4FF0200C 		movne	ip, #32
 12244 04e6 12F0800F 		tst	r2, #128
 12245 04ea 43EA0C03 		orr	r3, r3, ip
 12246              	.L2510:
 12247 04ee 0CBF     		ite	eq
 12248 04f0 4FF40012 		moveq	r2, #2097152
ARM GAS  C:\Users\Jay\AppData\Local\Temp\ccjVRGue.s 			page 212


 12249 04f4 2022     		movne	r2, #32
 12250 04f6 8B61     		str	r3, [r1, #24]
 12251 04f8 A261     		str	r2, [r4, #24]
 12252 04fa 0368     		ldr	r3, [r0]
 12253 04fc 03F00F03 		and	r3, r3, #15
 12254 0500 0360     		str	r3, [r0]
 12255 0502 92E7     		b	.L2509
 12256              	.L2511:
 12257              		.syntax unified
 12258              	@ 182 "cartridges/easyflash.c" 1
 12259 0504 00BF     		nop
 12260              	@ 0 "" 2
 12261              	@ 182 "cartridges/easyflash.c" 1
 12262 0506 00BF     		nop
 12263              	@ 0 "" 2
 12264              	@ 182 "cartridges/easyflash.c" 1
 12265 0508 00BF     		nop
 12266              	@ 0 "" 2
 12267              	@ 182 "cartridges/easyflash.c" 1
 12268 050a 00BF     		nop
 12269              	@ 0 "" 2
 12270              	@ 182 "cartridges/easyflash.c" 1
 12271 050c 00BF     		nop
 12272              	@ 0 "" 2
 12273              	@ 182 "cartridges/easyflash.c" 1
 12274 050e 00BF     		nop
 12275              	@ 0 "" 2
 12276              	@ 182 "cartridges/easyflash.c" 1
 12277 0510 00BF     		nop
 12278              	@ 0 "" 2
 12279              		.thumb
 12280              		.syntax unified
 12281 0512 614A     		ldr	r2, .L2518+24
 12282 0514 5B48     		ldr	r0, .L2518+4
 12283 0516 1169     		ldr	r1, [r2, #16]
 12284 0518 2F69     		ldr	r7, [r5, #16]
 12285 051a 2269     		ldr	r2, [r4, #16]
 12286 051c 01F0300C 		and	ip, r1, #48
 12287 0520 4FEA6718 		asr	r8, r7, #5
 12288 0524 0069     		ldr	r0, [r0, #16]
 12289 0526 C2F3C032 		ubfx	r2, r2, #15, #1
 12290 052a FF11     		asrs	r7, r7, #7
 12291 052c 08F00208 		and	r8, r8, #2
 12292 0530 4FEAA11E 		asr	lr, r1, #6
 12293 0534 42EA0C02 		orr	r2, r2, ip
 12294 0538 07F0040C 		and	ip, r7, #4
 12295 053c 8F10     		asrs	r7, r1, #2
 12296 053e 0EF00801 		and	r1, lr, #8
 12297 0542 42EA0802 		orr	r2, r2, r8
 12298 0546 07F04007 		and	r7, r7, #64
 12299 054a 42EA0C02 		orr	r2, r2, ip
 12300 054e 0A43     		orrs	r2, r2, r1
 12301 0550 0104     		lsls	r1, r0, #16
 12302 0552 42EA0702 		orr	r2, r2, r7
 12303 0556 48BF     		it	mi
 12304 0558 62F07F02 		ornmi	r2, r2, #127
 12305 055c D7B2     		uxtb	r7, r2
ARM GAS  C:\Users\Jay\AppData\Local\Temp\ccjVRGue.s 			page 213


 12306 055e 07F0C002 		and	r2, r7, #192
 12307 0562 C02A     		cmp	r2, #192
 12308 0564 40F0A080 		bne	.L2515
 12309 0568 17F00208 		ands	r8, r7, #2
 12310 056c 40F0A181 		bne	.L2313
 12311 0570 4DF60962 		movw	r2, #56841
 12312 0574 9342     		cmp	r3, r2
 12313 0576 00F00B82 		beq	.L2315
 12314 057a 4DF60A62 		movw	r2, #56842
 12315 057e 9342     		cmp	r3, r2
 12316 0580 7FF4E8AD 		bne	.L2314
 12317 0584 454B     		ldr	r3, .L2518+28
 12318 0586 1878     		ldrb	r0, [r3]	@ zero_extendqisi2
 12319 0588 FFF7FEFF 		bl	c64_data_write
 12320 058c 444B     		ldr	r3, .L2518+32
 12321 058e 83F80080 		strb	r8, [r3]
 12322 0592 E3E0     		b	.L2312
 12323              	.L2512:
 12324 0594 3A4A     		ldr	r2, .L2518
 12325 0596 C3F30D03 		ubfx	r3, r3, #0, #14
 12326 059a 3A48     		ldr	r0, .L2518+4
 12327 059c 1268     		ldr	r2, [r2]
 12328 059e 3A49     		ldr	r1, .L2518+8
 12329 05a0 D25C     		ldrb	r2, [r2, r3]	@ zero_extendqisi2
 12330              	.L2507:
 12331 05a2 12F0010F 		tst	r2, #1
 12332 05a6 DFF8E4C0 		ldr	ip, .L2518+12
 12333 05aa 0CBF     		ite	eq
 12334 05ac 4FF4003E 		moveq	lr, #131072
 12335 05b0 4FF0020E 		movne	lr, #2
 12336 05b4 12F0020F 		tst	r2, #2
 12337 05b8 0CBF     		ite	eq
 12338 05ba 4FF48038 		moveq	r8, #65536
 12339 05be 4FF00108 		movne	r8, #1
 12340 05c2 12F0040F 		tst	r2, #4
 12341 05c6 4EEA080E 		orr	lr, lr, r8
 12342 05ca 0CBF     		ite	eq
 12343 05cc 4FF00073 		moveq	r3, #33554432
 12344 05d0 4FF40073 		movne	r3, #512
 12345 05d4 12F0080F 		tst	r2, #8
 12346 05d8 C0F818E0 		str	lr, [r0, #24]
 12347 05dc 0CBF     		ite	eq
 12348 05de 4FF08078 		moveq	r8, #16777216
 12349 05e2 4FF48078 		movne	r8, #256
 12350 05e6 12F0100F 		tst	r2, #16
 12351 05ea 43EA0803 		orr	r3, r3, r8
 12352 05ee 0CBF     		ite	eq
 12353 05f0 4FF4000E 		moveq	lr, #8388608
 12354 05f4 4FF0800E 		movne	lr, #128
 12355 05f8 12F0200F 		tst	r2, #32
 12356 05fc 43EA0E03 		orr	r3, r3, lr
 12357 0600 0CBF     		ite	eq
 12358 0602 4FF4800E 		moveq	lr, #4194304
 12359 0606 4FF0400E 		movne	lr, #64
 12360 060a 12F0400F 		tst	r2, #64
 12361 060e 43EA0E03 		orr	r3, r3, lr
 12362 0612 0CBF     		ite	eq
ARM GAS  C:\Users\Jay\AppData\Local\Temp\ccjVRGue.s 			page 214


 12363 0614 4FF4001E 		moveq	lr, #2097152
 12364 0618 4FF0200E 		movne	lr, #32
 12365 061c 12F0800F 		tst	r2, #128
 12366 0620 43EA0E03 		orr	r3, r3, lr
 12367              	.L2506:
 12368 0624 0CBF     		ite	eq
 12369 0626 4FF40012 		moveq	r2, #2097152
 12370 062a 2022     		movne	r2, #32
 12371 062c 8B61     		str	r3, [r1, #24]
 12372 062e A261     		str	r2, [r4, #24]
 12373 0630 0368     		ldr	r3, [r0]
 12374 0632 03F00F03 		and	r3, r3, #15
 12375 0636 0360     		str	r3, [r0]
 12376 0638 0B68     		ldr	r3, [r1]
 12377 063a 03EA0C03 		and	r3, r3, ip
 12378 063e 0B60     		str	r3, [r1]
 12379 0640 2368     		ldr	r3, [r4]
 12380 0642 03F44063 		and	r3, r3, #3072
 12381 0646 2360     		str	r3, [r4]
 12382              	.L2340:
 12383 0648 164A     		ldr	r2, .L2518+36
 12384              	.L2328:
 12385 064a 536A     		ldr	r3, [r2, #36]
 12386 064c 932B     		cmp	r3, #147
 12387 064e FCD9     		bls	.L2328
 12388              	.L2508:
 12389 0650 0C49     		ldr	r1, .L2518+4
 12390 0652 0D4A     		ldr	r2, .L2518+8
 12391 0654 0B68     		ldr	r3, [r1]
 12392 0656 23F00F03 		bic	r3, r3, #15
 12393 065a 0B60     		str	r3, [r1]
 12394 065c 1368     		ldr	r3, [r2]
 12395 065e 3340     		ands	r3, r3, r6
 12396 0660 1360     		str	r3, [r2]
 12397 0662 2368     		ldr	r3, [r4]
 12398 0664 23F44063 		bic	r3, r3, #3072
 12399 0668 2360     		str	r3, [r4]
 12400 066a 73E5     		b	.L2314
 12401              	.L2329:
 12402 066c 7907     		lsls	r1, r7, #29
 12403 066e 3FF571AD 		bmi	.L2314
 12404 0672 03F07F03 		and	r3, r3, #127
 12405 0676 074A     		ldr	r2, .L2518+20
 12406 0678 0248     		ldr	r0, .L2518+4
 12407 067a D25C     		ldrb	r2, [r2, r3]	@ zero_extendqisi2
 12408 067c 0249     		ldr	r1, .L2518+8
 12409 067e 90E7     		b	.L2507
 12410              	.L2519:
 12411              		.align	2
 12412              	.L2518:
 12413 0680 00000000 		.word	.LANCHOR7
 12414 0684 00100258 		.word	1476530176
 12415 0688 00040258 		.word	1476527104
 12416 068c 00FC0F00 		.word	1047552
 12417 0690 001000E0 		.word	-536866816
 12418 0694 00000000 		.word	crt_ram_buf
 12419 0698 00000258 		.word	1476526080
ARM GAS  C:\Users\Jay\AppData\Local\Temp\ccjVRGue.s 			page 215


 12420 069c 00000000 		.word	.LANCHOR10
 12421 06a0 00000000 		.word	.LANCHOR9
 12422 06a4 00000140 		.word	1073807360
 12423              	.L2515:
 12424 06a8 BD4A     		ldr	r2, .L2520
 12425 06aa C3F30D03 		ubfx	r3, r3, #0, #14
 12426 06ae BD48     		ldr	r0, .L2520+4
 12427 06b0 1268     		ldr	r2, [r2]
 12428 06b2 BD49     		ldr	r1, .L2520+8
 12429 06b4 D25C     		ldrb	r2, [r2, r3]	@ zero_extendqisi2
 12430 06b6 DFF804C3 		ldr	ip, .L2520+28
 12431 06ba 12F0010F 		tst	r2, #1
 12432 06be 0CBF     		ite	eq
 12433 06c0 4FF4003E 		moveq	lr, #131072
 12434 06c4 4FF0020E 		movne	lr, #2
 12435 06c8 12F0020F 		tst	r2, #2
 12436 06cc 0CBF     		ite	eq
 12437 06ce 4FF48038 		moveq	r8, #65536
 12438 06d2 4FF00108 		movne	r8, #1
 12439 06d6 12F0040F 		tst	r2, #4
 12440 06da 4EEA080E 		orr	lr, lr, r8
 12441 06de 0CBF     		ite	eq
 12442 06e0 4FF00073 		moveq	r3, #33554432
 12443 06e4 4FF40073 		movne	r3, #512
 12444 06e8 12F0080F 		tst	r2, #8
 12445 06ec C0F818E0 		str	lr, [r0, #24]
 12446 06f0 0CBF     		ite	eq
 12447 06f2 4FF08078 		moveq	r8, #16777216
 12448 06f6 4FF48078 		movne	r8, #256
 12449 06fa 12F0100F 		tst	r2, #16
 12450 06fe 43EA0803 		orr	r3, r3, r8
 12451 0702 0CBF     		ite	eq
 12452 0704 4FF4000E 		moveq	lr, #8388608
 12453 0708 4FF0800E 		movne	lr, #128
 12454 070c 12F0200F 		tst	r2, #32
 12455 0710 43EA0E03 		orr	r3, r3, lr
 12456 0714 0CBF     		ite	eq
 12457 0716 4FF4800E 		moveq	lr, #4194304
 12458 071a 4FF0400E 		movne	lr, #64
 12459 071e 12F0400F 		tst	r2, #64
 12460 0722 43EA0E03 		orr	r3, r3, lr
 12461 0726 0CBF     		ite	eq
 12462 0728 4FF4001E 		moveq	lr, #2097152
 12463 072c 4FF0200E 		movne	lr, #32
 12464 0730 12F0800F 		tst	r2, #128
 12465 0734 43EA0E03 		orr	r3, r3, lr
 12466 0738 0CBF     		ite	eq
 12467 073a 4FF40012 		moveq	r2, #2097152
 12468 073e 2022     		movne	r2, #32
 12469 0740 8B61     		str	r3, [r1, #24]
 12470 0742 A261     		str	r2, [r4, #24]
 12471 0744 0368     		ldr	r3, [r0]
 12472 0746 03F00F03 		and	r3, r3, #15
 12473 074a 0360     		str	r3, [r0]
 12474 074c 0B68     		ldr	r3, [r1]
 12475 074e 03EA0C03 		and	r3, r3, ip
 12476 0752 0B60     		str	r3, [r1]
ARM GAS  C:\Users\Jay\AppData\Local\Temp\ccjVRGue.s 			page 216


 12477 0754 2368     		ldr	r3, [r4]
 12478 0756 03F44063 		and	r3, r3, #3072
 12479 075a 2360     		str	r3, [r4]
 12480              	.L2312:
 12481 075c 934A     		ldr	r2, .L2520+12
 12482              	.L2317:
 12483 075e 536A     		ldr	r3, [r2, #36]
 12484 0760 932B     		cmp	r3, #147
 12485 0762 FCD9     		bls	.L2317
 12486 0764 74E7     		b	.L2508
 12487              	.L2381:
 12488 0766 924B     		ldr	r3, .L2520+16
 12489 0768 8E4F     		ldr	r7, .L2520+4
 12490 076a 1B78     		ldrb	r3, [r3]	@ zero_extendqisi2
 12491 076c 8E48     		ldr	r0, .L2520+8
 12492 076e DBB2     		uxtb	r3, r3
 12493 0770 DFF848C2 		ldr	ip, .L2520+28
 12494 0774 13F0010F 		tst	r3, #1
 12495 0778 0CBF     		ite	eq
 12496 077a 4FF4003E 		moveq	lr, #131072
 12497 077e 4FF0020E 		movne	lr, #2
 12498 0782 13F0020F 		tst	r3, #2
 12499 0786 0CBF     		ite	eq
 12500 0788 4FF48038 		moveq	r8, #65536
 12501 078c 4FF00108 		movne	r8, #1
 12502 0790 13F0040F 		tst	r3, #4
 12503 0794 4EEA080E 		orr	lr, lr, r8
 12504 0798 0CBF     		ite	eq
 12505 079a 4FF00072 		moveq	r2, #33554432
 12506 079e 4FF40072 		movne	r2, #512
 12507 07a2 13F0080F 		tst	r3, #8
 12508 07a6 C7F818E0 		str	lr, [r7, #24]
 12509 07aa 0CBF     		ite	eq
 12510 07ac 4FF08078 		moveq	r8, #16777216
 12511 07b0 4FF48078 		movne	r8, #256
 12512 07b4 13F0100F 		tst	r3, #16
 12513 07b8 42EA0802 		orr	r2, r2, r8
 12514 07bc 0CBF     		ite	eq
 12515 07be 4FF4000E 		moveq	lr, #8388608
 12516 07c2 4FF0800E 		movne	lr, #128
 12517 07c6 13F0200F 		tst	r3, #32
 12518 07ca 42EA0E02 		orr	r2, r2, lr
 12519 07ce 0CBF     		ite	eq
 12520 07d0 4FF4800E 		moveq	lr, #4194304
 12521 07d4 4FF0400E 		movne	lr, #64
 12522 07d8 13F0400F 		tst	r3, #64
 12523 07dc 42EA0E02 		orr	r2, r2, lr
 12524 07e0 0CBF     		ite	eq
 12525 07e2 4FF4001E 		moveq	lr, #2097152
 12526 07e6 4FF0200E 		movne	lr, #32
 12527 07ea 13F0800F 		tst	r3, #128
 12528 07ee 42EA0E03 		orr	r3, r2, lr
 12529 07f2 704A     		ldr	r2, .L2520+20
 12530 07f4 0CBF     		ite	eq
 12531 07f6 4FF4001E 		moveq	lr, #2097152
 12532 07fa 4FF0200E 		movne	lr, #32
 12533 07fe 8361     		str	r3, [r0, #24]
ARM GAS  C:\Users\Jay\AppData\Local\Temp\ccjVRGue.s 			page 217


 12534 0800 C4F818E0 		str	lr, [r4, #24]
 12535 0804 3B68     		ldr	r3, [r7]
 12536 0806 03F00F03 		and	r3, r3, #15
 12537 080a 3B60     		str	r3, [r7]
 12538 080c 0368     		ldr	r3, [r0]
 12539 080e 03EA0C03 		and	r3, r3, ip
 12540 0812 0360     		str	r3, [r0]
 12541 0814 2368     		ldr	r3, [r4]
 12542 0816 03F44063 		and	r3, r3, #3072
 12543 081a 2360     		str	r3, [r4]
 12544 081c 1170     		strb	r1, [r2]
 12545 081e 0BE6     		b	.L2390
 12546              	.L2503:
 12547 0820 7047     		bx	lr
 12548              	.L2380:
 12549 0822 644A     		ldr	r2, .L2520+20
 12550 0824 644B     		ldr	r3, .L2520+24
 12551 0826 1278     		ldrb	r2, [r2]	@ zero_extendqisi2
 12552 0828 1B78     		ldrb	r3, [r3]	@ zero_extendqisi2
 12553 082a 5E48     		ldr	r0, .L2520+4
 12554 082c 1343     		orrs	r3, r3, r2
 12555 082e 5E49     		ldr	r1, .L2520+8
 12556 0830 624F     		ldr	r7, .L2520+28
 12557 0832 13F0010F 		tst	r3, #1
 12558 0836 0CBF     		ite	eq
 12559 0838 4FF4003C 		moveq	ip, #131072
 12560 083c 4FF0020C 		movne	ip, #2
 12561 0840 13F0020F 		tst	r3, #2
 12562 0844 0CBF     		ite	eq
 12563 0846 4FF4803E 		moveq	lr, #65536
 12564 084a 4FF0010E 		movne	lr, #1
 12565 084e 13F0040F 		tst	r3, #4
 12566 0852 4CEA0E0C 		orr	ip, ip, lr
 12567 0856 0CBF     		ite	eq
 12568 0858 4FF00072 		moveq	r2, #33554432
 12569 085c 4FF40072 		movne	r2, #512
 12570 0860 13F0080F 		tst	r3, #8
 12571 0864 C0F818C0 		str	ip, [r0, #24]
 12572 0868 0CBF     		ite	eq
 12573 086a 4FF0807E 		moveq	lr, #16777216
 12574 086e 4FF4807E 		movne	lr, #256
 12575 0872 13F0100F 		tst	r3, #16
 12576 0876 42EA0E02 		orr	r2, r2, lr
 12577 087a 0CBF     		ite	eq
 12578 087c 4FF4000C 		moveq	ip, #8388608
 12579 0880 4FF0800C 		movne	ip, #128
 12580 0884 13F0200F 		tst	r3, #32
 12581 0888 42EA0C02 		orr	r2, r2, ip
 12582 088c 0CBF     		ite	eq
 12583 088e 4FF4800C 		moveq	ip, #4194304
 12584 0892 4FF0400C 		movne	ip, #64
 12585 0896 13F0400F 		tst	r3, #64
 12586 089a 42EA0C02 		orr	r2, r2, ip
 12587 089e 0CBF     		ite	eq
 12588 08a0 4FF4001C 		moveq	ip, #2097152
 12589 08a4 4FF0200C 		movne	ip, #32
 12590 08a8 13F0800F 		tst	r3, #128
ARM GAS  C:\Users\Jay\AppData\Local\Temp\ccjVRGue.s 			page 218


 12591 08ac 42EA0C03 		orr	r3, r2, ip
 12592 08b0 1DE6     		b	.L2510
 12593              	.L2313:
 12594 08b2 7A07     		lsls	r2, r7, #29
 12595 08b4 3FF54EAC 		bmi	.L2314
 12596 08b8 03F07F03 		and	r3, r3, #127
 12597 08bc 404A     		ldr	r2, .L2520+32
 12598 08be D05C     		ldrb	r0, [r2, r3]	@ zero_extendqisi2
 12599 08c0 FFF7FEFF 		bl	c64_data_write
 12600 08c4 4AE7     		b	.L2312
 12601              	.L2361:
 12602 08c6 3F48     		ldr	r0, .L2520+36
 12603 08c8 3B4B     		ldr	r3, .L2520+24
 12604 08ca 0270     		strb	r2, [r0]
 12605 08cc 1970     		strb	r1, [r3]
 12606 08ce 41E4     		b	.L2314
 12607              	.L2331:
 12608 08d0 374B     		ldr	r3, .L2520+16
 12609 08d2 DFF8D0E0 		ldr	lr, .L2520+4
 12610 08d6 1B78     		ldrb	r3, [r3]	@ zero_extendqisi2
 12611 08d8 3348     		ldr	r0, .L2520+8
 12612 08da DBB2     		uxtb	r3, r3
 12613 08dc DFF8DCC0 		ldr	ip, .L2520+28
 12614 08e0 13F0010F 		tst	r3, #1
 12615 08e4 0CBF     		ite	eq
 12616 08e6 4FF40038 		moveq	r8, #131072
 12617 08ea 4FF00208 		movne	r8, #2
 12618 08ee 13F0020F 		tst	r3, #2
 12619 08f2 0CBF     		ite	eq
 12620 08f4 4FF48039 		moveq	r9, #65536
 12621 08f8 4FF00109 		movne	r9, #1
 12622 08fc 13F0040F 		tst	r3, #4
 12623 0900 48EA0908 		orr	r8, r8, r9
 12624 0904 0CBF     		ite	eq
 12625 0906 4FF00072 		moveq	r2, #33554432
 12626 090a 4FF40072 		movne	r2, #512
 12627 090e 13F0080F 		tst	r3, #8
 12628 0912 CEF81880 		str	r8, [lr, #24]
 12629 0916 0CBF     		ite	eq
 12630 0918 4FF08079 		moveq	r9, #16777216
 12631 091c 4FF48079 		movne	r9, #256
 12632 0920 13F0100F 		tst	r3, #16
 12633 0924 42EA0902 		orr	r2, r2, r9
 12634 0928 0CBF     		ite	eq
 12635 092a 4FF40008 		moveq	r8, #8388608
 12636 092e 4FF08008 		movne	r8, #128
 12637 0932 13F0200F 		tst	r3, #32
 12638 0936 42EA0802 		orr	r2, r2, r8
 12639 093a 0CBF     		ite	eq
 12640 093c 4FF48008 		moveq	r8, #4194304
 12641 0940 4FF04008 		movne	r8, #64
 12642 0944 13F0400F 		tst	r3, #64
 12643 0948 42EA0802 		orr	r2, r2, r8
 12644 094c 0CBF     		ite	eq
 12645 094e 4FF40018 		moveq	r8, #2097152
 12646 0952 4FF02008 		movne	r8, #32
 12647 0956 13F0800F 		tst	r3, #128
ARM GAS  C:\Users\Jay\AppData\Local\Temp\ccjVRGue.s 			page 219


 12648 095a 42EA0803 		orr	r3, r2, r8
 12649 095e 154A     		ldr	r2, .L2520+20
 12650 0960 0CBF     		ite	eq
 12651 0962 4FF40018 		moveq	r8, #2097152
 12652 0966 4FF02008 		movne	r8, #32
 12653 096a 8361     		str	r3, [r0, #24]
 12654 096c C4F81880 		str	r8, [r4, #24]
 12655 0970 DEF80030 		ldr	r3, [lr]
 12656 0974 03F00F03 		and	r3, r3, #15
 12657 0978 CEF80030 		str	r3, [lr]
 12658 097c 0368     		ldr	r3, [r0]
 12659 097e 03EA0C03 		and	r3, r3, ip
 12660 0982 0360     		str	r3, [r0]
 12661 0984 2368     		ldr	r3, [r4]
 12662 0986 03F44063 		and	r3, r3, #3072
 12663 098a 2360     		str	r3, [r4]
 12664 098c 1170     		strb	r1, [r2]
 12665 098e 5BE6     		b	.L2340
 12666              	.L2315:
 12667 0990 084A     		ldr	r2, .L2520+20
 12668 0992 094B     		ldr	r3, .L2520+24
 12669 0994 1078     		ldrb	r0, [r2]	@ zero_extendqisi2
 12670 0996 1B78     		ldrb	r3, [r3]	@ zero_extendqisi2
 12671 0998 1843     		orrs	r0, r0, r3
 12672 099a FFF7FEFF 		bl	c64_data_write
 12673 099e DDE6     		b	.L2312
 12674              	.L2521:
 12675              		.align	2
 12676              	.L2520:
 12677 09a0 00000000 		.word	.LANCHOR7
 12678 09a4 00100258 		.word	1476530176
 12679 09a8 00040258 		.word	1476527104
 12680 09ac 00000140 		.word	1073807360
 12681 09b0 00000000 		.word	.LANCHOR10
 12682 09b4 00000000 		.word	.LANCHOR9
 12683 09b8 00000000 		.word	.LANCHOR11
 12684 09bc 00FC0F00 		.word	1047552
 12685 09c0 00000000 		.word	crt_ram_buf
 12686 09c4 00000000 		.word	.LANCHOR12
 12687              	.L2360:
 12688 09c8 5309     		lsrs	r3, r2, #5
 12689 09ca 02F00200 		and	r0, r2, #2
 12690 09ce C2F38001 		ubfx	r1, r2, #2, #1
 12691 09d2 03F00403 		and	r3, r3, #4
 12692 09d6 21EA0202 		bic	r2, r1, r2
 12693 09da 3649     		ldr	r1, .L2522
 12694 09dc 0343     		orrs	r3, r3, r0
 12695 09de 1343     		orrs	r3, r3, r2
 12696 09e0 51F82330 		ldr	r3, [r1, r3, lsl #2]
 12697 09e4 DA06     		lsls	r2, r3, #27
 12698 09e6 02D5     		bpl	.L2363
 12699 09e8 334A     		ldr	r2, .L2522+4
 12700 09ea 4021     		movs	r1, #64
 12701 09ec 9161     		str	r1, [r2, #24]
 12702              	.L2363:
 12703 09ee 9806     		lsls	r0, r3, #26
 12704 09f0 03D5     		bpl	.L2364
ARM GAS  C:\Users\Jay\AppData\Local\Temp\ccjVRGue.s 			page 220


 12705 09f2 314A     		ldr	r2, .L2522+4
 12706 09f4 4FF48001 		mov	r1, #4194304
 12707 09f8 9161     		str	r1, [r2, #24]
 12708              	.L2364:
 12709 09fa DA01     		lsls	r2, r3, #7
 12710 09fc 2E48     		ldr	r0, .L2522+4
 12711 09fe 4FEA835C 		lsl	ip, r3, #22
 12712 0a02 9901     		lsls	r1, r3, #6
 12713 0a04 D2B2     		uxtb	r2, r2
 12714 0a06 0CF4000C 		and	ip, ip, #8388608
 12715 0a0a 5B05     		lsls	r3, r3, #21
 12716 0a0c 01F48071 		and	r1, r1, #256
 12717 0a10 42EA0C02 		orr	r2, r2, ip
 12718 0a14 03F08073 		and	r3, r3, #16777216
 12719 0a18 0A43     		orrs	r2, r2, r1
 12720 0a1a 1343     		orrs	r3, r3, r2
 12721 0a1c 8361     		str	r3, [r0, #24]
 12722 0a1e FFF799BB 		b	.L2314
 12723              	.L2330:
 12724 0a22 264A     		ldr	r2, .L2522+8
 12725 0a24 264B     		ldr	r3, .L2522+12
 12726 0a26 1278     		ldrb	r2, [r2]	@ zero_extendqisi2
 12727 0a28 1B78     		ldrb	r3, [r3]	@ zero_extendqisi2
 12728 0a2a 2348     		ldr	r0, .L2522+4
 12729 0a2c 1343     		orrs	r3, r3, r2
 12730 0a2e 2549     		ldr	r1, .L2522+16
 12731 0a30 DFF894C0 		ldr	ip, .L2522+20
 12732 0a34 13F0010F 		tst	r3, #1
 12733 0a38 0CBF     		ite	eq
 12734 0a3a 4FF4003E 		moveq	lr, #131072
 12735 0a3e 4FF0020E 		movne	lr, #2
 12736 0a42 13F0020F 		tst	r3, #2
 12737 0a46 0CBF     		ite	eq
 12738 0a48 4FF48038 		moveq	r8, #65536
 12739 0a4c 4FF00108 		movne	r8, #1
 12740 0a50 13F0040F 		tst	r3, #4
 12741 0a54 4EEA080E 		orr	lr, lr, r8
 12742 0a58 0CBF     		ite	eq
 12743 0a5a 4FF00072 		moveq	r2, #33554432
 12744 0a5e 4FF40072 		movne	r2, #512
 12745 0a62 13F0080F 		tst	r3, #8
 12746 0a66 C0F818E0 		str	lr, [r0, #24]
 12747 0a6a 0CBF     		ite	eq
 12748 0a6c 4FF08078 		moveq	r8, #16777216
 12749 0a70 4FF48078 		movne	r8, #256
 12750 0a74 13F0100F 		tst	r3, #16
 12751 0a78 42EA0802 		orr	r2, r2, r8
 12752 0a7c 0CBF     		ite	eq
 12753 0a7e 4FF4000E 		moveq	lr, #8388608
 12754 0a82 4FF0800E 		movne	lr, #128
 12755 0a86 13F0200F 		tst	r3, #32
 12756 0a8a 42EA0E02 		orr	r2, r2, lr
 12757 0a8e 0CBF     		ite	eq
 12758 0a90 4FF4800E 		moveq	lr, #4194304
 12759 0a94 4FF0400E 		movne	lr, #64
 12760 0a98 13F0400F 		tst	r3, #64
 12761 0a9c 42EA0E02 		orr	r2, r2, lr
ARM GAS  C:\Users\Jay\AppData\Local\Temp\ccjVRGue.s 			page 221


 12762 0aa0 0CBF     		ite	eq
 12763 0aa2 4FF4001E 		moveq	lr, #2097152
 12764 0aa6 4FF0200E 		movne	lr, #32
 12765 0aaa 13F0800F 		tst	r3, #128
 12766 0aae 42EA0E03 		orr	r3, r2, lr
 12767 0ab2 B7E5     		b	.L2506
 12768              	.L2523:
 12769              		.align	2
 12770              	.L2522:
 12771 0ab4 00000000 		.word	.LANCHOR36
 12772 0ab8 00100258 		.word	1476530176
 12773 0abc 00000000 		.word	.LANCHOR9
 12774 0ac0 00000000 		.word	.LANCHOR11
 12775 0ac4 00040258 		.word	1476527104
 12776 0ac8 00FC0F00 		.word	1047552
 12778              		.section	.text.ar4x_handler,"ax",%progbits
 12779              		.align	1
 12780              		.p2align 2,,3
 12781              		.global	ar4x_handler
 12782              		.syntax unified
 12783              		.thumb
 12784              		.thumb_func
 12785              		.fpu fpv5-sp-d16
 12787              	ar4x_handler:
 12788              		@ args = 0, pretend = 0, frame = 0
 12789              		@ frame_needed = 0, uses_anonymous_args = 0
 12790 0000 2DE9F84F 		push	{r3, r4, r5, r6, r7, r8, r9, r10, fp, lr}
 12791 0004 8D4B     		ldr	r3, .L2663
 12792 0006 1B69     		ldr	r3, [r3, #16]
 12793 0008 1807     		lsls	r0, r3, #28
 12794 000a 40F11481 		bpl	.L2524
 12795 000e 8C4B     		ldr	r3, .L2663+4
 12796 0010 4FF40012 		mov	r2, #2097152
 12797 0014 8B4C     		ldr	r4, .L2663+8
 12798 0016 8C4D     		ldr	r5, .L2663+12
 12799 0018 9A61     		str	r2, [r3, #24]
 12800              	.L2578:
 12801 001a 8C4F     		ldr	r7, .L2663+16
 12802 001c 8C4E     		ldr	r6, .L2663+20
 12803 001e 3A69     		ldr	r2, [r7, #16]
 12804 0020 3169     		ldr	r1, [r6, #16]
 12805 0022 D311     		asrs	r3, r2, #7
 12806 0024 8648     		ldr	r0, .L2663+4
 12807 0026 0FFA81F8 		sxth	r8, r1
 12808 002a DFF840E2 		ldr	lr, .L2663+48
 12809 002e 03F0200A 		and	r10, r3, #32
 12810 0032 4FEA221C 		asr	ip, r2, #4
 12811 0036 4FEA8803 		lsl	r3, r8, #2
 12812 003a 08F00402 		and	r2, r8, #4
 12813 003e 4FEA0819 		lsl	r9, r8, #4
 12814 0042 0CF0400C 		and	ip, ip, #64
 12815 0046 03F00803 		and	r3, r3, #8
 12816 004a 4FEA480B 		lsl	fp, r8, #1
 12817 004e 09F01009 		and	r9, r9, #16
 12818 0052 0BF4006B 		and	fp, fp, #2048
 12819 0056 43EA0903 		orr	r3, r3, r9
 12820 005a 4FEAC809 		lsl	r9, r8, #3
ARM GAS  C:\Users\Jay\AppData\Local\Temp\ccjVRGue.s 			page 222


 12821 005e 4FEA4818 		lsl	r8, r8, #5
 12822 0062 1343     		orrs	r3, r3, r2
 12823 0064 0269     		ldr	r2, [r0, #16]
 12824 0066 08F40058 		and	r8, r8, #8192
 12825 006a 43EA0B03 		orr	r3, r3, fp
 12826 006e 09F4805B 		and	fp, r9, #4096
 12827 0072 4FEAC209 		lsl	r9, r2, #3
 12828 0076 43EA0B02 		orr	r2, r3, fp
 12829 007a 0FFA89F9 		sxth	r9, r9
 12830 007e 42EA0802 		orr	r2, r2, r8
 12831 0082 C1F30018 		ubfx	r8, r1, #4, #1
 12832 0086 09F48043 		and	r3, r9, #16384
 12833 008a 09EA0E0E 		and	lr, r9, lr
 12834 008e 1A43     		orrs	r2, r2, r3
 12835 0090 8B10     		asrs	r3, r1, #2
 12836 0092 42EA0E02 		orr	r2, r2, lr
 12837 0096 03F0020E 		and	lr, r3, #2
 12838 009a 4B11     		asrs	r3, r1, #5
 12839 009c 42EA0802 		orr	r2, r2, r8
 12840 00a0 4FEAE108 		asr	r8, r1, #3
 12841 00a4 03F48079 		and	r9, r3, #256
 12842 00a8 4910     		asrs	r1, r1, #1
 12843 00aa 42EA0E02 		orr	r2, r2, lr
 12844 00ae 08F40078 		and	r8, r8, #512
 12845 00b2 01F48061 		and	r1, r1, #1024
 12846 00b6 DFF8B0E1 		ldr	lr, .L2663+44
 12847 00ba 42EA0A03 		orr	r3, r2, r10
 12848 00be DEF81020 		ldr	r2, [lr, #16]
 12849 00c2 43EA0C03 		orr	r3, r3, ip
 12850 00c6 43EA0903 		orr	r3, r3, r9
 12851 00ca 43EA0803 		orr	r3, r3, r8
 12852 00ce 0B43     		orrs	r3, r3, r1
 12853 00d0 9BB2     		uxth	r3, r3
 12854 00d2 DEF81020 		ldr	r2, [lr, #16]
 12855 00d6 3F69     		ldr	r7, [r7, #16]
 12856 00d8 3169     		ldr	r1, [r6, #16]
 12857 00da 02F03008 		and	r8, r2, #48
 12858 00de 4FEA671E 		asr	lr, r7, #5
 12859 00e2 0669     		ldr	r6, [r0, #16]
 12860 00e4 C1F3C031 		ubfx	r1, r1, #15, #1
 12861 00e8 FF11     		asrs	r7, r7, #7
 12862 00ea 0EF0020E 		and	lr, lr, #2
 12863 00ee 4FEAA21C 		asr	ip, r2, #6
 12864 00f2 41EA0801 		orr	r1, r1, r8
 12865 00f6 9010     		asrs	r0, r2, #2
 12866 00f8 07F00407 		and	r7, r7, #4
 12867 00fc 0CF0080C 		and	ip, ip, #8
 12868 0100 41EA0E02 		orr	r2, r1, lr
 12869 0104 00F04001 		and	r1, r0, #64
 12870 0108 3A43     		orrs	r2, r2, r7
 12871 010a 42EA0C02 		orr	r2, r2, ip
 12872 010e 0A43     		orrs	r2, r2, r1
 12873 0110 3104     		lsls	r1, r6, #16
 12874 0112 48BF     		it	mi
 12875 0114 62F07F02 		ornmi	r2, r2, #127
 12876 0118 D6B2     		uxtb	r6, r2
 12877 011a 06F00901 		and	r1, r6, #9
ARM GAS  C:\Users\Jay\AppData\Local\Temp\ccjVRGue.s 			page 223


 12878 011e 0129     		cmp	r1, #1
 12879 0120 00F01B81 		beq	.L2656
 12880 0124 16F0010C 		ands	ip, r6, #1
 12881 0128 40F0A280 		bne	.L2657
 12882 012c 494F     		ldr	r7, .L2663+24
 12883 012e 3A78     		ldrb	r2, [r7]	@ zero_extendqisi2
 12884 0130 2AB1     		cbz	r2, .L2654
 12885 0132 0132     		adds	r2, r2, #1
 12886 0134 D2B2     		uxtb	r2, r2
 12887 0136 042A     		cmp	r2, #4
 12888 0138 3A70     		strb	r2, [r7]
 12889 013a 00F00682 		beq	.L2566
 12890              	.L2654:
 12891 013e 4648     		ldr	r0, .L2663+28
 12892 0140 0168     		ldr	r1, [r0]
 12893              	.L2565:
 12894 0142 464F     		ldr	r7, .L2663+32
 12895 0144 3E4A     		ldr	r2, .L2663+4
 12896 0146 3F69     		ldr	r7, [r7, #16]
 12897 0148 1269     		ldr	r2, [r2, #16]
 12898 014a 4FEAE71E 		asr	lr, r7, #7
 12899 014e 4FEA4208 		lsl	r8, r2, #1
 12900 0152 C2F34002 		ubfx	r2, r2, #1, #1
 12901 0156 0EF0040E 		and	lr, lr, #4
 12902 015a 4FEA671C 		asr	ip, r7, #5
 12903 015e 08F00208 		and	r8, r8, #2
 12904 0162 0CF0080C 		and	ip, ip, #8
 12905 0166 42EA0802 		orr	r2, r2, r8
 12906 016a 42EA0E02 		orr	r2, r2, lr
 12907 016e 4FEAE70E 		asr	lr, r7, #3
 12908 0172 42EA0C02 		orr	r2, r2, ip
 12909 0176 0EF0100E 		and	lr, lr, #16
 12910 017a 4FEA670C 		asr	ip, r7, #1
 12911 017e 42EA0E02 		orr	r2, r2, lr
 12912 0182 7F00     		lsls	r7, r7, #1
 12913 0184 0CF0200C 		and	ip, ip, #32
 12914 0188 DFF8C4E0 		ldr	lr, .L2663+20
 12915 018c 07F04007 		and	r7, r7, #64
 12916 0190 42EA0C02 		orr	r2, r2, ip
 12917 0194 DEF810C0 		ldr	ip, [lr, #16]
 12918 0198 3A43     		orrs	r2, r2, r7
 12919 019a 1CF0200F 		tst	ip, #32
 12920 019e 18BF     		it	ne
 12921 01a0 62F07F02 		ornne	r2, r2, #127
 12922 01a4 C9B1     		cbz	r1, .L2530
 12923 01a6 B707     		lsls	r7, r6, #30
 12924 01a8 D2B2     		uxtb	r2, r2
 12925 01aa 00F16D81 		bmi	.L2568
 12926 01ae 5106     		lsls	r1, r2, #25
 12927 01b0 05D5     		bpl	.L2569
 12928 01b2 4FF48043 		mov	r3, #16384
 12929 01b6 224F     		ldr	r7, .L2663+4
 12930 01b8 2549     		ldr	r1, .L2663+20
 12931 01ba BB61     		str	r3, [r7, #24]
 12932 01bc 8B61     		str	r3, [r1, #24]
 12933              	.L2569:
 12934 01be 5307     		lsls	r3, r2, #29
ARM GAS  C:\Users\Jay\AppData\Local\Temp\ccjVRGue.s 			page 224


 12935 01c0 40F17081 		bpl	.L2658
 12936 01c4 1E4A     		ldr	r2, .L2663+4
 12937 01c6 4FF48007 		mov	r7, #4194304
 12938 01ca 4FF4C071 		mov	r1, #384
 12939 01ce 0023     		movs	r3, #0
 12940 01d0 9761     		str	r7, [r2, #24]
 12941 01d2 9161     		str	r1, [r2, #24]
 12942 01d4 224A     		ldr	r2, .L2663+36
 12943 01d6 0360     		str	r3, [r0]
 12944 01d8 1360     		str	r3, [r2]
 12945              	.L2530:
 12946 01da F306     		lsls	r3, r6, #27
 12947 01dc 23D4     		bmi	.L2651
 12948 01de 174A     		ldr	r2, .L2663
 12949              	.L2574:
 12950 01e0 536A     		ldr	r3, [r2, #36]
 12951 01e2 532B     		cmp	r3, #83
 12952 01e4 FCD8     		bhi	.L2574
 12953 01e6 1F4B     		ldr	r3, .L2663+40
 12954 01e8 516A     		ldr	r1, [r2, #36]
 12955 01ea 1A46     		mov	r2, r3
 12956 01ec 5960     		str	r1, [r3, #4]
 12957              	.L2575:
 12958 01ee 5368     		ldr	r3, [r2, #4]
 12959 01f0 112B     		cmp	r3, #17
 12960 01f2 FCD9     		bls	.L2575
 12961 01f4 1548     		ldr	r0, .L2663+16
 12962 01f6 1649     		ldr	r1, .L2663+20
 12963 01f8 114A     		ldr	r2, .L2663+4
 12964 01fa 1B4B     		ldr	r3, .L2663+44
 12965 01fc 0069     		ldr	r0, [r0, #16]
 12966 01fe 0969     		ldr	r1, [r1, #16]
 12967 0200 1269     		ldr	r2, [r2, #16]
 12968 0202 1B69     		ldr	r3, [r3, #16]
 12969 0204 174A     		ldr	r2, .L2663+40
 12970              	.L2576:
 12971 0206 5368     		ldr	r3, [r2, #4]
 12972 0208 202B     		cmp	r3, #32
 12973 020a FCD9     		bls	.L2576
 12974 020c 164A     		ldr	r2, .L2663+44
 12975 020e 0F48     		ldr	r0, .L2663+16
 12976 0210 0F49     		ldr	r1, .L2663+20
 12977 0212 0B4B     		ldr	r3, .L2663+4
 12978 0214 1269     		ldr	r2, [r2, #16]
 12979 0216 0069     		ldr	r0, [r0, #16]
 12980 0218 124A     		ldr	r2, .L2663+40
 12981 021a 0969     		ldr	r1, [r1, #16]
 12982 021c 1B69     		ldr	r3, [r3, #16]
 12983              	.L2577:
 12984 021e 5368     		ldr	r3, [r2, #4]
 12985 0220 602B     		cmp	r3, #96
 12986 0222 FCD9     		bls	.L2577
 12987 0224 F9E6     		b	.L2578
 12988              	.L2651:
 12989 0226 054B     		ldr	r3, .L2663
 12990 0228 6FF00801 		mvn	r1, #8
 12991 022c DA68     		ldr	r2, [r3, #12]
ARM GAS  C:\Users\Jay\AppData\Local\Temp\ccjVRGue.s 			page 225


 12992 022e 0A40     		ands	r2, r2, r1
 12993 0230 DA60     		str	r2, [r3, #12]
 12994 0232 1961     		str	r1, [r3, #16]
 12995 0234 1961     		str	r1, [r3, #16]
 12996              	.L2524:
 12997 0236 BDE8F88F 		pop	{r3, r4, r5, r6, r7, r8, r9, r10, fp, pc}
 12998              	.L2664:
 12999 023a 00BF     		.align	2
 13000              	.L2663:
 13001 023c 00000140 		.word	1073807360
 13002 0240 00100258 		.word	1476530176
 13003 0244 00000000 		.word	dat_buffer
 13004 0248 FF03F0FF 		.word	-1047553
 13005 024c 00080258 		.word	1476528128
 13006 0250 000C0258 		.word	1476529152
 13007 0254 00000000 		.word	.LANCHOR31
 13008 0258 00000000 		.word	.LANCHOR7
 13009 025c 00040258 		.word	1476527104
 13010 0260 00000000 		.word	.LANCHOR6
 13011 0264 001000E0 		.word	-536866816
 13012 0268 00000258 		.word	1476526080
 13013 026c 0080FFFF 		.word	-32768
 13014              	.L2657:
 13015 0270 06F04401 		and	r1, r6, #68
 13016 0274 4429     		cmp	r1, #68
 13017 0276 00F09581 		beq	.L2543
 13018 027a BB4A     		ldr	r2, .L2665
 13019 027c 1268     		ldr	r2, [r2]
 13020 027e 002A     		cmp	r2, #0
 13021 0280 ABD0     		beq	.L2530
 13022 0282 C3F30C03 		ubfx	r3, r3, #0, #13
 13023 0286 B94F     		ldr	r7, .L2665+4
 13024 0288 B948     		ldr	r0, .L2665+8
 13025 028a D25C     		ldrb	r2, [r2, r3]	@ zero_extendqisi2
 13026 028c B949     		ldr	r1, .L2665+12
 13027 028e 12F0010F 		tst	r2, #1
 13028 0292 0CBF     		ite	eq
 13029 0294 4FF4003C 		moveq	ip, #131072
 13030 0298 4FF0020C 		movne	ip, #2
 13031 029c 12F0020F 		tst	r2, #2
 13032 02a0 0CBF     		ite	eq
 13033 02a2 4FF4803E 		moveq	lr, #65536
 13034 02a6 4FF0010E 		movne	lr, #1
 13035 02aa 12F0040F 		tst	r2, #4
 13036 02ae 4CEA0E0C 		orr	ip, ip, lr
 13037 02b2 0CBF     		ite	eq
 13038 02b4 4FF00073 		moveq	r3, #33554432
 13039 02b8 4FF40073 		movne	r3, #512
 13040 02bc 12F0080F 		tst	r2, #8
 13041 02c0 C7F818C0 		str	ip, [r7, #24]
 13042 02c4 0CBF     		ite	eq
 13043 02c6 4FF0807E 		moveq	lr, #16777216
 13044 02ca 4FF4807E 		movne	lr, #256
 13045 02ce 12F0100F 		tst	r2, #16
 13046 02d2 43EA0E03 		orr	r3, r3, lr
 13047 02d6 0CBF     		ite	eq
 13048 02d8 4FF4000C 		moveq	ip, #8388608
ARM GAS  C:\Users\Jay\AppData\Local\Temp\ccjVRGue.s 			page 226


 13049 02dc 4FF0800C 		movne	ip, #128
 13050 02e0 12F0200F 		tst	r2, #32
 13051 02e4 43EA0C03 		orr	r3, r3, ip
 13052 02e8 0CBF     		ite	eq
 13053 02ea 4FF4800C 		moveq	ip, #4194304
 13054 02ee 4FF0400C 		movne	ip, #64
 13055 02f2 12F0400F 		tst	r2, #64
 13056 02f6 43EA0C03 		orr	r3, r3, ip
 13057 02fa 0CBF     		ite	eq
 13058 02fc 4FF4001C 		moveq	ip, #2097152
 13059 0300 4FF0200C 		movne	ip, #32
 13060 0304 12F0800F 		tst	r2, #128
 13061 0308 43EA0C03 		orr	r3, r3, ip
 13062 030c DFF874C2 		ldr	ip, .L2665+28
 13063 0310 0CBF     		ite	eq
 13064 0312 4FF40012 		moveq	r2, #2097152
 13065 0316 2022     		movne	r2, #32
 13066 0318 8361     		str	r3, [r0, #24]
 13067 031a 8A61     		str	r2, [r1, #24]
 13068 031c 3A68     		ldr	r2, [r7]
 13069 031e 02F00F02 		and	r2, r2, #15
 13070 0322 3A60     		str	r2, [r7]
 13071 0324 0368     		ldr	r3, [r0]
 13072 0326 03EA0C03 		and	r3, r3, ip
 13073 032a 0360     		str	r3, [r0]
 13074 032c 0B68     		ldr	r3, [r1]
 13075 032e 03F44063 		and	r3, r3, #3072
 13076 0332 0B60     		str	r3, [r1]
 13077              	.L2552:
 13078 0334 904A     		ldr	r2, .L2665+16
 13079              	.L2563:
 13080 0336 536A     		ldr	r3, [r2, #36]
 13081 0338 932B     		cmp	r3, #147
 13082 033a FCD9     		bls	.L2563
 13083              	.L2655:
 13084 033c 8B48     		ldr	r0, .L2665+4
 13085 033e 8C49     		ldr	r1, .L2665+8
 13086 0340 0368     		ldr	r3, [r0]
 13087 0342 8C4A     		ldr	r2, .L2665+12
 13088 0344 23F00F03 		bic	r3, r3, #15
 13089 0348 0360     		str	r3, [r0]
 13090 034a 0B68     		ldr	r3, [r1]
 13091 034c 2B40     		ands	r3, r3, r5
 13092 034e 0B60     		str	r3, [r1]
 13093 0350 1368     		ldr	r3, [r2]
 13094 0352 23F44063 		bic	r3, r3, #3072
 13095 0356 1360     		str	r3, [r2]
 13096 0358 3FE7     		b	.L2530
 13097              	.L2656:
 13098              		.syntax unified
 13099              	@ 164 "cartridges/action_replay_4x.c" 1
 13100 035a 00BF     		nop
 13101              	@ 0 "" 2
 13102              	@ 164 "cartridges/action_replay_4x.c" 1
 13103 035c 00BF     		nop
 13104              	@ 0 "" 2
 13105              	@ 164 "cartridges/action_replay_4x.c" 1
ARM GAS  C:\Users\Jay\AppData\Local\Temp\ccjVRGue.s 			page 227


 13106 035e 00BF     		nop
 13107              	@ 0 "" 2
 13108              	@ 164 "cartridges/action_replay_4x.c" 1
 13109 0360 00BF     		nop
 13110              	@ 0 "" 2
 13111              	@ 164 "cartridges/action_replay_4x.c" 1
 13112 0362 00BF     		nop
 13113              	@ 0 "" 2
 13114              	@ 164 "cartridges/action_replay_4x.c" 1
 13115 0364 00BF     		nop
 13116              	@ 0 "" 2
 13117              	@ 164 "cartridges/action_replay_4x.c" 1
 13118 0366 00BF     		nop
 13119              	@ 0 "" 2
 13120              		.thumb
 13121              		.syntax unified
 13122 0368 844E     		ldr	r6, .L2665+20
 13123 036a 854A     		ldr	r2, .L2665+24
 13124 036c 8148     		ldr	r0, .L2665+12
 13125 036e 1269     		ldr	r2, [r2, #16]
 13126 0370 3769     		ldr	r7, [r6, #16]
 13127 0372 0669     		ldr	r6, [r0, #16]
 13128 0374 02F0300E 		and	lr, r2, #48
 13129 0378 4FEA671C 		asr	ip, r7, #5
 13130 037c C6F3C036 		ubfx	r6, r6, #15, #1
 13131 0380 FF11     		asrs	r7, r7, #7
 13132 0382 0CF0020C 		and	ip, ip, #2
 13133 0386 46EA0E06 		orr	r6, r6, lr
 13134 038a 07F00407 		and	r7, r7, #4
 13135 038e 4FEAA21E 		asr	lr, r2, #6
 13136 0392 46EA0C06 		orr	r6, r6, ip
 13137 0396 9210     		asrs	r2, r2, #2
 13138 0398 0EF0080E 		and	lr, lr, #8
 13139 039c DFF8CCC1 		ldr	ip, .L2665+4
 13140 03a0 3E43     		orrs	r6, r6, r7
 13141 03a2 02F04002 		and	r2, r2, #64
 13142 03a6 DCF81070 		ldr	r7, [ip, #16]
 13143 03aa 46EA0E06 		orr	r6, r6, lr
 13144 03ae 1643     		orrs	r6, r6, r2
 13145 03b0 3A04     		lsls	r2, r7, #16
 13146 03b2 00F1AF80 		bmi	.L2659
 13147 03b6 F6B2     		uxtb	r6, r6
 13148 03b8 06F04402 		and	r2, r6, #68
 13149 03bc 442A     		cmp	r2, #68
 13150 03be 00F05481 		beq	.L2660
 13151              	.L2579:
 13152 03c2 694A     		ldr	r2, .L2665
 13153 03c4 1268     		ldr	r2, [r2]
 13154 03c6 002A     		cmp	r2, #0
 13155 03c8 3FF407AF 		beq	.L2530
 13156 03cc C3F30C03 		ubfx	r3, r3, #0, #13
 13157 03d0 664F     		ldr	r7, .L2665+4
 13158 03d2 6748     		ldr	r0, .L2665+8
 13159 03d4 D25C     		ldrb	r2, [r2, r3]	@ zero_extendqisi2
 13160 03d6 6749     		ldr	r1, .L2665+12
 13161 03d8 12F0010F 		tst	r2, #1
 13162 03dc 0CBF     		ite	eq
ARM GAS  C:\Users\Jay\AppData\Local\Temp\ccjVRGue.s 			page 228


 13163 03de 4FF4003C 		moveq	ip, #131072
 13164 03e2 4FF0020C 		movne	ip, #2
 13165 03e6 12F0020F 		tst	r2, #2
 13166 03ea 0CBF     		ite	eq
 13167 03ec 4FF4803E 		moveq	lr, #65536
 13168 03f0 4FF0010E 		movne	lr, #1
 13169 03f4 12F0040F 		tst	r2, #4
 13170 03f8 4CEA0E0C 		orr	ip, ip, lr
 13171 03fc 0CBF     		ite	eq
 13172 03fe 4FF00073 		moveq	r3, #33554432
 13173 0402 4FF40073 		movne	r3, #512
 13174 0406 12F0080F 		tst	r2, #8
 13175 040a C7F818C0 		str	ip, [r7, #24]
 13176 040e 0CBF     		ite	eq
 13177 0410 4FF0807E 		moveq	lr, #16777216
 13178 0414 4FF4807E 		movne	lr, #256
 13179 0418 12F0100F 		tst	r2, #16
 13180 041c 43EA0E03 		orr	r3, r3, lr
 13181 0420 0CBF     		ite	eq
 13182 0422 4FF4000C 		moveq	ip, #8388608
 13183 0426 4FF0800C 		movne	ip, #128
 13184 042a 12F0200F 		tst	r2, #32
 13185 042e 43EA0C03 		orr	r3, r3, ip
 13186 0432 0CBF     		ite	eq
 13187 0434 4FF4800C 		moveq	ip, #4194304
 13188 0438 4FF0400C 		movne	ip, #64
 13189 043c 12F0400F 		tst	r2, #64
 13190 0440 43EA0C03 		orr	r3, r3, ip
 13191 0444 0CBF     		ite	eq
 13192 0446 4FF4001C 		moveq	ip, #2097152
 13193 044a 4FF0200C 		movne	ip, #32
 13194 044e 12F0800F 		tst	r2, #128
 13195 0452 4C4A     		ldr	r2, .L2665+28
 13196 0454 43EA0C03 		orr	r3, r3, ip
 13197 0458 0CBF     		ite	eq
 13198 045a 4FF4001C 		moveq	ip, #2097152
 13199 045e 4FF0200C 		movne	ip, #32
 13200 0462 8361     		str	r3, [r0, #24]
 13201 0464 C1F818C0 		str	ip, [r1, #24]
 13202 0468 3B68     		ldr	r3, [r7]
 13203 046a 03F00F03 		and	r3, r3, #15
 13204 046e 3B60     		str	r3, [r7]
 13205 0470 0368     		ldr	r3, [r0]
 13206 0472 1340     		ands	r3, r3, r2
 13207 0474 0360     		str	r3, [r0]
 13208 0476 0B68     		ldr	r3, [r1]
 13209 0478 03F44063 		and	r3, r3, #3072
 13210 047c 0B60     		str	r3, [r1]
 13211              	.L2539:
 13212 047e 3E4A     		ldr	r2, .L2665+16
 13213              	.L2541:
 13214 0480 536A     		ldr	r3, [r2, #36]
 13215 0482 932B     		cmp	r3, #147
 13216 0484 FCD9     		bls	.L2541
 13217 0486 59E7     		b	.L2655
 13218              	.L2568:
 13219 0488 06F04400 		and	r0, r6, #68
ARM GAS  C:\Users\Jay\AppData\Local\Temp\ccjVRGue.s 			page 229


 13220 048c 4428     		cmp	r0, #68
 13221 048e 3FF4A4AE 		beq	.L2530
 13222 0492 3D48     		ldr	r0, .L2665+32
 13223 0494 0068     		ldr	r0, [r0]
 13224 0496 8142     		cmp	r1, r0
 13225 0498 3FF49FAE 		beq	.L2530
 13226 049c C3F30C03 		ubfx	r3, r3, #0, #13
 13227 04a0 CA54     		strb	r2, [r1, r3]
 13228 04a2 9AE6     		b	.L2530
 13229              	.L2658:
 13230 04a4 394B     		ldr	r3, .L2665+36
 13231 04a6 02F00301 		and	r1, r2, #3
 13232 04aa 53F82130 		ldr	r3, [r3, r1, lsl #2]
 13233 04ae DF06     		lsls	r7, r3, #27
 13234 04b0 02D5     		bpl	.L2571
 13235 04b2 2E49     		ldr	r1, .L2665+4
 13236 04b4 4027     		movs	r7, #64
 13237 04b6 8F61     		str	r7, [r1, #24]
 13238              	.L2571:
 13239 04b8 9906     		lsls	r1, r3, #26
 13240 04ba 03D5     		bpl	.L2572
 13241 04bc 2B49     		ldr	r1, .L2665+4
 13242 04be 4FF48007 		mov	r7, #4194304
 13243 04c2 8F61     		str	r7, [r1, #24]
 13244              	.L2572:
 13245 04c4 D901     		lsls	r1, r3, #7
 13246 04c6 C2F3C107 		ubfx	r7, r2, #3, #2
 13247 04ca 4FEA835E 		lsl	lr, r3, #22
 13248 04ce 9206     		lsls	r2, r2, #26
 13249 04d0 4FEA831C 		lsl	ip, r3, #6
 13250 04d4 0EF4000E 		and	lr, lr, #8388608
 13251 04d8 C9B2     		uxtb	r1, r1
 13252 04da 0CF4807C 		and	ip, ip, #256
 13253 04de 4FEA4353 		lsl	r3, r3, #21
 13254 04e2 41EA0E01 		orr	r1, r1, lr
 13255 04e6 DFF8B4E0 		ldr	lr, .L2665+52
 13256 04ea 03F08073 		and	r3, r3, #16777216
 13257 04ee 41EA0C01 		orr	r1, r1, ip
 13258 04f2 DFF878C0 		ldr	ip, .L2665+4
 13259 04f6 43EA0103 		orr	r3, r3, r1
 13260 04fa 5EF82710 		ldr	r1, [lr, r7, lsl #2]
 13261 04fe CCF81830 		str	r3, [ip, #24]
 13262 0502 214B     		ldr	r3, .L2665+32
 13263 0504 1960     		str	r1, [r3]
 13264 0506 40F1AE80 		bpl	.L2573
 13265 050a 214B     		ldr	r3, .L2665+40
 13266 050c 53F82730 		ldr	r3, [r3, r7, lsl #2]
 13267 0510 0360     		str	r3, [r0]
 13268 0512 62E6     		b	.L2530
 13269              	.L2659:
 13270 0514 46F08006 		orr	r6, r6, #128
 13271 0518 06F04402 		and	r2, r6, #68
 13272 051c 442A     		cmp	r2, #68
 13273 051e 7FF450AF 		bne	.L2579
 13274 0522 16F02002 		ands	r2, r6, #32
 13275 0526 1B4B     		ldr	r3, .L2665+44
 13276 0528 40F0C280 		bne	.L2661
ARM GAS  C:\Users\Jay\AppData\Local\Temp\ccjVRGue.s 			page 230


 13277 052c 1F78     		ldrb	r7, [r3]	@ zero_extendqisi2
 13278 052e 002F     		cmp	r7, #0
 13279 0530 3FF453AE 		beq	.L2530
 13280 0534 4FF08047 		mov	r7, #1073741824
 13281 0538 DFF864E0 		ldr	lr, .L2665+56
 13282 053c CCF81870 		str	r7, [ip, #24]
 13283 0540 8761     		str	r7, [r0, #24]
 13284 0542 1A70     		strb	r2, [r3]
 13285 0544 8EF80010 		strb	r1, [lr]
 13286 0548 47E6     		b	.L2530
 13287              	.L2566:
 13288 054a 084A     		ldr	r2, .L2665+4
 13289 054c 4FF0400E 		mov	lr, #64
 13290 0550 1148     		ldr	r0, .L2665+48
 13291 0552 2146     		mov	r1, r4
 13292 0554 C2F818E0 		str	lr, [r2, #24]
 13293 0558 9061     		str	r0, [r2, #24]
 13294 055a 0B4A     		ldr	r2, .L2665+32
 13295 055c 0248     		ldr	r0, .L2665
 13296 055e 87F800C0 		strb	ip, [r7]
 13297 0562 1460     		str	r4, [r2]
 13298 0564 0460     		str	r4, [r0]
 13299 0566 ECE5     		b	.L2565
 13300              	.L2666:
 13301              		.align	2
 13302              	.L2665:
 13303 0568 00000000 		.word	.LANCHOR7
 13304 056c 00100258 		.word	1476530176
 13305 0570 00040258 		.word	1476527104
 13306 0574 000C0258 		.word	1476529152
 13307 0578 00000140 		.word	1073807360
 13308 057c 00080258 		.word	1476528128
 13309 0580 00000258 		.word	1476526080
 13310 0584 00FC0F00 		.word	1047552
 13311 0588 00000000 		.word	.LANCHOR6
 13312 058c 00000000 		.word	.LANCHOR40
 13313 0590 00000000 		.word	.LANCHOR38
 13314 0594 00000000 		.word	.LANCHOR35
 13315 0598 00018000 		.word	8388864
 13316 059c 00000000 		.word	.LANCHOR32
 13317 05a0 00000000 		.word	.LANCHOR31
 13318              	.L2543:
 13319 05a4 002A     		cmp	r2, #0
 13320 05a6 6BDB     		blt	.L2553
 13321 05a8 424A     		ldr	r2, .L2667
 13322 05aa 1268     		ldr	r2, [r2]
 13323 05ac 002A     		cmp	r2, #0
 13324 05ae 3FF414AE 		beq	.L2530
 13325 05b2 C3F30C03 		ubfx	r3, r3, #0, #13
 13326 05b6 404F     		ldr	r7, .L2667+4
 13327 05b8 4048     		ldr	r0, .L2667+8
 13328 05ba D25C     		ldrb	r2, [r2, r3]	@ zero_extendqisi2
 13329 05bc 4049     		ldr	r1, .L2667+12
 13330 05be 12F0010F 		tst	r2, #1
 13331 05c2 0CBF     		ite	eq
 13332 05c4 4FF4003C 		moveq	ip, #131072
 13333 05c8 4FF0020C 		movne	ip, #2
ARM GAS  C:\Users\Jay\AppData\Local\Temp\ccjVRGue.s 			page 231


 13334 05cc 12F0020F 		tst	r2, #2
 13335 05d0 0CBF     		ite	eq
 13336 05d2 4FF4803E 		moveq	lr, #65536
 13337 05d6 4FF0010E 		movne	lr, #1
 13338 05da 12F0040F 		tst	r2, #4
 13339 05de 4CEA0E0C 		orr	ip, ip, lr
 13340 05e2 0CBF     		ite	eq
 13341 05e4 4FF00073 		moveq	r3, #33554432
 13342 05e8 4FF40073 		movne	r3, #512
 13343 05ec 12F0080F 		tst	r2, #8
 13344 05f0 C7F818C0 		str	ip, [r7, #24]
 13345 05f4 0CBF     		ite	eq
 13346 05f6 4FF0807E 		moveq	lr, #16777216
 13347 05fa 4FF4807E 		movne	lr, #256
 13348 05fe 12F0100F 		tst	r2, #16
 13349 0602 43EA0E03 		orr	r3, r3, lr
 13350 0606 0CBF     		ite	eq
 13351 0608 4FF4000C 		moveq	ip, #8388608
 13352 060c 4FF0800C 		movne	ip, #128
 13353 0610 12F0200F 		tst	r2, #32
 13354 0614 43EA0C03 		orr	r3, r3, ip
 13355 0618 0CBF     		ite	eq
 13356 061a 4FF4800C 		moveq	ip, #4194304
 13357 061e 4FF0400C 		movne	ip, #64
 13358 0622 12F0400F 		tst	r2, #64
 13359 0626 43EA0C03 		orr	r3, r3, ip
 13360 062a 0CBF     		ite	eq
 13361 062c 4FF4001C 		moveq	ip, #2097152
 13362 0630 4FF0200C 		movne	ip, #32
 13363 0634 12F0800F 		tst	r2, #128
 13364 0638 224A     		ldr	r2, .L2667+16
 13365 063a 43EA0C03 		orr	r3, r3, ip
 13366 063e 0CBF     		ite	eq
 13367 0640 4FF4001C 		moveq	ip, #2097152
 13368 0644 4FF0200C 		movne	ip, #32
 13369 0648 8361     		str	r3, [r0, #24]
 13370 064a C1F818C0 		str	ip, [r1, #24]
 13371 064e 3B68     		ldr	r3, [r7]
 13372 0650 03F00F03 		and	r3, r3, #15
 13373 0654 3B60     		str	r3, [r7]
 13374 0656 0368     		ldr	r3, [r0]
 13375 0658 1340     		ands	r3, r3, r2
 13376 065a 0360     		str	r3, [r0]
 13377 065c 0B68     		ldr	r3, [r1]
 13378 065e 03F44063 		and	r3, r3, #3072
 13379 0662 0B60     		str	r3, [r1]
 13380 0664 66E6     		b	.L2552
 13381              	.L2573:
 13382 0666 0160     		str	r1, [r0]
 13383 0668 B7E5     		b	.L2530
 13384              	.L2660:
 13385 066a 124A     		ldr	r2, .L2667
 13386 066c 1268     		ldr	r2, [r2]
 13387 066e 002A     		cmp	r2, #0
 13388 0670 3FF4B3AD 		beq	.L2530
 13389 0674 C3F30C03 		ubfx	r3, r3, #0, #13
 13390 0678 D05C     		ldrb	r0, [r2, r3]	@ zero_extendqisi2
ARM GAS  C:\Users\Jay\AppData\Local\Temp\ccjVRGue.s 			page 232


 13391 067a FFF7FEFF 		bl	c64_data_write
 13392 067e FEE6     		b	.L2539
 13393              	.L2553:
 13394 0680 16F02002 		ands	r2, r6, #32
 13395 0684 104B     		ldr	r3, .L2667+20
 13396 0686 10D1     		bne	.L2662
 13397 0688 1978     		ldrb	r1, [r3]	@ zero_extendqisi2
 13398 068a 0029     		cmp	r1, #0
 13399 068c 3FF4A5AD 		beq	.L2530
 13400 0690 4FF08041 		mov	r1, #1073741824
 13401 0694 DFF820C0 		ldr	ip, .L2667+4
 13402 0698 094F     		ldr	r7, .L2667+12
 13403 069a 0120     		movs	r0, #1
 13404 069c CCF81810 		str	r1, [ip, #24]
 13405 06a0 B961     		str	r1, [r7, #24]
 13406 06a2 0A49     		ldr	r1, .L2667+24
 13407 06a4 1A70     		strb	r2, [r3]
 13408 06a6 0870     		strb	r0, [r1]
 13409 06a8 97E5     		b	.L2530
 13410              	.L2662:
 13411 06aa 0122     		movs	r2, #1
 13412 06ac 1A70     		strb	r2, [r3]
 13413 06ae 94E5     		b	.L2530
 13414              	.L2661:
 13415 06b0 1970     		strb	r1, [r3]
 13416 06b2 92E5     		b	.L2530
 13417              	.L2668:
 13418              		.align	2
 13419              	.L2667:
 13420 06b4 00000000 		.word	.LANCHOR6
 13421 06b8 00100258 		.word	1476530176
 13422 06bc 00040258 		.word	1476527104
 13423 06c0 000C0258 		.word	1476529152
 13424 06c4 00FC0F00 		.word	1047552
 13425 06c8 00000000 		.word	.LANCHOR35
 13426 06cc 00000000 		.word	.LANCHOR31
 13428              		.section	.text.SystemInit,"ax",%progbits
 13429              		.align	1
 13430              		.p2align 2,,3
 13431              		.global	SystemInit
 13432              		.syntax unified
 13433              		.thumb
 13434              		.thumb_func
 13435              		.fpu fpv5-sp-d16
 13437              	SystemInit:
 13438              		@ args = 0, pretend = 0, frame = 0
 13439              		@ frame_needed = 0, uses_anonymous_args = 0
 13440              		@ link register save eliminated.
 13441 0000 2A49     		ldr	r1, .L2674
 13442 0002 2B4A     		ldr	r2, .L2674+4
 13443 0004 D1F88830 		ldr	r3, [r1, #136]
 13444 0008 43F47003 		orr	r3, r3, #15728640
 13445 000c 10B4     		push	{r4}
 13446 000e C1F88830 		str	r3, [r1, #136]
 13447 0012 1368     		ldr	r3, [r2]
 13448 0014 03F00F03 		and	r3, r3, #15
 13449 0018 062B     		cmp	r3, #6
ARM GAS  C:\Users\Jay\AppData\Local\Temp\ccjVRGue.s 			page 233


 13450 001a 05D8     		bhi	.L2670
 13451 001c 1368     		ldr	r3, [r2]
 13452 001e 23F00F03 		bic	r3, r3, #15
 13453 0022 43F00703 		orr	r3, r3, #7
 13454 0026 1360     		str	r3, [r2]
 13455              	.L2670:
 13456 0028 224B     		ldr	r3, .L2674+8
 13457 002a 0024     		movs	r4, #0
 13458 002c 224A     		ldr	r2, .L2674+12
 13459 002e 1968     		ldr	r1, [r3]
 13460 0030 1F48     		ldr	r0, .L2674+4
 13461 0032 41F00101 		orr	r1, r1, #1
 13462 0036 1960     		str	r1, [r3]
 13463 0038 1C61     		str	r4, [r3, #16]
 13464 003a 1968     		ldr	r1, [r3]
 13465 003c 0A40     		ands	r2, r2, r1
 13466 003e 1A60     		str	r2, [r3]
 13467 0040 0368     		ldr	r3, [r0]
 13468 0042 03F00F03 		and	r3, r3, #15
 13469 0046 072B     		cmp	r3, #7
 13470 0048 05D9     		bls	.L2671
 13471 004a 0368     		ldr	r3, [r0]
 13472 004c 23F00F03 		bic	r3, r3, #15
 13473 0050 43F00703 		orr	r3, r3, #7
 13474 0054 0360     		str	r3, [r0]
 13475              	.L2671:
 13476 0056 174B     		ldr	r3, .L2674+8
 13477 0058 0022     		movs	r2, #0
 13478 005a 1849     		ldr	r1, .L2674+16
 13479 005c 184C     		ldr	r4, .L2674+20
 13480 005e 1948     		ldr	r0, .L2674+24
 13481 0060 9A61     		str	r2, [r3, #24]
 13482 0062 DA61     		str	r2, [r3, #28]
 13483 0064 1A62     		str	r2, [r3, #32]
 13484 0066 9C62     		str	r4, [r3, #40]
 13485 0068 D862     		str	r0, [r3, #44]
 13486 006a 1963     		str	r1, [r3, #48]
 13487 006c 5A63     		str	r2, [r3, #52]
 13488 006e 9963     		str	r1, [r3, #56]
 13489 0070 DA63     		str	r2, [r3, #60]
 13490 0072 1964     		str	r1, [r3, #64]
 13491 0074 5A64     		str	r2, [r3, #68]
 13492 0076 1868     		ldr	r0, [r3]
 13493 0078 134C     		ldr	r4, .L2674+28
 13494 007a 20F48020 		bic	r0, r0, #262144
 13495 007e 1349     		ldr	r1, .L2674+32
 13496 0080 1860     		str	r0, [r3]
 13497 0082 1A66     		str	r2, [r3, #96]
 13498 0084 2368     		ldr	r3, [r4]
 13499 0086 1940     		ands	r1, r1, r3
 13500 0088 B1F1005F 		cmp	r1, #536870912
 13501 008c 02D2     		bcs	.L2672
 13502 008e 104B     		ldr	r3, .L2674+36
 13503 0090 0122     		movs	r2, #1
 13504 0092 1A60     		str	r2, [r3]
 13505              	.L2672:
 13506 0094 0F49     		ldr	r1, .L2674+40
ARM GAS  C:\Users\Jay\AppData\Local\Temp\ccjVRGue.s 			page 234


 13507 0096 43F2D200 		movw	r0, #12498
 13508 009a 044B     		ldr	r3, .L2674
 13509 009c 4FF00062 		mov	r2, #134217728
 13510 00a0 0860     		str	r0, [r1]
 13511 00a2 5DF8044B 		ldr	r4, [sp], #4
 13512 00a6 9A60     		str	r2, [r3, #8]
 13513 00a8 7047     		bx	lr
 13514              	.L2675:
 13515 00aa 00BF     		.align	2
 13516              	.L2674:
 13517 00ac 00ED00E0 		.word	-536810240
 13518 00b0 00200052 		.word	1375739904
 13519 00b4 00440258 		.word	1476543488
 13520 00b8 7FEDF6EA 		.word	-352916097
 13521 00bc 80020101 		.word	16843392
 13522 00c0 00020202 		.word	33686016
 13523 00c4 0000FF01 		.word	33488896
 13524 00c8 0010005C 		.word	1543507968
 13525 00cc 0000FFFF 		.word	-65536
 13526 00d0 08810051 		.word	1358987528
 13527 00d4 00400052 		.word	1375748096
 13529              		.section	.text.SystemCoreClockUpdate,"ax",%progbits
 13530              		.align	1
 13531              		.p2align 2,,3
 13532              		.global	SystemCoreClockUpdate
 13533              		.syntax unified
 13534              		.thumb
 13535              		.thumb_func
 13536              		.fpu fpv5-sp-d16
 13538              	SystemCoreClockUpdate:
 13539              		@ args = 0, pretend = 0, frame = 0
 13540              		@ frame_needed = 0, uses_anonymous_args = 0
 13541              		@ link register save eliminated.
 13542 0000 424A     		ldr	r2, .L2693
 13543 0002 1369     		ldr	r3, [r2, #16]
 13544 0004 03F03803 		and	r3, r3, #56
 13545 0008 102B     		cmp	r3, #16
 13546 000a 30B4     		push	{r4, r5}
 13547 000c 5ED0     		beq	.L2686
 13548 000e 182B     		cmp	r3, #24
 13549 0010 1CD0     		beq	.L2679
 13550 0012 A3B1     		cbz	r3, .L2680
 13551 0014 3E4B     		ldr	r3, .L2693+4
 13552              	.L2678:
 13553 0016 3D4A     		ldr	r2, .L2693
 13554 0018 3E48     		ldr	r0, .L2693+8
 13555 001a 9169     		ldr	r1, [r2, #24]
 13556 001c 9269     		ldr	r2, [r2, #24]
 13557 001e C1F30321 		ubfx	r1, r1, #8, #4
 13558 0022 3D4D     		ldr	r5, .L2693+12
 13559 0024 02F00F02 		and	r2, r2, #15
 13560 0028 3C4C     		ldr	r4, .L2693+16
 13561 002a 415C     		ldrb	r1, [r0, r1]	@ zero_extendqisi2
 13562 002c 825C     		ldrb	r2, [r0, r2]	@ zero_extendqisi2
 13563 002e CB40     		lsrs	r3, r3, r1
 13564 0030 02F01F02 		and	r2, r2, #31
 13565 0034 2B60     		str	r3, [r5]
ARM GAS  C:\Users\Jay\AppData\Local\Temp\ccjVRGue.s 			page 235


 13566 0036 D340     		lsrs	r3, r3, r2
 13567 0038 2360     		str	r3, [r4]
 13568 003a 30BC     		pop	{r4, r5}
 13569 003c 7047     		bx	lr
 13570              	.L2680:
 13571 003e 1368     		ldr	r3, [r2]
 13572 0040 374A     		ldr	r2, .L2693+20
 13573 0042 C3F3C103 		ubfx	r3, r3, #3, #2
 13574 0046 22FA03F3 		lsr	r3, r2, r3
 13575 004a E4E7     		b	.L2678
 13576              	.L2679:
 13577 004c 906A     		ldr	r0, [r2, #40]
 13578 004e 936A     		ldr	r3, [r2, #40]
 13579 0050 D16A     		ldr	r1, [r2, #44]
 13580 0052 C3F30513 		ubfx	r3, r3, #4, #6
 13581 0056 546B     		ldr	r4, [r2, #52]
 13582 0058 002B     		cmp	r3, #0
 13583 005a DCD0     		beq	.L2678
 13584 005c C4F3CC04 		ubfx	r4, r4, #3, #13
 13585 0060 01F00101 		and	r1, r1, #1
 13586 0064 07EE903A 		vmov	s15, r3	@ int
 13587 0068 00F00300 		and	r0, r0, #3
 13588 006c 01FB04F3 		mul	r3, r1, r4
 13589 0070 B8EEE76A 		vcvt.f32.s32	s12, s15
 13590 0074 0128     		cmp	r0, #1
 13591 0076 07EE903A 		vmov	s15, r3	@ int
 13592 007a FAEEE97A 		vcvt.f32.s32	s15, s15, #13
 13593 007e 02D0     		beq	.L2690
 13594 0080 29D3     		bcc	.L2683
 13595 0082 0228     		cmp	r0, #2
 13596 0084 24D0     		beq	.L2684
 13597              	.L2690:
 13598 0086 9FED277A 		vldr.32	s14, .L2693+24
 13599              	.L2692:
 13600 008a C7EE066A 		vdiv.f32	s13, s14, s12
 13601 008e 136B     		ldr	r3, [r2, #48]
 13602 0090 C3F30803 		ubfx	r3, r3, #0, #9
 13603 0094 07EE103A 		vmov	s14, r3	@ int
 13604 0098 F7EE005A 		vmov.f32	s11, #1.0e+0
 13605 009c B8EEC77A 		vcvt.f32.s32	s14, s14
 13606 00a0 77EE277A 		vadd.f32	s15, s14, s15
 13607 00a4 77EEA57A 		vadd.f32	s15, s15, s11
 13608 00a8 67EEA67A 		vmul.f32	s15, s15, s13
 13609              	.L2685:
 13610 00ac 174B     		ldr	r3, .L2693
 13611 00ae 1B6B     		ldr	r3, [r3, #48]
 13612 00b0 C3F34623 		ubfx	r3, r3, #9, #7
 13613 00b4 0133     		adds	r3, r3, #1
 13614 00b6 07EE103A 		vmov	s14, r3	@ int
 13615 00ba B8EEC77A 		vcvt.f32.s32	s14, s14
 13616 00be C7EE876A 		vdiv.f32	s13, s15, s14
 13617 00c2 FCEEE67A 		vcvt.u32.f32	s15, s13
 13618 00c6 17EE903A 		vmov	r3, s15	@ int
 13619 00ca A4E7     		b	.L2678
 13620              	.L2686:
 13621 00cc 164B     		ldr	r3, .L2693+28
 13622 00ce A2E7     		b	.L2678
ARM GAS  C:\Users\Jay\AppData\Local\Temp\ccjVRGue.s 			page 236


 13623              	.L2684:
 13624 00d0 9FED167A 		vldr.32	s14, .L2693+32
 13625 00d4 D9E7     		b	.L2692
 13626              	.L2683:
 13627 00d6 1068     		ldr	r0, [r2]
 13628 00d8 B7EE005A 		vmov.f32	s10, #1.0e+0
 13629 00dc 1049     		ldr	r1, .L2693+20
 13630 00de C0F3C100 		ubfx	r0, r0, #3, #2
 13631 00e2 136B     		ldr	r3, [r2, #48]
 13632 00e4 C140     		lsrs	r1, r1, r0
 13633 00e6 C3F30803 		ubfx	r3, r3, #0, #9
 13634 00ea 07EE101A 		vmov	s14, r1	@ int
 13635 00ee F8EEC75A 		vcvt.f32.s32	s11, s14
 13636 00f2 07EE103A 		vmov	s14, r3	@ int
 13637 00f6 F8EEC76A 		vcvt.f32.s32	s13, s14
 13638 00fa 85EE867A 		vdiv.f32	s14, s11, s12
 13639 00fe 76EEA77A 		vadd.f32	s15, s13, s15
 13640 0102 77EE857A 		vadd.f32	s15, s15, s10
 13641 0106 67EE277A 		vmul.f32	s15, s14, s15
 13642 010a CFE7     		b	.L2685
 13643              	.L2694:
 13644              		.align	2
 13645              	.L2693:
 13646 010c 00440258 		.word	1476543488
 13647 0110 00093D00 		.word	4000000
 13648 0114 00000000 		.word	.LANCHOR41
 13649 0118 00000000 		.word	.LANCHOR43
 13650 011c 00000000 		.word	.LANCHOR42
 13651 0120 0090D003 		.word	64000000
 13652 0124 0024744A 		.word	1249125376
 13653 0128 40787D01 		.word	25000000
 13654 012c 20BCBE4B 		.word	1270791200
 13656              		.section	.text.EXTI4_IRQHandler,"ax",%progbits
 13657              		.align	1
 13658              		.p2align 2,,3
 13659              		.global	EXTI4_IRQHandler
 13660              		.syntax unified
 13661              		.thumb
 13662              		.thumb_func
 13663              		.fpu fpv5-sp-d16
 13665              	EXTI4_IRQHandler:
 13666              		@ args = 0, pretend = 0, frame = 0
 13667              		@ frame_needed = 0, uses_anonymous_args = 0
 13668 0000 08B5     		push	{r3, lr}
 13669 0002 4FF0B043 		mov	r3, #1476395008
 13670 0006 D3F88830 		ldr	r3, [r3, #136]
 13671 000a DB06     		lsls	r3, r3, #27
 13672 000c 00D4     		bmi	.L2698
 13673 000e 08BD     		pop	{r3, pc}
 13674              	.L2698:
 13675 0010 054B     		ldr	r3, .L2699
 13676 0012 6FF00801 		mvn	r1, #8
 13677 0016 DA68     		ldr	r2, [r3, #12]
 13678 0018 0A40     		ands	r2, r2, r1
 13679 001a DA60     		str	r2, [r3, #12]
 13680 001c 1961     		str	r1, [r3, #16]
 13681 001e FFF7FEFF 		bl	c64_reset.part.24
ARM GAS  C:\Users\Jay\AppData\Local\Temp\ccjVRGue.s 			page 237


 13682 0022 FFF7FEFF 		bl	restart_to_menu
 13683              	.L2700:
 13684 0026 00BF     		.align	2
 13685              	.L2699:
 13686 0028 00000140 		.word	1073807360
 13688              		.section	.text.disk_initialize,"ax",%progbits
 13689              		.align	1
 13690              		.p2align 2,,3
 13691              		.global	disk_initialize
 13692              		.syntax unified
 13693              		.thumb
 13694              		.thumb_func
 13695              		.fpu fpv5-sp-d16
 13697              	disk_initialize:
 13698              		@ args = 0, pretend = 0, frame = 16
 13699              		@ frame_needed = 0, uses_anonymous_args = 0
 13700 0000 2DE9F047 		push	{r4, r5, r6, r7, r8, r9, r10, lr}
 13701 0004 BD4B     		ldr	r3, .L2780
 13702 0006 0122     		movs	r2, #1
 13703 0008 BD4D     		ldr	r5, .L2780+4
 13704 000a 0024     		movs	r4, #0
 13705 000c DFF814E3 		ldr	lr, .L2780+40
 13706 0010 84B0     		sub	sp, sp, #16
 13707 0012 2A70     		strb	r2, [r5]
 13708 0014 D968     		ldr	r1, [r3, #12]
 13709 0016 BB48     		ldr	r0, .L2780+8
 13710 0018 01EA0E01 		and	r1, r1, lr
 13711 001c BA4A     		ldr	r2, .L2780+12
 13712 001e BB4E     		ldr	r6, .L2780+16
 13713 0020 0843     		orrs	r0, r0, r1
 13714 0022 DFF810C3 		ldr	ip, .L2780+56
 13715 0026 3480     		strh	r4, [r6]	@ movhi
 13716 0028 D860     		str	r0, [r3, #12]
 13717 002a D068     		ldr	r0, [r2, #12]
 13718 002c B849     		ldr	r1, .L2780+20
 13719 002e 20F47040 		bic	r0, r0, #61440
 13720 0032 40F48040 		orr	r0, r0, #16384
 13721 0036 D060     		str	r0, [r2, #12]
 13722 0038 9868     		ldr	r0, [r3, #8]
 13723 003a 00EA0E00 		and	r0, r0, lr
 13724 003e 40EA0C00 		orr	r0, r0, ip
 13725 0042 9860     		str	r0, [r3, #8]
 13726 0044 9068     		ldr	r0, [r2, #8]
 13727 0046 20F47040 		bic	r0, r0, #61440
 13728 004a 40F42040 		orr	r0, r0, #40960
 13729 004e 9060     		str	r0, [r2, #8]
 13730 0050 1F6A     		ldr	r7, [r3, #32]
 13731 0052 27F47F27 		bic	r7, r7, #1044480
 13732 0056 47F44C27 		orr	r7, r7, #835584
 13733 005a 1F62     		str	r7, [r3, #32]
 13734 005c 5F6A     		ldr	r7, [r3, #36]
 13735 005e 27F07F47 		bic	r7, r7, #-16777216
 13736 0062 47F04C47 		orr	r7, r7, #-872415232
 13737 0066 5F62     		str	r7, [r3, #36]
 13738 0068 1868     		ldr	r0, [r3]
 13739 006a 00EA0E00 		and	r0, r0, lr
 13740 006e 40EA0C00 		orr	r0, r0, ip
ARM GAS  C:\Users\Jay\AppData\Local\Temp\ccjVRGue.s 			page 238


 13741 0072 1860     		str	r0, [r3]
 13742 0074 136A     		ldr	r3, [r2, #32]
 13743 0076 23F07F43 		bic	r3, r3, #-16777216
 13744 007a 43F04C43 		orr	r3, r3, #-872415232
 13745 007e 1362     		str	r3, [r2, #32]
 13746 0080 1368     		ldr	r3, [r2]
 13747 0082 23F47043 		bic	r3, r3, #61440
 13748 0086 43F42043 		orr	r3, r3, #40960
 13749 008a 1360     		str	r3, [r2]
 13750 008c D1F8DC30 		ldr	r3, [r1, #220]
 13751 0090 43F40073 		orr	r3, r3, #512
 13752 0094 C1F8DC30 		str	r3, [r1, #220]
 13753              		.syntax unified
 13754              	@ 878 "stm32h7xx/cmsis/cmsis_gcc.h" 1
 13755 0098 BFF34F8F 		dsb 0xF
 13756              	@ 0 "" 2
 13757              		.thumb
 13758              		.syntax unified
 13759 009c D1F88420 		ldr	r2, [r1, #132]
 13760 00a0 4FF0D20C 		mov	ip, #210
 13761 00a4 9B4F     		ldr	r7, .L2780+24
 13762 00a6 42F40072 		orr	r2, r2, #512
 13763 00aa 9B4B     		ldr	r3, .L2780+28
 13764 00ac C1F88420 		str	r2, [r1, #132]
 13765 00b0 1A46     		mov	r2, r3
 13766 00b2 D1F88400 		ldr	r0, [r1, #132]
 13767 00b6 20F40070 		bic	r0, r0, #512
 13768 00ba C1F88400 		str	r0, [r1, #132]
 13769 00be 3968     		ldr	r1, [r7]
 13770 00c0 41F00301 		orr	r1, r1, #3
 13771 00c4 3960     		str	r1, [r7]
 13772 00c6 C3F804C0 		str	ip, [r3, #4]
 13773 00ca 9C60     		str	r4, [r3, #8]
 13774              	.L2702:
 13775 00cc 1368     		ldr	r3, [r2]
 13776 00ce DB03     		lsls	r3, r3, #15
 13777 00d0 FCD5     		bpl	.L2702
 13778 00d2 41F27604 		movw	r4, #4214
 13779 00d6 8F48     		ldr	r0, .L2780+24
 13780 00d8 41F26801 		movw	r1, #4200
 13781 00dc 0023     		movs	r3, #0
 13782 00de 4460     		str	r4, [r0, #4]
 13783 00e0 8D4C     		ldr	r4, .L2780+28
 13784 00e2 5160     		str	r1, [r2, #4]
 13785 00e4 9360     		str	r3, [r2, #8]
 13786              	.L2703:
 13787 00e6 2368     		ldr	r3, [r4]
 13788 00e8 DF03     		lsls	r7, r3, #15
 13789 00ea FCD5     		bpl	.L2703
 13790 00ec 0023     		movs	r3, #0
 13791 00ee 1A46     		mov	r2, r3
 13792 00f0 1946     		mov	r1, r3
 13793 00f2 1846     		mov	r0, r3
 13794 00f4 FFF7FEFF 		bl	sdio_cmd_send
 13795 00f8 98B3     		cbz	r0, .L2704
 13796 00fa 884B     		ldr	r3, .L2780+32
 13797 00fc 4FF0000A 		mov	r10, #0
ARM GAS  C:\Users\Jay\AppData\Local\Temp\ccjVRGue.s 			page 239


 13798 0100 0122     		movs	r2, #1
 13799 0102 4FF4D571 		mov	r1, #426
 13800 0106 6360     		str	r3, [r4, #4]
 13801 0108 0820     		movs	r0, #8
 13802 010a C4F808A0 		str	r10, [r4, #8]
 13803 010e 6B46     		mov	r3, sp
 13804 0110 FFF7FEFF 		bl	sdio_cmd_send
 13805 0114 30B1     		cbz	r0, .L2705
 13806 0116 009B     		ldr	r3, [sp]
 13807 0118 C3F30B03 		ubfx	r3, r3, #0, #12
 13808 011c B3F5D57F 		cmp	r3, #426
 13809 0120 00F00C81 		beq	.L2775
 13810              	.L2705:
 13811 0124 6B46     		mov	r3, sp
 13812 0126 0122     		movs	r2, #1
 13813 0128 7D49     		ldr	r1, .L2780+36
 13814 012a A920     		movs	r0, #169
 13815 012c FFF7FEFF 		bl	sdio_cmd_send
 13816 0130 0028     		cmp	r0, #0
 13817 0132 5AD1     		bne	.L2776
 13818 0134 0123     		movs	r3, #1
 13819 0136 DFF80082 		ldr	r8, .L2780+60
 13820 013a 1C46     		mov	r4, r3
 13821 013c 88F80030 		strb	r3, [r8]
 13822              	.L2712:
 13823 0140 774F     		ldr	r7, .L2780+36
 13824 0142 DFF8D491 		ldr	r9, .L2780+28
 13825              	.L2714:
 13826 0146 6B46     		mov	r3, sp
 13827 0148 0122     		movs	r2, #1
 13828 014a 3946     		mov	r1, r7
 13829 014c 2046     		mov	r0, r4
 13830 014e FFF7FEFF 		bl	sdio_cmd_send
 13831 0152 10B1     		cbz	r0, .L2713
 13832 0154 0099     		ldr	r1, [sp]
 13833 0156 0029     		cmp	r1, #0
 13834 0158 54DB     		blt	.L2709
 13835              	.L2713:
 13836 015a D9F80030 		ldr	r3, [r9]
 13837 015e DB03     		lsls	r3, r3, #15
 13838 0160 F1D5     		bpl	.L2714
 13839              	.L2704:
 13840 0162 6C4B     		ldr	r3, .L2780+24
 13841 0164 0122     		movs	r2, #1
 13842 0166 2A70     		strb	r2, [r5]
 13843 0168 1A46     		mov	r2, r3
 13844 016a 5968     		ldr	r1, [r3, #4]
 13845 016c 21F48051 		bic	r1, r1, #4096
 13846 0170 5960     		str	r1, [r3, #4]
 13847              	.L2725:
 13848 0172 536B     		ldr	r3, [r2, #52]
 13849 0174 13F40053 		ands	r3, r3, #8192
 13850 0178 FBD1     		bne	.L2725
 13851 017a 1468     		ldr	r4, [r2]
 13852 017c D225     		movs	r5, #210
 13853 017e 6648     		ldr	r0, .L2780+28
 13854 0180 24F00304 		bic	r4, r4, #3
ARM GAS  C:\Users\Jay\AppData\Local\Temp\ccjVRGue.s 			page 240


 13855 0184 0146     		mov	r1, r0
 13856 0186 1460     		str	r4, [r2]
 13857 0188 4560     		str	r5, [r0, #4]
 13858 018a 8360     		str	r3, [r0, #8]
 13859              	.L2726:
 13860 018c 0B68     		ldr	r3, [r1]
 13861 018e DB03     		lsls	r3, r3, #15
 13862 0190 FCD5     		bpl	.L2726
 13863 0192 5F4A     		ldr	r2, .L2780+20
 13864 0194 D2F8DC30 		ldr	r3, [r2, #220]
 13865 0198 23F40073 		bic	r3, r3, #512
 13866 019c C2F8DC30 		str	r3, [r2, #220]
 13867              		.syntax unified
 13868              	@ 878 "stm32h7xx/cmsis/cmsis_gcc.h" 1
 13869 01a0 BFF34F8F 		dsb 0xF
 13870              	@ 0 "" 2
 13871              		.thumb
 13872              		.syntax unified
 13873 01a4 554B     		ldr	r3, .L2780
 13874 01a6 A2F56052 		sub	r2, r2, #14336
 13875 01aa 5E4C     		ldr	r4, .L2780+40
 13876 01ac 0120     		movs	r0, #1
 13877 01ae 1968     		ldr	r1, [r3]
 13878 01b0 0C40     		ands	r4, r4, r1
 13879 01b2 5D49     		ldr	r1, .L2780+44
 13880 01b4 1C60     		str	r4, [r3]
 13881 01b6 1468     		ldr	r4, [r2]
 13882 01b8 24F47044 		bic	r4, r4, #61440
 13883 01bc 1460     		str	r4, [r2]
 13884 01be 5C6A     		ldr	r4, [r3, #36]
 13885 01c0 24F07F44 		bic	r4, r4, #-16777216
 13886 01c4 5C62     		str	r4, [r3, #36]
 13887 01c6 1C6A     		ldr	r4, [r3, #32]
 13888 01c8 24F47F24 		bic	r4, r4, #1044480
 13889 01cc 1C62     		str	r4, [r3, #32]
 13890 01ce 146A     		ldr	r4, [r2, #32]
 13891 01d0 24F07F44 		bic	r4, r4, #-16777216
 13892 01d4 1462     		str	r4, [r2, #32]
 13893 01d6 DC68     		ldr	r4, [r3, #12]
 13894 01d8 2140     		ands	r1, r1, r4
 13895 01da D960     		str	r1, [r3, #12]
 13896 01dc D368     		ldr	r3, [r2, #12]
 13897 01de 23F47043 		bic	r3, r3, #61440
 13898 01e2 D360     		str	r3, [r2, #12]
 13899              	.L2724:
 13900 01e4 04B0     		add	sp, sp, #16
 13901              		@ sp needed
 13902 01e6 BDE8F087 		pop	{r4, r5, r6, r7, r8, r9, r10, pc}
 13903              	.L2776:
 13904 01ea DFF84C81 		ldr	r8, .L2780+60
 13905 01ee 0223     		movs	r3, #2
 13906 01f0 A924     		movs	r4, #169
 13907 01f2 88F80030 		strb	r3, [r8]
 13908 01f6 A3E7     		b	.L2712
 13909              	.L2779:
 13910 01f8 4800     		lsls	r0, r1, #1
 13911 01fa 4CBF     		ite	mi
ARM GAS  C:\Users\Jay\AppData\Local\Temp\ccjVRGue.s 			page 241


 13912 01fc 0C23     		movmi	r3, #12
 13913 01fe 0423     		movpl	r3, #4
 13914 0200 88F80030 		strb	r3, [r8]
 13915              	.L2709:
 13916 0204 494F     		ldr	r7, .L2780+48
 13917 0206 4FEA116E 		lsr	lr, r1, #24
 13918 020a 4FEA114C 		lsr	ip, r1, #16
 13919 020e 0222     		movs	r2, #2
 13920 0210 0C0A     		lsrs	r4, r1, #8
 13921 0212 87F82310 		strb	r1, [r7, #35]
 13922 0216 6B46     		mov	r3, sp
 13923 0218 1046     		mov	r0, r2
 13924 021a 87F820E0 		strb	lr, [r7, #32]
 13925 021e 0021     		movs	r1, #0
 13926 0220 87F821C0 		strb	ip, [r7, #33]
 13927 0224 87F82240 		strb	r4, [r7, #34]
 13928 0228 FFF7FEFF 		bl	sdio_cmd_send
 13929 022c 0028     		cmp	r0, #0
 13930 022e 98D0     		beq	.L2704
 13931 0230 E946     		mov	r9, sp
 13932 0232 6A46     		mov	r2, sp
 13933 0234 07F1100C 		add	ip, r7, #16
 13934 0238 3C46     		mov	r4, r7
 13935              	.L2715:
 13936 023a 52F8043B 		ldr	r3, [r2], #4
 13937 023e 0434     		adds	r4, r4, #4
 13938 0240 E373     		strb	r3, [r4, #15]
 13939 0242 180E     		lsrs	r0, r3, #24
 13940 0244 190C     		lsrs	r1, r3, #16
 13941 0246 1B0A     		lsrs	r3, r3, #8
 13942 0248 2073     		strb	r0, [r4, #12]
 13943 024a 6173     		strb	r1, [r4, #13]
 13944 024c A373     		strb	r3, [r4, #14]
 13945 024e A445     		cmp	ip, r4
 13946 0250 F3D1     		bne	.L2715
 13947 0252 98F80030 		ldrb	r3, [r8]	@ zero_extendqisi2
 13948 0256 0122     		movs	r2, #1
 13949 0258 13F0060F 		tst	r3, #6
 13950 025c 6B46     		mov	r3, sp
 13951 025e 40F08980 		bne	.L2777
 13952 0262 4FF48031 		mov	r1, #65536
 13953 0266 0320     		movs	r0, #3
 13954 0268 FFF7FEFF 		bl	sdio_cmd_send
 13955 026c 0028     		cmp	r0, #0
 13956 026e 3FF478AF 		beq	.L2704
 13957 0272 0123     		movs	r3, #1
 13958 0274 4FF4803A 		mov	r10, #65536
 13959 0278 3380     		strh	r3, [r6]	@ movhi
 13960              	.L2717:
 13961 027a 6B46     		mov	r3, sp
 13962 027c 0222     		movs	r2, #2
 13963 027e 5146     		mov	r1, r10
 13964 0280 0920     		movs	r0, #9
 13965 0282 FFF7FEFF 		bl	sdio_cmd_send
 13966 0286 0028     		cmp	r0, #0
 13967 0288 3FF46BAF 		beq	.L2704
 13968              	.L2718:
ARM GAS  C:\Users\Jay\AppData\Local\Temp\ccjVRGue.s 			page 242


 13969 028c 59F8043B 		ldr	r3, [r9], #4
 13970 0290 0437     		adds	r7, r7, #4
 13971 0292 07F8013C 		strb	r3, [r7, #-1]
 13972 0296 190E     		lsrs	r1, r3, #24
 13973 0298 1A0C     		lsrs	r2, r3, #16
 13974 029a 1B0A     		lsrs	r3, r3, #8
 13975 029c 07F8041C 		strb	r1, [r7, #-4]
 13976 02a0 07F8032C 		strb	r2, [r7, #-3]
 13977 02a4 07F8023C 		strb	r3, [r7, #-2]
 13978 02a8 BC42     		cmp	r4, r7
 13979 02aa EFD1     		bne	.L2718
 13980 02ac 5146     		mov	r1, r10
 13981 02ae 6B46     		mov	r3, sp
 13982 02b0 0122     		movs	r2, #1
 13983 02b2 0720     		movs	r0, #7
 13984 02b4 FFF7FEFF 		bl	sdio_cmd_send
 13985 02b8 0028     		cmp	r0, #0
 13986 02ba 3FF452AF 		beq	.L2704
 13987 02be 98F80060 		ldrb	r6, [r8]	@ zero_extendqisi2
 13988 02c2 3007     		lsls	r0, r6, #28
 13989 02c4 65D5     		bpl	.L2719
 13990              	.L2722:
 13991 02c6 134B     		ldr	r3, .L2780+24
 13992 02c8 16F0060F 		tst	r6, #6
 13993 02cc 5C68     		ldr	r4, [r3, #4]
 13994 02ce 70D1     		bne	.L2778
 13995              	.L2721:
 13996 02d0 174B     		ldr	r3, .L2780+52
 13997 02d2 BD26     		movs	r6, #189
 13998 02d4 1049     		ldr	r1, .L2780+28
 13999 02d6 0020     		movs	r0, #0
 14000 02d8 2340     		ands	r3, r3, r4
 14001 02da 0E4C     		ldr	r4, .L2780+24
 14002 02dc 0A46     		mov	r2, r1
 14003 02de 43F00303 		orr	r3, r3, #3
 14004 02e2 6360     		str	r3, [r4, #4]
 14005 02e4 4E60     		str	r6, [r1, #4]
 14006 02e6 8860     		str	r0, [r1, #8]
 14007              	.L2723:
 14008 02e8 1368     		ldr	r3, [r2]
 14009 02ea D903     		lsls	r1, r3, #15
 14010 02ec FCD5     		bpl	.L2723
 14011 02ee 2B78     		ldrb	r3, [r5]	@ zero_extendqisi2
 14012 02f0 0020     		movs	r0, #0
 14013 02f2 23F00103 		bic	r3, r3, #1
 14014 02f6 2B70     		strb	r3, [r5]
 14015 02f8 74E7     		b	.L2724
 14016              	.L2781:
 14017 02fa 00BF     		.align	2
 14018              	.L2780:
 14019 02fc 00040258 		.word	1476527104
 14020 0300 00000000 		.word	.LANCHOR44
 14021 0304 40010050 		.word	1342177600
 14022 0308 000C0258 		.word	1476529152
 14023 030c 00000000 		.word	.LANCHOR0
 14024 0310 00440258 		.word	1476543488
 14025 0314 00240248 		.word	1208099840
ARM GAS  C:\Users\Jay\AppData\Local\Temp\ccjVRGue.s 			page 243


 14026 0318 10E000E0 		.word	-536813552
 14027 031c D01B5000 		.word	5250000
 14028 0320 0080FF00 		.word	16744448
 14029 0324 3FFCFF0F 		.word	268434495
 14030 0328 3FFCFFCF 		.word	-805307329
 14031 032c 00000000 		.word	.LANCHOR46
 14032 0330 00FCFFFF 		.word	-1024
 14033 0334 800200A0 		.word	-1610612096
 14034 0338 00000000 		.word	.LANCHOR45
 14035              	.L2775:
 14036 033c DFF8A080 		ldr	r8, .L2782+8
 14037 0340 0424     		movs	r4, #4
 14038 0342 254F     		ldr	r7, .L2782
 14039 0344 DFF89C90 		ldr	r9, .L2782+12
 14040 0348 88F800A0 		strb	r10, [r8]
 14041              	.L2706:
 14042 034c 6B46     		mov	r3, sp
 14043 034e 0122     		movs	r2, #1
 14044 0350 3946     		mov	r1, r7
 14045 0352 A920     		movs	r0, #169
 14046 0354 FFF7FEFF 		bl	sdio_cmd_send
 14047 0358 631E     		subs	r3, r4, #1
 14048 035a 18B1     		cbz	r0, .L2707
 14049 035c 0099     		ldr	r1, [sp]
 14050 035e 0029     		cmp	r1, #0
 14051 0360 FFF64AAF 		blt	.L2779
 14052              	.L2707:
 14053 0364 D9F80020 		ldr	r2, [r9]
 14054 0368 D203     		lsls	r2, r2, #15
 14055 036a EFD5     		bpl	.L2706
 14056 036c 13F0FF04 		ands	r4, r3, #255
 14057 0370 ECD1     		bne	.L2706
 14058 0372 F6E6     		b	.L2704
 14059              	.L2777:
 14060 0374 0021     		movs	r1, #0
 14061 0376 0320     		movs	r0, #3
 14062 0378 FFF7FEFF 		bl	sdio_cmd_send
 14063 037c 0028     		cmp	r0, #0
 14064 037e 3FF4F0AE 		beq	.L2704
 14065 0382 009B     		ldr	r3, [sp]
 14066 0384 DFF860A0 		ldr	r10, .L2782+16
 14067 0388 1A0C     		lsrs	r2, r3, #16
 14068 038a 03EA0A0A 		and	r10, r3, r10
 14069 038e 3280     		strh	r2, [r6]	@ movhi
 14070 0390 73E7     		b	.L2717
 14071              	.L2719:
 14072 0392 6B46     		mov	r3, sp
 14073 0394 0122     		movs	r2, #1
 14074 0396 4FF40071 		mov	r1, #512
 14075 039a 1020     		movs	r0, #16
 14076 039c FFF7FEFF 		bl	sdio_cmd_send
 14077 03a0 0028     		cmp	r0, #0
 14078 03a2 3FF4DEAE 		beq	.L2704
 14079 03a6 0D4A     		ldr	r2, .L2782+4
 14080 03a8 009B     		ldr	r3, [sp]
 14081 03aa 1A42     		tst	r2, r3
 14082 03ac 7FF4D9AE 		bne	.L2704
ARM GAS  C:\Users\Jay\AppData\Local\Temp\ccjVRGue.s 			page 244


 14083 03b0 89E7     		b	.L2722
 14084              	.L2778:
 14085 03b2 6B46     		mov	r3, sp
 14086 03b4 0122     		movs	r2, #1
 14087 03b6 0221     		movs	r1, #2
 14088 03b8 8620     		movs	r0, #134
 14089 03ba FFF7FEFF 		bl	sdio_cmd_send
 14090 03be 0028     		cmp	r0, #0
 14091 03c0 3FF4CFAE 		beq	.L2704
 14092 03c4 054A     		ldr	r2, .L2782+4
 14093 03c6 009B     		ldr	r3, [sp]
 14094 03c8 1A42     		tst	r2, r3
 14095 03ca 7FF4CAAE 		bne	.L2704
 14096 03ce 24F44044 		bic	r4, r4, #49152
 14097 03d2 44F48044 		orr	r4, r4, #16384
 14098 03d6 7BE7     		b	.L2721
 14099              	.L2783:
 14100              		.align	2
 14101              	.L2782:
 14102 03d8 0080FF40 		.word	1090486272
 14103 03dc 0000F9FD 		.word	-34013184
 14104 03e0 00000000 		.word	.LANCHOR45
 14105 03e4 10E000E0 		.word	-536813552
 14106 03e8 0000FFFF 		.word	-65536
 14108              		.section	.text.disk_status,"ax",%progbits
 14109              		.align	1
 14110              		.p2align 2,,3
 14111              		.global	disk_status
 14112              		.syntax unified
 14113              		.thumb
 14114              		.thumb_func
 14115              		.fpu fpv5-sp-d16
 14117              	disk_status:
 14118              		@ args = 0, pretend = 0, frame = 0
 14119              		@ frame_needed = 0, uses_anonymous_args = 0
 14120              		@ link register save eliminated.
 14121 0000 014B     		ldr	r3, .L2785
 14122 0002 1878     		ldrb	r0, [r3]	@ zero_extendqisi2
 14123 0004 7047     		bx	lr
 14124              	.L2786:
 14125 0006 00BF     		.align	2
 14126              	.L2785:
 14127 0008 00000000 		.word	.LANCHOR44
 14129              		.section	.text.disk_read,"ax",%progbits
 14130              		.align	1
 14131              		.p2align 2,,3
 14132              		.global	disk_read
 14133              		.syntax unified
 14134              		.thumb
 14135              		.thumb_func
 14136              		.fpu fpv5-sp-d16
 14138              	disk_read:
 14139              		@ args = 0, pretend = 0, frame = 8
 14140              		@ frame_needed = 0, uses_anonymous_args = 0
 14141 0000 F0B5     		push	{r4, r5, r6, r7, lr}
 14142 0002 354C     		ldr	r4, .L2817
 14143 0004 1D46     		mov	r5, r3
ARM GAS  C:\Users\Jay\AppData\Local\Temp\ccjVRGue.s 			page 245


 14144 0006 013B     		subs	r3, r3, #1
 14145 0008 83B0     		sub	sp, sp, #12
 14146 000a 6069     		ldr	r0, [r4, #20]
 14147 000c 7E2B     		cmp	r3, #126
 14148 000e 80F04000 		eor	r0, r0, #64
 14149 0012 6061     		str	r0, [r4, #20]
 14150 0014 54D8     		bhi	.L2801
 14151 0016 314B     		ldr	r3, .L2817+4
 14152 0018 1B78     		ldrb	r3, [r3]	@ zero_extendqisi2
 14153 001a D807     		lsls	r0, r3, #31
 14154 001c 4AD4     		bmi	.L2802
 14155 001e 304B     		ldr	r3, .L2817+8
 14156 0020 1746     		mov	r7, r2
 14157 0022 0E46     		mov	r6, r1
 14158 0024 1B78     		ldrb	r3, [r3]	@ zero_extendqisi2
 14159 0026 1B07     		lsls	r3, r3, #28
 14160 0028 58BF     		it	pl
 14161 002a 5702     		lslpl	r7, r2, #9
 14162 002c FFF7FEFF 		bl	sdio_check_tran.constprop.96
 14163 0030 0028     		cmp	r0, #0
 14164 0032 42D0     		beq	.L2792
 14165 0034 012D     		cmp	r5, #1
 14166 0036 2B4B     		ldr	r3, .L2817+12
 14167 0038 4FF09201 		mov	r1, #146
 14168 003c 2A4A     		ldr	r2, .L2817+16
 14169 003e 4FEA4524 		lsl	r4, r5, #9
 14170 0042 14BF     		ite	ne
 14171 0044 1220     		movne	r0, #18
 14172 0046 1120     		moveq	r0, #17
 14173 0048 D962     		str	r1, [r3, #44]
 14174 004a 5A62     		str	r2, [r3, #36]
 14175 004c 3946     		mov	r1, r7
 14176 004e 9C62     		str	r4, [r3, #40]
 14177 0050 0122     		movs	r2, #1
 14178 0052 01AB     		add	r3, sp, #4
 14179 0054 0546     		mov	r5, r0
 14180 0056 FFF7FEFF 		bl	sdio_cmd_send
 14181 005a 0028     		cmp	r0, #0
 14182 005c 2DD0     		beq	.L2792
 14183 005e 234B     		ldr	r3, .L2817+20
 14184 0060 0198     		ldr	r0, [sp, #4]
 14185 0062 1840     		ands	r0, r3, r0
 14186 0064 29D1     		bne	.L2792
 14187 0066 1F4B     		ldr	r3, .L2817+12
 14188 0068 2149     		ldr	r1, .L2817+24
 14189 006a 1A46     		mov	r2, r3
 14190 006c 9963     		str	r1, [r3, #56]
 14191 006e D96A     		ldr	r1, [r3, #44]
 14192 0070 41F00101 		orr	r1, r1, #1
 14193 0074 D962     		str	r1, [r3, #44]
 14194 0076 01E0     		b	.L2794
 14195              	.L2816:
 14196 0078 1F03     		lsls	r7, r3, #12
 14197 007a 24D5     		bpl	.L2815
 14198              	.L2794:
 14199 007c 536B     		ldr	r3, [r2, #52]
 14200 007e 13F02A0F 		tst	r3, #42
ARM GAS  C:\Users\Jay\AppData\Local\Temp\ccjVRGue.s 			page 246


 14201 0082 F9D0     		beq	.L2816
 14202              	.L2795:
 14203 0084 8442     		cmp	r4, r0
 14204 0086 94BF     		ite	ls
 14205 0088 0024     		movls	r4, #0
 14206 008a 0124     		movhi	r4, #1
 14207 008c 122D     		cmp	r5, #18
 14208 008e 00D0     		beq	.L2804
 14209 0090 74B1     		cbz	r4, .L2797
 14210              	.L2804:
 14211 0092 144B     		ldr	r3, .L2817+12
 14212 0094 5A6B     		ldr	r2, [r3, #52]
 14213 0096 1103     		lsls	r1, r2, #12
 14214 0098 04D4     		bmi	.L2799
 14215              	.L2800:
 14216 009a D3F88020 		ldr	r2, [r3, #128]
 14217 009e 5A6B     		ldr	r2, [r3, #52]
 14218 00a0 1203     		lsls	r2, r2, #12
 14219 00a2 FAD5     		bpl	.L2800
 14220              	.L2799:
 14221 00a4 01AB     		add	r3, sp, #4
 14222 00a6 0122     		movs	r2, #1
 14223 00a8 0021     		movs	r1, #0
 14224 00aa 0C20     		movs	r0, #12
 14225 00ac FFF7FEFF 		bl	sdio_cmd_send
 14226              	.L2797:
 14227 00b0 2046     		mov	r0, r4
 14228 00b2 00E0     		b	.L2788
 14229              	.L2802:
 14230 00b4 0320     		movs	r0, #3
 14231              	.L2788:
 14232 00b6 03B0     		add	sp, sp, #12
 14233              		@ sp needed
 14234 00b8 F0BD     		pop	{r4, r5, r6, r7, pc}
 14235              	.L2792:
 14236 00ba 0120     		movs	r0, #1
 14237 00bc 03B0     		add	sp, sp, #12
 14238              		@ sp needed
 14239 00be F0BD     		pop	{r4, r5, r6, r7, pc}
 14240              	.L2801:
 14241 00c0 0420     		movs	r0, #4
 14242 00c2 03B0     		add	sp, sp, #12
 14243              		@ sp needed
 14244 00c4 F0BD     		pop	{r4, r5, r6, r7, pc}
 14245              	.L2815:
 14246 00c6 0430     		adds	r0, r0, #4
 14247 00c8 D2F88030 		ldr	r3, [r2, #128]
 14248 00cc 8442     		cmp	r4, r0
 14249 00ce 46F8043B 		str	r3, [r6], #4
 14250 00d2 D3D1     		bne	.L2794
 14251 00d4 D6E7     		b	.L2795
 14252              	.L2818:
 14253 00d6 00BF     		.align	2
 14254              	.L2817:
 14255 00d8 00100258 		.word	1476530176
 14256 00dc 00000000 		.word	.LANCHOR44
 14257 00e0 00000000 		.word	.LANCHOR45
ARM GAS  C:\Users\Jay\AppData\Local\Temp\ccjVRGue.s 			page 247


 14258 00e4 00240248 		.word	1208099840
 14259 00e8 00366E01 		.word	24000000
 14260 00ec 000058C0 		.word	-1067974656
 14261 00f0 3A0F2000 		.word	2101050
 14263              		.section	.text.disk_write,"ax",%progbits
 14264              		.align	1
 14265              		.p2align 2,,3
 14266              		.global	disk_write
 14267              		.syntax unified
 14268              		.thumb
 14269              		.thumb_func
 14270              		.fpu fpv5-sp-d16
 14272              	disk_write:
 14273              		@ args = 0, pretend = 0, frame = 8
 14274              		@ frame_needed = 0, uses_anonymous_args = 0
 14275 0000 2DE9F047 		push	{r4, r5, r6, r7, r8, r9, r10, lr}
 14276 0004 4C48     		ldr	r0, .L2856
 14277 0006 1C46     		mov	r4, r3
 14278 0008 1646     		mov	r6, r2
 14279 000a 82B0     		sub	sp, sp, #8
 14280 000c 4369     		ldr	r3, [r0, #20]
 14281 000e 621E     		subs	r2, r4, #1
 14282 0010 83F04003 		eor	r3, r3, #64
 14283 0014 7E2A     		cmp	r2, #126
 14284 0016 4361     		str	r3, [r0, #20]
 14285 0018 74D8     		bhi	.L2835
 14286 001a 484B     		ldr	r3, .L2856+4
 14287 001c 1B78     		ldrb	r3, [r3]	@ zero_extendqisi2
 14288 001e DA07     		lsls	r2, r3, #31
 14289 0020 68D4     		bmi	.L2836
 14290 0022 DFF82C81 		ldr	r8, .L2856+24
 14291 0026 0D46     		mov	r5, r1
 14292 0028 98F80070 		ldrb	r7, [r8]	@ zero_extendqisi2
 14293 002c 3B07     		lsls	r3, r7, #28
 14294 002e 58BF     		it	pl
 14295 0030 7602     		lslpl	r6, r6, #9
 14296 0032 FFF7FEFF 		bl	sdio_check_tran.constprop.96
 14297 0036 0028     		cmp	r0, #0
 14298 0038 60D0     		beq	.L2825
 14299 003a 012C     		cmp	r4, #1
 14300 003c 66D0     		beq	.L2837
 14301 003e 17F0060F 		tst	r7, #6
 14302 0042 01AF     		add	r7, sp, #4
 14303 0044 4FF00102 		mov	r2, #1
 14304 0048 2146     		mov	r1, r4
 14305 004a 0CBF     		ite	eq
 14306 004c 1720     		moveq	r0, #23
 14307 004e 9720     		movne	r0, #151
 14308 0050 3B46     		mov	r3, r7
 14309 0052 FFF7FEFF 		bl	sdio_cmd_send
 14310 0056 0028     		cmp	r0, #0
 14311 0058 50D0     		beq	.L2825
 14312 005a 394A     		ldr	r2, .L2856+8
 14313 005c 019B     		ldr	r3, [sp, #4]
 14314 005e 1A42     		tst	r2, r3
 14315 0060 4CD1     		bne	.L2825
 14316 0062 1920     		movs	r0, #25
ARM GAS  C:\Users\Jay\AppData\Local\Temp\ccjVRGue.s 			page 248


 14317 0064 8146     		mov	r9, r0
 14318              	.L2823:
 14319 0066 DFF8E4A0 		ldr	r10, .L2856+20
 14320 006a 9023     		movs	r3, #144
 14321 006c 354A     		ldr	r2, .L2856+12
 14322 006e 6402     		lsls	r4, r4, #9
 14323 0070 CAF82C30 		str	r3, [r10, #44]
 14324 0074 3146     		mov	r1, r6
 14325 0076 CAF82420 		str	r2, [r10, #36]
 14326 007a 3B46     		mov	r3, r7
 14327 007c 0122     		movs	r2, #1
 14328 007e CAF82840 		str	r4, [r10, #40]
 14329 0082 FFF7FEFF 		bl	sdio_cmd_send
 14330 0086 0028     		cmp	r0, #0
 14331 0088 38D0     		beq	.L2825
 14332 008a 2D4A     		ldr	r2, .L2856+8
 14333 008c 019B     		ldr	r3, [sp, #4]
 14334 008e 1A42     		tst	r2, r3
 14335 0090 34D1     		bne	.L2825
 14336 0092 2D4B     		ldr	r3, .L2856+16
 14337 0094 CAF83830 		str	r3, [r10, #56]
 14338              		.syntax unified
 14339              	@ 141 "stm32h7xx/cmsis/cmsis_gcc.h" 1
 14340 0098 72B6     		cpsid i
 14341              	@ 0 "" 2
 14342              		.thumb
 14343              		.syntax unified
 14344 009a 2B46     		mov	r3, r5
 14345 009c 0435     		adds	r5, r5, #4
 14346 009e 53F8200B 		ldr	r0, [r3], #32
 14347              		.syntax unified
 14348              	@ 878 "stm32h7xx/cmsis/cmsis_gcc.h" 1
 14349 00a2 BFF34F8F 		dsb 0xF
 14350              	@ 0 "" 2
 14351              		.thumb
 14352              		.syntax unified
 14353 00a6 DAF82C20 		ldr	r2, [r10, #44]
 14354 00aa 5146     		mov	r1, r10
 14355 00ac 42F00102 		orr	r2, r2, #1
 14356 00b0 CAF82C20 		str	r2, [r10, #44]
 14357 00b4 CAF88000 		str	r0, [r10, #128]
 14358              	.L2826:
 14359 00b8 55F8042B 		ldr	r2, [r5], #4
 14360 00bc AB42     		cmp	r3, r5
 14361 00be C1F88020 		str	r2, [r1, #128]
 14362 00c2 F9D1     		bne	.L2826
 14363 00c4 1A46     		mov	r2, r3
 14364 00c6 2025     		movs	r5, #32
 14365 00c8 2049     		ldr	r1, .L2856+20
 14366              	.L2830:
 14367 00ca 4B6B     		ldr	r3, [r1, #52]
 14368 00cc 13F01A0F 		tst	r3, #26
 14369 00d0 05D1     		bne	.L2829
 14370 00d2 DE03     		lsls	r6, r3, #15
 14371 00d4 F9D4     		bmi	.L2830
 14372 00d6 AC42     		cmp	r4, r5
 14373 00d8 1CD8     		bhi	.L2854
ARM GAS  C:\Users\Jay\AppData\Local\Temp\ccjVRGue.s 			page 249


 14374 00da 5B03     		lsls	r3, r3, #13
 14375 00dc F5D5     		bpl	.L2830
 14376              	.L2829:
 14377              		.syntax unified
 14378              	@ 131 "stm32h7xx/cmsis/cmsis_gcc.h" 1
 14379 00de 62B6     		cpsie i
 14380              	@ 0 "" 2
 14381              		.thumb
 14382              		.syntax unified
 14383 00e0 AC42     		cmp	r4, r5
 14384 00e2 22D8     		bhi	.L2833
 14385 00e4 B9F1190F 		cmp	r9, #25
 14386 00e8 1AD0     		beq	.L2855
 14387              	.L2834:
 14388 00ea AC42     		cmp	r4, r5
 14389 00ec 94BF     		ite	ls
 14390 00ee 0020     		movls	r0, #0
 14391 00f0 0120     		movhi	r0, #1
 14392 00f2 00E0     		b	.L2820
 14393              	.L2836:
 14394 00f4 0320     		movs	r0, #3
 14395              	.L2820:
 14396 00f6 02B0     		add	sp, sp, #8
 14397              		@ sp needed
 14398 00f8 BDE8F087 		pop	{r4, r5, r6, r7, r8, r9, r10, pc}
 14399              	.L2825:
 14400 00fc 0120     		movs	r0, #1
 14401 00fe 02B0     		add	sp, sp, #8
 14402              		@ sp needed
 14403 0100 BDE8F087 		pop	{r4, r5, r6, r7, r8, r9, r10, pc}
 14404              	.L2835:
 14405 0104 0420     		movs	r0, #4
 14406 0106 02B0     		add	sp, sp, #8
 14407              		@ sp needed
 14408 0108 BDE8F087 		pop	{r4, r5, r6, r7, r8, r9, r10, pc}
 14409              	.L2837:
 14410 010c 1820     		movs	r0, #24
 14411 010e 01AF     		add	r7, sp, #4
 14412 0110 8146     		mov	r9, r0
 14413 0112 A8E7     		b	.L2823
 14414              	.L2854:
 14415 0114 1368     		ldr	r3, [r2]
 14416 0116 0435     		adds	r5, r5, #4
 14417 0118 0432     		adds	r2, r2, #4
 14418 011a C1F88030 		str	r3, [r1, #128]
 14419 011e D4E7     		b	.L2830
 14420              	.L2855:
 14421 0120 98F80030 		ldrb	r3, [r8]	@ zero_extendqisi2
 14422 0124 13F0060F 		tst	r3, #6
 14423 0128 DFD0     		beq	.L2834
 14424              	.L2833:
 14425 012a 3B46     		mov	r3, r7
 14426 012c 0122     		movs	r2, #1
 14427 012e 0021     		movs	r1, #0
 14428 0130 0C20     		movs	r0, #12
 14429 0132 FFF7FEFF 		bl	sdio_cmd_send
 14430 0136 D8E7     		b	.L2834
ARM GAS  C:\Users\Jay\AppData\Local\Temp\ccjVRGue.s 			page 250


 14431              	.L2857:
 14432              		.align	2
 14433              	.L2856:
 14434 0138 00100258 		.word	1476530176
 14435 013c 00000000 		.word	.LANCHOR44
 14436 0140 000058C0 		.word	-1067974656
 14437 0144 00366E01 		.word	24000000
 14438 0148 3A0F2000 		.word	2101050
 14439 014c 00240248 		.word	1208099840
 14440 0150 00000000 		.word	.LANCHOR45
 14442              		.section	.text.disk_ioctl,"ax",%progbits
 14443              		.align	1
 14444              		.p2align 2,,3
 14445              		.global	disk_ioctl
 14446              		.syntax unified
 14447              		.thumb
 14448              		.thumb_func
 14449              		.fpu fpv5-sp-d16
 14451              	disk_ioctl:
 14452              		@ args = 0, pretend = 0, frame = 0
 14453              		@ frame_needed = 0, uses_anonymous_args = 0
 14454              		@ link register save eliminated.
 14455 0000 044B     		ldr	r3, .L2861
 14456 0002 1B78     		ldrb	r3, [r3]	@ zero_extendqisi2
 14457 0004 DB07     		lsls	r3, r3, #31
 14458 0006 03D4     		bmi	.L2860
 14459 0008 081C     		adds	r0, r1, #0
 14460 000a 18BF     		it	ne
 14461 000c 0120     		movne	r0, #1
 14462 000e 7047     		bx	lr
 14463              	.L2860:
 14464 0010 0320     		movs	r0, #3
 14465 0012 7047     		bx	lr
 14466              	.L2862:
 14467              		.align	2
 14468              	.L2861:
 14469 0014 00000000 		.word	.LANCHOR44
 14471              		.section	.text.usbd_poll,"ax",%progbits
 14472              		.align	1
 14473              		.p2align 2,,3
 14474              		.global	usbd_poll
 14475              		.syntax unified
 14476              		.thumb
 14477              		.thumb_func
 14478              		.fpu fpv5-sp-d16
 14480              	usbd_poll:
 14481              		@ args = 0, pretend = 0, frame = 0
 14482              		@ frame_needed = 0, uses_anonymous_args = 0
 14483              		@ link register save eliminated.
 14484 0000 0368     		ldr	r3, [r0]
 14485 0002 0149     		ldr	r1, .L2864
 14486 0004 9B6A     		ldr	r3, [r3, #40]
 14487 0006 1847     		bx	r3	@ indirect register sibling call
 14488              	.L2865:
 14489              		.align	2
 14490              	.L2864:
 14491 0008 00000000 		.word	usbd_process_evt
ARM GAS  C:\Users\Jay\AppData\Local\Temp\ccjVRGue.s 			page 251


 14493              		.section	.text.OTG_FS_IRQHandler,"ax",%progbits
 14494              		.align	1
 14495              		.p2align 2,,3
 14496              		.global	OTG_FS_IRQHandler
 14497              		.syntax unified
 14498              		.thumb
 14499              		.thumb_func
 14500              		.fpu fpv5-sp-d16
 14502              	OTG_FS_IRQHandler:
 14503              		@ args = 0, pretend = 0, frame = 0
 14504              		@ frame_needed = 0, uses_anonymous_args = 0
 14505              		@ link register save eliminated.
 14506 0000 0248     		ldr	r0, .L2867
 14507 0002 0349     		ldr	r1, .L2867+4
 14508 0004 0368     		ldr	r3, [r0]
 14509 0006 9B6A     		ldr	r3, [r3, #40]
 14510 0008 1847     		bx	r3	@ indirect register sibling call
 14511              	.L2868:
 14512 000a 00BF     		.align	2
 14513              	.L2867:
 14514 000c 00000000 		.word	.LANCHOR47
 14515 0010 00000000 		.word	usbd_process_evt
 14517              		.section	.text.startup.main,"ax",%progbits
 14518              		.align	1
 14519              		.p2align 2,,3
 14520              		.global	main
 14521              		.syntax unified
 14522              		.thumb
 14523              		.thumb_func
 14524              		.fpu fpv5-sp-d16
 14526              	main:
 14527              		@ args = 0, pretend = 0, frame = 72
 14528              		@ frame_needed = 0, uses_anonymous_args = 0
 14529 0000 CC4B     		ldr	r3, .L3335
 14530 0002 1A68     		ldr	r2, [r3]
 14531 0004 2DE9F04F 		push	{r4, r5, r6, r7, r8, r9, r10, fp, lr}
 14532 0008 42F48032 		orr	r2, r2, #65536
 14533 000c 93B0     		sub	sp, sp, #76
 14534 000e 9A46     		mov	r10, r3
 14535 0010 1A60     		str	r2, [r3]
 14536              	.L2870:
 14537 0012 DAF80030 		ldr	r3, [r10]
 14538 0016 9A03     		lsls	r2, r3, #14
 14539 0018 FBD5     		bpl	.L2870
 14540 001a C749     		ldr	r1, .L3335+4
 14541 001c 4FF00008 		mov	r8, #0
 14542 0020 C64B     		ldr	r3, .L3335+8
 14543 0022 0125     		movs	r5, #1
 14544 0024 CA68     		ldr	r2, [r1, #12]
 14545 0026 C64C     		ldr	r4, .L3335+12
 14546 0028 42F08072 		orr	r2, r2, #16777216
 14547 002c CA60     		str	r2, [r1, #12]
 14548 002e C3F80480 		str	r8, [r3, #4]
 14549 0032 1A68     		ldr	r2, [r3]
 14550 0034 2A43     		orrs	r2, r2, r5
 14551 0036 1A60     		str	r2, [r3]
 14552 0038 C4F80480 		str	r8, [r4, #4]
ARM GAS  C:\Users\Jay\AppData\Local\Temp\ccjVRGue.s 			page 252


 14553 003c C4F80880 		str	r8, [r4, #8]
 14554 0040 2560     		str	r5, [r4]
 14555 0042 DAF8F430 		ldr	r3, [r10, #244]
 14556 0046 43F00203 		orr	r3, r3, #2
 14557 004a CAF8F430 		str	r3, [r10, #244]
 14558              		.syntax unified
 14559              	@ 878 "stm32h7xx/cmsis/cmsis_gcc.h" 1
 14560 004e BFF34F8F 		dsb 0xF
 14561              	@ 0 "" 2
 14562              		.thumb
 14563              		.syntax unified
 14564 0052 DAF8E030 		ldr	r3, [r10, #224]
 14565 0056 43F01F03 		orr	r3, r3, #31
 14566 005a CAF8E030 		str	r3, [r10, #224]
 14567              		.syntax unified
 14568              	@ 878 "stm32h7xx/cmsis/cmsis_gcc.h" 1
 14569 005e BFF34F8F 		dsb 0xF
 14570              	@ 0 "" 2
 14571              		.thumb
 14572              		.syntax unified
 14573 0062 DAF8E030 		ldr	r3, [r10, #224]
 14574 0066 43F40023 		orr	r3, r3, #524288
 14575 006a CAF8E030 		str	r3, [r10, #224]
 14576              		.syntax unified
 14577              	@ 878 "stm32h7xx/cmsis/cmsis_gcc.h" 1
 14578 006e BFF34F8F 		dsb 0xF
 14579              	@ 0 "" 2
 14580              		.thumb
 14581              		.syntax unified
 14582 0072 DFF80C93 		ldr	r9, .L3335+76
 14583 0076 0820     		movs	r0, #8
 14584 0078 B24E     		ldr	r6, .L3335+16
 14585 007a 4FF0780E 		mov	lr, #120
 14586 007e D9F80830 		ldr	r3, [r9, #8]
 14587 0082 7021     		movs	r1, #112
 14588 0084 B04F     		ldr	r7, .L3335+20
 14589 0086 2022     		movs	r2, #32
 14590 0088 2B43     		orrs	r3, r3, r5
 14591 008a DFF8F8C2 		ldr	ip, .L3335+80
 14592 008e 87F86000 		strb	r0, [r7, #96]
 14593 0092 2846     		mov	r0, r5
 14594 0094 C9F80830 		str	r3, [r9, #8]
 14595 0098 4FF0400B 		mov	fp, #64
 14596 009c B368     		ldr	r3, [r6, #8]
 14597 009e A7F85EE0 		strh	lr, [r7, #94]	@ movhi
 14598 00a2 43F07073 		orr	r3, r3, #62914560
 14599 00a6 DFF8E0E2 		ldr	lr, .L3335+84
 14600 00aa DFF8E092 		ldr	r9, .L3335+88
 14601 00ae B360     		str	r3, [r6, #8]
 14602 00b0 736A     		ldr	r3, [r6, #36]
 14603 00b2 C7F80CE0 		str	lr, [r7, #12]
 14604 00b6 23F47F23 		bic	r3, r3, #1044480
 14605 00ba DFF8D4E2 		ldr	lr, .L3335+92
 14606 00be 43F42A23 		orr	r3, r3, #696320
 14607 00c2 7362     		str	r3, [r6, #36]
 14608 00c4 3368     		ldr	r3, [r6]
 14609 00c6 C7F804E0 		str	lr, [r7, #4]
ARM GAS  C:\Users\Jay\AppData\Local\Temp\ccjVRGue.s 			page 253


 14610 00ca 23F07073 		bic	r3, r3, #62914560
 14611 00ce DFF8C4E2 		ldr	lr, .L3335+96
 14612 00d2 43F02073 		orr	r3, r3, #41943040
 14613 00d6 3360     		str	r3, [r6]
 14614 00d8 9C4B     		ldr	r3, .L3335+24
 14615 00da C7F800C0 		str	ip, [r7]
 14616 00de 89F86513 		strb	r1, [r9, #869]
 14617 00e2 C9F80C20 		str	r2, [r9, #12]
 14618 00e6 C7F810E0 		str	lr, [r7, #16]
 14619 00ea C7E91533 		strd	r3, r3, [r7, #84]
 14620 00ee FFF7FEFF 		bl	enable
 14621 00f2 3B68     		ldr	r3, [r7]
 14622 00f4 2846     		mov	r0, r5
 14623 00f6 964D     		ldr	r5, .L3335+28
 14624 00f8 9B68     		ldr	r3, [r3, #8]
 14625 00fa 9847     		blx	r3
 14626 00fc 3168     		ldr	r1, [r6]
 14627 00fe 954B     		ldr	r3, .L3335+32
 14628 0100 21F04041 		bic	r1, r1, #-1073741824
 14629 0104 944A     		ldr	r2, .L3335+36
 14630 0106 DFF890C2 		ldr	ip, .L3335+100
 14631 010a 3160     		str	r1, [r6]
 14632 010c 1968     		ldr	r1, [r3]
 14633 010e DFF88CE2 		ldr	lr, .L3335+104
 14634 0112 21F04C71 		bic	r1, r1, #53477376
 14635 0116 9148     		ldr	r0, .L3335+40
 14636 0118 1960     		str	r1, [r3]
 14637 011a 1168     		ldr	r1, [r2]
 14638 011c 01EA0C01 		and	r1, r1, ip
 14639 0120 1160     		str	r1, [r2]
 14640 0122 2968     		ldr	r1, [r5]
 14641 0124 21F07071 		bic	r1, r1, #62914560
 14642 0128 2960     		str	r1, [r5]
 14643 012a B168     		ldr	r1, [r6, #8]
 14644 012c 21F04041 		bic	r1, r1, #-1073741824
 14645 0130 B160     		str	r1, [r6, #8]
 14646 0132 9968     		ldr	r1, [r3, #8]
 14647 0134 21F04C71 		bic	r1, r1, #53477376
 14648 0138 9960     		str	r1, [r3, #8]
 14649 013a B168     		ldr	r1, [r6, #8]
 14650 013c 01EA0C01 		and	r1, r1, ip
 14651 0140 B160     		str	r1, [r6, #8]
 14652 0142 A968     		ldr	r1, [r5, #8]
 14653 0144 21F07071 		bic	r1, r1, #62914560
 14654 0148 A960     		str	r1, [r5, #8]
 14655 014a F168     		ldr	r1, [r6, #12]
 14656 014c 21F04041 		bic	r1, r1, #-1073741824
 14657 0150 F160     		str	r1, [r6, #12]
 14658 0152 D968     		ldr	r1, [r3, #12]
 14659 0154 21F04C71 		bic	r1, r1, #53477376
 14660 0158 D960     		str	r1, [r3, #12]
 14661 015a F168     		ldr	r1, [r6, #12]
 14662 015c 01EA0C01 		and	r1, r1, ip
 14663 0160 4FF4C07C 		mov	ip, #384
 14664 0164 F160     		str	r1, [r6, #12]
 14665 0166 E968     		ldr	r1, [r5, #12]
 14666 0168 21F07071 		bic	r1, r1, #62914560
ARM GAS  C:\Users\Jay\AppData\Local\Temp\ccjVRGue.s 			page 254


 14667 016c E960     		str	r1, [r5, #12]
 14668 016e 2968     		ldr	r1, [r5]
 14669 0170 21F00F01 		bic	r1, r1, #15
 14670 0174 2960     		str	r1, [r5]
 14671 0176 DEF80010 		ldr	r1, [lr]
 14672 017a 0840     		ands	r0, r0, r1
 14673 017c 4FF48041 		mov	r1, #16384
 14674 0180 CEF80000 		str	r0, [lr]
 14675 0184 1068     		ldr	r0, [r2]
 14676 0186 20F44060 		bic	r0, r0, #3072
 14677 018a 1060     		str	r0, [r2]
 14678 018c C5F818B0 		str	fp, [r5, #24]
 14679 0190 C3F818C0 		str	ip, [r3, #24]
 14680 0194 5868     		ldr	r0, [r3, #4]
 14681 0196 40EA0C00 		orr	r0, r0, ip
 14682 019a 5860     		str	r0, [r3, #4]
 14683 019c 1868     		ldr	r0, [r3]
 14684 019e 20F47030 		bic	r0, r0, #245760
 14685 01a2 40F4A030 		orr	r0, r0, #81920
 14686 01a6 1860     		str	r0, [r3]
 14687 01a8 2B68     		ldr	r3, [r5]
 14688 01aa 23F44053 		bic	r3, r3, #12288
 14689 01ae 43F48053 		orr	r3, r3, #4096
 14690 01b2 2B60     		str	r3, [r5]
 14691 01b4 A961     		str	r1, [r5, #24]
 14692 01b6 9161     		str	r1, [r2, #24]
 14693 01b8 6B68     		ldr	r3, [r5, #4]
 14694 01ba 0B43     		orrs	r3, r3, r1
 14695 01bc 6B60     		str	r3, [r5, #4]
 14696 01be 5368     		ldr	r3, [r2, #4]
 14697 01c0 0B43     		orrs	r3, r3, r1
 14698 01c2 5360     		str	r3, [r2, #4]
 14699 01c4 2B68     		ldr	r3, [r5]
 14700 01c6 23F04053 		bic	r3, r3, #805306368
 14701 01ca 43F08053 		orr	r3, r3, #268435456
 14702 01ce 2B60     		str	r3, [r5]
 14703 01d0 1368     		ldr	r3, [r2]
 14704 01d2 23F04053 		bic	r3, r3, #805306368
 14705 01d6 43F08053 		orr	r3, r3, #268435456
 14706 01da 1360     		str	r3, [r2]
 14707 01dc FFF7FEFF 		bl	c64_reset.part.24
 14708 01e0 2B68     		ldr	r3, [r5]
 14709 01e2 23F44063 		bic	r3, r3, #3072
 14710 01e6 43F48063 		orr	r3, r3, #1024
 14711 01ea 2B60     		str	r3, [r5]
 14712 01ec DAF8F030 		ldr	r3, [r10, #240]
 14713 01f0 43F00103 		orr	r3, r3, #1
 14714 01f4 CAF8F030 		str	r3, [r10, #240]
 14715              		.syntax unified
 14716              	@ 878 "stm32h7xx/cmsis/cmsis_gcc.h" 1
 14717 01f8 BFF34F8F 		dsb 0xF
 14718              	@ 0 "" 2
 14719              		.thumb
 14720              		.syntax unified
 14721 01fc 686A     		ldr	r0, [r5, #36]
 14722 01fe 40F2012C 		movw	ip, #513
 14723 0202 574B     		ldr	r3, .L3335+44
ARM GAS  C:\Users\Jay\AppData\Local\Temp\ccjVRGue.s 			page 255


 14724 0204 4FF0430A 		mov	r10, #67
 14725 0208 20F47000 		bic	r0, r0, #15728640
 14726 020c 5549     		ldr	r1, .L3335+48
 14727 020e 564A     		ldr	r2, .L3335+52
 14728 0210 4FF0940E 		mov	lr, #148
 14729 0214 40F48010 		orr	r0, r0, #1048576
 14730 0218 6862     		str	r0, [r5, #36]
 14731 021a 2868     		ldr	r0, [r5]
 14732 021c 20F04060 		bic	r0, r0, #201326592
 14733 0220 40F00060 		orr	r0, r0, #134217728
 14734 0224 2860     		str	r0, [r5]
 14735 0226 C3F82880 		str	r8, [r3, #40]
 14736 022a 9869     		ldr	r0, [r3, #24]
 14737 022c 0140     		ands	r1, r1, r0
 14738 022e 4F48     		ldr	r0, .L3335+56
 14739 0230 41EA0C0C 		orr	ip, r1, ip
 14740 0234 41F21001 		movw	r1, #4112
 14741 0238 C3F818C0 		str	ip, [r3, #24]
 14742 023c D3F820C0 		ldr	ip, [r3, #32]
 14743 0240 2CF0AA0C 		bic	ip, ip, #170
 14744 0244 4CF0020C 		orr	ip, ip, #2
 14745 0248 C3F820C0 		str	ip, [r3, #32]
 14746 024c D3F808C0 		ldr	ip, [r3, #8]
 14747 0250 0CEA0202 		and	r2, ip, r2
 14748 0254 4FF0006C 		mov	ip, #134217728
 14749 0258 42F05002 		orr	r2, r2, #80
 14750 025c 9A60     		str	r2, [r3, #8]
 14751 025e 9A68     		ldr	r2, [r3, #8]
 14752 0260 42F00402 		orr	r2, r2, #4
 14753 0264 9A60     		str	r2, [r3, #8]
 14754 0266 1A6A     		ldr	r2, [r3, #32]
 14755 0268 42F01102 		orr	r2, r2, #17
 14756 026c 1A62     		str	r2, [r3, #32]
 14757 026e 1A68     		ldr	r2, [r3]
 14758 0270 42F00102 		orr	r2, r2, #1
 14759 0274 1A60     		str	r2, [r3]
 14760 0276 4FF0B042 		mov	r2, #1476395008
 14761 027a C3F83CA0 		str	r10, [r3, #60]
 14762 027e 4FF0100A 		mov	r10, #16
 14763 0282 C3F840E0 		str	lr, [r3, #64]
 14764 0286 D3F81CE0 		ldr	lr, [r3, #28]
 14765 028a 0EEA0000 		and	r0, lr, r0
 14766 028e DFF810E1 		ldr	lr, .L3335+108
 14767 0292 0143     		orrs	r1, r1, r0
 14768 0294 F020     		movs	r0, #240
 14769 0296 D961     		str	r1, [r3, #28]
 14770 0298 AC21     		movs	r1, #172
 14771 029a C3F80C80 		str	r8, [r3, #12]
 14772 029e 4FF48063 		mov	r3, #1024
 14773 02a2 89F81B83 		strb	r8, [r9, #795]
 14774 02a6 C9F800C0 		str	ip, [r9]
 14775 02aa D6F800C0 		ldr	ip, [r6]
 14776 02ae 2CF4706C 		bic	ip, ip, #3840
 14777 02b2 C6F800C0 		str	ip, [r6]
 14778 02b6 D6F80CC0 		ldr	ip, [r6, #12]
 14779 02ba 2CF4706C 		bic	ip, ip, #3840
 14780 02be 4CF4206C 		orr	ip, ip, #2560
ARM GAS  C:\Users\Jay\AppData\Local\Temp\ccjVRGue.s 			page 256


 14781 02c2 C6F80CC0 		str	ip, [r6, #12]
 14782 02c6 DEF80C60 		ldr	r6, [lr, #12]
 14783 02ca 26F00F0C 		bic	ip, r6, #15
 14784 02ce 284E     		ldr	r6, .L3335+60
 14785 02d0 CEF80CC0 		str	ip, [lr, #12]
 14786 02d4 D2F880E0 		ldr	lr, [r2, #128]
 14787 02d8 DFF8C8C0 		ldr	ip, .L3335+112
 14788 02dc 4EEA0A0E 		orr	lr, lr, r10
 14789 02e0 C2F880E0 		str	lr, [r2, #128]
 14790 02e4 D2F800E0 		ldr	lr, [r2]
 14791 02e8 4EEA0A0E 		orr	lr, lr, r10
 14792 02ec C2F800E0 		str	lr, [r2]
 14793 02f0 D2F804E0 		ldr	lr, [r2, #4]
 14794 02f4 2EF0100E 		bic	lr, lr, #16
 14795 02f8 C2F804E0 		str	lr, [r2, #4]
 14796 02fc C2F888A0 		str	r10, [r2, #136]
 14797 0300 89F80A03 		strb	r0, [r9, #778]
 14798 0304 1B4A     		ldr	r2, .L3335+64
 14799 0306 C9F80030 		str	r3, [r9]
 14800 030a 1B4B     		ldr	r3, .L3335+68
 14801 030c DFF89890 		ldr	r9, .L3335+116
 14802 0310 C6F800C0 		str	ip, [r6]
 14803 0314 C5F818B0 		str	fp, [r5, #24]
 14804 0318 0A60     		str	r2, [r1]
 14805 031a AB61     		str	r3, [r5, #24]
 14806              	.L2871:
 14807 031c 0C4D     		ldr	r5, .L3335+28
 14808 031e 4FF4800A 		mov	r10, #4194304
 14809 0322 0122     		movs	r2, #1
 14810 0324 4946     		mov	r1, r9
 14811 0326 1548     		ldr	r0, .L3335+72
 14812 0328 FFF7FEFF 		bl	f_mount
 14813 032c C5F818A0 		str	r10, [r5, #24]
 14814 0330 3CE0     		b	.L3336
 14815              	.L3337:
 14816 0332 00BF     		.align	2
 14817              	.L3335:
 14818 0334 00440258 		.word	1476543488
 14819 0338 F0ED00E0 		.word	-536810000
 14820 033c 001000E0 		.word	-536866816
 14821 0340 10E000E0 		.word	-536813552
 14822 0344 00000258 		.word	1476526080
 14823 0348 00000000 		.word	.LANCHOR47
 14824 034c 00000000 		.word	.LANCHOR49
 14825 0350 00100258 		.word	1476530176
 14826 0354 00080258 		.word	1476528128
 14827 0358 000C0258 		.word	1476529152
 14828 035c FF03F0FF 		.word	-1047553
 14829 0360 00000140 		.word	1073807360
 14830 0364 FCFCFFFF 		.word	-772
 14831 0368 88FFCEFF 		.word	-3211384
 14832 036c 8F8FFFFF 		.word	-28785
 14833 0370 00000000 		.word	.LANCHOR7
 14834 0374 00000000 		.word	ef_launcher_handler
 14835 0378 00018000 		.word	8388864
 14836 037c 00000000 		.word	.LANCHOR50
 14837 0380 004C0258 		.word	1476545536
ARM GAS  C:\Users\Jay\AppData\Local\Temp\ccjVRGue.s 			page 257


 14838 0384 00000000 		.word	.LANCHOR48
 14839 0388 00000000 		.word	cdc_setconf
 14840 038c 00E100E0 		.word	-536813312
 14841 0390 00000000 		.word	cdc_control
 14842 0394 00000000 		.word	cdc_getdesc
 14843 0398 00FC00F0 		.word	-268370944
 14844 039c 00040258 		.word	1476527104
 14845 03a0 00040058 		.word	1476396032
 14846 03a4 00C00008 		.word	134266880
 14847 03a8 00000000 		.word	.LC14
 14848              	.L3336:
 14849 03ac E8B1     		cbz	r0, .L3310
 14850              	.L2876:
 14851 03ae B8F1000F 		cmp	r8, #0
 14852 03b2 0BD1     		bne	.L2872
 14853 03b4 5C4B     		ldr	r3, .L3338
 14854 03b6 DB68     		ldr	r3, [r3, #12]
 14855 03b8 1B07     		lsls	r3, r3, #28
 14856 03ba 46D5     		bpl	.L3311
 14857              	.L2873:
 14858 03bc 5B4B     		ldr	r3, .L3338+4
 14859 03be 4FF40012 		mov	r2, #2097152
 14860 03c2 5B49     		ldr	r1, .L3338+8
 14861 03c4 9A61     		str	r2, [r3, #24]
 14862 03c6 5B48     		ldr	r0, .L3338+12
 14863 03c8 FFF7FEFF 		bl	c64_send_text
 14864              	.L2872:
 14865 03cc 4FF47A72 		mov	r2, #1000
 14866 03d0 45F20820 		movw	r0, #21000
 14867 03d4 0021     		movs	r1, #0
 14868 03d6 4FF00108 		mov	r8, #1
 14869              	.L2875:
 14870 03da 6060     		str	r0, [r4, #4]
 14871 03dc A160     		str	r1, [r4, #8]
 14872              	.L2874:
 14873 03de 2368     		ldr	r3, [r4]
 14874 03e0 DD03     		lsls	r5, r3, #15
 14875 03e2 FCD5     		bpl	.L2874
 14876 03e4 013A     		subs	r2, r2, #1
 14877 03e6 F8D1     		bne	.L2875
 14878 03e8 98E7     		b	.L2871
 14879              	.L3310:
 14880 03ea 5348     		ldr	r0, .L3338+16
 14881 03ec FFF7FEFF 		bl	f_chdir
 14882 03f0 C5F818A0 		str	r10, [r5, #24]
 14883 03f4 0028     		cmp	r0, #0
 14884 03f6 DAD1     		bne	.L2876
 14885 03f8 FFF7FEFF 		bl	auto_boot
 14886 03fc 0028     		cmp	r0, #0
 14887 03fe 00F02187 		beq	.L2877
 14888 0402 4E4D     		ldr	r5, .L3338+20
 14889              	.L2878:
 14890 0404 6B7A     		ldrb	r3, [r5, #9]	@ zero_extendqisi2
 14891 0406 042B     		cmp	r3, #4
 14892 0408 40F06D87 		bne	.L2902
 14893              	.L2909:
 14894 040c 3B68     		ldr	r3, [r7]
ARM GAS  C:\Users\Jay\AppData\Local\Temp\ccjVRGue.s 			page 258


 14895 040e 0020     		movs	r0, #0
 14896 0410 9B68     		ldr	r3, [r3, #8]
 14897 0412 9847     		blx	r3
 14898 0414 3B68     		ldr	r3, [r7]
 14899 0416 0020     		movs	r0, #0
 14900 0418 5B68     		ldr	r3, [r3, #4]
 14901 041a 9847     		blx	r3
 14902 041c 484B     		ldr	r3, .L3338+24
 14903 041e 2022     		movs	r2, #32
 14904 0420 C3F88C20 		str	r2, [r3, #140]
 14905              		.syntax unified
 14906              	@ 878 "stm32h7xx/cmsis/cmsis_gcc.h" 1
 14907 0424 BFF34F8F 		dsb 0xF
 14908              	@ 0 "" 2
 14909              	@ 867 "stm32h7xx/cmsis/cmsis_gcc.h" 1
 14910 0428 BFF36F8F 		isb 0xF
 14911              	@ 0 "" 2
 14912              		.thumb
 14913              		.syntax unified
 14914 042c 6B7A     		ldrb	r3, [r5, #9]	@ zero_extendqisi2
 14915              	.L2910:
 14916 042e 013B     		subs	r3, r3, #1
 14917 0430 072B     		cmp	r3, #7
 14918 0432 00F24885 		bhi	.L2911
 14919 0436 DFE813F0 		tbh	[pc, r3, lsl #1]
 14920              	.L2913:
 14921 043a A305     		.2byte	(.L2912-.L2913)/2
 14922 043c 2E06     		.2byte	(.L2914-.L2913)/2
 14923 043e B506     		.2byte	(.L2915-.L2913)/2
 14924 0440 4105     		.2byte	(.L2916-.L2913)/2
 14925 0442 4605     		.2byte	(.L2911-.L2913)/2
 14926 0444 1C05     		.2byte	(.L2917-.L2913)/2
 14927 0446 5301     		.2byte	(.L2918-.L2913)/2
 14928 0448 0B00     		.2byte	(.L2919-.L2913)/2
 14929              		.p2align 1
 14930              	.L3311:
 14931 044a FFF7FEFF 		bl	c64_interface.part.23
 14932 044e B5E7     		b	.L2873
 14933              	.L2919:
 14934 0450 354B     		ldr	r3, .L3338
 14935 0452 6FF00801 		mvn	r1, #8
 14936 0456 3B4C     		ldr	r4, .L3338+28
 14937 0458 DA68     		ldr	r2, [r3, #12]
 14938 045a DFF804B1 		ldr	fp, .L3338+56
 14939 045e 0A40     		ands	r2, r2, r1
 14940 0460 DFF80091 		ldr	r9, .L3338+60
 14941 0464 DA60     		str	r2, [r3, #12]
 14942 0466 1961     		str	r1, [r3, #16]
 14943 0468 FFF7FEFF 		bl	c64_reset.part.24
 14944 046c 2F4B     		ldr	r3, .L3338+4
 14945 046e 4FF48000 		mov	r0, #4194304
 14946 0472 4FF4C071 		mov	r1, #384
 14947 0476 4FF40012 		mov	r2, #2097152
 14948 047a 9861     		str	r0, [r3, #24]
 14949 047c 9961     		str	r1, [r3, #24]
 14950 047e 9A61     		str	r2, [r3, #24]
 14951 0480 314B     		ldr	r3, .L3338+32
ARM GAS  C:\Users\Jay\AppData\Local\Temp\ccjVRGue.s 			page 259


 14952 0482 0193     		str	r3, [sp, #4]
 14953              	.L2957:
 14954 0484 6B7A     		ldrb	r3, [r5, #9]	@ zero_extendqisi2
 14955 0486 042B     		cmp	r3, #4
 14956 0488 6ED0     		beq	.L3270
 14957 048a 304D     		ldr	r5, .L3338+36
 14958 048c 304E     		ldr	r6, .L3338+40
 14959 048e 314F     		ldr	r7, .L3338+44
 14960              	.L2967:
 14961 0490 4FF0800A 		mov	r10, #128
 14962              	.L3077:
 14963 0494 2B68     		ldr	r3, [r5]
 14964 0496 13B1     		cbz	r3, .L3074
 14965 0498 99F80030 		ldrb	r3, [r9]	@ zero_extendqisi2
 14966 049c 0BB3     		cbz	r3, .L3075
 14967              	.L3074:
 14968 049e 2378     		ldrb	r3, [r4]	@ zero_extendqisi2
 14969 04a0 002B     		cmp	r3, #0
 14970 04a2 F7D1     		bne	.L3077
 14971              	.L3078:
 14972 04a4 2378     		ldrb	r3, [r4]	@ zero_extendqisi2
 14973 04a6 002B     		cmp	r3, #0
 14974 04a8 FCD1     		bne	.L3078
 14975 04aa 9BF80020 		ldrb	r2, [fp]	@ zero_extendqisi2
 14976 04ae D2B2     		uxtb	r2, r2
 14977 04b0 4023     		movs	r3, #64
 14978 04b2 2370     		strb	r3, [r4]
 14979              	.L3079:
 14980 04b4 3368     		ldr	r3, [r6]
 14981 04b6 B3F5FF7F 		cmp	r3, #510
 14982 04ba FBD8     		bhi	.L3079
 14983 04bc BB68     		ldr	r3, [r7, #8]
 14984 04be 23F00103 		bic	r3, r3, #1
 14985 04c2 BB60     		str	r3, [r7, #8]
 14986              		.syntax unified
 14987              	@ 878 "stm32h7xx/cmsis/cmsis_gcc.h" 1
 14988 04c4 BFF34F8F 		dsb 0xF
 14989              	@ 0 "" 2
 14990              		.thumb
 14991              		.syntax unified
 14992 04c8 3368     		ldr	r3, [r6]
 14993 04ca 3368     		ldr	r3, [r6]
 14994 04cc 2248     		ldr	r0, .L3338+48
 14995 04ce 591C     		adds	r1, r3, #1
 14996 04d0 C254     		strb	r2, [r0, r3]
 14997 04d2 3160     		str	r1, [r6]
 14998              		.syntax unified
 14999              	@ 878 "stm32h7xx/cmsis/cmsis_gcc.h" 1
 15000 04d4 BFF34F8F 		dsb 0xF
 15001              	@ 0 "" 2
 15002              		.thumb
 15003              		.syntax unified
 15004 04d8 BB68     		ldr	r3, [r7, #8]
 15005 04da 43F00103 		orr	r3, r3, #1
 15006 04de BB60     		str	r3, [r7, #8]
 15007 04e0 D6E7     		b	.L2967
 15008              	.L3075:
ARM GAS  C:\Users\Jay\AppData\Local\Temp\ccjVRGue.s 			page 260


 15009 04e2 2B68     		ldr	r3, [r5]
 15010 04e4 002B     		cmp	r3, #0
 15011 04e6 FCD0     		beq	.L3075
 15012 04e8 BB68     		ldr	r3, [r7, #8]
 15013 04ea 23F00103 		bic	r3, r3, #1
 15014 04ee BB60     		str	r3, [r7, #8]
 15015              		.syntax unified
 15016              	@ 878 "stm32h7xx/cmsis/cmsis_gcc.h" 1
 15017 04f0 BFF34F8F 		dsb 0xF
 15018              	@ 0 "" 2
 15019              		.thumb
 15020              		.syntax unified
 15021 04f4 2B68     		ldr	r3, [r5]
 15022 04f6 1949     		ldr	r1, .L3338+52
 15023 04f8 013B     		subs	r3, r3, #1
 15024 04fa 481E     		subs	r0, r1, #1
 15025 04fc 90F80080 		ldrb	r8, [r0]	@ zero_extendqisi2
 15026 0500 1A46     		mov	r2, r3
 15027 0502 2B60     		str	r3, [r5]
 15028 0504 FFF7FEFF 		bl	memmove
 15029              		.syntax unified
 15030              	@ 878 "stm32h7xx/cmsis/cmsis_gcc.h" 1
 15031 0508 BFF34F8F 		dsb 0xF
 15032              	@ 0 "" 2
 15033              		.thumb
 15034              		.syntax unified
 15035 050c BB68     		ldr	r3, [r7, #8]
 15036 050e 43F00103 		orr	r3, r3, #1
 15037 0512 BB60     		str	r3, [r7, #8]
 15038              	.L3076:
 15039 0514 99F80030 		ldrb	r3, [r9]	@ zero_extendqisi2
 15040 0518 002B     		cmp	r3, #0
 15041 051a FBD1     		bne	.L3076
 15042 051c 019B     		ldr	r3, [sp, #4]
 15043 051e 83F80080 		strb	r8, [r3]
 15044 0522 89F800A0 		strb	r10, [r9]
 15045 0526 BAE7     		b	.L3074
 15046              	.L3339:
 15047              		.align	2
 15048              	.L3338:
 15049 0528 00000140 		.word	1073807360
 15050 052c 00100258 		.word	1476530176
 15051 0530 00000000 		.word	.LC56
 15052 0534 28000000 		.word	.LC57
 15053 0538 00000000 		.word	.LC38
 15054 053c 00000000 		.word	dat_file
 15055 0540 00E100E0 		.word	-536813312
 15056 0544 00000000 		.word	.LANCHOR11
 15057 0548 00000000 		.word	.LANCHOR10
 15058 054c 00000000 		.word	.LANCHOR22
 15059 0550 00000000 		.word	.LANCHOR20
 15060 0554 00000840 		.word	1074266112
 15061 0558 00000000 		.word	.LANCHOR21
 15062 055c 01000000 		.word	.LANCHOR23+1
 15063 0560 00000000 		.word	.LANCHOR12
 15064 0564 00000000 		.word	.LANCHOR9
 15065              	.L3270:
ARM GAS  C:\Users\Jay\AppData\Local\Temp\ccjVRGue.s 			page 261


 15066 0568 0022     		movs	r2, #0
 15067 056a BA4B     		ldr	r3, .L3340
 15068 056c 1146     		mov	r1, r2
 15069              	.L2968:
 15070 056e 1A70     		strb	r2, [r3]
 15071 0570 0132     		adds	r2, r2, #1
 15072 0572 5970     		strb	r1, [r3, #1]
 15073 0574 102A     		cmp	r2, #16
 15074 0576 9970     		strb	r1, [r3, #2]
 15075 0578 D970     		strb	r1, [r3, #3]
 15076 057a 03F20313 		addw	r3, r3, #259
 15077 057e 03F8FF1C 		strb	r1, [r3, #-255]
 15078 0582 F4D1     		bne	.L2968
 15079 0584 B44B     		ldr	r3, .L3340+4
 15080 0586 07A8     		add	r0, sp, #28
 15081 0588 2A22     		movs	r2, #42
 15082 058a 0393     		str	r3, [sp, #12]
 15083 058c 0023     		movs	r3, #0
 15084 058e 1946     		mov	r1, r3
 15085 0590 0293     		str	r3, [sp, #8]
 15086 0592 FFF7FEFF 		bl	memset
 15087              	.L2970:
 15088 0596 FFF7FEFF 		bl	c64_receive_command
 15089 059a 8228     		cmp	r0, #130
 15090 059c 47D0     		beq	.L2972
 15091              	.L3314:
 15092 059e 40F2CA80 		bls	.L3312
 15093 05a2 8428     		cmp	r0, #132
 15094 05a4 00F0E880 		beq	.L2976
 15095 05a8 C0F00381 		bcc	.L2977
 15096 05ac 8528     		cmp	r0, #133
 15097 05ae 00F0D680 		beq	.L2978
 15098 05b2 8628     		cmp	r0, #134
 15099 05b4 40F0C780 		bne	.L3165
 15100 05b8 029B     		ldr	r3, [sp, #8]
 15101 05ba 002B     		cmp	r3, #0
 15102 05bc 00F02181 		beq	.L3164
 15103 05c0 5B78     		ldrb	r3, [r3, #1]	@ zero_extendqisi2
 15104 05c2 002B     		cmp	r3, #0
 15105 05c4 00F01D81 		beq	.L3164
 15106 05c8 0298     		ldr	r0, [sp, #8]
 15107 05ca 013B     		subs	r3, r3, #1
 15108 05cc 8278     		ldrb	r2, [r0, #2]	@ zero_extendqisi2
 15109 05ce DBB2     		uxtb	r3, r3
 15110 05d0 511C     		adds	r1, r2, #1
 15111 05d2 0244     		add	r2, r2, r0
 15112 05d4 8170     		strb	r1, [r0, #2]
 15113 05d6 5579     		ldrb	r5, [r2, #5]	@ zero_extendqisi2
 15114 05d8 4370     		strb	r3, [r0, #1]
 15115 05da 002B     		cmp	r3, #0
 15116 05dc 40F01C81 		bne	.L3072
 15117 05e0 0378     		ldrb	r3, [r0]	@ zero_extendqisi2
 15118 05e2 0F2B     		cmp	r3, #15
 15119 05e4 00F05883 		beq	.L3313
 15120 05e8 029E     		ldr	r6, [sp, #8]
 15121 05ea 9C48     		ldr	r0, .L3340+8
 15122 05ec F11C     		adds	r1, r6, #3
ARM GAS  C:\Users\Jay\AppData\Local\Temp\ccjVRGue.s 			page 262


 15123 05ee FFF7FEFF 		bl	d64_read_file_sector
 15124 05f2 0023     		movs	r3, #0
 15125 05f4 7070     		strb	r0, [r6, #1]
 15126 05f6 B370     		strb	r3, [r6, #2]
 15127 05f8 0028     		cmp	r0, #0
 15128 05fa 40F00D81 		bne	.L3072
 15129              	.L3070:
 15130 05fe 99F80030 		ldrb	r3, [r9]	@ zero_extendqisi2
 15131 0602 002B     		cmp	r3, #0
 15132 0604 FBD1     		bne	.L3070
 15133 0606 8023     		movs	r3, #128
 15134 0608 8422     		movs	r2, #132
 15135 060a 0199     		ldr	r1, [sp, #4]
 15136 060c 0A70     		strb	r2, [r1]
 15137 060e 89F80030 		strb	r3, [r9]
 15138 0612 99F80030 		ldrb	r3, [r9]	@ zero_extendqisi2
 15139 0616 002B     		cmp	r3, #0
 15140 0618 40F00781 		bne	.L3073
 15141 061c 8023     		movs	r3, #128
 15142 061e 019A     		ldr	r2, [sp, #4]
 15143 0620 1570     		strb	r5, [r2]
 15144 0622 89F80030 		strb	r3, [r9]
 15145              	.L3318:
 15146 0626 FFF7FEFF 		bl	c64_receive_command
 15147 062a 8228     		cmp	r0, #130
 15148 062c B7D1     		bne	.L3314
 15149              	.L2972:
 15150 062e 2378     		ldrb	r3, [r4]	@ zero_extendqisi2
 15151 0630 002B     		cmp	r3, #0
 15152 0632 FCD1     		bne	.L2972
 15153 0634 9BF80050 		ldrb	r5, [fp]	@ zero_extendqisi2
 15154 0638 EDB2     		uxtb	r5, r5
 15155 063a 05F00F05 		and	r5, r5, #15
 15156 063e 4022     		movs	r2, #64
 15157 0640 05EBC513 		add	r3, r5, r5, lsl #7
 15158 0644 2270     		strb	r2, [r4]
 15159 0646 05EB4305 		add	r5, r5, r3, lsl #1
 15160 064a 824B     		ldr	r3, .L3340
 15161 064c 2B44     		add	r3, r3, r5
 15162 064e 0293     		str	r3, [sp, #8]
 15163              	.L2983:
 15164 0650 2378     		ldrb	r3, [r4]	@ zero_extendqisi2
 15165 0652 002B     		cmp	r3, #0
 15166 0654 FCD1     		bne	.L2983
 15167 0656 9BF80000 		ldrb	r0, [fp]	@ zero_extendqisi2
 15168 065a C0B2     		uxtb	r0, r0
 15169 065c 4021     		movs	r1, #64
 15170 065e 2170     		strb	r1, [r4]
 15171 0660 68B1     		cbz	r0, .L3051
 15172 0662 07AB     		add	r3, sp, #28
 15173 0664 1E18     		adds	r6, r3, r0
 15174 0666 1A46     		mov	r2, r3
 15175              	.L3052:
 15176 0668 2378     		ldrb	r3, [r4]	@ zero_extendqisi2
 15177 066a 002B     		cmp	r3, #0
 15178 066c FCD1     		bne	.L3052
 15179 066e 9BF80030 		ldrb	r3, [fp]	@ zero_extendqisi2
ARM GAS  C:\Users\Jay\AppData\Local\Temp\ccjVRGue.s 			page 263


 15180 0672 DBB2     		uxtb	r3, r3
 15181 0674 02F8013B 		strb	r3, [r2], #1
 15182 0678 B242     		cmp	r2, r6
 15183 067a 2170     		strb	r1, [r4]
 15184 067c F4D1     		bne	.L3052
 15185              	.L3051:
 15186 067e 12AB     		add	r3, sp, #72
 15187 0680 0022     		movs	r2, #0
 15188 0682 029E     		ldr	r6, [sp, #8]
 15189 0684 05A9     		add	r1, sp, #20
 15190 0686 0344     		add	r3, r3, r0
 15191 0688 07A8     		add	r0, sp, #28
 15192 068a 7270     		strb	r2, [r6, #1]
 15193 068c B270     		strb	r2, [r6, #2]
 15194 068e 03F82C2C 		strb	r2, [r3, #-44]
 15195 0692 FFF7FEFF 		bl	disk_parse_filename
 15196 0696 9DF81830 		ldrb	r3, [sp, #24]	@ zero_extendqisi2
 15197 069a 002B     		cmp	r3, #0
 15198 069c 40F0CF80 		bne	.L3162
 15199 06a0 9DF81910 		ldrb	r1, [sp, #25]	@ zero_extendqisi2
 15200 06a4 0429     		cmp	r1, #4
 15201 06a6 00F0CA80 		beq	.L3162
 15202 06aa 9DF81A30 		ldrb	r3, [sp, #26]	@ zero_extendqisi2
 15203 06ae 572B     		cmp	r3, #87
 15204 06b0 00F0C580 		beq	.L3162
 15205 06b4 674B     		ldr	r3, .L3340
 15206 06b6 5B5D     		ldrb	r3, [r3, r5]	@ zero_extendqisi2
 15207 06b8 0F2B     		cmp	r3, #15
 15208 06ba 00F0FF82 		beq	.L3315
 15209 06be 0598     		ldr	r0, [sp, #20]
 15210 06c0 FFF7FEFF 		bl	disk_find_file.constprop.81
 15211 06c4 0028     		cmp	r0, #0
 15212 06c6 40F02683 		bne	.L3316
 15213              	.L3059:
 15214 06ca 99F80030 		ldrb	r3, [r9]	@ zero_extendqisi2
 15215 06ce 002B     		cmp	r3, #0
 15216 06d0 FBD1     		bne	.L3059
 15217              	.L3304:
 15218 06d2 8222     		movs	r2, #130
 15219 06d4 8023     		movs	r3, #128
 15220 06d6 0199     		ldr	r1, [sp, #4]
 15221 06d8 0A70     		strb	r2, [r1]
 15222 06da 89F80030 		strb	r3, [r9]
 15223 06de 5AE7     		b	.L2970
 15224              	.L2918:
 15225 06e0 5F4B     		ldr	r3, .L3340+12
 15226 06e2 6FF00801 		mvn	r1, #8
 15227 06e6 4FF48004 		mov	r4, #4194304
 15228 06ea DA68     		ldr	r2, [r3, #12]
 15229 06ec 0A40     		ands	r2, r2, r1
 15230 06ee DA60     		str	r2, [r3, #12]
 15231 06f0 1961     		str	r1, [r3, #16]
 15232 06f2 FFF7FEFF 		bl	c64_reset.part.24
 15233 06f6 5B4B     		ldr	r3, .L3340+16
 15234 06f8 5B48     		ldr	r0, .L3340+20
 15235 06fa 4FF40011 		mov	r1, #2097152
 15236 06fe 9C61     		str	r4, [r3, #24]
ARM GAS  C:\Users\Jay\AppData\Local\Temp\ccjVRGue.s 			page 264


 15237 0700 4FF49672 		mov	r2, #300
 15238 0704 9861     		str	r0, [r3, #24]
 15239 0706 45F20824 		movw	r4, #21000
 15240 070a 9961     		str	r1, [r3, #24]
 15241 070c 0020     		movs	r0, #0
 15242 070e 574B     		ldr	r3, .L3340+24
 15243              	.L2966:
 15244 0710 5C60     		str	r4, [r3, #4]
 15245 0712 9860     		str	r0, [r3, #8]
 15246              	.L2965:
 15247 0714 1968     		ldr	r1, [r3]
 15248 0716 C903     		lsls	r1, r1, #15
 15249 0718 FCD5     		bpl	.L2965
 15250 071a 013A     		subs	r2, r2, #1
 15251 071c F8D1     		bne	.L2966
 15252              	.L3297:
 15253 071e 514B     		ldr	r3, .L3340+16
 15254 0720 4FF4C072 		mov	r2, #384
 15255 0724 524C     		ldr	r4, .L3340+28
 15256 0726 9A61     		str	r2, [r3, #24]
 15257 0728 524B     		ldr	r3, .L3340+32
 15258 072a DFF84CB1 		ldr	fp, .L3340+36
 15259 072e DFF84C91 		ldr	r9, .L3340+40
 15260 0732 0193     		str	r3, [sp, #4]
 15261 0734 A6E6     		b	.L2957
 15262              	.L3312:
 15263 0736 8028     		cmp	r0, #128
 15264 0738 00F0A280 		beq	.L2974
 15265 073c 00F22181 		bhi	.L3088
 15266 0740 0028     		cmp	r0, #0
 15267 0742 3FF428AF 		beq	.L2970
 15268              	.L3165:
 15269 0746 99F80030 		ldrb	r3, [r9]	@ zero_extendqisi2
 15270 074a 03F0FF02 		and	r2, r3, #255
 15271 074e 002B     		cmp	r3, #0
 15272 0750 F9D1     		bne	.L3165
 15273 0752 8023     		movs	r3, #128
 15274 0754 0199     		ldr	r1, [sp, #4]
 15275 0756 0A70     		strb	r2, [r1]
 15276 0758 89F80030 		strb	r3, [r9]
 15277 075c 1BE7     		b	.L2970
 15278              	.L2978:
 15279 075e 99F80030 		ldrb	r3, [r9]	@ zero_extendqisi2
 15280 0762 03F0FF02 		and	r2, r3, #255
 15281 0766 002B     		cmp	r3, #0
 15282 0768 F9D1     		bne	.L2978
 15283 076a 8023     		movs	r3, #128
 15284 076c 0199     		ldr	r1, [sp, #4]
 15285 076e 0292     		str	r2, [sp, #8]
 15286 0770 0A70     		strb	r2, [r1]
 15287 0772 89F80030 		strb	r3, [r9]
 15288 0776 0EE7     		b	.L2970
 15289              	.L2976:
 15290 0778 2378     		ldrb	r3, [r4]	@ zero_extendqisi2
 15291 077a 002B     		cmp	r3, #0
 15292 077c FCD1     		bne	.L2976
 15293 077e 9BF80030 		ldrb	r3, [fp]	@ zero_extendqisi2
ARM GAS  C:\Users\Jay\AppData\Local\Temp\ccjVRGue.s 			page 265


 15294 0782 DBB2     		uxtb	r3, r3
 15295 0784 03F00F03 		and	r3, r3, #15
 15296 0788 4021     		movs	r1, #64
 15297 078a 03EBC312 		add	r2, r3, r3, lsl #7
 15298 078e 2170     		strb	r1, [r4]
 15299 0790 03EB4203 		add	r3, r3, r2, lsl #1
 15300 0794 2F4A     		ldr	r2, .L3340
 15301 0796 D318     		adds	r3, r2, r3
 15302 0798 0293     		str	r3, [sp, #8]
 15303              	.L2980:
 15304 079a 99F80030 		ldrb	r3, [r9]	@ zero_extendqisi2
 15305 079e 03F0FF02 		and	r2, r3, #255
 15306 07a2 002B     		cmp	r3, #0
 15307 07a4 F9D1     		bne	.L2980
 15308 07a6 8023     		movs	r3, #128
 15309 07a8 0199     		ldr	r1, [sp, #4]
 15310 07aa 0A70     		strb	r2, [r1]
 15311 07ac 89F80030 		strb	r3, [r9]
 15312 07b0 F1E6     		b	.L2970
 15313              	.L2977:
 15314 07b2 2378     		ldrb	r3, [r4]	@ zero_extendqisi2
 15315 07b4 03F0FF02 		and	r2, r3, #255
 15316 07b8 002B     		cmp	r3, #0
 15317 07ba FAD1     		bne	.L2977
 15318 07bc 9BF80030 		ldrb	r3, [fp]	@ zero_extendqisi2
 15319 07c0 DBB2     		uxtb	r3, r3
 15320 07c2 03F00F03 		and	r3, r3, #15
 15321 07c6 4020     		movs	r0, #64
 15322 07c8 03EBC311 		add	r1, r3, r3, lsl #7
 15323 07cc 2070     		strb	r0, [r4]
 15324 07ce 2148     		ldr	r0, .L3340
 15325 07d0 03EB4103 		add	r3, r3, r1, lsl #1
 15326 07d4 C15C     		ldrb	r1, [r0, r3]	@ zero_extendqisi2
 15327 07d6 C318     		adds	r3, r0, r3
 15328 07d8 0F29     		cmp	r1, #15
 15329 07da 0293     		str	r3, [sp, #8]
 15330 07dc 00F0EE80 		beq	.L3317
 15331 07e0 029B     		ldr	r3, [sp, #8]
 15332 07e2 5A70     		strb	r2, [r3, #1]
 15333 07e4 9A70     		strb	r2, [r3, #2]
 15334 07e6 DA70     		strb	r2, [r3, #3]
 15335 07e8 1A71     		strb	r2, [r3, #4]
 15336              	.L3064:
 15337 07ea 99F80030 		ldrb	r3, [r9]	@ zero_extendqisi2
 15338 07ee 03F0FF02 		and	r2, r3, #255
 15339 07f2 002B     		cmp	r3, #0
 15340 07f4 F9D1     		bne	.L3064
 15341 07f6 8023     		movs	r3, #128
 15342 07f8 0199     		ldr	r1, [sp, #4]
 15343 07fa 0A70     		strb	r2, [r1]
 15344 07fc 89F80030 		strb	r3, [r9]
 15345 0800 C9E6     		b	.L2970
 15346              	.L3164:
 15347 0802 99F80030 		ldrb	r3, [r9]	@ zero_extendqisi2
 15348 0806 002B     		cmp	r3, #0
 15349 0808 FBD1     		bne	.L3164
 15350              	.L3301:
ARM GAS  C:\Users\Jay\AppData\Local\Temp\ccjVRGue.s 			page 266


 15351 080a 8322     		movs	r2, #131
 15352 080c 8023     		movs	r3, #128
 15353 080e 0199     		ldr	r1, [sp, #4]
 15354 0810 0A70     		strb	r2, [r1]
 15355 0812 89F80030 		strb	r3, [r9]
 15356 0816 BEE6     		b	.L2970
 15357              	.L3072:
 15358 0818 99F80030 		ldrb	r3, [r9]	@ zero_extendqisi2
 15359 081c 002B     		cmp	r3, #0
 15360 081e FBD1     		bne	.L3072
 15361 0820 8023     		movs	r3, #128
 15362 0822 019A     		ldr	r2, [sp, #4]
 15363 0824 1370     		strb	r3, [r2]
 15364 0826 89F80030 		strb	r3, [r9]
 15365              	.L3073:
 15366 082a 99F80030 		ldrb	r3, [r9]	@ zero_extendqisi2
 15367 082e 002B     		cmp	r3, #0
 15368 0830 FBD1     		bne	.L3073
 15369 0832 8023     		movs	r3, #128
 15370 0834 019A     		ldr	r2, [sp, #4]
 15371 0836 1570     		strb	r5, [r2]
 15372 0838 89F80030 		strb	r3, [r9]
 15373 083c F3E6     		b	.L3318
 15374              	.L3162:
 15375 083e 99F80030 		ldrb	r3, [r9]	@ zero_extendqisi2
 15376 0842 002B     		cmp	r3, #0
 15377 0844 3FF445AF 		beq	.L3304
 15378 0848 99F80030 		ldrb	r3, [r9]	@ zero_extendqisi2
 15379 084c 002B     		cmp	r3, #0
 15380 084e F6D1     		bne	.L3162
 15381 0850 3FE7     		b	.L3304
 15382              	.L3341:
 15383 0852 00BF     		.align	2
 15384              	.L3340:
 15385 0854 00200000 		.word	crt_ram_buf+8192
 15386 0858 00000000 		.word	.LANCHOR24
 15387 085c 14000000 		.word	.LANCHOR24+20
 15388 0860 00000140 		.word	1073807360
 15389 0864 00100258 		.word	1476530176
 15390 0868 80000001 		.word	16777344
 15391 086c 10E000E0 		.word	-536813552
 15392 0870 00000000 		.word	.LANCHOR11
 15393 0874 00000000 		.word	.LANCHOR10
 15394 0878 00000000 		.word	.LANCHOR12
 15395 087c 00000000 		.word	.LANCHOR9
 15396              	.L2974:
 15397 0880 2378     		ldrb	r3, [r4]	@ zero_extendqisi2
 15398 0882 002B     		cmp	r3, #0
 15399 0884 FCD1     		bne	.L2974
 15400 0886 9BF80000 		ldrb	r0, [fp]	@ zero_extendqisi2
 15401 088a C0B2     		uxtb	r0, r0
 15402 088c 4021     		movs	r1, #64
 15403 088e 2170     		strb	r1, [r4]
 15404 0890 68B1     		cbz	r0, .L2984
 15405 0892 07AB     		add	r3, sp, #28
 15406 0894 1D18     		adds	r5, r3, r0
 15407 0896 1A46     		mov	r2, r3
ARM GAS  C:\Users\Jay\AppData\Local\Temp\ccjVRGue.s 			page 267


 15408              	.L2985:
 15409 0898 2378     		ldrb	r3, [r4]	@ zero_extendqisi2
 15410 089a 002B     		cmp	r3, #0
 15411 089c FCD1     		bne	.L2985
 15412 089e 9BF80030 		ldrb	r3, [fp]	@ zero_extendqisi2
 15413 08a2 DBB2     		uxtb	r3, r3
 15414 08a4 02F8013B 		strb	r3, [r2], #1
 15415 08a8 AA42     		cmp	r2, r5
 15416 08aa 2170     		strb	r1, [r4]
 15417 08ac F4D1     		bne	.L2985
 15418              	.L2984:
 15419 08ae 12AB     		add	r3, sp, #72
 15420 08b0 1844     		add	r0, r0, r3
 15421 08b2 0023     		movs	r3, #0
 15422 08b4 00F82C3C 		strb	r3, [r0, #-44]
 15423 08b8 9DF81C30 		ldrb	r3, [sp, #28]	@ zero_extendqisi2
 15424 08bc 242B     		cmp	r3, #36
 15425 08be 00F08B80 		beq	.L3319
 15426 08c2 05A9     		add	r1, sp, #20
 15427 08c4 07A8     		add	r0, sp, #28
 15428 08c6 FFF7FEFF 		bl	disk_parse_filename
 15429 08ca 9DF81830 		ldrb	r3, [sp, #24]	@ zero_extendqisi2
 15430 08ce 002B     		cmp	r3, #0
 15431 08d0 43D1     		bne	.L3031
 15432 08d2 9DF81910 		ldrb	r1, [sp, #25]	@ zero_extendqisi2
 15433 08d6 0029     		cmp	r1, #0
 15434 08d8 40F08C80 		bne	.L3033
 15435 08dc 0221     		movs	r1, #2
 15436 08de 8DF81910 		strb	r1, [sp, #25]
 15437              	.L3034:
 15438 08e2 0598     		ldr	r0, [sp, #20]
 15439 08e4 FFF7FEFF 		bl	disk_find_file.constprop.81
 15440 08e8 0028     		cmp	r0, #0
 15441 08ea 40D0     		beq	.L3036
 15442 08ec 039B     		ldr	r3, [sp, #12]
 15443 08ee 0027     		movs	r7, #0
 15444 08f0 DFF8CC82 		ldr	r8, .L3342+16
 15445 08f4 D3F84423 		ldr	r2, [r3, #836]
 15446 08f8 AD4E     		ldr	r6, .L3342
 15447 08fa D178     		ldrb	r1, [r2, #3]	@ zero_extendqisi2
 15448 08fc 83F83E12 		strb	r1, [r3, #574]
 15449 0900 1279     		ldrb	r2, [r2, #4]	@ zero_extendqisi2
 15450 0902 83F83F22 		strb	r2, [r3, #575]
 15451 0906 4B46     		mov	r3, r9
 15452 0908 A146     		mov	r9, r4
 15453 090a 3C46     		mov	r4, r7
 15454 090c 9A46     		mov	r10, r3
 15455 090e 14E0     		b	.L3037
 15456              	.L3321:
 15457 0910 022D     		cmp	r5, #2
 15458 0912 40F23782 		bls	.L3285
 15459 0916 023D     		subs	r5, r5, #2
 15460 0918 039B     		ldr	r3, [sp, #12]
 15461 091a A649     		ldr	r1, .L3342+4
 15462 091c 3046     		mov	r0, r6
 15463 091e EDB2     		uxtb	r5, r5
 15464 0920 B3F84072 		ldrh	r7, [r3, #576]
ARM GAS  C:\Users\Jay\AppData\Local\Temp\ccjVRGue.s 			page 268


 15465 0924 2A46     		mov	r2, r5
 15466 0926 FFF7FEFF 		bl	memcpy
 15467              	.L3040:
 15468 092a 6319     		adds	r3, r4, r5
 15469 092c 43F60272 		movw	r2, #16130
 15470 0930 2E44     		add	r6, r6, r5
 15471 0932 9CB2     		uxth	r4, r3
 15472 0934 9442     		cmp	r4, r2
 15473 0936 00F20882 		bhi	.L3041
 15474              	.L3037:
 15475 093a 4146     		mov	r1, r8
 15476 093c 9E48     		ldr	r0, .L3342+8
 15477 093e FFF7FEFF 		bl	d64_read_file_sector
 15478 0942 0546     		mov	r5, r0
 15479 0944 0028     		cmp	r0, #0
 15480 0946 00F09B81 		beq	.L3320
 15481 094a 002C     		cmp	r4, #0
 15482 094c E0D0     		beq	.L3321
 15483 094e 2A46     		mov	r2, r5
 15484 0950 9A49     		ldr	r1, .L3342+12
 15485 0952 3046     		mov	r0, r6
 15486 0954 FFF7FEFF 		bl	memcpy
 15487 0958 E7E7     		b	.L3040
 15488              	.L3031:
 15489 095a 99F80030 		ldrb	r3, [r9]	@ zero_extendqisi2
 15490 095e 002B     		cmp	r3, #0
 15491 0960 3FF4B7AE 		beq	.L3304
 15492 0964 99F80030 		ldrb	r3, [r9]	@ zero_extendqisi2
 15493 0968 002B     		cmp	r3, #0
 15494 096a F6D1     		bne	.L3031
 15495 096c B1E6     		b	.L3304
 15496              	.L3036:
 15497 096e 99F80030 		ldrb	r3, [r9]	@ zero_extendqisi2
 15498 0972 002B     		cmp	r3, #0
 15499 0974 3FF4ADAE 		beq	.L3304
 15500 0978 99F80030 		ldrb	r3, [r9]	@ zero_extendqisi2
 15501 097c 002B     		cmp	r3, #0
 15502 097e F6D1     		bne	.L3036
 15503 0980 A7E6     		b	.L3304
 15504              	.L3088:
 15505 0982 8F4F     		ldr	r7, .L3342+16
 15506 0984 0025     		movs	r5, #0
 15507 0986 8A4E     		ldr	r6, .L3342
 15508 0988 43F6027A 		movw	r10, #16130
 15509              	.L2975:
 15510 098c 3946     		mov	r1, r7
 15511 098e 8A48     		ldr	r0, .L3342+8
 15512 0990 FFF7FEFF 		bl	d64_read_file_sector
 15513 0994 8046     		mov	r8, r0
 15514 0996 68B1     		cbz	r0, .L3322
 15515 0998 4544     		add	r5, r5, r8
 15516 099a 3046     		mov	r0, r6
 15517 099c 4246     		mov	r2, r8
 15518 099e 8749     		ldr	r1, .L3342+12
 15519 09a0 ADB2     		uxth	r5, r5
 15520 09a2 4644     		add	r6, r6, r8
 15521 09a4 FFF7FEFF 		bl	memcpy
ARM GAS  C:\Users\Jay\AppData\Local\Temp\ccjVRGue.s 			page 269


 15522 09a8 5545     		cmp	r5, r10
 15523 09aa EFD9     		bls	.L2975
 15524 09ac 2846     		mov	r0, r5
 15525 09ae FFF7FEFF 		bl	disk_send_prg_bank
 15526 09b2 F0E5     		b	.L2970
 15527              	.L3322:
 15528 09b4 2846     		mov	r0, r5
 15529 09b6 FFF7FEFF 		bl	disk_send_prg
 15530 09ba ECE5     		b	.L2970
 15531              	.L3317:
 15532 09bc 814B     		ldr	r3, .L3342+20
 15533 09be 1146     		mov	r1, r2
 15534              	.L2981:
 15535 09c0 1A70     		strb	r2, [r3]
 15536 09c2 0132     		adds	r2, r2, #1
 15537 09c4 5970     		strb	r1, [r3, #1]
 15538 09c6 102A     		cmp	r2, #16
 15539 09c8 9970     		strb	r1, [r3, #2]
 15540 09ca D970     		strb	r1, [r3, #3]
 15541 09cc 03F20313 		addw	r3, r3, #259
 15542 09d0 03F8FF1C 		strb	r1, [r3, #-255]
 15543 09d4 F4D1     		bne	.L2981
 15544 09d6 08E7     		b	.L3064
 15545              	.L3319:
 15546 09d8 9DF81D30 		ldrb	r3, [sp, #29]	@ zero_extendqisi2
 15547 09dc A3F13002 		sub	r2, r3, #48
 15548 09e0 092A     		cmp	r2, #9
 15549 09e2 15D8     		bhi	.L2988
 15550 09e4 302B     		cmp	r3, #48
 15551 09e6 00F08C81 		beq	.L2989
 15552              	.L2990:
 15553 09ea 99F80030 		ldrb	r3, [r9]	@ zero_extendqisi2
 15554 09ee 002B     		cmp	r3, #0
 15555 09f0 FBD1     		bne	.L2990
 15556 09f2 6EE6     		b	.L3304
 15557              	.L3033:
 15558 09f4 0429     		cmp	r1, #4
 15559 09f6 7FF474AF 		bne	.L3034
 15560              	.L3035:
 15561 09fa 99F80030 		ldrb	r3, [r9]	@ zero_extendqisi2
 15562 09fe 002B     		cmp	r3, #0
 15563 0a00 FBD1     		bne	.L3035
 15564 0a02 8222     		movs	r2, #130
 15565 0a04 8023     		movs	r3, #128
 15566 0a06 0198     		ldr	r0, [sp, #4]
 15567 0a08 0270     		strb	r2, [r0]
 15568 0a0a 89F80030 		strb	r3, [r9]
 15569 0a0e 68E7     		b	.L3034
 15570              	.L2988:
 15571 0a10 002B     		cmp	r3, #0
 15572 0a12 40F03281 		bne	.L3091
 15573 0a16 2A22     		movs	r2, #42
 15574 0a18 0DF11D06 		add	r6, sp, #29
 15575 0a1c 8DF81E30 		strb	r3, [sp, #30]
 15576 0a20 8DF81D20 		strb	r2, [sp, #29]
 15577              	.L2993:
 15578 0a24 6448     		ldr	r0, .L3342+8
ARM GAS  C:\Users\Jay\AppData\Local\Temp\ccjVRGue.s 			page 270


 15579 0a26 FFF7FEFF 		bl	d64_read_disk_header
 15580 0a2a 0028     		cmp	r0, #0
 15581 0a2c 00F08C80 		beq	.L3029
 15582 0a30 40F20113 		movw	r3, #257
 15583 0a34 5E4A     		ldr	r2, .L3342
 15584 0a36 1380     		strh	r3, [r2]	@ movhi
 15585 0a38 634D     		ldr	r5, .L3342+24
 15586 0a3a 0022     		movs	r2, #0
 15587 0a3c 039B     		ldr	r3, [sp, #12]
 15588 0a3e 42F21221 		movw	r1, #8722
 15589 0a42 2A80     		strh	r2, [r5]	@ movhi
 15590 0a44 2022     		movs	r2, #32
 15591 0a46 D3F84003 		ldr	r0, [r3, #832]
 15592 0a4a 2223     		movs	r3, #34
 15593 0a4c 6980     		strh	r1, [r5, #2]	@ movhi
 15594 0a4e 0374     		strb	r3, [r0, #16]
 15595 0a50 0146     		mov	r1, r0
 15596 0a52 2B1D     		adds	r3, r5, #4
 15597 0a54 4274     		strb	r2, [r0, #17]
 15598 0a56 04E0     		b	.L2997
 15599              	.L2995:
 15600 0a58 03F8012B 		strb	r2, [r3], #1
 15601 0a5c 5B4A     		ldr	r2, .L3342+28
 15602 0a5e 9342     		cmp	r3, r2
 15603 0a60 0FD0     		beq	.L3082
 15604              	.L2997:
 15605 0a62 11F8012B 		ldrb	r2, [r1], #1	@ zero_extendqisi2
 15606 0a66 A02A     		cmp	r2, #160
 15607 0a68 F6D1     		bne	.L2995
 15608 0a6a 4A1E     		subs	r2, r1, #1
 15609 0a6c 121A     		subs	r2, r2, r0
 15610 0a6e D2B2     		uxtb	r2, r2
 15611 0a70 162A     		cmp	r2, #22
 15612 0a72 00F0F881 		beq	.L2996
 15613 0a76 2022     		movs	r2, #32
 15614 0a78 03F8012B 		strb	r2, [r3], #1
 15615 0a7c 534A     		ldr	r2, .L3342+28
 15616 0a7e 9342     		cmp	r3, r2
 15617 0a80 EFD1     		bne	.L2997
 15618              	.L3082:
 15619 0a82 039B     		ldr	r3, [sp, #12]
 15620 0a84 0025     		movs	r5, #0
 15621 0a86 02F10108 		add	r8, r2, #1
 15622 0a8a 93F83C72 		ldrb	r7, [r3, #572]	@ zero_extendqisi2
 15623 0a8e 1570     		strb	r5, [r2]
 15624 0a90 032F     		cmp	r7, #3
 15625 0a92 00F09E81 		beq	.L2998
 15626 0a96 2B46     		mov	r3, r5
 15627 0a98 4D49     		ldr	r1, .L3342+32
 15628 0a9a 01E0     		b	.L2999
 15629              	.L3005:
 15630 0a9c 0133     		adds	r3, r3, #1
 15631 0a9e 0431     		adds	r1, r1, #4
 15632              	.L2999:
 15633 0aa0 112B     		cmp	r3, #17
 15634 0aa2 DAB2     		uxtb	r2, r3
 15635 0aa4 FAD0     		beq	.L3005
ARM GAS  C:\Users\Jay\AppData\Local\Temp\ccjVRGue.s 			page 271


 15636 0aa6 91F84202 		ldrb	r0, [r1, #578]	@ zero_extendqisi2
 15637 0aaa 222A     		cmp	r2, #34
 15638 0aac 0544     		add	r5, r5, r0
 15639 0aae ADB2     		uxth	r5, r5
 15640 0ab0 F4D1     		bne	.L3005
 15641 0ab2 022F     		cmp	r7, #2
 15642 0ab4 00F07981 		beq	.L3323
 15643              	.L3000:
 15644 0ab8 3F4F     		ldr	r7, .L3342+8
 15645 0aba 07E0     		b	.L3009
 15646              	.L3023:
 15647 0abc 039B     		ldr	r3, [sp, #12]
 15648 0abe 3146     		mov	r1, r6
 15649 0ac0 D3F84403 		ldr	r0, [r3, #836]
 15650 0ac4 FFF7FEFF 		bl	disk_filename_match
 15651 0ac8 0028     		cmp	r0, #0
 15652 0aca 47D1     		bne	.L3324
 15653              	.L3009:
 15654 0acc 3846     		mov	r0, r7
 15655 0ace FFF7FEFF 		bl	d64_read_dir
 15656 0ad2 0028     		cmp	r0, #0
 15657 0ad4 F2D1     		bne	.L3023
 15658 0ad6 40F20113 		movw	r3, #257
 15659 0ada 4246     		mov	r2, r8
 15660 0adc 22F8043B 		strh	r3, [r2], #4	@ movhi
 15661 0ae0 3C48     		ldr	r0, .L3342+36
 15662 0ae2 4221     		movs	r1, #66
 15663 0ae4 A8F80250 		strh	r5, [r8, #2]	@ movhi
 15664 0ae8 00E0     		b	.L3024
 15665              	.L3096:
 15666 0aea 1A46     		mov	r2, r3
 15667              	.L3024:
 15668 0aec 1346     		mov	r3, r2
 15669 0aee 03F8011B 		strb	r1, [r3], #1
 15670 0af2 10F8011F 		ldrb	r1, [r0, #1]!	@ zero_extendqisi2
 15671 0af6 0029     		cmp	r1, #0
 15672 0af8 F7D1     		bne	.L3096
 15673 0afa 0E32     		adds	r2, r2, #14
 15674 0afc 2021     		movs	r1, #32
 15675              	.L3025:
 15676 0afe 03F8011B 		strb	r1, [r3], #1
 15677 0b02 9342     		cmp	r3, r2
 15678 0b04 FBD1     		bne	.L3025
 15679 0b06 0022     		movs	r2, #0
 15680 0b08 1A70     		strb	r2, [r3]
 15681 0b0a D81C     		adds	r0, r3, #3
 15682 0b0c A3F80120 		strh	r2, [r3, #1]	@ movhi
 15683 0b10 274B     		ldr	r3, .L3342
 15684 0b12 C01A     		subs	r0, r0, r3
 15685 0b14 80B2     		uxth	r0, r0
 15686 0b16 B8B1     		cbz	r0, .L3029
 15687 0b18 FFF7FEFF 		bl	disk_send_prg
 15688              	.L3026:
 15689 0b1c 99F80030 		ldrb	r3, [r9]	@ zero_extendqisi2
 15690 0b20 002B     		cmp	r3, #0
 15691 0b22 FBD1     		bne	.L3026
 15692 0b24 8023     		movs	r3, #128
ARM GAS  C:\Users\Jay\AppData\Local\Temp\ccjVRGue.s 			page 272


 15693 0b26 019A     		ldr	r2, [sp, #4]
 15694 0b28 4FF00101 		mov	r1, #1
 15695 0b2c 1170     		strb	r1, [r2]
 15696 0b2e 89F80030 		strb	r3, [r9]
 15697              	.L3027:
 15698 0b32 99F80030 		ldrb	r3, [r9]	@ zero_extendqisi2
 15699 0b36 002B     		cmp	r3, #0
 15700 0b38 FBD1     		bne	.L3027
 15701 0b3a 0422     		movs	r2, #4
 15702 0b3c 8023     		movs	r3, #128
 15703 0b3e 0199     		ldr	r1, [sp, #4]
 15704 0b40 0A70     		strb	r2, [r1]
 15705 0b42 89F80030 		strb	r3, [r9]
 15706 0b46 26E5     		b	.L2970
 15707              	.L3029:
 15708 0b48 99F80030 		ldrb	r3, [r9]	@ zero_extendqisi2
 15709 0b4c 002B     		cmp	r3, #0
 15710 0b4e 3FF45CAE 		beq	.L3301
 15711 0b52 99F80030 		ldrb	r3, [r9]	@ zero_extendqisi2
 15712 0b56 002B     		cmp	r3, #0
 15713 0b58 F6D1     		bne	.L3029
 15714 0b5a 56E6     		b	.L3301
 15715              	.L3324:
 15716 0b5c 039A     		ldr	r2, [sp, #12]
 15717 0b5e 40F20113 		movw	r3, #257
 15718 0b62 4146     		mov	r1, r8
 15719 0b64 D2F844A3 		ldr	r10, [r2, #836]
 15720 0b68 21F8043B 		strh	r3, [r1], #4	@ movhi
 15721 0b6c BAF81E30 		ldrh	r3, [r10, #30]	@ unaligned
 15722 0b70 A8F80230 		strh	r3, [r8, #2]	@ movhi
 15723 0b74 BAF81E30 		ldrh	r3, [r10, #30]	@ unaligned
 15724 0b78 092B     		cmp	r3, #9
 15725 0b7a 40F2B780 		bls	.L3093
 15726 0b7e 632B     		cmp	r3, #99
 15727 0b80 40F26B81 		bls	.L3094
 15728 0b84 B3F57A7F 		cmp	r3, #1000
 15729 0b88 2CBF     		ite	cs
 15730 0b8a 4FF0000C 		movcs	ip, #0
 15731 0b8e 4FF0010C 		movcc	ip, #1
 15732 0b92 B3F57A7F 		cmp	r3, #1000
 15733 0b96 CCF1030C 		rsb	ip, ip, #3
 15734 0b9a C0F06281 		bcc	.L3325
 15735              	.L3011:
 15736 0b9e 2223     		movs	r3, #34
 15737 0ba0 8846     		mov	r8, r1
 15738 0ba2 4A1C     		adds	r2, r1, #1
 15739 0ba4 0AF10400 		add	r0, r10, #4
 15740 0ba8 9E46     		mov	lr, r3
 15741 0baa 08F8113B 		strb	r3, [r8], #17
 15742 0bae 19E0     		b	.L3016
 15743              	.L3343:
 15744              		.align	2
 15745              	.L3342:
 15746 0bb0 00400000 		.word	dat_buffer+16384
 15747 0bb4 42020000 		.word	.LANCHOR24+578
 15748 0bb8 14000000 		.word	.LANCHOR24+20
 15749 0bbc 40020000 		.word	.LANCHOR24+576
ARM GAS  C:\Users\Jay\AppData\Local\Temp\ccjVRGue.s 			page 273


 15750 0bc0 3E020000 		.word	.LANCHOR24+574
 15751 0bc4 00200000 		.word	crt_ram_buf+8192
 15752 0bc8 02400000 		.word	dat_buffer+16386
 15753 0bcc 1D400000 		.word	dat_buffer+16413
 15754 0bd0 00000000 		.word	.LANCHOR24
 15755 0bd4 80000000 		.word	.LC65
 15756              	.L3327:
 15757 0bd8 03F07F03 		and	r3, r3, #127
 15758              	.L3014:
 15759 0bdc 02F8013B 		strb	r3, [r2], #1
 15760 0be0 4245     		cmp	r2, r8
 15761 0be2 0FD0     		beq	.L3326
 15762              	.L3016:
 15763 0be4 BEF1220F 		cmp	lr, #34
 15764 0be8 10F8013F 		ldrb	r3, [r0, #1]!	@ zero_extendqisi2
 15765 0bec F4D1     		bne	.L3327
 15766 0bee A02B     		cmp	r3, #160
 15767 0bf0 01D0     		beq	.L3097
 15768 0bf2 222B     		cmp	r3, #34
 15769 0bf4 F2D1     		bne	.L3014
 15770              	.L3097:
 15771 0bf6 2223     		movs	r3, #34
 15772 0bf8 4FF0200E 		mov	lr, #32
 15773 0bfc 02F8013B 		strb	r3, [r2], #1
 15774 0c00 4245     		cmp	r2, r8
 15775 0c02 EFD1     		bne	.L3016
 15776              	.L3326:
 15777 0c04 81F811E0 		strb	lr, [r1, #17]
 15778 0c08 01F11303 		add	r3, r1, #19
 15779 0c0c 9AF90220 		ldrsb	r2, [r10, #2]
 15780 0c10 002A     		cmp	r2, #0
 15781 0c12 ACBF     		ite	ge
 15782 0c14 2A22     		movge	r2, #42
 15783 0c16 2022     		movlt	r2, #32
 15784 0c18 8A74     		strb	r2, [r1, #18]
 15785 0c1a 9AF80200 		ldrb	r0, [r10, #2]	@ zero_extendqisi2
 15786 0c1e AF49     		ldr	r1, .L3344
 15787 0c20 00F00702 		and	r2, r0, #7
 15788 0c24 51F82220 		ldr	r2, [r1, r2, lsl #2]
 15789 0c28 1178     		ldrb	r1, [r2]	@ zero_extendqisi2
 15790 0c2a 39B1     		cbz	r1, .L3018
 15791              	.L3019:
 15792 0c2c 03F8011B 		strb	r1, [r3], #1
 15793 0c30 12F8011F 		ldrb	r1, [r2, #1]!	@ zero_extendqisi2
 15794 0c34 0029     		cmp	r1, #0
 15795 0c36 F9D1     		bne	.L3019
 15796 0c38 9AF80200 		ldrb	r0, [r10, #2]	@ zero_extendqisi2
 15797              	.L3018:
 15798 0c3c 10F0400F 		tst	r0, #64
 15799 0c40 0CF10202 		add	r2, ip, #2
 15800 0c44 03F10100 		add	r0, r3, #1
 15801 0c48 4FF0200E 		mov	lr, #32
 15802 0c4c 18BF     		it	ne
 15803 0c4e 4FF03C08 		movne	r8, #60
 15804 0c52 1A44     		add	r2, r2, r3
 15805 0c54 08BF     		it	eq
 15806 0c56 F046     		moveq	r8, lr
ARM GAS  C:\Users\Jay\AppData\Local\Temp\ccjVRGue.s 			page 274


 15807 0c58 0146     		mov	r1, r0
 15808 0c5a 83F80080 		strb	r8, [r3]
 15809              	.L3022:
 15810 0c5e 01F801EB 		strb	lr, [r1], #1
 15811 0c62 9142     		cmp	r1, r2
 15812 0c64 FBD1     		bne	.L3022
 15813 0c66 0CF1010C 		add	ip, ip, #1
 15814 0c6a 0023     		movs	r3, #0
 15815 0c6c 00EB0C08 		add	r8, r0, ip
 15816 0c70 00F80C30 		strb	r3, [r0, ip]
 15817 0c74 08F10108 		add	r8, r8, #1
 15818 0c78 28E7     		b	.L3009
 15819              	.L3091:
 15820 0c7a 0DF11D06 		add	r6, sp, #29
 15821 0c7e D1E6     		b	.L2993
 15822              	.L3320:
 15823 0c80 5346     		mov	r3, r10
 15824 0c82 A246     		mov	r10, r4
 15825 0c84 4C46     		mov	r4, r9
 15826 0c86 9946     		mov	r9, r3
 15827 0c88 BAF1000F 		cmp	r10, #0
 15828 0c8c 7DD1     		bne	.L3328
 15829              	.L3166:
 15830 0c8e 99F80030 		ldrb	r3, [r9]	@ zero_extendqisi2
 15831 0c92 002B     		cmp	r3, #0
 15832 0c94 FBD1     		bne	.L3166
 15833 0c96 B8E5     		b	.L3301
 15834              	.L3313:
 15835 0c98 914B     		ldr	r3, .L3344+4
 15836 0c9a 461D     		adds	r6, r0, #5
 15837 0c9c 0D27     		movs	r7, #13
 15838 0c9e 07CB     		ldmia	r3!, {r0, r1, r2}
 15839 0ca0 93F800C0 		ldrb	ip, [r3]	@ zero_extendqisi2
 15840 0ca4 029B     		ldr	r3, [sp, #8]
 15841 0ca6 C3F80500 		str	r0, [r3, #5]	@ unaligned
 15842 0caa 0020     		movs	r0, #0
 15843 0cac 029B     		ldr	r3, [sp, #8]
 15844 0cae 86F80CC0 		strb	ip, [r6, #12]
 15845 0cb2 7160     		str	r1, [r6, #4]	@ unaligned
 15846 0cb4 B260     		str	r2, [r6, #8]	@ unaligned
 15847 0cb6 5F70     		strb	r7, [r3, #1]
 15848 0cb8 9870     		strb	r0, [r3, #2]
 15849 0cba A0E4     		b	.L3070
 15850              	.L3315:
 15851 0cbc 029A     		ldr	r2, [sp, #8]
 15852 0cbe 0D26     		movs	r6, #13
 15853 0cc0 874B     		ldr	r3, .L3344+4
 15854 0cc2 551D     		adds	r5, r2, #5
 15855 0cc4 07CB     		ldmia	r3!, {r0, r1, r2}
 15856 0cc6 1F78     		ldrb	r7, [r3]	@ zero_extendqisi2
 15857 0cc8 029B     		ldr	r3, [sp, #8]
 15858 0cca C3F80500 		str	r0, [r3, #5]	@ unaligned
 15859 0cce 029B     		ldr	r3, [sp, #8]
 15860 0cd0 2F73     		strb	r7, [r5, #12]
 15861 0cd2 6960     		str	r1, [r5, #4]	@ unaligned
 15862 0cd4 AA60     		str	r2, [r5, #8]	@ unaligned
 15863 0cd6 5E70     		strb	r6, [r3, #1]
ARM GAS  C:\Users\Jay\AppData\Local\Temp\ccjVRGue.s 			page 275


 15864              	.L3061:
 15865 0cd8 99F80030 		ldrb	r3, [r9]	@ zero_extendqisi2
 15866 0cdc 002B     		cmp	r3, #0
 15867 0cde FBD1     		bne	.L3061
 15868 0ce0 8023     		movs	r3, #128
 15869 0ce2 019A     		ldr	r2, [sp, #4]
 15870 0ce4 1370     		strb	r3, [r2]
 15871 0ce6 89F80030 		strb	r3, [r9]
 15872 0cea 54E4     		b	.L2970
 15873              	.L3093:
 15874 0cec 4FF0000C 		mov	ip, #0
 15875 0cf0 0223     		movs	r3, #2
 15876              	.L3083:
 15877 0cf2 0133     		adds	r3, r3, #1
 15878 0cf4 2022     		movs	r2, #32
 15879 0cf6 0B44     		add	r3, r3, r1
 15880              	.L3012:
 15881 0cf8 01F8012B 		strb	r2, [r1], #1
 15882 0cfc 9942     		cmp	r1, r3
 15883 0cfe FBD1     		bne	.L3012
 15884 0d00 4DE7     		b	.L3011
 15885              	.L2989:
 15886 0d02 9DF81E20 		ldrb	r2, [sp, #30]	@ zero_extendqisi2
 15887 0d06 002A     		cmp	r2, #0
 15888 0d08 43D1     		bne	.L3090
 15889 0d0a 2A23     		movs	r3, #42
 15890 0d0c 0DF11D06 		add	r6, sp, #29
 15891 0d10 8DF81D30 		strb	r3, [sp, #29]
 15892 0d14 86E6     		b	.L2993
 15893              	.L3316:
 15894 0d16 039B     		ldr	r3, [sp, #12]
 15895 0d18 029D     		ldr	r5, [sp, #8]
 15896 0d1a D3F84433 		ldr	r3, [r3, #836]
 15897 0d1e E91C     		adds	r1, r5, #3
 15898 0d20 7048     		ldr	r0, .L3344+8
 15899 0d22 DA78     		ldrb	r2, [r3, #3]	@ zero_extendqisi2
 15900 0d24 EA70     		strb	r2, [r5, #3]
 15901 0d26 1B79     		ldrb	r3, [r3, #4]	@ zero_extendqisi2
 15902 0d28 2B71     		strb	r3, [r5, #4]
 15903 0d2a FFF7FEFF 		bl	d64_read_file_sector
 15904 0d2e 6870     		strb	r0, [r5, #1]
 15905 0d30 0028     		cmp	r0, #0
 15906 0d32 D1D1     		bne	.L3061
 15907              	.L3060:
 15908 0d34 99F80030 		ldrb	r3, [r9]	@ zero_extendqisi2
 15909 0d38 002B     		cmp	r3, #0
 15910 0d3a FBD1     		bne	.L3060
 15911 0d3c 8422     		movs	r2, #132
 15912 0d3e 8023     		movs	r3, #128
 15913 0d40 0199     		ldr	r1, [sp, #4]
 15914 0d42 0A70     		strb	r2, [r1]
 15915 0d44 89F80030 		strb	r3, [r9]
 15916 0d48 25E4     		b	.L2970
 15917              	.L3041:
 15918 0d4a 5346     		mov	r3, r10
 15919 0d4c A246     		mov	r10, r4
 15920 0d4e 4C46     		mov	r4, r9
ARM GAS  C:\Users\Jay\AppData\Local\Temp\ccjVRGue.s 			page 276


 15921 0d50 5046     		mov	r0, r10
 15922 0d52 9946     		mov	r9, r3
 15923 0d54 FFF7FEFF 		bl	disk_send_prg_bank
 15924              	.L3047:
 15925 0d58 FAB2     		uxtb	r2, r7
 15926              	.L3044:
 15927 0d5a 99F80030 		ldrb	r3, [r9]	@ zero_extendqisi2
 15928 0d5e 002B     		cmp	r3, #0
 15929 0d60 FBD1     		bne	.L3044
 15930 0d62 8023     		movs	r3, #128
 15931 0d64 0199     		ldr	r1, [sp, #4]
 15932 0d66 C7F30727 		ubfx	r7, r7, #8, #8
 15933 0d6a 0A70     		strb	r2, [r1]
 15934 0d6c 89F80030 		strb	r3, [r9]
 15935              	.L3045:
 15936 0d70 99F80030 		ldrb	r3, [r9]	@ zero_extendqisi2
 15937 0d74 002B     		cmp	r3, #0
 15938 0d76 FBD1     		bne	.L3045
 15939 0d78 8023     		movs	r3, #128
 15940 0d7a 019A     		ldr	r2, [sp, #4]
 15941 0d7c 1770     		strb	r7, [r2]
 15942 0d7e 89F80030 		strb	r3, [r9]
 15943 0d82 08E4     		b	.L2970
 15944              	.L3285:
 15945 0d84 4C46     		mov	r4, r9
 15946 0d86 D146     		mov	r9, r10
 15947 0d88 81E7     		b	.L3166
 15948              	.L3328:
 15949 0d8a 5046     		mov	r0, r10
 15950 0d8c FFF7FEFF 		bl	disk_send_prg
 15951 0d90 E2E7     		b	.L3047
 15952              	.L3090:
 15953 0d92 0DF11D06 		add	r6, sp, #29
 15954 0d96 03E0     		b	.L2992
 15955              	.L3329:
 15956 0d98 3378     		ldrb	r3, [r6]	@ zero_extendqisi2
 15957 0d9a 002B     		cmp	r3, #0
 15958 0d9c 3FF442AE 		beq	.L2993
 15959              	.L2992:
 15960 0da0 3A2B     		cmp	r3, #58
 15961 0da2 06F10106 		add	r6, r6, #1
 15962 0da6 F7D1     		bne	.L3329
 15963 0da8 3CE6     		b	.L2993
 15964              	.L3323:
 15965 0daa 039B     		ldr	r3, [sp, #12]
 15966 0dac 93F84132 		ldrb	r3, [r3, #577]	@ zero_extendqisi2
 15967 0db0 002B     		cmp	r3, #0
 15968 0db2 3FF481AE 		beq	.L3000
 15969 0db6 4C49     		ldr	r1, .L3344+12
 15970 0db8 0023     		movs	r3, #0
 15971 0dba 01E0     		b	.L3006
 15972              	.L3007:
 15973 0dbc 0133     		adds	r3, r3, #1
 15974 0dbe 0131     		adds	r1, r1, #1
 15975              	.L3006:
 15976 0dc0 112B     		cmp	r3, #17
 15977 0dc2 DAB2     		uxtb	r2, r3
ARM GAS  C:\Users\Jay\AppData\Local\Temp\ccjVRGue.s 			page 277


 15978 0dc4 FAD0     		beq	.L3007
 15979 0dc6 0878     		ldrb	r0, [r1]	@ zero_extendqisi2
 15980 0dc8 222A     		cmp	r2, #34
 15981 0dca 0544     		add	r5, r5, r0
 15982 0dcc ADB2     		uxth	r5, r5
 15983 0dce F5D1     		bne	.L3007
 15984 0dd0 72E6     		b	.L3000
 15985              	.L2998:
 15986 0dd2 4649     		ldr	r1, .L3344+16
 15987 0dd4 4FF49473 		mov	r3, #296
 15988 0dd8 039A     		ldr	r2, [sp, #12]
 15989 0dda A1F22A20 		subw	r0, r1, #554
 15990 0dde A2F83E32 		strh	r3, [r2, #574]	@ movhi
 15991 0de2 FFF7FEFF 		bl	d64_read_next_sector
 15992 0de6 0028     		cmp	r0, #0
 15993 0de8 41D0     		beq	.L3092
 15994 0dea 414B     		ldr	r3, .L3344+20
 15995 0dec 1F46     		mov	r7, r3
 15996 0dee 0393     		str	r3, [sp, #12]
 15997              	.L3001:
 15998 0df0 93F84E22 		ldrb	r2, [r3, #590]	@ zero_extendqisi2
 15999 0df4 0633     		adds	r3, r3, #6
 16000 0df6 1544     		add	r5, r5, r2
 16001 0df8 3E4A     		ldr	r2, .L3344+24
 16002 0dfa 9A42     		cmp	r2, r3
 16003 0dfc ADB2     		uxth	r5, r5
 16004 0dfe F7D1     		bne	.L3001
 16005 0e00 02F5AA71 		add	r1, r2, #340
 16006 0e04 4FF40A73 		mov	r3, #552
 16007 0e08 039A     		ldr	r2, [sp, #12]
 16008 0e0a A1F22A20 		subw	r0, r1, #554
 16009 0e0e A2F83E32 		strh	r3, [r2, #574]	@ movhi
 16010 0e12 FFF7FEFF 		bl	d64_read_next_sector
 16011 0e16 0028     		cmp	r0, #0
 16012 0e18 3FF44EAE 		beq	.L3000
 16013 0e1c 0023     		movs	r3, #0
 16014              	.L3002:
 16015 0e1e 97F84E22 		ldrb	r2, [r7, #590]	@ zero_extendqisi2
 16016 0e22 0637     		adds	r7, r7, #6
 16017 0e24 1344     		add	r3, r3, r2
 16018 0e26 344A     		ldr	r2, .L3344+28
 16019 0e28 BA42     		cmp	r2, r7
 16020 0e2a 9BB2     		uxth	r3, r3
 16021 0e2c F7D1     		bne	.L3002
 16022 0e2e 1D44     		add	r5, r5, r3
 16023 0e30 039B     		ldr	r3, [sp, #12]
 16024 0e32 039A     		ldr	r2, [sp, #12]
 16025 0e34 93F83C32 		ldrb	r3, [r3, #572]	@ zero_extendqisi2
 16026 0e38 ADB2     		uxth	r5, r5
 16027 0e3a 3048     		ldr	r0, .L3344+32
 16028 0e3c 032B     		cmp	r3, #3
 16029 0e3e 0CBF     		ite	eq
 16030 0e40 4FF44A73 		moveq	r3, #808
 16031 0e44 4FF48973 		movne	r3, #274
 16032 0e48 A2F83E32 		strh	r3, [r2, #574]	@ movhi
 16033 0e4c 0023     		movs	r3, #0
 16034 0e4e 039A     		ldr	r2, [sp, #12]
ARM GAS  C:\Users\Jay\AppData\Local\Temp\ccjVRGue.s 			page 278


 16035 0e50 C2F84403 		str	r0, [r2, #836]
 16036 0e54 82F83D32 		strb	r3, [r2, #573]
 16037 0e58 2EE6     		b	.L3000
 16038              	.L3094:
 16039 0e5a 4FF0010C 		mov	ip, #1
 16040 0e5e 6346     		mov	r3, ip
 16041 0e60 47E7     		b	.L3083
 16042              	.L3325:
 16043 0e62 0023     		movs	r3, #0
 16044 0e64 45E7     		b	.L3083
 16045              	.L2996:
 16046 0e66 3121     		movs	r1, #49
 16047 0e68 5A1C     		adds	r2, r3, #1
 16048 0e6a 1970     		strb	r1, [r3]
 16049 0e6c 09E6     		b	.L3082
 16050              	.L3092:
 16051 0e6e 0546     		mov	r5, r0
 16052 0e70 22E6     		b	.L3000
 16053              	.L2917:
 16054 0e72 234C     		ldr	r4, .L3344+36
 16055 0e74 6FF00802 		mvn	r2, #8
 16056 0e78 E368     		ldr	r3, [r4, #12]
 16057 0e7a 1340     		ands	r3, r3, r2
 16058 0e7c E360     		str	r3, [r4, #12]
 16059 0e7e 2261     		str	r2, [r4, #16]
 16060 0e80 FFF7FEFF 		bl	c64_reset.part.24
 16061 0e84 1F4B     		ldr	r3, .L3344+40
 16062 0e86 4021     		movs	r1, #64
 16063 0e88 1F4A     		ldr	r2, .L3344+44
 16064 0e8a 9961     		str	r1, [r3, #24]
 16065 0e8c 9A61     		str	r2, [r3, #24]
 16066 0e8e E368     		ldr	r3, [r4, #12]
 16067 0e90 1F07     		lsls	r7, r3, #28
 16068 0e92 01D4     		bmi	.L2962
 16069 0e94 FFF7FEFF 		bl	c64_interface.part.23
 16070              	.L2962:
 16071 0e98 4FF40010 		mov	r0, #2097152
 16072 0e9c 1949     		ldr	r1, .L3344+40
 16073 0e9e 4FF49672 		mov	r2, #300
 16074 0ea2 1A4B     		ldr	r3, .L3344+48
 16075 0ea4 8861     		str	r0, [r1, #24]
 16076 0ea6 45F20824 		movw	r4, #21000
 16077 0eaa 0020     		movs	r0, #0
 16078              	.L2964:
 16079 0eac 5C60     		str	r4, [r3, #4]
 16080 0eae 9860     		str	r0, [r3, #8]
 16081              	.L2963:
 16082 0eb0 1968     		ldr	r1, [r3]
 16083 0eb2 CE03     		lsls	r6, r1, #15
 16084 0eb4 FCD5     		bpl	.L2963
 16085 0eb6 013A     		subs	r2, r2, #1
 16086 0eb8 F8D1     		bne	.L2964
 16087 0eba 30E4     		b	.L3297
 16088              	.L2916:
 16089 0ebc 95F82030 		ldrb	r3, [r5, #32]	@ zero_extendqisi2
 16090 0ec0 33BB     		cbnz	r3, .L3330
 16091 0ec2 85F80033 		strb	r3, [r5, #768]
ARM GAS  C:\Users\Jay\AppData\Local\Temp\ccjVRGue.s 			page 279


 16092              	.L2911:
 16093 0ec6 0E4B     		ldr	r3, .L3344+36
 16094 0ec8 6FF00801 		mvn	r1, #8
 16095 0ecc DA68     		ldr	r2, [r3, #12]
 16096 0ece 0A40     		ands	r2, r2, r1
 16097 0ed0 DA60     		str	r2, [r3, #12]
 16098 0ed2 1961     		str	r1, [r3, #16]
 16099 0ed4 FFF7FEFF 		bl	c64_reset.part.24
 16100              	.L3305:
 16101 0ed8 FFF7FEFF 		bl	restart_to_menu
 16102              	.L3345:
 16103              		.align	2
 16104              	.L3344:
 16105 0edc 00000000 		.word	.LANCHOR28
 16106 0ee0 90000000 		.word	.LC66
 16107 0ee4 14000000 		.word	.LANCHOR24+20
 16108 0ee8 1B030000 		.word	.LANCHOR24+795
 16109 0eec 3E020000 		.word	.LANCHOR24+574
 16110 0ef0 00000000 		.word	.LANCHOR24
 16111 0ef4 EA000000 		.word	.LANCHOR24+234
 16112 0ef8 F0000000 		.word	.LANCHOR24+240
 16113 0efc 3E030000 		.word	.LANCHOR24+830
 16114 0f00 00000140 		.word	1073807360
 16115 0f04 00100258 		.word	1476530176
 16116 0f08 80000001 		.word	16777344
 16117 0f0c 10E000E0 		.word	-536813552
 16118              	.L3330:
 16119 0f10 FFF7FEFF 		bl	chdir_last.part.66
 16120 0f14 0028     		cmp	r0, #0
 16121 0f16 D6D0     		beq	.L2911
 16122 0f18 B048     		ldr	r0, .L3346
 16123 0f1a FFF7FEFF 		bl	d64_open.constprop.89
 16124 0f1e 0028     		cmp	r0, #0
 16125 0f20 D1D0     		beq	.L2911
 16126 0f22 AF4C     		ldr	r4, .L3346+4
 16127 0f24 6FF00802 		mvn	r2, #8
 16128 0f28 E368     		ldr	r3, [r4, #12]
 16129 0f2a 1340     		ands	r3, r3, r2
 16130 0f2c E360     		str	r3, [r4, #12]
 16131 0f2e 2261     		str	r2, [r4, #16]
 16132 0f30 FFF7FEFF 		bl	c64_reset.part.24
 16133 0f34 AB4B     		ldr	r3, .L3346+8
 16134 0f36 4020     		movs	r0, #64
 16135 0f38 AB49     		ldr	r1, .L3346+12
 16136 0f3a 43F6B072 		movw	r2, #16304
 16137 0f3e 9861     		str	r0, [r3, #24]
 16138 0f40 9961     		str	r1, [r3, #24]
 16139 0f42 AA48     		ldr	r0, .L3346+16
 16140 0f44 AA49     		ldr	r1, .L3346+20
 16141 0f46 FFF7FEFF 		bl	memcpy
 16142 0f4a AA4B     		ldr	r3, .L3346+24
 16143 0f4c 3360     		str	r3, [r6]
 16144 0f4e E368     		ldr	r3, [r4, #12]
 16145 0f50 1B07     		lsls	r3, r3, #28
 16146 0f52 01D4     		bmi	.L2961
 16147 0f54 FFF7FEFF 		bl	c64_interface.part.23
 16148              	.L2961:
ARM GAS  C:\Users\Jay\AppData\Local\Temp\ccjVRGue.s 			page 280


 16149 0f58 A24B     		ldr	r3, .L3346+8
 16150 0f5a 4FF40012 		mov	r2, #2097152
 16151 0f5e A649     		ldr	r1, .L3346+28
 16152 0f60 9A61     		str	r2, [r3, #24]
 16153 0f62 A648     		ldr	r0, .L3346+32
 16154 0f64 FFF7FEFF 		bl	c64_send_command
 16155 0f68 0028     		cmp	r0, #0
 16156 0f6a 00F01981 		beq	.L2935
 16157              	.L3296:
 16158 0f6e A44B     		ldr	r3, .L3346+36
 16159 0f70 A44C     		ldr	r4, .L3346+40
 16160 0f72 DFF8C0B2 		ldr	fp, .L3346+88
 16161 0f76 DFF8C092 		ldr	r9, .L3346+92
 16162 0f7a 0193     		str	r3, [sp, #4]
 16163 0f7c FFF782BA 		b	.L2957
 16164              	.L2912:
 16165 0f80 B5F80B80 		ldrh	r8, [r5, #11]	@ unaligned
 16166 0f84 B8F1200F 		cmp	r8, #32
 16167 0f88 9DD8     		bhi	.L2911
 16168 0f8a 9F4F     		ldr	r7, .L3346+44
 16169 0f8c 57F82830 		ldr	r3, [r7, r8, lsl #2]
 16170 0f90 002B     		cmp	r3, #0
 16171 0f92 98D0     		beq	.L2911
 16172 0f94 EB7B     		ldrb	r3, [r5, #15]	@ zero_extendqisi2
 16173 0f96 002B     		cmp	r3, #0
 16174 0f98 95D0     		beq	.L2911
 16175 0f9a 9C4A     		ldr	r2, .L3346+48
 16176 0f9c 042B     		cmp	r3, #4
 16177 0f9e 9168     		ldr	r1, [r2, #8]
 16178 0fa0 41F00101 		orr	r1, r1, #1
 16179 0fa4 9160     		str	r1, [r2, #8]
 16180 0fa6 08D9     		bls	.L2939
 16181 0fa8 9B03     		lsls	r3, r3, #14
 16182 0faa 9949     		ldr	r1, .L3346+52
 16183 0fac 03F10063 		add	r3, r3, #134217728
 16184              	.L2940:
 16185 0fb0 0868     		ldr	r0, [r1]
 16186 0fb2 0431     		adds	r1, r1, #4
 16187 0fb4 9942     		cmp	r1, r3
 16188 0fb6 1060     		str	r0, [r2]
 16189 0fb8 FAD1     		bne	.L2940
 16190              	.L2939:
 16191 0fba 944A     		ldr	r2, .L3346+48
 16192 0fbc 2B69     		ldr	r3, [r5, #16]	@ unaligned
 16193 0fbe 1268     		ldr	r2, [r2]
 16194 0fc0 9A42     		cmp	r2, r3
 16195 0fc2 80D1     		bne	.L2911
 16196 0fc4 874B     		ldr	r3, .L3346+8
 16197 0fc6 5B69     		ldr	r3, [r3, #20]
 16198 0fc8 9806     		lsls	r0, r3, #26
 16199 0fca 40F1F081 		bpl	.L3268
 16200 0fce 8D4C     		ldr	r4, .L3346+40
 16201 0fd0 DFF860B2 		ldr	fp, .L3346+88
 16202              	.L2941:
 16203 0fd4 6A7B     		ldrb	r2, [r5, #13]	@ zero_extendqisi2
 16204 0fd6 874B     		ldr	r3, .L3346+24
 16205 0fd8 002A     		cmp	r2, #0
ARM GAS  C:\Users\Jay\AppData\Local\Temp\ccjVRGue.s 			page 281


 16206 0fda AA7B     		ldrb	r2, [r5, #14]	@ zero_extendqisi2
 16207 0fdc 3360     		str	r3, [r6]
 16208 0fde 0CBF     		ite	eq
 16209 0fe0 1823     		moveq	r3, #24
 16210 0fe2 1423     		movne	r3, #20
 16211 0fe4 002A     		cmp	r2, #0
 16212 0fe6 00F0DF81 		beq	.L2947
 16213 0fea 43F00103 		orr	r3, r3, #1
 16214              	.L2948:
 16215 0fee DA01     		lsls	r2, r3, #7
 16216 0ff0 7C48     		ldr	r0, .L3346+8
 16217 0ff2 4FEA835C 		lsl	ip, r3, #22
 16218 0ff6 4FF0400E 		mov	lr, #64
 16219 0ffa 9E01     		lsls	r6, r3, #6
 16220 0ffc 8549     		ldr	r1, .L3346+56
 16221 0ffe 0CF4000C 		and	ip, ip, #8388608
 16222 1002 D2B2     		uxtb	r2, r2
 16223 1004 06F48076 		and	r6, r6, #256
 16224 1008 5B05     		lsls	r3, r3, #21
 16225 100a 42EA0C02 		orr	r2, r2, ip
 16226 100e C0F818E0 		str	lr, [r0, #24]
 16227 1012 03F08073 		and	r3, r3, #16777216
 16228 1016 45F2082E 		movw	lr, #21000
 16229 101a 3243     		orrs	r2, r2, r6
 16230 101c 4FF0000C 		mov	ip, #0
 16231 1020 8146     		mov	r9, r0
 16232 1022 0E46     		mov	r6, r1
 16233 1024 1343     		orrs	r3, r3, r2
 16234 1026 8361     		str	r3, [r0, #24]
 16235 1028 C1F804E0 		str	lr, [r1, #4]
 16236 102c C1F808C0 		str	ip, [r1, #8]
 16237 1030 DFF808E2 		ldr	lr, .L3346+96
 16238 1034 DFF808C2 		ldr	ip, .L3346+100
 16239              	.L2951:
 16240 1038 3368     		ldr	r3, [r6]
 16241 103a D803     		lsls	r0, r3, #15
 16242 103c 00F1D581 		bmi	.L3331
 16243 1040 754B     		ldr	r3, .L3346+60
 16244 1042 DEF81010 		ldr	r1, [lr, #16]
 16245 1046 DCF810A0 		ldr	r10, [ip, #16]
 16246 104a 1B69     		ldr	r3, [r3, #16]
 16247 104c 01F03000 		and	r0, r1, #48
 16248 1050 4FEA6A12 		asr	r2, r10, #5
 16249 1054 C3F3C033 		ubfx	r3, r3, #15, #1
 16250 1058 4FEAEA1A 		asr	r10, r10, #7
 16251 105c 02F00202 		and	r2, r2, #2
 16252 1060 0343     		orrs	r3, r3, r0
 16253 1062 0AF0040A 		and	r10, r10, #4
 16254 1066 8811     		asrs	r0, r1, #6
 16255 1068 1343     		orrs	r3, r3, r2
 16256 106a 8910     		asrs	r1, r1, #2
 16257 106c 00F00800 		and	r0, r0, #8
 16258 1070 D9F81020 		ldr	r2, [r9, #16]
 16259 1074 43EA0A03 		orr	r3, r3, r10
 16260 1078 01F04001 		and	r1, r1, #64
 16261 107c 1204     		lsls	r2, r2, #16
 16262 107e 43EA0003 		orr	r3, r3, r0
ARM GAS  C:\Users\Jay\AppData\Local\Temp\ccjVRGue.s 			page 282


 16263 1082 43EA0103 		orr	r3, r3, r1
 16264 1086 48BF     		it	mi
 16265 1088 63F07F03 		ornmi	r3, r3, #127
 16266 108c 13F00803 		ands	r3, r3, #8
 16267 1090 D2D1     		bne	.L2951
 16268 1092 B360     		str	r3, [r6, #8]
 16269 1094 D0E7     		b	.L2951
 16270              	.L2914:
 16271 1096 B5F80B30 		ldrh	r3, [r5, #11]	@ unaligned
 16272 109a 022B     		cmp	r3, #2
 16273 109c 7FF613AF 		bls	.L2911
 16274 10a0 4F4B     		ldr	r3, .L3346+4
 16275 10a2 DB68     		ldr	r3, [r3, #12]
 16276 10a4 1E07     		lsls	r6, r3, #28
 16277 10a6 01D4     		bmi	.L2921
 16278 10a8 FFF7FEFF 		bl	c64_interface.part.23
 16279              	.L2921:
 16280 10ac 4B4B     		ldr	r3, .L3346
 16281 10ae 4FF40011 		mov	r1, #2097152
 16282 10b2 4C4A     		ldr	r2, .L3346+8
 16283 10b4 6FF43C74 		mvn	r4, #752
 16284 10b8 9161     		str	r1, [r2, #24]
 16285 10ba 1A19     		adds	r2, r3, r4
 16286 10bc E87B     		ldrb	r0, [r5, #15]	@ zero_extendqisi2
 16287 10be 5749     		ldr	r1, .L3346+64
 16288 10c0 0028     		cmp	r0, #0
 16289 10c2 08BF     		it	eq
 16290 10c4 1A46     		moveq	r2, r3
 16291 10c6 5648     		ldr	r0, .L3346+68
 16292 10c8 FFF7FEFF 		bl	sprint
 16293 10cc 5449     		ldr	r1, .L3346+68
 16294 10ce 5548     		ldr	r0, .L3346+72
 16295 10d0 FFF7FEFF 		bl	c64_send_text
 16296 10d4 B5F80B70 		ldrh	r7, [r5, #11]	@ unaligned
 16297 10d8 5349     		ldr	r1, .L3346+76
 16298 10da 5448     		ldr	r0, .L3346+80
 16299 10dc BEB2     		uxth	r6, r7
 16300 10de FFF7FEFF 		bl	c64_send_command
 16301 10e2 0028     		cmp	r0, #0
 16302 10e4 5CD0     		beq	.L2935
 16303 10e6 474C     		ldr	r4, .L3346+40
 16304              	.L2924:
 16305 10e8 2378     		ldrb	r3, [r4]	@ zero_extendqisi2
 16306 10ea 002B     		cmp	r3, #0
 16307 10ec FCD1     		bne	.L2924
 16308 10ee DFF844B1 		ldr	fp, .L3346+88
 16309 10f2 9BF80030 		ldrb	r3, [fp]	@ zero_extendqisi2
 16310 10f6 DBB2     		uxtb	r3, r3
 16311 10f8 4022     		movs	r2, #64
 16312 10fa 8DF81C30 		strb	r3, [sp, #28]
 16313 10fe 2270     		strb	r2, [r4]
 16314              	.L2925:
 16315 1100 2378     		ldrb	r3, [r4]	@ zero_extendqisi2
 16316 1102 002B     		cmp	r3, #0
 16317 1104 FCD1     		bne	.L2925
 16318 1106 9BF80030 		ldrb	r3, [fp]	@ zero_extendqisi2
 16319 110a DBB2     		uxtb	r3, r3
ARM GAS  C:\Users\Jay\AppData\Local\Temp\ccjVRGue.s 			page 283


 16320 110c 8DF81D30 		strb	r3, [sp, #29]
 16321 1110 4021     		movs	r1, #64
 16322 1112 BDF81C20 		ldrh	r2, [sp, #28]
 16323 1116 2170     		strb	r1, [r4]
 16324 1118 9642     		cmp	r6, r2
 16325 111a 03D2     		bcs	.L2926
 16326 111c 3B0A     		lsrs	r3, r7, #8
 16327 111e 3246     		mov	r2, r6
 16328 1120 ADF81C70 		strh	r7, [sp, #28]	@ movhi
 16329              	.L2926:
 16330 1124 9DF81C00 		ldrb	r0, [sp, #28]	@ zero_extendqisi2
 16331 1128 DFF80C91 		ldr	r9, .L3346+92
 16332              	.L2927:
 16333 112c 99F80010 		ldrb	r1, [r9]	@ zero_extendqisi2
 16334 1130 0029     		cmp	r1, #0
 16335 1132 FBD1     		bne	.L2927
 16336 1134 3249     		ldr	r1, .L3346+36
 16337 1136 0F46     		mov	r7, r1
 16338 1138 0191     		str	r1, [sp, #4]
 16339 113a 8021     		movs	r1, #128
 16340 113c 3870     		strb	r0, [r7]
 16341 113e 89F80010 		strb	r1, [r9]
 16342              	.L2928:
 16343 1142 99F80010 		ldrb	r1, [r9]	@ zero_extendqisi2
 16344 1146 0029     		cmp	r1, #0
 16345 1148 FBD1     		bne	.L2928
 16346 114a 8021     		movs	r1, #128
 16347 114c 0198     		ldr	r0, [sp, #4]
 16348 114e 0370     		strb	r3, [r0]
 16349 1150 89F80010 		strb	r1, [r9]
 16350 1154 6AB1     		cbz	r2, .L2932
 16351 1156 274B     		ldr	r3, .L3346+24
 16352 1158 1A44     		add	r2, r2, r3
 16353              	.L2931:
 16354 115a 13F8010B 		ldrb	r0, [r3], #1	@ zero_extendqisi2
 16355              	.L2930:
 16356 115e 99F80070 		ldrb	r7, [r9]	@ zero_extendqisi2
 16357 1162 002F     		cmp	r7, #0
 16358 1164 FBD1     		bne	.L2930
 16359 1166 019F     		ldr	r7, [sp, #4]
 16360 1168 9342     		cmp	r3, r2
 16361 116a 3870     		strb	r0, [r7]
 16362 116c 89F80010 		strb	r1, [r9]
 16363 1170 F3D1     		bne	.L2931
 16364              	.L2932:
 16365 1172 2378     		ldrb	r3, [r4]	@ zero_extendqisi2
 16366 1174 002B     		cmp	r3, #0
 16367 1176 FCD1     		bne	.L2932
 16368 1178 9BF80020 		ldrb	r2, [fp]	@ zero_extendqisi2
 16369 117c D2B2     		uxtb	r2, r2
 16370 117e 4023     		movs	r3, #64
 16371 1180 2370     		strb	r3, [r4]
 16372              	.L2933:
 16373 1182 2378     		ldrb	r3, [r4]	@ zero_extendqisi2
 16374 1184 002B     		cmp	r3, #0
 16375 1186 FCD1     		bne	.L2933
 16376 1188 9BF80030 		ldrb	r3, [fp]	@ zero_extendqisi2
ARM GAS  C:\Users\Jay\AppData\Local\Temp\ccjVRGue.s 			page 284


 16377 118c DBB2     		uxtb	r3, r3
 16378 118e 4021     		movs	r1, #64
 16379 1190 2170     		strb	r1, [r4]
 16380 1192 2AB9     		cbnz	r2, .L2935
 16381 1194 23B9     		cbnz	r3, .L2935
 16382 1196 BDF81C30 		ldrh	r3, [sp, #28]
 16383 119a 9E42     		cmp	r6, r3
 16384 119c 3FF472A9 		beq	.L2957
 16385              	.L2935:
 16386 11a0 FFF7FEFF 		bl	system_restart
 16387              	.L2915:
 16388 11a4 0E4C     		ldr	r4, .L3346+4
 16389 11a6 6FF00802 		mvn	r2, #8
 16390 11aa E368     		ldr	r3, [r4, #12]
 16391 11ac 1340     		ands	r3, r3, r2
 16392 11ae E360     		str	r3, [r4, #12]
 16393 11b0 2261     		str	r2, [r4, #16]
 16394 11b2 FFF7FEFF 		bl	c64_reset.part.24
 16395 11b6 0B4B     		ldr	r3, .L3346+8
 16396 11b8 0B4A     		ldr	r2, .L3346+12
 16397 11ba 4021     		movs	r1, #64
 16398 11bc 9961     		str	r1, [r3, #24]
 16399 11be 9A61     		str	r2, [r3, #24]
 16400 11c0 E368     		ldr	r3, [r4, #12]
 16401 11c2 1A07     		lsls	r2, r3, #28
 16402 11c4 01D4     		bmi	.L2958
 16403 11c6 FFF7FEFF 		bl	c64_interface.part.23
 16404              	.L2958:
 16405 11ca 064B     		ldr	r3, .L3346+8
 16406 11cc 4FF40012 		mov	r2, #2097152
 16407 11d0 1749     		ldr	r1, .L3346+84
 16408 11d2 9A61     		str	r2, [r3, #24]
 16409 11d4 1348     		ldr	r0, .L3346+72
 16410 11d6 FFF7FEFF 		bl	c64_send_text
 16411 11da C8E6     		b	.L3296
 16412              	.L3347:
 16413              		.align	2
 16414              	.L3346:
 16415 11dc 00030000 		.word	dat_file+768
 16416 11e0 00000140 		.word	1073807360
 16417 11e4 00100258 		.word	1476530176
 16418 11e8 00018000 		.word	8388864
 16419 11ec 50000000 		.word	dat_buffer+80
 16420 11f0 50C00008 		.word	134266960
 16421 11f4 00000000 		.word	dat_buffer
 16422 11f8 78000000 		.word	.LC45
 16423 11fc 7C000000 		.word	.LC64
 16424 1200 00000000 		.word	.LANCHOR10
 16425 1204 00000000 		.word	.LANCHOR11
 16426 1208 00000000 		.word	.LANCHOR29
 16427 120c 004C0258 		.word	1476545536
 16428 1210 00000108 		.word	134283264
 16429 1214 10E000E0 		.word	-536813552
 16430 1218 000C0258 		.word	1476529152
 16431 121c 40000000 		.word	.LC60
 16432 1220 00000100 		.word	scratch_buf
 16433 1224 28000000 		.word	.LC57
ARM GAS  C:\Users\Jay\AppData\Local\Temp\ccjVRGue.s 			page 285


 16434 1228 54000000 		.word	.LC61
 16435 122c 24000000 		.word	.LC9
 16436 1230 60000000 		.word	.LC63
 16437 1234 00000000 		.word	.LANCHOR12
 16438 1238 00000000 		.word	.LANCHOR9
 16439 123c 00000258 		.word	1476526080
 16440 1240 00080258 		.word	1476528128
 16441              	.L2877:
 16442 1244 A14B     		ldr	r3, .L3348
 16443 1246 DB68     		ldr	r3, [r3, #12]
 16444 1248 1A07     		lsls	r2, r3, #28
 16445 124a 01D4     		bmi	.L2879
 16446 124c FFF7FEFF 		bl	c64_interface.part.23
 16447              	.L2879:
 16448 1250 9F4B     		ldr	r3, .L3348+4
 16449 1252 4FF40012 		mov	r2, #2097152
 16450 1256 9F49     		ldr	r1, .L3348+8
 16451 1258 9A61     		str	r2, [r3, #24]
 16452 125a 9F48     		ldr	r0, .L3348+12
 16453 125c FFF7FEFF 		bl	c64_send_command
 16454 1260 0028     		cmp	r0, #0
 16455 1262 3FF439AE 		beq	.L3305
 16456 1266 9D4B     		ldr	r3, .L3348+16
 16457 1268 1A68     		ldr	r2, [r3]
 16458 126a 4AB9     		cbnz	r2, .L2881
 16459 126c 9C49     		ldr	r1, .L3348+20
 16460 126e 9D4A     		ldr	r2, .L3348+24
 16461 1270 9D48     		ldr	r0, .L3348+28
 16462 1272 1960     		str	r1, [r3]
 16463 1274 5A60     		str	r2, [r3, #4]
 16464 1276 9D49     		ldr	r1, .L3348+32
 16465 1278 9D4A     		ldr	r2, .L3348+36
 16466 127a C3E90201 		strd	r0, r1, [r3, #8]
 16467 127e 1A61     		str	r2, [r3, #16]
 16468              	.L2881:
 16469 1280 9C4D     		ldr	r5, .L3348+40
 16470 1282 95F82020 		ldrb	r2, [r5, #32]	@ zero_extendqisi2
 16471 1286 002A     		cmp	r2, #0
 16472 1288 58D1     		bne	.L3332
 16473 128a 85F80023 		strb	r2, [r5, #768]
 16474              	.L2883:
 16475 128e 0021     		movs	r1, #0
 16476 1290 0122     		movs	r2, #1
 16477 1292 DFF8BC82 		ldr	r8, .L3348+132
 16478 1296 984C     		ldr	r4, .L3348+44
 16479 1298 DFF8B8B2 		ldr	fp, .L3348+136
 16480 129c DFF8B8A2 		ldr	r10, .L3348+140
 16481 12a0 DFF8B892 		ldr	r9, .L3348+144
 16482 12a4 A3F87810 		strh	r1, [r3, #120]	@ movhi
 16483 12a8 5A75     		strb	r2, [r3, #21]
 16484 12aa C8F80030 		str	r3, [r8]
 16485              	.L2884:
 16486 12ae 2378     		ldrb	r3, [r4]	@ zero_extendqisi2
 16487 12b0 23B3     		cbz	r3, .L3333
 16488              	.L2885:
 16489 12b2 DBF80030 		ldr	r3, [fp]
 16490 12b6 002B     		cmp	r3, #0
ARM GAS  C:\Users\Jay\AppData\Local\Temp\ccjVRGue.s 			page 286


 16491 12b8 F9D0     		beq	.L2884
 16492 12ba 904B     		ldr	r3, .L3348+48
 16493 12bc 41F26801 		movw	r1, #4200
 16494 12c0 834A     		ldr	r2, .L3348+4
 16495 12c2 2020     		movs	r0, #32
 16496 12c4 9061     		str	r0, [r2, #24]
 16497 12c6 0022     		movs	r2, #0
 16498 12c8 5960     		str	r1, [r3, #4]
 16499 12ca 1946     		mov	r1, r3
 16500 12cc 9A60     		str	r2, [r3, #8]
 16501              	.L2901:
 16502 12ce 0B68     		ldr	r3, [r1]
 16503 12d0 DB03     		lsls	r3, r3, #15
 16504 12d2 FCD5     		bpl	.L2901
 16505 12d4 7D4B     		ldr	r3, .L3348
 16506 12d6 0322     		movs	r2, #3
 16507 12d8 6FF00801 		mvn	r1, #8
 16508 12dc 6A72     		strb	r2, [r5, #9]
 16509 12de DA68     		ldr	r2, [r3, #12]
 16510 12e0 0A40     		ands	r2, r2, r1
 16511 12e2 DA60     		str	r2, [r3, #12]
 16512 12e4 1961     		str	r1, [r3, #16]
 16513              	.L2902:
 16514 12e6 0022     		movs	r2, #0
 16515 12e8 8549     		ldr	r1, .L3348+52
 16516 12ea 1046     		mov	r0, r2
 16517 12ec FFF7FEFF 		bl	f_mount
 16518 12f0 6B7A     		ldrb	r3, [r5, #9]	@ zero_extendqisi2
 16519 12f2 012B     		cmp	r3, #1
 16520 12f4 3FF48AA8 		beq	.L2909
 16521 12f8 FFF799B8 		b	.L2910
 16522              	.L3333:
 16523 12fc FFF7FEFF 		bl	c64_receive_command
 16524 1300 0B28     		cmp	r0, #11
 16525 1302 46D8     		bhi	.L3136
 16526 1304 01A3     		adr	r3, .L2887
 16527 1306 53F820F0 		ldr	pc, [r3, r0, lsl #2]
 16528 130a 00BF     		.p2align 2
 16529              	.L2887:
 16530 130c B3120000 		.word	.L2885+1
 16531 1310 89130000 		.word	.L2888+1
 16532 1314 B7150000 		.word	.L2889+1
 16533 1318 AB150000 		.word	.L2890+1
 16534 131c C3150000 		.word	.L2891+1
 16535 1320 4D140000 		.word	.L2892+1
 16536 1324 61150000 		.word	.L2893+1
 16537 1328 57140000 		.word	.L2894+1
 16538 132c 9B150000 		.word	.L2895+1
 16539 1330 79130000 		.word	.L2896+1
 16540 1334 4F130000 		.word	.L2897+1
 16541 1338 47130000 		.word	.L2898+1
 16542              		.p2align 1
 16543              	.L3332:
 16544 133c 0193     		str	r3, [sp, #4]
 16545 133e FFF7FEFF 		bl	chdir_last.part.66
 16546 1342 019B     		ldr	r3, [sp, #4]
 16547 1344 A3E7     		b	.L2883
ARM GAS  C:\Users\Jay\AppData\Local\Temp\ccjVRGue.s 			page 287


 16548              	.L2898:
 16549 1346 FFF7FEFF 		bl	c64_send_exit_menu
 16550 134a FFF7FEFF 		bl	system_restart
 16551              	.L2897:
 16552 134e FFF7FEFF 		bl	c64_send_exit_menu
 16553 1352 2B7A     		ldrb	r3, [r5, #8]	@ zero_extendqisi2
 16554 1354 0822     		movs	r2, #8
 16555 1356 03F00103 		and	r3, r3, #1
 16556 135a 6A72     		strb	r2, [r5, #9]
 16557              	.L2907:
 16558 135c 5B4A     		ldr	r2, .L3348
 16559 135e 6FF00800 		mvn	r0, #8
 16560 1362 D168     		ldr	r1, [r2, #12]
 16561 1364 0140     		ands	r1, r1, r0
 16562 1366 D160     		str	r1, [r2, #12]
 16563 1368 1061     		str	r0, [r2, #16]
 16564 136a 002B     		cmp	r3, #0
 16565 136c 3FF44AA8 		beq	.L2878
 16566              	.L3080:
 16567 1370 FFF7FEFF 		bl	save_dat
 16568 1374 FFF746B8 		b	.L2878
 16569              	.L2896:
 16570 1378 FFF7FEFF 		bl	c64_send_exit_menu
 16571 137c 0722     		movs	r2, #7
 16572 137e 2B7A     		ldrb	r3, [r5, #8]	@ zero_extendqisi2
 16573 1380 6A72     		strb	r2, [r5, #9]
 16574 1382 03F00103 		and	r3, r3, #1
 16575 1386 E9E7     		b	.L2907
 16576              	.L2888:
 16577 1388 D8F80000 		ldr	r0, [r8]
 16578 138c 0368     		ldr	r3, [r0]
 16579 138e 9847     		blx	r3
 16580 1390 8DE7     		b	.L2884
 16581              	.L3136:
 16582 1392 5C4B     		ldr	r3, .L3348+56
 16583              	.L2886:
 16584 1394 1A78     		ldrb	r2, [r3]	@ zero_extendqisi2
 16585 1396 02F0FF00 		and	r0, r2, #255
 16586 139a 002A     		cmp	r2, #0
 16587 139c FAD1     		bne	.L2886
 16588 139e 5A49     		ldr	r1, .L3348+60
 16589 13a0 8022     		movs	r2, #128
 16590 13a2 0870     		strb	r0, [r1]
 16591 13a4 1A70     		strb	r2, [r3]
 16592 13a6 82E7     		b	.L2884
 16593              	.L2947:
 16594 13a8 43F00203 		orr	r3, r3, #2
 16595 13ac 1FE6     		b	.L2948
 16596              	.L3268:
 16597 13ae 474B     		ldr	r3, .L3348
 16598 13b0 DB68     		ldr	r3, [r3, #12]
 16599 13b2 1907     		lsls	r1, r3, #28
 16600 13b4 01D4     		bmi	.L2942
 16601 13b6 FFF7FEFF 		bl	c64_interface.part.23
 16602              	.L2942:
 16603 13ba 4649     		ldr	r1, .L3348+8
 16604 13bc 5348     		ldr	r0, .L3348+64
ARM GAS  C:\Users\Jay\AppData\Local\Temp\ccjVRGue.s 			page 288


 16605 13be FFF7FEFF 		bl	c64_send_command
 16606 13c2 4D4C     		ldr	r4, .L3348+44
 16607 13c4 0028     		cmp	r0, #0
 16608 13c6 33D0     		beq	.L3334
 16609              	.L2944:
 16610 13c8 2378     		ldrb	r3, [r4]	@ zero_extendqisi2
 16611 13ca 002B     		cmp	r3, #0
 16612 13cc FCD1     		bne	.L2944
 16613 13ce DFF888B1 		ldr	fp, .L3348+140
 16614 13d2 9BF80030 		ldrb	r3, [fp]	@ zero_extendqisi2
 16615 13d6 4023     		movs	r3, #64
 16616 13d8 2370     		strb	r3, [r4]
 16617              	.L2945:
 16618 13da 2378     		ldrb	r3, [r4]	@ zero_extendqisi2
 16619 13dc 002B     		cmp	r3, #0
 16620 13de FCD1     		bne	.L2945
 16621 13e0 9BF80030 		ldrb	r3, [fp]	@ zero_extendqisi2
 16622 13e4 4023     		movs	r3, #64
 16623 13e6 2370     		strb	r3, [r4]
 16624 13e8 24E0     		b	.L2943
 16625              	.L3331:
 16626 13ea 08F1FF33 		add	r3, r8, #-1
 16627 13ee 9BB2     		uxth	r3, r3
 16628 13f0 1F2B     		cmp	r3, #31
 16629 13f2 18D8     		bhi	.L2953
 16630 13f4 464A     		ldr	r2, .L3348+68
 16631 13f6 52F82330 		ldr	r3, [r2, r3, lsl #2]
 16632 13fa 03B1     		cbz	r3, .L2954
 16633 13fc 9847     		blx	r3
 16634              	.L2954:
 16635 13fe 57F82830 		ldr	r3, [r7, r8, lsl #2]
 16636              	.L2955:
 16637 1402 324A     		ldr	r2, .L3348
 16638 1404 AC21     		movs	r1, #172
 16639 1406 D268     		ldr	r2, [r2, #12]
 16640 1408 0B60     		str	r3, [r1]
 16641 140a 1107     		lsls	r1, r2, #28
 16642 140c 01D4     		bmi	.L2956
 16643 140e FFF7FEFF 		bl	c64_interface.part.23
 16644              	.L2956:
 16645 1412 2F4B     		ldr	r3, .L3348+4
 16646 1414 4FF40012 		mov	r2, #2097152
 16647 1418 DFF8E890 		ldr	r9, .L3348+56
 16648 141c 9A61     		str	r2, [r3, #24]
 16649 141e 3A4B     		ldr	r3, .L3348+60
 16650 1420 0193     		str	r3, [sp, #4]
 16651 1422 FFF72FB8 		b	.L2957
 16652              	.L2953:
 16653 1426 B8F1200F 		cmp	r8, #32
 16654 142a E8D9     		bls	.L2954
 16655 142c 0023     		movs	r3, #0
 16656 142e E8E7     		b	.L2955
 16657              	.L3334:
 16658 1430 DFF824B1 		ldr	fp, .L3348+140
 16659              	.L2943:
 16660 1434 254B     		ldr	r3, .L3348
 16661 1436 6FF00801 		mvn	r1, #8
ARM GAS  C:\Users\Jay\AppData\Local\Temp\ccjVRGue.s 			page 289


 16662 143a DA68     		ldr	r2, [r3, #12]
 16663 143c 0A40     		ands	r2, r2, r1
 16664 143e DA60     		str	r2, [r3, #12]
 16665 1440 1961     		str	r1, [r3, #16]
 16666 1442 FFF7FEFF 		bl	c64_reset.part.24
 16667 1446 B5F80B80 		ldrh	r8, [r5, #11]	@ unaligned
 16668 144a C3E5     		b	.L2941
 16669              	.L2892:
 16670 144c D8F80000 		ldr	r0, [r8]
 16671 1450 C368     		ldr	r3, [r0, #12]
 16672 1452 9847     		blx	r3
 16673 1454 2BE7     		b	.L2884
 16674              	.L2894:
 16675 1456 2F4B     		ldr	r3, .L3348+72
 16676 1458 2A7A     		ldrb	r2, [r5, #8]	@ zero_extendqisi2
 16677 145a 1968     		ldr	r1, [r3]
 16678 145c 89F80020 		strb	r2, [r9]
 16679 1460 41B9     		cbnz	r1, .L2904
 16680 1462 2D49     		ldr	r1, .L3348+76
 16681 1464 2D48     		ldr	r0, .L3348+80
 16682 1466 1960     		str	r1, [r3]
 16683 1468 5860     		str	r0, [r3, #4]
 16684 146a 2D49     		ldr	r1, .L3348+84
 16685 146c 2D48     		ldr	r0, .L3348+88
 16686 146e C3E90211 		strd	r1, r1, [r3, #8]
 16687 1472 1861     		str	r0, [r3, #16]
 16688              	.L2904:
 16689 1474 D8F80010 		ldr	r1, [r8]
 16690 1478 4FF0160C 		mov	ip, #22
 16691 147c 2A48     		ldr	r0, .L3348+92
 16692 147e 9942     		cmp	r1, r3
 16693 1480 A3F81CC0 		strh	ip, [r3, #28]	@ movhi
 16694 1484 9861     		str	r0, [r3, #24]
 16695 1486 18BF     		it	ne
 16696 1488 5961     		strne	r1, [r3, #20]
 16697 148a 12F0010F 		tst	r2, #1
 16698 148e 2749     		ldr	r1, .L3348+96
 16699 1490 274A     		ldr	r2, .L3348+100
 16700 1492 2848     		ldr	r0, .L3348+104
 16701 1494 08BF     		it	eq
 16702 1496 0A46     		moveq	r2, r1
 16703 1498 2749     		ldr	r1, .L3348+108
 16704 149a 0193     		str	r3, [sp, #4]
 16705 149c FFF7FEFF 		bl	sprint
 16706 14a0 244A     		ldr	r2, .L3348+104
 16707 14a2 2649     		ldr	r1, .L3348+112
 16708 14a4 1B48     		ldr	r0, .L3348+72
 16709 14a6 FFF7FEFF 		bl	options_add_text_element
 16710 14aa 254A     		ldr	r2, .L3348+116
 16711 14ac 2549     		ldr	r1, .L3348+120
 16712 14ae 1948     		ldr	r0, .L3348+72
 16713 14b0 FFF7FEFF 		bl	options_add_text_element
 16714 14b4 244A     		ldr	r2, .L3348+124
 16715 14b6 2549     		ldr	r1, .L3348+128
 16716 14b8 1648     		ldr	r0, .L3348+72
 16717 14ba FFF7FEFF 		bl	options_add_text_element
 16718 14be 019B     		ldr	r3, [sp, #4]
ARM GAS  C:\Users\Jay\AppData\Local\Temp\ccjVRGue.s 			page 290


 16719 14c0 1448     		ldr	r0, .L3348+72
 16720 14c2 1A68     		ldr	r2, [r3]
 16721 14c4 C8F80030 		str	r3, [r8]
 16722 14c8 9047     		blx	r2
 16723 14ca F0E6     		b	.L2884
 16724              	.L3349:
 16725              		.align	2
 16726              	.L3348:
 16727 14cc 00000140 		.word	1073807360
 16728 14d0 00100258 		.word	1476530176
 16729 14d4 78000000 		.word	.LC45
 16730 14d8 80000000 		.word	.LC46
 16731 14dc 00000000 		.word	.LANCHOR25
 16732 14e0 00000000 		.word	handle_dir_command
 16733 14e4 00000000 		.word	handle_dir_up_command
 16734 14e8 00000000 		.word	handle_dir_prev_page_command
 16735 14ec 00000000 		.word	handle_dir_next_page_command
 16736 14f0 00000000 		.word	handle_select_command
 16737 14f4 00000000 		.word	dat_file
 16738 14f8 00000000 		.word	.LANCHOR11
 16739 14fc 10E000E0 		.word	-536813552
 16740 1500 00000000 		.word	.LC14
 16741 1504 00000000 		.word	.LANCHOR9
 16742 1508 00000000 		.word	.LANCHOR10
 16743 150c 5C000000 		.word	.LC62
 16744 1510 00000000 		.word	.LANCHOR51
 16745 1514 00000000 		.word	.LANCHOR16
 16746 1518 00000000 		.word	options_dir
 16747 151c 00000000 		.word	options_dir_up
 16748 1520 00000000 		.word	options_prev_next_page
 16749 1524 00000000 		.word	options_select
 16750 1528 2C000000 		.word	.LC58
 16751 152c 04000000 		.word	.LC20
 16752 1530 00000000 		.word	.LC19
 16753 1534 00000100 		.word	scratch_buf
 16754 1538 08000000 		.word	.LC21
 16755 153c 00000000 		.word	settings_basic_change
 16756 1540 38000000 		.word	.LC59
 16757 1544 00000000 		.word	settings_save
 16758 1548 00000000 		.word	.LC15
 16759 154c 00000000 		.word	options_prev_dir
 16760 1550 00000000 		.word	.LANCHOR13
 16761 1554 00000000 		.word	.LANCHOR22
 16762 1558 00000000 		.word	.LANCHOR12
 16763 155c 00000000 		.word	.LANCHOR27
 16764              	.L2893:
 16765 1560 2378     		ldrb	r3, [r4]	@ zero_extendqisi2
 16766 1562 002B     		cmp	r3, #0
 16767 1564 FCD1     		bne	.L2893
 16768 1566 9AF80010 		ldrb	r1, [r10]	@ zero_extendqisi2
 16769 156a C9B2     		uxtb	r1, r1
 16770 156c D8F80000 		ldr	r0, [r8]
 16771 1570 4FF0400C 		mov	ip, #64
 16772 1574 01F03F02 		and	r2, r1, #63
 16773 1578 01F0C001 		and	r1, r1, #192
 16774 157c 0369     		ldr	r3, [r0, #16]
 16775 157e 84F800C0 		strb	ip, [r4]
ARM GAS  C:\Users\Jay\AppData\Local\Temp\ccjVRGue.s 			page 291


 16776 1582 9847     		blx	r3
 16777 1584 0028     		cmp	r0, #0
 16778 1586 3FF492AE 		beq	.L2884
 16779 158a 104B     		ldr	r3, .L3350
 16780 158c 6FF00801 		mvn	r1, #8
 16781 1590 DA68     		ldr	r2, [r3, #12]
 16782 1592 0A40     		ands	r2, r2, r1
 16783 1594 DA60     		str	r2, [r3, #12]
 16784 1596 1961     		str	r1, [r3, #16]
 16785 1598 EAE6     		b	.L3080
 16786              	.L2895:
 16787 159a FFF7FEFF 		bl	c64_send_exit_menu
 16788 159e 0622     		movs	r2, #6
 16789 15a0 2B7A     		ldrb	r3, [r5, #8]	@ zero_extendqisi2
 16790 15a2 6A72     		strb	r2, [r5, #9]
 16791 15a4 03F00103 		and	r3, r3, #1
 16792 15a8 D8E6     		b	.L2907
 16793              	.L2890:
 16794 15aa D8F80000 		ldr	r0, [r8]
 16795 15ae 0021     		movs	r1, #0
 16796 15b0 4368     		ldr	r3, [r0, #4]
 16797 15b2 9847     		blx	r3
 16798 15b4 7BE6     		b	.L2884
 16799              	.L2889:
 16800 15b6 D8F80000 		ldr	r0, [r8]
 16801 15ba 0121     		movs	r1, #1
 16802 15bc 4368     		ldr	r3, [r0, #4]
 16803 15be 9847     		blx	r3
 16804 15c0 75E6     		b	.L2884
 16805              	.L2891:
 16806 15c2 D8F80000 		ldr	r0, [r8]
 16807 15c6 8368     		ldr	r3, [r0, #8]
 16808 15c8 9847     		blx	r3
 16809 15ca 70E6     		b	.L2884
 16810              	.L3351:
 16811              		.align	2
 16812              	.L3350:
 16813 15cc 00000140 		.word	1073807360
 16815              		.global	dat_buffer
 16816              		.comm	dat_file,1024,4
 16817              		.global	usbd_otgfs
 16818              		.global	OTGPCTL
 16819              		.global	OTGD
 16820              		.global	OTG
 16821              		.global	D1CorePrescTable
 16822              		.global	SystemD2Clock
 16823              		.global	SystemCoreClock
 16824              		.section	.bss.card_info,"aw",%nobits
 16825              		.align	2
 16826              		.set	.LANCHOR46,. + 0
 16829              	card_info:
 16830 0000 00000000 		.space	36
 16830      00000000 
 16830      00000000 
 16830      00000000 
 16830      00000000 
 16831              		.section	.bss.card_rca,"aw",%nobits
ARM GAS  C:\Users\Jay\AppData\Local\Temp\ccjVRGue.s 			page 292


 16832              		.align	1
 16833              		.set	.LANCHOR0,. + 0
 16836              	card_rca:
 16837 0000 0000     		.space	2
 16838              		.section	.bss.card_type,"aw",%nobits
 16839              		.set	.LANCHOR45,. + 0
 16842              	card_type:
 16843 0000 00       		.space	1
 16844              		.section	.bss.cnt,"aw",%nobits
 16845              		.align	2
 16846              		.set	.LANCHOR5,. + 0
 16849              	cnt:
 16850 0000 00000000 		.space	4
 16851              		.section	.bss.crt_ptr,"aw",%nobits
 16852              		.align	2
 16853              		.set	.LANCHOR7,. + 0
 16856              	crt_ptr:
 16857 0000 00000000 		.space	4
 16858              		.section	.bss.crt_ram_buf,"aw",%nobits
 16859              		.align	2
 16862              	crt_ram_buf:
 16863 0000 00000000 		.space	16384
 16863      00000000 
 16863      00000000 
 16863      00000000 
 16863      00000000 
 16864              		.section	.bss.crt_rom_ptr,"aw",%nobits
 16865              		.align	2
 16866              		.set	.LANCHOR6,. + 0
 16869              	crt_rom_ptr:
 16870 0000 00000000 		.space	4
 16871              		.section	.bss.d64_state,"aw",%nobits
 16872              		.align	2
 16873              		.set	.LANCHOR24,. + 0
 16876              	d64_state:
 16877 0000 00000000 		.space	844
 16877      00000000 
 16877      00000000 
 16877      00000000 
 16877      00000000 
 16878              		.section	.bss.ef3_usb_rx_data,"aw",%nobits
 16879              		.set	.LANCHOR10,. + 0
 16882              	ef3_usb_rx_data:
 16883 0000 00       		.space	1
 16884              		.section	.bss.ef3_usb_rx_rdy,"aw",%nobits
 16885              		.set	.LANCHOR9,. + 0
 16888              	ef3_usb_rx_rdy:
 16889 0000 00       		.space	1
 16890              		.section	.bss.ef3_usb_tx_data,"aw",%nobits
 16891              		.set	.LANCHOR12,. + 0
 16894              	ef3_usb_tx_data:
 16895 0000 00       		.space	1
 16896              		.section	.bss.epyx_cycles,"aw",%nobits
 16897              		.align	1
 16898              		.set	.LANCHOR39,. + 0
 16901              	epyx_cycles:
 16902 0000 0000     		.space	2
ARM GAS  C:\Users\Jay\AppData\Local\Temp\ccjVRGue.s 			page 293


 16903              		.section	.bss.fc3_register,"aw",%nobits
 16904              		.align	1
 16905              		.set	.LANCHOR8,. + 0
 16908              	fc3_register:
 16909 0000 0000     		.space	2
 16910              		.section	.bss.freezer_button,"aw",%nobits
 16911              		.set	.LANCHOR35,. + 0
 16914              	freezer_button:
 16915 0000 00       		.space	1
 16916              		.section	.bss.freezer_state,"aw",%nobits
 16917              		.set	.LANCHOR31,. + 0
 16920              	freezer_state:
 16921 0000 00       		.space	1
 16922              		.section	.bss.fs,"aw",%nobits
 16923              		.align	2
 16924              		.set	.LANCHOR50,. + 0
 16927              	fs:
 16928 0000 00000000 		.space	568
 16928      00000000 
 16928      00000000 
 16928      00000000 
 16928      00000000 
 16929              		.section	.bss.kcs_register,"aw",%nobits
 16930              		.set	.LANCHOR30,. + 0
 16933              	kcs_register:
 16934 0000 00       		.space	1
 16935              		.section	.bss.menu_state,"aw",%nobits
 16936              		.align	2
 16937              		.set	.LANCHOR13,. + 0
 16940              	menu_state:
 16941 0000 00000000 		.space	4
 16942              		.section	.bss.options_state,"aw",%nobits
 16943              		.align	2
 16944              		.set	.LANCHOR16,. + 0
 16947              	options_state:
 16948 0000 00000000 		.space	32
 16948      00000000 
 16948      00000000 
 16948      00000000 
 16948      00000000 
 16949              		.section	.bss.sd_state,"aw",%nobits
 16950              		.align	2
 16951              		.set	.LANCHOR25,. + 0
 16954              	sd_state:
 16955 0000 00000000 		.space	124
 16955      00000000 
 16955      00000000 
 16955      00000000 
 16955      00000000 
 16956              		.section	.bss.settings_flags,"aw",%nobits
 16957              		.set	.LANCHOR27,. + 0
 16960              	settings_flags:
 16961 0000 00       		.space	1
 16962              		.section	.bss.tmpbuf,"aw",%nobits
 16963              		.align	2
 16964              		.set	.LANCHOR4,. + 0
 16967              	tmpbuf:
ARM GAS  C:\Users\Jay\AppData\Local\Temp\ccjVRGue.s 			page 294


 16968 0000 00000000 		.space	4
 16969              		.section	.bss.ubuf,"aw",%nobits
 16970              		.align	2
 16971              		.set	.LANCHOR49,. + 0
 16974              	ubuf:
 16975 0000 00000000 		.space	128
 16975      00000000 
 16975      00000000 
 16975      00000000 
 16975      00000000 
 16976              		.section	.bss.udev,"aw",%nobits
 16977              		.align	2
 16978              		.set	.LANCHOR47,. + 0
 16981              	udev:
 16982 0000 00000000 		.space	100
 16982      00000000 
 16982      00000000 
 16982      00000000 
 16982      00000000 
 16983              		.section	.bss.urx_fifo,"aw",%nobits
 16984              		.align	2
 16985              		.set	.LANCHOR23,. + 0
 16988              	urx_fifo:
 16989 0000 00000000 		.space	512
 16989      00000000 
 16989      00000000 
 16989      00000000 
 16989      00000000 
 16990              		.section	.bss.urx_pos,"aw",%nobits
 16991              		.align	2
 16992              		.set	.LANCHOR22,. + 0
 16995              	urx_pos:
 16996 0000 00000000 		.space	4
 16997              		.section	.bss.utx_fifo,"aw",%nobits
 16998              		.align	2
 16999              		.set	.LANCHOR21,. + 0
 17002              	utx_fifo:
 17003 0000 00000000 		.space	512
 17003      00000000 
 17003      00000000 
 17003      00000000 
 17003      00000000 
 17004              		.section	.bss.utx_pos,"aw",%nobits
 17005              		.align	2
 17006              		.set	.LANCHOR20,. + 0
 17009              	utx_pos:
 17010 0000 00000000 		.space	4
 17011              		.section	.data.SystemCoreClock,"aw",%progbits
 17012              		.align	2
 17013              		.set	.LANCHOR43,. + 0
 17016              	SystemCoreClock:
 17017 0000 0090D003 		.word	64000000
 17018              		.section	.data.SystemD2Clock,"aw",%progbits
 17019              		.align	2
 17020              		.set	.LANCHOR42,. + 0
 17023              	SystemD2Clock:
 17024 0000 0090D003 		.word	64000000
ARM GAS  C:\Users\Jay\AppData\Local\Temp\ccjVRGue.s 			page 295


 17025              		.section	.data.cdc_line,"aw",%progbits
 17026              		.align	2
 17027              		.set	.LANCHOR15,. + 0
 17030              	cdc_line:
 17031 0000 00960000 		.word	38400
 17032 0004 00       		.byte	0
 17033 0005 00       		.byte	0
 17034 0006 08       		.byte	8
 17035              		.section	.data.dstatus,"aw",%progbits
 17036              		.set	.LANCHOR44,. + 0
 17039              	dstatus:
 17040 0000 01       		.byte	1
 17041              		.section	.data.ef3_usb_tx_rdy,"aw",%progbits
 17042              		.set	.LANCHOR11,. + 0
 17045              	ef3_usb_tx_rdy:
 17046 0000 40       		.byte	64
 17047              		.section	.rodata.CSWTCH.501,"a",%progbits
 17048              		.align	2
 17049              		.set	.LANCHOR29,. + 0
 17052              	CSWTCH.501:
 17053 0000 00000000 		.word	crt_handler
 17054 0004 00000000 		.word	ar4x_handler
 17055 0008 00000000 		.word	kcs_handler
 17056 000c 00000000 		.word	fc3_handler
 17057 0010 00000000 		.word	simons_basic_handler
 17058 0014 00000000 		.word	ef_handler
 17059 0018 00000000 		.word	0
 17060 001c 00000000 		.word	magic_desk_handler
 17061 0020 00000000 		.word	0
 17062 0024 00000000 		.word	0
 17063 0028 00000000 		.word	epyx_handler
 17064 002c 00000000 		.word	0
 17065 0030 00000000 		.word	0
 17066 0034 00000000 		.word	0
 17067 0038 00000000 		.word	0
 17068 003c 00000000 		.word	c64gs_handler
 17069 0040 00000000 		.word	0
 17070 0044 00000000 		.word	dinamic_handler
 17071 0048 00000000 		.word	zaxxon_handler
 17072 004c 00000000 		.word	magic_desk_handler
 17073 0050 00000000 		.word	ss5_handler
 17074 0054 00000000 		.word	comal80_handler
 17075 0058 00000000 		.word	0
 17076 005c 00000000 		.word	0
 17077 0060 00000000 		.word	0
 17078 0064 00000000 		.word	0
 17079 0068 00000000 		.word	0
 17080 006c 00000000 		.word	0
 17081 0070 00000000 		.word	0
 17082 0074 00000000 		.word	0
 17083 0078 00000000 		.word	0
 17084 007c 00000000 		.word	0
 17085 0080 00000000 		.word	ef_handler
 17086              		.section	.rodata.CSWTCH.503,"a",%progbits
 17087              		.align	2
 17088              		.set	.LANCHOR51,. + 0
 17091              	CSWTCH.503:
ARM GAS  C:\Users\Jay\AppData\Local\Temp\ccjVRGue.s 			page 296


 17092 0000 00000000 		.word	ar4x_init
 17093 0004 00000000 		.word	kcs_init
 17094 0008 00000000 		.word	fc3_init
 17095 000c 00000000 		.word	0
 17096 0010 00000000 		.word	0
 17097 0014 00000000 		.word	0
 17098 0018 00000000 		.word	magic_desk_init
 17099 001c 00000000 		.word	0
 17100 0020 00000000 		.word	0
 17101 0024 00000000 		.word	epyx_init
 17102 0028 00000000 		.word	0
 17103 002c 00000000 		.word	0
 17104 0030 00000000 		.word	0
 17105 0034 00000000 		.word	0
 17106 0038 00000000 		.word	0
 17107 003c 00000000 		.word	0
 17108 0040 00000000 		.word	0
 17109 0044 00000000 		.word	zaxxon_init
 17110 0048 00000000 		.word	magic_desk_init
 17111 004c 00000000 		.word	ss5_init
 17112 0050 00000000 		.word	comal80_init
 17113 0054 00000000 		.word	0
 17114 0058 00000000 		.word	0
 17115 005c 00000000 		.word	0
 17116 0060 00000000 		.word	0
 17117 0064 00000000 		.word	0
 17118 0068 00000000 		.word	0
 17119 006c 00000000 		.word	0
 17120 0070 00000000 		.word	0
 17121 0074 00000000 		.word	0
 17122 0078 00000000 		.word	0
 17123 007c 00000000 		.word	ef_init
 17124              		.section	.rodata.CSWTCH.559,"a",%progbits
 17125              		.align	2
 17126              		.set	.LANCHOR19,. + 0
 17129              	CSWTCH.559:
 17130 0000 54000000 		.word	.LC72
 17131 0004 08000000 		.word	.LC16
 17132 0008 08000000 		.word	.LC16
 17133 000c 08000000 		.word	.LC16
 17134 0010 08000000 		.word	.LC16
 17135 0014 08000000 		.word	.LC16
 17136              		.section	.rodata.CSWTCH.560,"a",%progbits
 17137              		.align	2
 17138              		.set	.LANCHOR17,. + 0
 17141              	CSWTCH.560:
 17142 0000 38000000 		.word	.LC69
 17143 0004 40000000 		.word	.LC70
 17144 0008 30000000 		.word	.LC68
 17145 000c 30000000 		.word	.LC68
 17146 0010 38000000 		.word	.LC69
 17147 0014 44000000 		.word	.LC71
 17148              		.section	.rodata.CSWTCH.561,"a",%progbits
 17149              		.align	2
 17150              		.set	.LANCHOR18,. + 0
 17153              	CSWTCH.561:
 17154 0000 00000000 		.word	0
ARM GAS  C:\Users\Jay\AppData\Local\Temp\ccjVRGue.s 			page 297


 17155 0004 00000000 		.word	0
 17156 0008 00000000 		.word	0
 17157 000c 00000000 		.word	0
 17158 0010 28000000 		.word	.LC67
 17159 0014 30000000 		.word	.LC68
 17160              		.section	.rodata.D1CorePrescTable,"a",%progbits
 17161              		.align	2
 17162              		.set	.LANCHOR41,. + 0
 17165              	D1CorePrescTable:
 17166 0000 00       		.byte	0
 17167 0001 00       		.byte	0
 17168 0002 00       		.byte	0
 17169 0003 00       		.byte	0
 17170 0004 01       		.byte	1
 17171 0005 02       		.byte	2
 17172 0006 03       		.byte	3
 17173 0007 04       		.byte	4
 17174 0008 01       		.byte	1
 17175 0009 02       		.byte	2
 17176 000a 03       		.byte	3
 17177 000b 04       		.byte	4
 17178 000c 06       		.byte	6
 17179 000d 07       		.byte	7
 17180 000e 08       		.byte	8
 17181 000f 09       		.byte	9
 17182              		.section	.rodata.OTG,"a",%progbits
 17183              		.align	2
 17186              	OTG:
 17187 0000 00000840 		.word	1074266112
 17188              		.section	.rodata.OTGD,"a",%progbits
 17189              		.align	2
 17192              	OTGD:
 17193 0000 00080840 		.word	1074268160
 17194              		.section	.rodata.OTGPCTL,"a",%progbits
 17195              		.align	2
 17198              	OTGPCTL:
 17199 0000 000E0840 		.word	1074269696
 17200              		.section	.rodata.ar4x_mode,"a",%progbits
 17201              		.align	2
 17202              		.set	.LANCHOR40,. + 0
 17205              	ar4x_mode:
 17206 0000 19000000 		.word	25
 17207 0004 1A000000 		.word	26
 17208 0008 15000000 		.word	21
 17209 000c 16000000 		.word	22
 17210              		.section	.rodata.auto_boot.str1.4,"aMS",%progbits,1
 17211              		.align	2
 17212              	.LC11:
 17213 0000 2F4B756E 		.ascii	"/KungFuFlash.dat\000"
 17213      67467546 
 17213      6C617368 
 17213      2E646174 
 17213      00
 17214 0011 000000   		.space	3
 17215              	.LC12:
 17216 0014 4B756E67 		.ascii	"KungFu:\001\000"
 17216      46753A01 
ARM GAS  C:\Users\Jay\AppData\Local\Temp\ccjVRGue.s 			page 298


 17216      00
 17217 001d 000000   		.space	3
 17218              	.LC13:
 17219 0020 4B756E67 		.ascii	"KungFu:Menu\000"
 17219      46753A4D 
 17219      656E7500 
 17220              		.section	.rodata.c64_send_command.str1.4,"aMS",%progbits,1
 17221              		.align	2
 17222              	.LC10:
 17223 0000 45465354 		.ascii	"EFSTART:\000"
 17223      4152543A 
 17223      00
 17224              		.section	.rodata.c64_send_text.str1.4,"aMS",%progbits,1
 17225              		.align	2
 17226              	.LC28:
 17227 0000 52454144 		.ascii	"READ\000"
 17227      00
 17228              		.section	.rodata.config_desc,"a",%progbits
 17229              		.align	2
 17230              		.set	.LANCHOR2,. + 0
 17233              	config_desc:
 17234 0000 09       		.byte	9
 17235 0001 02       		.byte	2
 17236 0002 4B00     		.short	75
 17237 0004 02       		.byte	2
 17238 0005 01       		.byte	1
 17239 0006 00       		.byte	0
 17240 0007 C0       		.byte	-64
 17241 0008 32       		.byte	50
 17242 0009 08       		.byte	8
 17243 000a 0B       		.byte	11
 17244 000b 00       		.byte	0
 17245 000c 02       		.byte	2
 17246 000d 02       		.byte	2
 17247 000e 02       		.byte	2
 17248 000f 00       		.byte	0
 17249 0010 00       		.byte	0
 17250 0011 09       		.byte	9
 17251 0012 04       		.byte	4
 17252 0013 00       		.byte	0
 17253 0014 00       		.byte	0
 17254 0015 01       		.byte	1
 17255 0016 02       		.byte	2
 17256 0017 02       		.byte	2
 17257 0018 00       		.byte	0
 17258 0019 00       		.byte	0
 17259 001a 05       		.byte	5
 17260 001b 24       		.byte	36
 17261 001c 00       		.byte	0
 17262 001d 1001     		.2byte	272
 17263 001f 05       		.byte	5
 17264 0020 24       		.byte	36
 17265 0021 01       		.byte	1
 17266 0022 00       		.byte	0
 17267 0023 01       		.byte	1
 17268 0024 04       		.byte	4
 17269 0025 24       		.byte	36
ARM GAS  C:\Users\Jay\AppData\Local\Temp\ccjVRGue.s 			page 299


 17270 0026 02       		.byte	2
 17271 0027 00       		.byte	0
 17272 0028 05       		.byte	5
 17273 0029 24       		.byte	36
 17274 002a 06       		.byte	6
 17275 002b 00       		.byte	0
 17276 002c 01       		.byte	1
 17277 002d 07       		.byte	7
 17278 002e 05       		.byte	5
 17279 002f 82       		.byte	-126
 17280 0030 03       		.byte	3
 17281 0031 0800     		.2byte	8
 17282 0033 FF       		.byte	-1
 17283 0034 09       		.byte	9
 17284 0035 04       		.byte	4
 17285 0036 01       		.byte	1
 17286 0037 00       		.byte	0
 17287 0038 02       		.byte	2
 17288 0039 0A       		.byte	10
 17289 003a 00       		.byte	0
 17290 003b 00       		.byte	0
 17291 003c 00       		.byte	0
 17292 003d 07       		.byte	7
 17293 003e 05       		.byte	5
 17294 003f 01       		.byte	1
 17295 0040 02       		.byte	2
 17296 0041 4000     		.2byte	64
 17297 0043 01       		.byte	1
 17298 0044 07       		.byte	7
 17299 0045 05       		.byte	5
 17300 0046 81       		.byte	-127
 17301 0047 02       		.byte	2
 17302 0048 4000     		.short	64
 17303 004a 01       		.byte	1
 17304              		.section	.rodata.crt_banks,"a",%progbits
 17305              		.align	2
 17306              		.set	.LANCHOR32,. + 0
 17309              	crt_banks:
 17310 0000 00000000 		.word	dat_buffer
 17311 0004 00400000 		.word	dat_buffer+16384
 17312 0008 00800000 		.word	dat_buffer+32768
 17313 000c 00C00000 		.word	dat_buffer+49152
 17314 0010 00000108 		.word	134283264
 17315 0014 00400108 		.word	134299648
 17316 0018 00800108 		.word	134316032
 17317 001c 00C00108 		.word	134332416
 17318 0020 00000208 		.word	134348800
 17319 0024 00400208 		.word	134365184
 17320 0028 00800208 		.word	134381568
 17321 002c 00C00208 		.word	134397952
 17322 0030 00000308 		.word	134414336
 17323 0034 00400308 		.word	134430720
 17324 0038 00800308 		.word	134447104
 17325 003c 00C00308 		.word	134463488
 17326 0040 00000408 		.word	134479872
 17327 0044 00400408 		.word	134496256
 17328 0048 00800408 		.word	134512640
ARM GAS  C:\Users\Jay\AppData\Local\Temp\ccjVRGue.s 			page 300


 17329 004c 00C00408 		.word	134529024
 17330 0050 00000508 		.word	134545408
 17331 0054 00400508 		.word	134561792
 17332 0058 00800508 		.word	134578176
 17333 005c 00C00508 		.word	134594560
 17334 0060 00000608 		.word	134610944
 17335 0064 00400608 		.word	134627328
 17336 0068 00800608 		.word	134643712
 17337 006c 00C00608 		.word	134660096
 17338 0070 00000708 		.word	134676480
 17339 0074 00400708 		.word	134692864
 17340 0078 00800708 		.word	134709248
 17341 007c 00C00708 		.word	134725632
 17342 0080 00000808 		.word	134742016
 17343 0084 00400808 		.word	134758400
 17344 0088 00800808 		.word	134774784
 17345 008c 00C00808 		.word	134791168
 17346 0090 00000908 		.word	134807552
 17347 0094 00400908 		.word	134823936
 17348 0098 00800908 		.word	134840320
 17349 009c 00C00908 		.word	134856704
 17350 00a0 00000A08 		.word	134873088
 17351 00a4 00400A08 		.word	134889472
 17352 00a8 00800A08 		.word	134905856
 17353 00ac 00C00A08 		.word	134922240
 17354 00b0 00000B08 		.word	134938624
 17355 00b4 00400B08 		.word	134955008
 17356 00b8 00800B08 		.word	134971392
 17357 00bc 00C00B08 		.word	134987776
 17358 00c0 00000C08 		.word	135004160
 17359 00c4 00400C08 		.word	135020544
 17360 00c8 00800C08 		.word	135036928
 17361 00cc 00C00C08 		.word	135053312
 17362 00d0 00000D08 		.word	135069696
 17363 00d4 00400D08 		.word	135086080
 17364 00d8 00800D08 		.word	135102464
 17365 00dc 00C00D08 		.word	135118848
 17366 00e0 00000E08 		.word	135135232
 17367 00e4 00400E08 		.word	135151616
 17368 00e8 00800E08 		.word	135168000
 17369 00ec 00C00E08 		.word	135184384
 17370 00f0 00000F08 		.word	135200768
 17371 00f4 00400F08 		.word	135217152
 17372 00f8 00800F08 		.word	135233536
 17373 00fc 00C00F08 		.word	135249920
 17374              		.section	.rodata.crt_ram_banks,"a",%progbits
 17375              		.align	2
 17376              		.set	.LANCHOR38,. + 0
 17379              	crt_ram_banks:
 17380 0000 00000000 		.word	crt_ram_buf
 17381 0004 00200000 		.word	crt_ram_buf+8192
 17382 0008 00000100 		.word	scratch_buf
 17383 000c 00200100 		.word	scratch_buf+8192
 17384              		.section	.rodata.d64_select.str1.4,"aMS",%progbits,1
 17385              		.align	2
 17386              	.LC31:
 17387 0000 2E2E00   		.ascii	"..\000"
ARM GAS  C:\Users\Jay\AppData\Local\Temp\ccjVRGue.s 			page 301


 17388 0003 00       		.space	1
 17389              	.LC32:
 17390 0004 2A00     		.ascii	"*\000"
 17391 0006 0000     		.space	2
 17392              	.LC33:
 17393 0008 4C4F4144 		.ascii	"LOAD\"%s\",8,1%cRUN%c\000"
 17393      22257322 
 17393      2C382C31 
 17393      25635255 
 17393      4E256300 
 17394              	.LC34:
 17395 001c 4E6F2050 		.ascii	"No PRG files was found on disk\000"
 17395      52472066 
 17395      696C6573 
 17395      20776173 
 17395      20666F75 
 17396 003b 00       		.space	1
 17397              	.LC35:
 17398 003c 4E6F7420 		.ascii	"Not Found\000"
 17398      466F756E 
 17398      6400
 17399 0046 0000     		.space	2
 17400              	.LC36:
 17401 0048 46696C65 		.ascii	"File is not supported or invalid\000"
 17401      20697320 
 17401      6E6F7420 
 17401      73757070 
 17401      6F727465 
 17402 0069 000000   		.space	3
 17403              	.LC37:
 17404 006c 556E7375 		.ascii	"Unsupported\000"
 17404      70706F72 
 17404      74656400 
 17405              		.section	.rodata.d64_send_page.str1.4,"aMS",%progbits,1
 17406              		.align	2
 17407              	.LC25:
 17408 0000 202E2E20 		.ascii	" ..                               DIR \000"
 17408      20202020 
 17408      20202020 
 17408      20202020 
 17408      20202020 
 17409 0027 00       		.space	1
 17410              	.LC26:
 17411 0028 202A2020 		.ascii	" *     \000"
 17411      20202000 
 17412              	.LC27:
 17413 0030 202D2D2D 		.ascii	" --- \000"
 17413      2000
 17414              		.section	.rodata.d64_track_offset,"a",%progbits
 17415              		.align	2
 17416              		.set	.LANCHOR14,. + 0
 17419              	d64_track_offset:
 17420 0000 0000     		.short	0
 17421 0002 1500     		.short	21
 17422 0004 2A00     		.short	42
 17423 0006 3F00     		.short	63
 17424 0008 5400     		.short	84
ARM GAS  C:\Users\Jay\AppData\Local\Temp\ccjVRGue.s 			page 302


 17425 000a 6900     		.short	105
 17426 000c 7E00     		.short	126
 17427 000e 9300     		.short	147
 17428 0010 A800     		.short	168
 17429 0012 BD00     		.short	189
 17430 0014 D200     		.short	210
 17431 0016 E700     		.short	231
 17432 0018 FC00     		.short	252
 17433 001a 1101     		.short	273
 17434 001c 2601     		.short	294
 17435 001e 3B01     		.short	315
 17436 0020 5001     		.short	336
 17437 0022 6501     		.short	357
 17438 0024 7801     		.short	376
 17439 0026 8B01     		.short	395
 17440 0028 9E01     		.short	414
 17441 002a B101     		.short	433
 17442 002c C401     		.short	452
 17443 002e D701     		.short	471
 17444 0030 EA01     		.short	490
 17445 0032 FC01     		.short	508
 17446 0034 0E02     		.short	526
 17447 0036 2002     		.short	544
 17448 0038 3202     		.short	562
 17449 003a 4402     		.short	580
 17450 003c 5602     		.short	598
 17451 003e 6702     		.short	615
 17452 0040 7802     		.short	632
 17453 0042 8902     		.short	649
 17454 0044 9A02     		.short	666
 17455 0046 AB02     		.short	683
 17456 0048 BC02     		.short	700
 17457 004a CD02     		.short	717
 17458 004c DE02     		.short	734
 17459 004e EF02     		.short	751
 17460 0050 0003     		.short	768
 17461 0052 1103     		.short	785
 17462              		.section	.rodata.d64_types,"a",%progbits
 17463              		.align	2
 17464              		.set	.LANCHOR28,. + 0
 17467              	d64_types:
 17468 0000 68000000 		.word	.LC73
 17469 0004 6C000000 		.word	.LC74
 17470 0008 24000000 		.word	.LC9
 17471 000c 70000000 		.word	.LC75
 17472 0010 74000000 		.word	.LC76
 17473 0014 78000000 		.word	.LC77
 17474 0018 7C000000 		.word	.LC78
 17475 001c 7C000000 		.word	.LC78
 17476              		.section	.rodata.device_desc,"a",%progbits
 17477              		.align	2
 17478              		.set	.LANCHOR1,. + 0
 17481              	device_desc:
 17482 0000 12       		.byte	18
 17483 0001 01       		.byte	1
 17484 0002 0002     		.short	512
 17485 0004 EF       		.byte	-17
ARM GAS  C:\Users\Jay\AppData\Local\Temp\ccjVRGue.s 			page 303


 17486 0005 02       		.byte	2
 17487 0006 01       		.byte	1
 17488 0007 08       		.byte	8
 17489 0008 8304     		.short	1155
 17490 000a 4057     		.short	22336
 17491 000c 0001     		.short	256
 17492 000e 01       		.byte	1
 17493 000f 02       		.byte	2
 17494 0010 FE       		.byte	-2
 17495 0011 01       		.byte	1
 17496              		.section	.rodata.dtable,"a",%progbits
 17497              		.align	2
 17498              		.set	.LANCHOR3,. + 0
 17501              	dtable:
 17502 0000 00000000 		.word	lang_desc
 17503 0004 00000000 		.word	manuf_desc_en
 17504 0008 00000000 		.word	prod_desc_en
 17505              		.section	.rodata.ef_mode,"a",%progbits
 17506              		.align	2
 17507              		.set	.LANCHOR36,. + 0
 17510              	ef_mode:
 17511 0000 26000000 		.word	38
 17512 0004 25000000 		.word	37
 17513 0008 2A000000 		.word	42
 17514 000c 29000000 		.word	41
 17515 0010 16000000 		.word	22
 17516 0014 15000000 		.word	21
 17517 0018 1A000000 		.word	26
 17518 001c 19000000 		.word	25
 17519              		.section	.rodata.fc3_mode,"a",%progbits
 17520              		.align	2
 17521              		.set	.LANCHOR33,. + 0
 17524              	fc3_mode:
 17525 0000 1A000000 		.word	26
 17526 0004 16000000 		.word	22
 17527 0008 19000000 		.word	25
 17528 000c 15000000 		.word	21
 17529 0010 2A000000 		.word	42
 17530 0014 26000000 		.word	38
 17531 0018 29000000 		.word	41
 17532 001c 25000000 		.word	37
 17533              		.section	.rodata.handle_dir_up_command.str1.4,"aMS",%progbits,1
 17534              		.align	2
 17535              	.LC38:
 17536 0000 2F00     		.ascii	"/\000"
 17537              		.section	.rodata.handle_failed_to_read_sd.str1.4,"aMS",%progbits,1
 17538              		.align	2
 17539              	.LC29:
 17540 0000 4661696C 		.ascii	"Failed to read SD card\000"
 17540      65642074 
 17540      6F207265 
 17540      61642053 
 17540      44206361 
 17541 0017 00       		.space	1
 17542              	.LC30:
 17543 0018 4D535700 		.ascii	"MSW\000"
 17544              		.section	.rodata.handle_file_options.str1.4,"aMS",%progbits,1
ARM GAS  C:\Users\Jay\AppData\Local\Temp\ccjVRGue.s 			page 304


 17545              		.align	2
 17546              	.LC15:
 17547 0000 43616E63 		.ascii	"Cancel\000"
 17547      656C00
 17548 0007 00       		.space	1
 17549              	.LC16:
 17550 0008 46696C65 		.ascii	"File Options\000"
 17550      204F7074 
 17550      696F6E73 
 17550      00
 17551 0015 000000   		.space	3
 17552              	.LC17:
 17553 0018 53656C65 		.ascii	"Select\000"
 17553      637400
 17554              		.section	.rodata.handle_select_command.str1.4,"aMS",%progbits,1
 17555              		.align	2
 17556              	.LC39:
 17557 0000 43363446 		.ascii	"C64File\000"
 17557      696C6500 
 17558              	.LC40:
 17559 0008 43363420 		.ascii	"C64 CARTRIDGE   \000"
 17559      43415254 
 17559      52494447 
 17559      45202020 
 17559      00
 17560 0019 000000   		.space	3
 17561              	.LC41:
 17562 001c 556E7375 		.ascii	"Unsupported CRT type (%u)\000"
 17562      70706F72 
 17562      74656420 
 17562      43525420 
 17562      74797065 
 17563 0036 0000     		.space	2
 17564              	.LC42:
 17565 0038 50726F67 		.ascii	"Programming flash memory.\000"
 17565      72616D6D 
 17565      696E6720 
 17565      666C6173 
 17565      68206D65 
 17566 0052 0000     		.space	2
 17567              	.LC43:
 17568 0054 4D534600 		.ascii	"MSF\000"
 17569              	.LC44:
 17570 0058 4661696C 		.ascii	"Failed to read CRT file\015\012\015\012%s\000"
 17570      65642074 
 17570      6F207265 
 17570      61642043 
 17570      52542066 
 17571 0076 0000     		.space	2
 17572              	.LC45:
 17573 0078 444F4E45 		.ascii	"DONE\000"
 17573      00
 17574 007d 000000   		.space	3
 17575              	.LC46:
 17576 0080 52535400 		.ascii	"RST\000"
 17577              	.LC47:
 17578 0084 256300   		.ascii	"%c\000"
ARM GAS  C:\Users\Jay\AppData\Local\Temp\ccjVRGue.s 			page 305


 17579 0087 00       		.space	1
 17580              	.LC48:
 17581 0088 4B756E67 		.ascii	"Kung Fu Flash\000"
 17581      20467520 
 17581      466C6173 
 17581      6800
 17582 0096 0000     		.space	2
 17583              	.LC49:
 17584 0098 54686973 		.ascii	"This will upgrade the firmware to\000"
 17584      2077696C 
 17584      6C207570 
 17584      67726164 
 17584      65207468 
 17585 00ba 0000     		.space	2
 17586              	.LC50:
 17587 00bc 4669726D 		.ascii	"Firmware Upgrade\000"
 17587      77617265 
 17587      20557067 
 17587      72616465 
 17587      00
 17588 00cd 000000   		.space	3
 17589              	.LC51:
 17590 00d0 55706772 		.ascii	"Upgrade\000"
 17590      61646500 
 17591              	.LC52:
 17592 00d8 55706772 		.ascii	"Upgrading firmware.\000"
 17592      6164696E 
 17592      67206669 
 17592      726D7761 
 17592      72652E00 
 17593              	.LC53:
 17594 00ec 54686973 		.ascii	"This file is used by Kung Fu Flash\000"
 17594      2066696C 
 17594      65206973 
 17594      20757365 
 17594      64206279 
 17595 010f 00       		.space	1
 17596              	.LC54:
 17597 0110 53797374 		.ascii	"System File\000"
 17597      656D2046 
 17597      696C6500 
 17598              		.section	.rodata.handle_unsupported_ex.str1.4,"aMS",%progbits,1
 17599              		.align	2
 17600              	.LC18:
 17601 0000 4F4B00   		.ascii	"OK\000"
 17602              		.section	.rodata.hex,"a",%progbits
 17603              		.align	2
 17604              		.set	.LANCHOR26,. + 0
 17607              	hex:
 17608 0000 30313233 		.ascii	"0123456789abcdef\000"
 17608      34353637 
 17608      38396162 
 17608      63646566 
 17608      00
 17609              		.section	.rodata.kcs_mode,"a",%progbits
 17610              		.align	2
 17611              		.set	.LANCHOR34,. + 0
ARM GAS  C:\Users\Jay\AppData\Local\Temp\ccjVRGue.s 			page 306


 17614              	kcs_mode:
 17615 0000 1A000000 		.word	26
 17616 0004 19000000 		.word	25
 17617 0008 16000000 		.word	22
 17618 000c 25000000 		.word	37
 17619              		.section	.rodata.lang_desc,"a",%progbits
 17620              		.align	2
 17623              	lang_desc:
 17624 0000 04       		.byte	4
 17625 0001 03       		.byte	3
 17626 0002 0904     		.short	1033
 17627              		.section	.rodata.main.str1.4,"aMS",%progbits,1
 17628              		.align	2
 17629              	.LC56:
 17630 0000 506C6561 		.ascii	"Please insert a FAT formatted SD card\000"
 17630      73652069 
 17630      6E736572 
 17630      74206120 
 17630      46415420 
 17631 0026 0000     		.space	2
 17632              	.LC57:
 17633 0028 4D534700 		.ascii	"MSG\000"
 17634              	.LC58:
 17635 002c 53657474 		.ascii	"Settings\000"
 17635      696E6773 
 17635      00
 17636 0035 000000   		.space	3
 17637              	.LC59:
 17638 0038 53617665 		.ascii	"Save\000"
 17638      00
 17639 003d 000000   		.space	3
 17640              	.LC60:
 17641 0040 4C6F6164 		.ascii	"Loading...\015\012\015\012%s\000"
 17641      696E672E 
 17641      2E2E0D0A 
 17641      0D0A2573 
 17641      00
 17642 0051 000000   		.space	3
 17643              	.LC61:
 17644 0054 4C4F4144 		.ascii	"LOAD\000"
 17644      00
 17645 0059 000000   		.space	3
 17646              	.LC62:
 17647 005c 57465200 		.ascii	"WFR\000"
 17648              	.LC63:
 17649 0060 436F6D6D 		.ascii	"Communicating with USB...\000"
 17649      756E6963 
 17649      6174696E 
 17649      67207769 
 17649      74682055 
 17650 007a 0000     		.space	2
 17651              	.LC64:
 17652 007c 4D4E5400 		.ascii	"MNT\000"
 17653              	.LC65:
 17654 0080 424C4F43 		.ascii	"BLOCKS FREE.\000"
 17654      4B532046 
 17654      5245452E 
ARM GAS  C:\Users\Jay\AppData\Local\Temp\ccjVRGue.s 			page 307


 17654      00
 17655 008d 000000   		.space	3
 17656              	.LC66:
 17657 0090 30302C20 		.ascii	"00, OK,00,00\015\000"
 17657      4F4B2C30 
 17657      302C3030 
 17657      0D00
 17658              		.section	.rodata.manuf_desc_en,"a",%progbits
 17659              		.align	2
 17662              	manuf_desc_en:
 17663 0000 08       		.byte	8
 17664 0001 03       		.byte	3
 17665 0002 4B005400 		.ascii	"K\000T\000H\000\000\000"
 17665      48000000 
 17666              		.section	.rodata.prod_desc_en,"a",%progbits
 17667              		.align	2
 17670              	prod_desc_en:
 17671 0000 1C       		.byte	28
 17672 0001 03       		.byte	3
 17673 0002 4B007500 		.ascii	"K\000u\000n\000g\000 \000F\000u\000 \000F\000l\000a"
 17673      6E006700 
 17673      20004600 
 17673      75002000 
 17673      46006C00 
 17674 0017 00730068 		.ascii	"\000s\000h\000\000\000"
 17674      000000
 17675              		.section	.rodata.sd_send_page.str1.4,"aMS",%progbits,1
 17676              		.align	2
 17677              	.LC22:
 17678 0000 20646972 		.ascii	" dir \000"
 17678      2000
 17679 0006 0000     		.space	2
 17680              	.LC24:
 17681 0008 25752563 		.ascii	"%u%c \000"
 17681      2000
 17682 000e 0000     		.space	2
 17683              	.LC23:
 17684 0010 424B6D67 		.ascii	"BKmg\000"
 17684      00
 17685              		.section	.rodata.settings_basic_change.str1.4,"aMS",%progbits,1
 17686              		.align	2
 17687              	.LC19:
 17688 0000 79657300 		.ascii	"yes\000"
 17689              	.LC20:
 17690 0004 6E6F00   		.ascii	"no\000"
 17691 0007 00       		.space	1
 17692              	.LC21:
 17693 0008 50657273 		.ascii	"Persist BASIC selection: %s\000"
 17693      69737420 
 17693      42415349 
 17693      43207365 
 17693      6C656374 
 17694              		.section	.rodata.settings_save.str1.4,"aMS",%progbits,1
 17695              		.align	2
 17696              	.LC55:
 17697 0000 53617669 		.ascii	"Saving settings.\000"
 17697      6E672073 
ARM GAS  C:\Users\Jay\AppData\Local\Temp\ccjVRGue.s 			page 308


 17697      65747469 
 17697      6E67732E 
 17697      00
 17698              		.section	.rodata.ss5_mode,"a",%progbits
 17699              		.align	2
 17700              		.set	.LANCHOR37,. + 0
 17703              	ss5_mode:
 17704 0000 16000000 		.word	22
 17705 0004 15000000 		.word	21
 17706 0008 1A000000 		.word	26
 17707 000c 19000000 		.word	25
 17708 0010 26000000 		.word	38
 17709 0014 25000000 		.word	37
 17710 0018 2A000000 		.word	42
 17711 001c 29000000 		.word	41
 17712              		.section	.rodata.str1.4,"aMS",%progbits,1
 17713              		.align	2
 17714              	.LC0:
 17715 0000 44415400 		.ascii	"DAT\000"
 17716              	.LC1:
 17717 0004 55504400 		.ascii	"UPD\000"
 17718              	.LC2:
 17719 0008 42494E00 		.ascii	"BIN\000"
 17720              	.LC3:
 17721 000c 524F4D00 		.ascii	"ROM\000"
 17722              	.LC4:
 17723 0010 44383100 		.ascii	"D81\000"
 17724              	.LC5:
 17725 0014 44373100 		.ascii	"D71\000"
 17726              	.LC6:
 17727 0018 44363400 		.ascii	"D64\000"
 17728              	.LC7:
 17729 001c 43525400 		.ascii	"CRT\000"
 17730              	.LC8:
 17731 0020 50303000 		.ascii	"P00\000"
 17732              	.LC9:
 17733 0024 50524700 		.ascii	"PRG\000"
 17734              	.LC67:
 17735 0028 4D6F756E 		.ascii	"Mount\000"
 17735      7400
 17736 002e 0000     		.space	2
 17737              	.LC68:
 17738 0030 4C6F6164 		.ascii	"Load\000"
 17738      00
 17739 0035 000000   		.space	3
 17740              	.LC69:
 17741 0038 4F70656E 		.ascii	"Open\000"
 17741      00
 17742 003d 000000   		.space	3
 17743              	.LC70:
 17744 0040 52756E00 		.ascii	"Run\000"
 17745              	.LC71:
 17746 0044 4D6F756E 		.ascii	"Mount and load\000"
 17746      7420616E 
 17746      64206C6F 
 17746      616400
 17747 0053 00       		.space	1
ARM GAS  C:\Users\Jay\AppData\Local\Temp\ccjVRGue.s 			page 309


 17748              	.LC72:
 17749 0054 44697265 		.ascii	"Directory Options\000"
 17749      63746F72 
 17749      79204F70 
 17749      74696F6E 
 17749      7300
 17750 0066 0000     		.space	2
 17751              	.LC73:
 17752 0068 44454C00 		.ascii	"DEL\000"
 17753              	.LC74:
 17754 006c 53455100 		.ascii	"SEQ\000"
 17755              	.LC75:
 17756 0070 55535200 		.ascii	"USR\000"
 17757              	.LC76:
 17758 0074 52454C00 		.ascii	"REL\000"
 17759              	.LC77:
 17760 0078 43424D00 		.ascii	"CBM\000"
 17761              	.LC78:
 17762 007c 3F3F3F00 		.ascii	"???\000"
 17763              		.section	.rodata.system_restart.str1.4,"aMS",%progbits,1
 17764              		.align	2
 17765              	.LC14:
 17766 0000 00       		.ascii	"\000"
 17767              		.section	.rodata.usbd_otgfs,"a",%progbits
 17768              		.align	2
 17769              		.set	.LANCHOR48,. + 0
 17772              	usbd_otgfs:
 17773 0000 00000000 		.word	getinfo
 17774 0004 00000000 		.word	enable
 17775 0008 00000000 		.word	connect
 17776 000c 00000000 		.word	setaddr
 17777 0010 00000000 		.word	ep_config
 17778 0014 00000000 		.word	ep_deconfig
 17779 0018 00000000 		.word	ep_read
 17780 001c 00000000 		.word	ep_write
 17781 0020 00000000 		.word	ep_setstall
 17782 0024 00000000 		.word	ep_isstalled
 17783 0028 00000000 		.word	evt_poll
 17784 002c 00000000 		.word	get_frame
 17785 0030 00000000 		.word	get_serialno_desc
 17786              		.section	.sram,"aw",%progbits
 17787              		.align	2
 17790              	dat_buffer:
 17791 0000 00000000 		.space	65536
 17791      00000000 
 17791      00000000 
 17791      00000000 
 17791      00000000 
 17794              	scratch_buf:
 17795 10000 00000000 		.space	16384
 17795      00000000 
 17795      00000000 
 17795      00000000 
 17795      00000000 
 17796              		.ident	"GCC: (GNU Tools for STM32 7-2018-q2-update.20190328-1800) 7.3.1 20180622 (release) [ARM/em
ARM GAS  C:\Users\Jay\AppData\Local\Temp\ccjVRGue.s 			page 310


DEFINED SYMBOLS
                            *ABS*:0000000000000000 main.c
C:\Users\Jay\AppData\Local\Temp\ccjVRGue.s:16     .text.c64_data_write:0000000000000000 $t
C:\Users\Jay\AppData\Local\Temp\ccjVRGue.s:23     .text.c64_data_write:0000000000000000 c64_data_write
C:\Users\Jay\AppData\Local\Temp\ccjVRGue.s:86     .text.c64_data_write:00000000000000a4 $d
C:\Users\Jay\AppData\Local\Temp\ccjVRGue.s:92     .text.sdio_cmd_send:0000000000000000 $t
C:\Users\Jay\AppData\Local\Temp\ccjVRGue.s:99     .text.sdio_cmd_send:0000000000000000 sdio_cmd_send
C:\Users\Jay\AppData\Local\Temp\ccjVRGue.s:185    .text.sdio_cmd_send:000000000000009c $d
C:\Users\Jay\AppData\Local\Temp\ccjVRGue.s:190    .text.usbd_set_address:0000000000000000 $t
C:\Users\Jay\AppData\Local\Temp\ccjVRGue.s:197    .text.usbd_set_address:0000000000000000 usbd_set_address
C:\Users\Jay\AppData\Local\Temp\ccjVRGue.s:216    .text.usbd_process_evt:0000000000000000 $t
C:\Users\Jay\AppData\Local\Temp\ccjVRGue.s:223    .text.usbd_process_evt:0000000000000000 usbd_process_evt
C:\Users\Jay\AppData\Local\Temp\ccjVRGue.s:273    .text.usbd_process_evt:0000000000000060 $d
C:\Users\Jay\AppData\Local\Temp\ccjVRGue.s:2638   .text.usbd_process_ep0:0000000000000000 usbd_process_ep0
C:\Users\Jay\AppData\Local\Temp\ccjVRGue.s:276    .text.setaddr:0000000000000000 $t
C:\Users\Jay\AppData\Local\Temp\ccjVRGue.s:284    .text.setaddr:0000000000000000 setaddr
C:\Users\Jay\AppData\Local\Temp\ccjVRGue.s:297    .text.setaddr:0000000000000010 $d
C:\Users\Jay\AppData\Local\Temp\ccjVRGue.s:300    .text.set_tx_fifo:0000000000000000 $t
C:\Users\Jay\AppData\Local\Temp\ccjVRGue.s:307    .text.set_tx_fifo:0000000000000000 set_tx_fifo
C:\Users\Jay\AppData\Local\Temp\ccjVRGue.s:356    .text.set_tx_fifo:000000000000005c $d
C:\Users\Jay\AppData\Local\Temp\ccjVRGue.s:360    .text.ep_deconfig:0000000000000000 $t
C:\Users\Jay\AppData\Local\Temp\ccjVRGue.s:368    .text.ep_deconfig:0000000000000000 ep_deconfig
C:\Users\Jay\AppData\Local\Temp\ccjVRGue.s:446    .text.ep_deconfig:00000000000000ac $d
C:\Users\Jay\AppData\Local\Temp\ccjVRGue.s:453    .text.ep_read:0000000000000000 $t
C:\Users\Jay\AppData\Local\Temp\ccjVRGue.s:461    .text.ep_read:0000000000000000 ep_read
C:\Users\Jay\AppData\Local\Temp\ccjVRGue.s:519    .text.ep_read:0000000000000068 $d
C:\Users\Jay\AppData\Local\Temp\ccjVRGue.s:523    .text.ep_write:0000000000000000 $t
C:\Users\Jay\AppData\Local\Temp\ccjVRGue.s:531    .text.ep_write:0000000000000000 ep_write
C:\Users\Jay\AppData\Local\Temp\ccjVRGue.s:577    .text.ep_write:0000000000000064 $d
C:\Users\Jay\AppData\Local\Temp\ccjVRGue.s:582    .text.get_frame:0000000000000000 $t
C:\Users\Jay\AppData\Local\Temp\ccjVRGue.s:590    .text.get_frame:0000000000000000 get_frame
C:\Users\Jay\AppData\Local\Temp\ccjVRGue.s:601    .text.get_frame:000000000000000c $d
C:\Users\Jay\AppData\Local\Temp\ccjVRGue.s:604    .text.evt_poll:0000000000000000 $t
C:\Users\Jay\AppData\Local\Temp\ccjVRGue.s:612    .text.evt_poll:0000000000000000 evt_poll
C:\Users\Jay\AppData\Local\Temp\ccjVRGue.s:641    .text.evt_poll:000000000000003c $d
C:\Users\Jay\AppData\Local\Temp\ccjVRGue.s:761    .text.evt_poll:0000000000000128 $d
C:\Users\Jay\AppData\Local\Temp\ccjVRGue.s:768    .text.get_serialno_desc:0000000000000000 $t
C:\Users\Jay\AppData\Local\Temp\ccjVRGue.s:776    .text.get_serialno_desc:0000000000000000 get_serialno_desc
C:\Users\Jay\AppData\Local\Temp\ccjVRGue.s:838    .text.get_serialno_desc:0000000000000080 $d
C:\Users\Jay\AppData\Local\Temp\ccjVRGue.s:845    .text.cdc_getdesc:0000000000000000 $t
C:\Users\Jay\AppData\Local\Temp\ccjVRGue.s:852    .text.cdc_getdesc:0000000000000000 cdc_getdesc
C:\Users\Jay\AppData\Local\Temp\ccjVRGue.s:893    .text.cdc_getdesc:0000000000000040 $d
C:\Users\Jay\AppData\Local\Temp\ccjVRGue.s:898    .text.flash_sector_program:0000000000000000 $t
C:\Users\Jay\AppData\Local\Temp\ccjVRGue.s:905    .text.flash_sector_program:0000000000000000 flash_sector_program
C:\Users\Jay\AppData\Local\Temp\ccjVRGue.s:989    .text.flash_sector_program:0000000000000088 $d
C:\Users\Jay\AppData\Local\Temp\ccjVRGue.s:995    .text.buf_putchar:0000000000000000 $t
C:\Users\Jay\AppData\Local\Temp\ccjVRGue.s:1002   .text.buf_putchar:0000000000000000 buf_putchar
C:\Users\Jay\AppData\Local\Temp\ccjVRGue.s:1019   .text.buf_putchar:0000000000000018 $d
C:\Users\Jay\AppData\Local\Temp\ccjVRGue.s:1023   .text.d64_image_type:0000000000000000 $t
C:\Users\Jay\AppData\Local\Temp\ccjVRGue.s:1030   .text.d64_image_type:0000000000000000 d64_image_type
C:\Users\Jay\AppData\Local\Temp\ccjVRGue.s:1084   .text.d64_image_type:0000000000000058 $d
C:\Users\Jay\AppData\Local\Temp\ccjVRGue.s:1093   .text.get_file_type:0000000000000000 $t
C:\Users\Jay\AppData\Local\Temp\ccjVRGue.s:1100   .text.get_file_type:0000000000000000 get_file_type
C:\Users\Jay\AppData\Local\Temp\ccjVRGue.s:1381   .text.get_file_type:0000000000000230 $d
C:\Users\Jay\AppData\Local\Temp\ccjVRGue.s:1393   .text.ar4x_init:0000000000000000 $t
C:\Users\Jay\AppData\Local\Temp\ccjVRGue.s:1400   .text.ar4x_init:0000000000000000 ar4x_init
C:\Users\Jay\AppData\Local\Temp\ccjVRGue.s:1417   .text.ar4x_init:0000000000000014 $d
ARM GAS  C:\Users\Jay\AppData\Local\Temp\ccjVRGue.s 			page 311


C:\Users\Jay\AppData\Local\Temp\ccjVRGue.s:1423   .text.fc3_init:0000000000000000 $t
C:\Users\Jay\AppData\Local\Temp\ccjVRGue.s:1430   .text.fc3_init:0000000000000000 fc3_init
C:\Users\Jay\AppData\Local\Temp\ccjVRGue.s:1451   .text.fc3_init:0000000000000024 $d
C:\Users\Jay\AppData\Local\Temp\ccjVRGue.s:1456   .text.epyx_init:0000000000000000 $t
C:\Users\Jay\AppData\Local\Temp\ccjVRGue.s:1463   .text.epyx_init:0000000000000000 epyx_init
C:\Users\Jay\AppData\Local\Temp\ccjVRGue.s:1476   .text.epyx_init:000000000000000c $d
C:\Users\Jay\AppData\Local\Temp\ccjVRGue.s:1480   .text.zaxxon_init:0000000000000000 $t
C:\Users\Jay\AppData\Local\Temp\ccjVRGue.s:1487   .text.zaxxon_init:0000000000000000 zaxxon_init
C:\Users\Jay\AppData\Local\Temp\ccjVRGue.s:1505   .text.zaxxon_init:000000000000001c $d
C:\Users\Jay\AppData\Local\Temp\ccjVRGue.s:17790  .sram:0000000000000000 dat_buffer
C:\Users\Jay\AppData\Local\Temp\ccjVRGue.s:1510   .text.magic_desk_init:0000000000000000 $t
C:\Users\Jay\AppData\Local\Temp\ccjVRGue.s:1517   .text.magic_desk_init:0000000000000000 magic_desk_init
C:\Users\Jay\AppData\Local\Temp\ccjVRGue.s:1524   .text.ss5_init:0000000000000000 $t
C:\Users\Jay\AppData\Local\Temp\ccjVRGue.s:1531   .text.ss5_init:0000000000000000 ss5_init
C:\Users\Jay\AppData\Local\Temp\ccjVRGue.s:1552   .text.ss5_init:000000000000001c $d
C:\Users\Jay\AppData\Local\Temp\ccjVRGue.s:16862  .bss.crt_ram_buf:0000000000000000 crt_ram_buf
C:\Users\Jay\AppData\Local\Temp\ccjVRGue.s:1560   .text.ef_init:0000000000000000 $t
C:\Users\Jay\AppData\Local\Temp\ccjVRGue.s:1567   .text.ef_init:0000000000000000 ef_init
C:\Users\Jay\AppData\Local\Temp\ccjVRGue.s:1580   .text.ef_init:000000000000000c $d
C:\Users\Jay\AppData\Local\Temp\ccjVRGue.s:1584   .text.comal80_init:0000000000000000 $t
C:\Users\Jay\AppData\Local\Temp\ccjVRGue.s:1591   .text.comal80_init:0000000000000000 comal80_init
C:\Users\Jay\AppData\Local\Temp\ccjVRGue.s:1604   .text.comal80_init:0000000000000010 $d
C:\Users\Jay\AppData\Local\Temp\ccjVRGue.s:1607   .text.c64_send_exit_menu:0000000000000000 $t
C:\Users\Jay\AppData\Local\Temp\ccjVRGue.s:1614   .text.c64_send_exit_menu:0000000000000000 c64_send_exit_menu
C:\Users\Jay\AppData\Local\Temp\ccjVRGue.s:1650   .text.c64_send_exit_menu:0000000000000038 $d
C:\Users\Jay\AppData\Local\Temp\ccjVRGue.s:1656   .text.options_dir_up:0000000000000000 $t
C:\Users\Jay\AppData\Local\Temp\ccjVRGue.s:1663   .text.options_dir_up:0000000000000000 options_dir_up
C:\Users\Jay\AppData\Local\Temp\ccjVRGue.s:1680   .text.options_dir_up:0000000000000014 $d
C:\Users\Jay\AppData\Local\Temp\ccjVRGue.s:1683   .text.options_prev_select:0000000000000000 $t
C:\Users\Jay\AppData\Local\Temp\ccjVRGue.s:1690   .text.options_prev_select:0000000000000000 options_prev_select
C:\Users\Jay\AppData\Local\Temp\ccjVRGue.s:1710   .text.options_prev_select:0000000000000020 $d
C:\Users\Jay\AppData\Local\Temp\ccjVRGue.s:1713   .text.options_prev_dir:0000000000000000 $t
C:\Users\Jay\AppData\Local\Temp\ccjVRGue.s:1720   .text.options_prev_dir:0000000000000000 options_prev_dir
C:\Users\Jay\AppData\Local\Temp\ccjVRGue.s:1735   .text.options_prev_dir:0000000000000014 $d
C:\Users\Jay\AppData\Local\Temp\ccjVRGue.s:1738   .text.reply_page_end:0000000000000000 $t
C:\Users\Jay\AppData\Local\Temp\ccjVRGue.s:1745   .text.reply_page_end:0000000000000000 reply_page_end
C:\Users\Jay\AppData\Local\Temp\ccjVRGue.s:1783   .text.reply_page_end:0000000000000040 $d
C:\Users\Jay\AppData\Local\Temp\ccjVRGue.s:17794  .sram:0000000000010000 scratch_buf
C:\Users\Jay\AppData\Local\Temp\ccjVRGue.s:1788   .text.options_prev_next_page:0000000000000000 $t
C:\Users\Jay\AppData\Local\Temp\ccjVRGue.s:1795   .text.options_prev_next_page:0000000000000000 options_prev_next_page
C:\Users\Jay\AppData\Local\Temp\ccjVRGue.s:1802   .text.disk_filename_match:0000000000000000 $t
C:\Users\Jay\AppData\Local\Temp\ccjVRGue.s:1809   .text.disk_filename_match:0000000000000000 disk_filename_match
C:\Users\Jay\AppData\Local\Temp\ccjVRGue.s:1846   .text.disk_parse_filename:0000000000000000 $t
C:\Users\Jay\AppData\Local\Temp\ccjVRGue.s:1853   .text.disk_parse_filename:0000000000000000 disk_parse_filename
C:\Users\Jay\AppData\Local\Temp\ccjVRGue.s:1941   .text.disk_send_prg:0000000000000000 $t
C:\Users\Jay\AppData\Local\Temp\ccjVRGue.s:1948   .text.disk_send_prg:0000000000000000 disk_send_prg
C:\Users\Jay\AppData\Local\Temp\ccjVRGue.s:1983   .text.disk_send_prg:0000000000000038 $d
C:\Users\Jay\AppData\Local\Temp\ccjVRGue.s:1987   .text.disk_send_prg_bank:0000000000000000 $t
C:\Users\Jay\AppData\Local\Temp\ccjVRGue.s:1994   .text.disk_send_prg_bank:0000000000000000 disk_send_prg_bank
C:\Users\Jay\AppData\Local\Temp\ccjVRGue.s:2030   .text.disk_send_prg_bank:0000000000000038 $d
C:\Users\Jay\AppData\Local\Temp\ccjVRGue.s:2034   .text.c64_send_command:0000000000000000 $t
C:\Users\Jay\AppData\Local\Temp\ccjVRGue.s:2041   .text.c64_send_command:0000000000000000 c64_send_command
C:\Users\Jay\AppData\Local\Temp\ccjVRGue.s:2100   .text.c64_send_command:0000000000000070 $d
C:\Users\Jay\AppData\Local\Temp\ccjVRGue.s:2107   .text.c64_receive_command:0000000000000000 $t
C:\Users\Jay\AppData\Local\Temp\ccjVRGue.s:2114   .text.c64_receive_command:0000000000000000 c64_receive_command
C:\Users\Jay\AppData\Local\Temp\ccjVRGue.s:2148   .text.c64_receive_command:000000000000003c $d
C:\Users\Jay\AppData\Local\Temp\ccjVRGue.s:2153   .text.prg_load_file:0000000000000000 $t
ARM GAS  C:\Users\Jay\AppData\Local\Temp\ccjVRGue.s 			page 312


C:\Users\Jay\AppData\Local\Temp\ccjVRGue.s:2160   .text.prg_load_file:0000000000000000 prg_load_file
C:\Users\Jay\AppData\Local\Temp\ccjVRGue.s:2198   .text.prg_load_file:0000000000000048 $d
                            *COM*:0000000000000400 dat_file
C:\Users\Jay\AppData\Local\Temp\ccjVRGue.s:2203   .text.auto_boot:0000000000000000 $t
C:\Users\Jay\AppData\Local\Temp\ccjVRGue.s:2210   .text.auto_boot:0000000000000000 auto_boot
C:\Users\Jay\AppData\Local\Temp\ccjVRGue.s:2316   .text.auto_boot:00000000000000d8 $d
C:\Users\Jay\AppData\Local\Temp\ccjVRGue.s:2327   .text.d64_read_next_sector:0000000000000000 $t
C:\Users\Jay\AppData\Local\Temp\ccjVRGue.s:2334   .text.d64_read_next_sector:0000000000000000 d64_read_next_sector
C:\Users\Jay\AppData\Local\Temp\ccjVRGue.s:2413   .text.d64_read_next_sector:0000000000000090 $d
C:\Users\Jay\AppData\Local\Temp\ccjVRGue.s:2418   .text.d64_read_dir:0000000000000000 $t
C:\Users\Jay\AppData\Local\Temp\ccjVRGue.s:2425   .text.d64_read_dir:0000000000000000 d64_read_dir
C:\Users\Jay\AppData\Local\Temp\ccjVRGue.s:2482   .text.save_dat:0000000000000000 $t
C:\Users\Jay\AppData\Local\Temp\ccjVRGue.s:2489   .text.save_dat:0000000000000000 save_dat
C:\Users\Jay\AppData\Local\Temp\ccjVRGue.s:2555   .text.save_dat:0000000000000084 $d
C:\Users\Jay\AppData\Local\Temp\ccjVRGue.s:2561   .text.usbd_process_eptx:0000000000000000 $t
C:\Users\Jay\AppData\Local\Temp\ccjVRGue.s:2568   .text.usbd_process_eptx:0000000000000000 usbd_process_eptx
C:\Users\Jay\AppData\Local\Temp\ccjVRGue.s:2579   .text.usbd_process_eptx:0000000000000012 $d
C:\Users\Jay\AppData\Local\Temp\ccjVRGue.s:2583   .text.usbd_process_eptx:0000000000000016 $t
C:\Users\Jay\AppData\Local\Temp\ccjVRGue.s:2631   .text.usbd_process_ep0:0000000000000000 $t
C:\Users\Jay\AppData\Local\Temp\ccjVRGue.s:2842   .text.usbd_process_ep0:00000000000001c8 $d
C:\Users\Jay\AppData\Local\Temp\ccjVRGue.s:2852   .text.usbd_process_ep0:00000000000001f0 $t
C:\Users\Jay\AppData\Local\Temp\ccjVRGue.s:2963   .text.usbd_process_ep0:00000000000002cc $d
C:\Users\Jay\AppData\Local\Temp\ccjVRGue.s:2966   .text.getinfo:0000000000000000 $t
C:\Users\Jay\AppData\Local\Temp\ccjVRGue.s:2974   .text.getinfo:0000000000000000 getinfo
C:\Users\Jay\AppData\Local\Temp\ccjVRGue.s:2995   .text.getinfo:0000000000000020 $d
C:\Users\Jay\AppData\Local\Temp\ccjVRGue.s:2999   .text.ep_setstall:0000000000000000 $t
C:\Users\Jay\AppData\Local\Temp\ccjVRGue.s:3007   .text.ep_setstall:0000000000000000 ep_setstall
C:\Users\Jay\AppData\Local\Temp\ccjVRGue.s:3044   .text.ep_setstall:0000000000000044 $d
C:\Users\Jay\AppData\Local\Temp\ccjVRGue.s:3048   .text.ep_isstalled:0000000000000000 $t
C:\Users\Jay\AppData\Local\Temp\ccjVRGue.s:3056   .text.ep_isstalled:0000000000000000 ep_isstalled
C:\Users\Jay\AppData\Local\Temp\ccjVRGue.s:3077   .text.ep_isstalled:0000000000000020 $d
C:\Users\Jay\AppData\Local\Temp\ccjVRGue.s:3081   .text.enable:0000000000000000 $t
C:\Users\Jay\AppData\Local\Temp\ccjVRGue.s:3089   .text.enable:0000000000000000 enable
C:\Users\Jay\AppData\Local\Temp\ccjVRGue.s:3184   .text.enable:00000000000000ac $d
C:\Users\Jay\AppData\Local\Temp\ccjVRGue.s:3195   .text.connect:0000000000000000 $t
C:\Users\Jay\AppData\Local\Temp\ccjVRGue.s:3203   .text.connect:0000000000000000 connect
C:\Users\Jay\AppData\Local\Temp\ccjVRGue.s:3232   .text.connect:0000000000000034 $d
C:\Users\Jay\AppData\Local\Temp\ccjVRGue.s:3236   .text.ep_config:0000000000000000 $t
C:\Users\Jay\AppData\Local\Temp\ccjVRGue.s:3244   .text.ep_config:0000000000000000 ep_config
C:\Users\Jay\AppData\Local\Temp\ccjVRGue.s:3374   .text.ep_config:00000000000000fc $d
C:\Users\Jay\AppData\Local\Temp\ccjVRGue.s:3394   .text.cdc_control:0000000000000000 $t
C:\Users\Jay\AppData\Local\Temp\ccjVRGue.s:3401   .text.cdc_control:0000000000000000 cdc_control
C:\Users\Jay\AppData\Local\Temp\ccjVRGue.s:3451   .text.cdc_control:0000000000000054 $d
C:\Users\Jay\AppData\Local\Temp\ccjVRGue.s:3454   .text.cdc_setconf:0000000000000000 $t
C:\Users\Jay\AppData\Local\Temp\ccjVRGue.s:3461   .text.cdc_setconf:0000000000000000 cdc_setconf
C:\Users\Jay\AppData\Local\Temp\ccjVRGue.s:3520   .text.cdc_setconf:0000000000000068 $d
C:\Users\Jay\AppData\Local\Temp\ccjVRGue.s:4236   .text.cdc_rx_tx:0000000000000000 cdc_rx_tx
C:\Users\Jay\AppData\Local\Temp\ccjVRGue.s:3523   .text.c64_interface.part.23:0000000000000000 $t
C:\Users\Jay\AppData\Local\Temp\ccjVRGue.s:3530   .text.c64_interface.part.23:0000000000000000 c64_interface.part.23
C:\Users\Jay\AppData\Local\Temp\ccjVRGue.s:3585   .text.c64_interface.part.23:0000000000000064 $d
C:\Users\Jay\AppData\Local\Temp\ccjVRGue.s:3590   .text.c64_reset.part.24:0000000000000000 $t
C:\Users\Jay\AppData\Local\Temp\ccjVRGue.s:3597   .text.c64_reset.part.24:0000000000000000 c64_reset.part.24
C:\Users\Jay\AppData\Local\Temp\ccjVRGue.s:3620   .text.c64_reset.part.24:0000000000000020 $d
C:\Users\Jay\AppData\Local\Temp\ccjVRGue.s:3624   .text.system_restart:0000000000000000 $t
C:\Users\Jay\AppData\Local\Temp\ccjVRGue.s:3631   .text.system_restart:0000000000000000 system_restart
C:\Users\Jay\AppData\Local\Temp\ccjVRGue.s:3679   .text.system_restart:0000000000000040 $d
C:\Users\Jay\AppData\Local\Temp\ccjVRGue.s:3686   .text.restart_to_menu:0000000000000000 $t
ARM GAS  C:\Users\Jay\AppData\Local\Temp\ccjVRGue.s 			page 313


C:\Users\Jay\AppData\Local\Temp\ccjVRGue.s:3693   .text.restart_to_menu:0000000000000000 restart_to_menu
C:\Users\Jay\AppData\Local\Temp\ccjVRGue.s:3706   .text.restart_to_menu:0000000000000010 $d
C:\Users\Jay\AppData\Local\Temp\ccjVRGue.s:3710   .text.simons_basic_handler.part.37:0000000000000000 $t
C:\Users\Jay\AppData\Local\Temp\ccjVRGue.s:3717   .text.simons_basic_handler.part.37:0000000000000000 simons_basic_handler.part.37
C:\Users\Jay\AppData\Local\Temp\ccjVRGue.s:3745   .text.simons_basic_handler.part.37:0000000000000030 $d
C:\Users\Jay\AppData\Local\Temp\ccjVRGue.s:3717   .text.simons_basic_handler.part.37:0000000000000000 ef_launcher_handler.part.51
C:\Users\Jay\AppData\Local\Temp\ccjVRGue.s:3717   .text.simons_basic_handler.part.37:0000000000000000 zaxxon_handler.part.44
C:\Users\Jay\AppData\Local\Temp\ccjVRGue.s:3717   .text.simons_basic_handler.part.37:0000000000000000 dinamic_handler.part.42
C:\Users\Jay\AppData\Local\Temp\ccjVRGue.s:3717   .text.simons_basic_handler.part.37:0000000000000000 c64gs_handler.part.40
C:\Users\Jay\AppData\Local\Temp\ccjVRGue.s:3717   .text.simons_basic_handler.part.37:0000000000000000 epyx_handler.part.38
C:\Users\Jay\AppData\Local\Temp\ccjVRGue.s:3757   .text.to_petscii_pad:0000000000000000 $t
C:\Users\Jay\AppData\Local\Temp\ccjVRGue.s:3764   .text.to_petscii_pad:0000000000000000 to_petscii_pad
C:\Users\Jay\AppData\Local\Temp\ccjVRGue.s:3813   .text.options_add_text_element:0000000000000000 $t
C:\Users\Jay\AppData\Local\Temp\ccjVRGue.s:3820   .text.options_add_text_element:0000000000000000 options_add_text_element
C:\Users\Jay\AppData\Local\Temp\ccjVRGue.s:3871   .text.options_add_text_element:000000000000005c $d
C:\Users\Jay\AppData\Local\Temp\ccjVRGue.s:3874   .text.options_add_text_block:0000000000000000 $t
C:\Users\Jay\AppData\Local\Temp\ccjVRGue.s:3881   .text.options_add_text_block:0000000000000000 options_add_text_block
C:\Users\Jay\AppData\Local\Temp\ccjVRGue.s:3923   .text.options_add_text_block:0000000000000058 $d
C:\Users\Jay\AppData\Local\Temp\ccjVRGue.s:3927   .text.build_options:0000000000000000 $t
C:\Users\Jay\AppData\Local\Temp\ccjVRGue.s:3934   .text.build_options:0000000000000000 build_options
C:\Users\Jay\AppData\Local\Temp\ccjVRGue.s:3972   .text.build_options:0000000000000044 $d
C:\Users\Jay\AppData\Local\Temp\ccjVRGue.s:4096   .text.options_dir:0000000000000000 options_dir
C:\Users\Jay\AppData\Local\Temp\ccjVRGue.s:4199   .text.options_select:0000000000000000 options_select
C:\Users\Jay\AppData\Local\Temp\ccjVRGue.s:3981   .text.handle_file_options:0000000000000000 $t
C:\Users\Jay\AppData\Local\Temp\ccjVRGue.s:3988   .text.handle_file_options:0000000000000000 handle_file_options
C:\Users\Jay\AppData\Local\Temp\ccjVRGue.s:4044   .text.handle_file_options:0000000000000084 $d
C:\Users\Jay\AppData\Local\Temp\ccjVRGue.s:4055   .text.handle_unsupported_ex:0000000000000000 $t
C:\Users\Jay\AppData\Local\Temp\ccjVRGue.s:4062   .text.handle_unsupported_ex:0000000000000000 handle_unsupported_ex
C:\Users\Jay\AppData\Local\Temp\ccjVRGue.s:4084   .text.handle_unsupported_ex:0000000000000028 $d
C:\Users\Jay\AppData\Local\Temp\ccjVRGue.s:4089   .text.options_dir:0000000000000000 $t
C:\Users\Jay\AppData\Local\Temp\ccjVRGue.s:4186   .text.options_dir:00000000000000b8 $d
C:\Users\Jay\AppData\Local\Temp\ccjVRGue.s:4192   .text.options_select:0000000000000000 $t
C:\Users\Jay\AppData\Local\Temp\ccjVRGue.s:4226   .text.options_select:0000000000000034 $d
C:\Users\Jay\AppData\Local\Temp\ccjVRGue.s:4229   .text.cdc_rx_tx:0000000000000000 $t
C:\Users\Jay\AppData\Local\Temp\ccjVRGue.s:4299   .text.cdc_rx_tx:0000000000000070 $d
C:\Users\Jay\AppData\Local\Temp\ccjVRGue.s:4306   .text.chdir_last.part.66:0000000000000000 $t
C:\Users\Jay\AppData\Local\Temp\ccjVRGue.s:4313   .text.chdir_last.part.66:0000000000000000 chdir_last.part.66
C:\Users\Jay\AppData\Local\Temp\ccjVRGue.s:4336   .text.chdir_last.part.66:0000000000000028 $d
C:\Users\Jay\AppData\Local\Temp\ccjVRGue.s:4341   .text.d64_dir_up:0000000000000000 $t
C:\Users\Jay\AppData\Local\Temp\ccjVRGue.s:4348   .text.d64_dir_up:0000000000000000 d64_dir_up
C:\Users\Jay\AppData\Local\Temp\ccjVRGue.s:4377   .text.d64_dir_up:0000000000000038 $d
C:\Users\Jay\AppData\Local\Temp\ccjVRGue.s:4384   .text.d64_read_file_sector:0000000000000000 $t
C:\Users\Jay\AppData\Local\Temp\ccjVRGue.s:4391   .text.d64_read_file_sector:0000000000000000 d64_read_file_sector
C:\Users\Jay\AppData\Local\Temp\ccjVRGue.s:4418   .text.d64_read_disk_header:0000000000000000 $t
C:\Users\Jay\AppData\Local\Temp\ccjVRGue.s:4425   .text.d64_read_disk_header:0000000000000000 d64_read_disk_header
C:\Users\Jay\AppData\Local\Temp\ccjVRGue.s:4470   .text.disk_find_file.constprop.81:0000000000000000 $t
C:\Users\Jay\AppData\Local\Temp\ccjVRGue.s:4477   .text.disk_find_file.constprop.81:0000000000000000 disk_find_file.constprop.81
C:\Users\Jay\AppData\Local\Temp\ccjVRGue.s:4515   .text.disk_find_file.constprop.81:0000000000000050 $d
C:\Users\Jay\AppData\Local\Temp\ccjVRGue.s:4519   .text.format_path.constprop.88:0000000000000000 $t
C:\Users\Jay\AppData\Local\Temp\ccjVRGue.s:4526   .text.format_path.constprop.88:0000000000000000 format_path.constprop.88
C:\Users\Jay\AppData\Local\Temp\ccjVRGue.s:4640   .text.format_path.constprop.88:00000000000000e0 $d
C:\Users\Jay\AppData\Local\Temp\ccjVRGue.s:4647   .text.d64_open.constprop.89:0000000000000000 $t
C:\Users\Jay\AppData\Local\Temp\ccjVRGue.s:4654   .text.d64_open.constprop.89:0000000000000000 d64_open.constprop.89
C:\Users\Jay\AppData\Local\Temp\ccjVRGue.s:4697   .text.d64_open.constprop.89:0000000000000064 $d
C:\Users\Jay\AppData\Local\Temp\ccjVRGue.s:4702   .text.printhex.constprop.94:0000000000000000 $t
C:\Users\Jay\AppData\Local\Temp\ccjVRGue.s:4709   .text.printhex.constprop.94:0000000000000000 printhex.constprop.94
C:\Users\Jay\AppData\Local\Temp\ccjVRGue.s:4760   .text.printhex.constprop.94:0000000000000064 $d
ARM GAS  C:\Users\Jay\AppData\Local\Temp\ccjVRGue.s 			page 314


C:\Users\Jay\AppData\Local\Temp\ccjVRGue.s:4763   .text.printint.part.25.constprop.95:0000000000000000 $t
C:\Users\Jay\AppData\Local\Temp\ccjVRGue.s:4770   .text.printint.part.25.constprop.95:0000000000000000 printint.part.25.constprop.95
C:\Users\Jay\AppData\Local\Temp\ccjVRGue.s:4805   .text.printint.part.25.constprop.95:0000000000000044 $d
C:\Users\Jay\AppData\Local\Temp\ccjVRGue.s:4809   .text.sprint:0000000000000000 $t
C:\Users\Jay\AppData\Local\Temp\ccjVRGue.s:4816   .text.sprint:0000000000000000 sprint
C:\Users\Jay\AppData\Local\Temp\ccjVRGue.s:4844   .text.sprint:000000000000003a $d
C:\Users\Jay\AppData\Local\Temp\ccjVRGue.s:5063   .text.sprint:00000000000001e8 $d
C:\Users\Jay\AppData\Local\Temp\ccjVRGue.s:5067   .text.settings_basic_change:0000000000000000 $t
C:\Users\Jay\AppData\Local\Temp\ccjVRGue.s:5074   .text.settings_basic_change:0000000000000000 settings_basic_change
C:\Users\Jay\AppData\Local\Temp\ccjVRGue.s:5111   .text.settings_basic_change:0000000000000044 $d
C:\Users\Jay\AppData\Local\Temp\ccjVRGue.s:5119   .text.sd_send_page:0000000000000000 $t
C:\Users\Jay\AppData\Local\Temp\ccjVRGue.s:5126   .text.sd_send_page:0000000000000000 sd_send_page
C:\Users\Jay\AppData\Local\Temp\ccjVRGue.s:5291   .text.sd_send_page:0000000000000158 $d
C:\Users\Jay\AppData\Local\Temp\ccjVRGue.s:5304   .text.handle_dir_next_page_command:0000000000000000 $t
C:\Users\Jay\AppData\Local\Temp\ccjVRGue.s:5311   .text.handle_dir_next_page_command:0000000000000000 handle_dir_next_page_command
C:\Users\Jay\AppData\Local\Temp\ccjVRGue.s:5383   .text.handle_dir_next_page_command:0000000000000090 $d
C:\Users\Jay\AppData\Local\Temp\ccjVRGue.s:5388   .text.d64_send_page:0000000000000000 $t
C:\Users\Jay\AppData\Local\Temp\ccjVRGue.s:5395   .text.d64_send_page:0000000000000000 d64_send_page
C:\Users\Jay\AppData\Local\Temp\ccjVRGue.s:5622   .text.d64_send_page:0000000000000200 $d
C:\Users\Jay\AppData\Local\Temp\ccjVRGue.s:5635   .text.d64_next_page:0000000000000000 $t
C:\Users\Jay\AppData\Local\Temp\ccjVRGue.s:5642   .text.d64_next_page:0000000000000000 d64_next_page
C:\Users\Jay\AppData\Local\Temp\ccjVRGue.s:5690   .text.d64_next_page:0000000000000060 $d
C:\Users\Jay\AppData\Local\Temp\ccjVRGue.s:5695   .text.sdio_check_tran.constprop.96:0000000000000000 $t
C:\Users\Jay\AppData\Local\Temp\ccjVRGue.s:5702   .text.sdio_check_tran.constprop.96:0000000000000000 sdio_check_tran.constprop.96
C:\Users\Jay\AppData\Local\Temp\ccjVRGue.s:5741   .text.sdio_check_tran.constprop.96:0000000000000040 $d
C:\Users\Jay\AppData\Local\Temp\ccjVRGue.s:5746   .text.c64_send_text:0000000000000000 $t
C:\Users\Jay\AppData\Local\Temp\ccjVRGue.s:5753   .text.c64_send_text:0000000000000000 c64_send_text
C:\Users\Jay\AppData\Local\Temp\ccjVRGue.s:5864   .text.c64_send_text:00000000000000d8 $d
C:\Users\Jay\AppData\Local\Temp\ccjVRGue.s:5873   .text.handle_failed_to_read_sd:0000000000000000 $t
C:\Users\Jay\AppData\Local\Temp\ccjVRGue.s:5880   .text.handle_failed_to_read_sd:0000000000000000 handle_failed_to_read_sd
C:\Users\Jay\AppData\Local\Temp\ccjVRGue.s:5893   .text.handle_failed_to_read_sd:0000000000000014 $d
C:\Users\Jay\AppData\Local\Temp\ccjVRGue.s:5897   .text.handle_file_open:0000000000000000 $t
C:\Users\Jay\AppData\Local\Temp\ccjVRGue.s:5904   .text.handle_file_open:0000000000000000 handle_file_open
C:\Users\Jay\AppData\Local\Temp\ccjVRGue.s:5920   .text.handle_file_open:0000000000000018 $d
C:\Users\Jay\AppData\Local\Temp\ccjVRGue.s:5923   .text.d64_menu_init:0000000000000000 $t
C:\Users\Jay\AppData\Local\Temp\ccjVRGue.s:5930   .text.d64_menu_init:0000000000000000 d64_menu_init
C:\Users\Jay\AppData\Local\Temp\ccjVRGue.s:5957   .text.d64_menu_init:000000000000002c $d
C:\Users\Jay\AppData\Local\Temp\ccjVRGue.s:6084   .text.d64_dir:0000000000000000 d64_dir
C:\Users\Jay\AppData\Local\Temp\ccjVRGue.s:6018   .text.d64_prev_page:0000000000000000 d64_prev_page
C:\Users\Jay\AppData\Local\Temp\ccjVRGue.s:6170   .text.d64_select:0000000000000000 d64_select
C:\Users\Jay\AppData\Local\Temp\ccjVRGue.s:5965   .text.d64_skip_to_page:0000000000000000 $t
C:\Users\Jay\AppData\Local\Temp\ccjVRGue.s:5972   .text.d64_skip_to_page:0000000000000000 d64_skip_to_page
C:\Users\Jay\AppData\Local\Temp\ccjVRGue.s:6011   .text.d64_prev_page:0000000000000000 $t
C:\Users\Jay\AppData\Local\Temp\ccjVRGue.s:6072   .text.d64_prev_page:000000000000006c $d
C:\Users\Jay\AppData\Local\Temp\ccjVRGue.s:6077   .text.d64_dir:0000000000000000 $t
C:\Users\Jay\AppData\Local\Temp\ccjVRGue.s:6156   .text.d64_dir:00000000000000a4 $d
C:\Users\Jay\AppData\Local\Temp\ccjVRGue.s:6163   .text.d64_select:0000000000000000 $t
C:\Users\Jay\AppData\Local\Temp\ccjVRGue.s:6426   .text.d64_select:0000000000000228 $d
C:\Users\Jay\AppData\Local\Temp\ccjVRGue.s:6441   .text.handle_dir_open:0000000000000000 $t
C:\Users\Jay\AppData\Local\Temp\ccjVRGue.s:6448   .text.handle_dir_open:0000000000000000 handle_dir_open
C:\Users\Jay\AppData\Local\Temp\ccjVRGue.s:6477   .text.handle_dir_open:000000000000003c $d
C:\Users\Jay\AppData\Local\Temp\ccjVRGue.s:6481   .text.handle_dir_prev_page_command:0000000000000000 $t
C:\Users\Jay\AppData\Local\Temp\ccjVRGue.s:6488   .text.handle_dir_prev_page_command:0000000000000000 handle_dir_prev_page_command
C:\Users\Jay\AppData\Local\Temp\ccjVRGue.s:6579   .text.handle_dir_prev_page_command:00000000000000c0 $d
C:\Users\Jay\AppData\Local\Temp\ccjVRGue.s:6584   .text.handle_dir_command:0000000000000000 $t
C:\Users\Jay\AppData\Local\Temp\ccjVRGue.s:6591   .text.handle_dir_command:0000000000000000 handle_dir_command
C:\Users\Jay\AppData\Local\Temp\ccjVRGue.s:6748   .text.handle_dir_command:0000000000000180 $d
ARM GAS  C:\Users\Jay\AppData\Local\Temp\ccjVRGue.s 			page 315


C:\Users\Jay\AppData\Local\Temp\ccjVRGue.s:6757   .text.handle_change_dir:0000000000000000 $t
C:\Users\Jay\AppData\Local\Temp\ccjVRGue.s:6764   .text.handle_change_dir:0000000000000000 handle_change_dir
C:\Users\Jay\AppData\Local\Temp\ccjVRGue.s:6819   .text.handle_change_dir:0000000000000070 $d
C:\Users\Jay\AppData\Local\Temp\ccjVRGue.s:6825   .text.handle_dir_up_command:0000000000000000 $t
C:\Users\Jay\AppData\Local\Temp\ccjVRGue.s:6832   .text.handle_dir_up_command:0000000000000000 handle_dir_up_command
C:\Users\Jay\AppData\Local\Temp\ccjVRGue.s:6847   .text.handle_dir_up_command:0000000000000014 $d
C:\Users\Jay\AppData\Local\Temp\ccjVRGue.s:6851   .text.handle_select_command:0000000000000000 $t
C:\Users\Jay\AppData\Local\Temp\ccjVRGue.s:6858   .text.handle_select_command:0000000000000000 handle_select_command
C:\Users\Jay\AppData\Local\Temp\ccjVRGue.s:7145   .text.handle_select_command:00000000000002ac $d
C:\Users\Jay\AppData\Local\Temp\ccjVRGue.s:7160   .text.handle_select_command:00000000000002e4 $t
C:\Users\Jay\AppData\Local\Temp\ccjVRGue.s:7508   .text.handle_select_command:00000000000005ec $d
C:\Users\Jay\AppData\Local\Temp\ccjVRGue.s:7538   .text.handle_select_command:0000000000000660 $t
C:\Users\Jay\AppData\Local\Temp\ccjVRGue.s:7598   .text.handle_select_command:00000000000006f0 $d
C:\Users\Jay\AppData\Local\Temp\ccjVRGue.s:7606   .text.settings_save:0000000000000000 $t
C:\Users\Jay\AppData\Local\Temp\ccjVRGue.s:7613   .text.settings_save:0000000000000000 settings_save
C:\Users\Jay\AppData\Local\Temp\ccjVRGue.s:7637   .text.settings_save:000000000000002c $d
C:\Users\Jay\AppData\Local\Temp\ccjVRGue.s:7644   .text.kcs_init:0000000000000000 $t
C:\Users\Jay\AppData\Local\Temp\ccjVRGue.s:7651   .text.kcs_init:0000000000000000 kcs_init
C:\Users\Jay\AppData\Local\Temp\ccjVRGue.s:7672   .text.kcs_init:0000000000000020 $d
C:\Users\Jay\AppData\Local\Temp\ccjVRGue.s:7678   .text.crt_handler:0000000000000000 $t
C:\Users\Jay\AppData\Local\Temp\ccjVRGue.s:7686   .text.crt_handler:0000000000000000 crt_handler
C:\Users\Jay\AppData\Local\Temp\ccjVRGue.s:7987   .text.crt_handler:0000000000000368 $d
C:\Users\Jay\AppData\Local\Temp\ccjVRGue.s:7998   .text.crt_handler:0000000000000390 $t
C:\Users\Jay\AppData\Local\Temp\ccjVRGue.s:8169   .text.crt_handler:0000000000000534 $d
C:\Users\Jay\AppData\Local\Temp\ccjVRGue.s:8175   .text.fc3_handler:0000000000000000 $t
C:\Users\Jay\AppData\Local\Temp\ccjVRGue.s:8183   .text.fc3_handler:0000000000000000 fc3_handler
C:\Users\Jay\AppData\Local\Temp\ccjVRGue.s:8497   .text.fc3_handler:0000000000000370 $d
C:\Users\Jay\AppData\Local\Temp\ccjVRGue.s:8510   .text.fc3_handler:00000000000003a0 $t
C:\Users\Jay\AppData\Local\Temp\ccjVRGue.s:8774   .text.fc3_handler:0000000000000670 $d
C:\Users\Jay\AppData\Local\Temp\ccjVRGue.s:8782   .text.magic_desk_handler:0000000000000000 $t
C:\Users\Jay\AppData\Local\Temp\ccjVRGue.s:8790   .text.magic_desk_handler:0000000000000000 magic_desk_handler
C:\Users\Jay\AppData\Local\Temp\ccjVRGue.s:9012   .text.magic_desk_handler:000000000000023c $d
C:\Users\Jay\AppData\Local\Temp\ccjVRGue.s:9024   .text.kcs_handler:0000000000000000 $t
C:\Users\Jay\AppData\Local\Temp\ccjVRGue.s:9032   .text.kcs_handler:0000000000000000 kcs_handler
C:\Users\Jay\AppData\Local\Temp\ccjVRGue.s:9270   .text.kcs_handler:00000000000002b4 $d
C:\Users\Jay\AppData\Local\Temp\ccjVRGue.s:9282   .text.kcs_handler:00000000000002e0 $t
C:\Users\Jay\AppData\Local\Temp\ccjVRGue.s:9517   .text.kcs_handler:00000000000005a8 $d
C:\Users\Jay\AppData\Local\Temp\ccjVRGue.s:9529   .text.kcs_handler:00000000000005cc $t
C:\Users\Jay\AppData\Local\Temp\ccjVRGue.s:9805   .text.kcs_handler:0000000000000870 $d
C:\Users\Jay\AppData\Local\Temp\ccjVRGue.s:9819   .text.ef_launcher_handler:0000000000000000 $t
C:\Users\Jay\AppData\Local\Temp\ccjVRGue.s:9827   .text.ef_launcher_handler:0000000000000000 ef_launcher_handler
C:\Users\Jay\AppData\Local\Temp\ccjVRGue.s:10109  .text.ef_launcher_handler:00000000000002cc $d
C:\Users\Jay\AppData\Local\Temp\ccjVRGue.s:10126  .text.c64gs_handler:0000000000000000 $t
C:\Users\Jay\AppData\Local\Temp\ccjVRGue.s:10134  .text.c64gs_handler:0000000000000000 c64gs_handler
C:\Users\Jay\AppData\Local\Temp\ccjVRGue.s:10311  .text.c64gs_handler:00000000000001cc $d
C:\Users\Jay\AppData\Local\Temp\ccjVRGue.s:10323  .text.ss5_handler:0000000000000000 $t
C:\Users\Jay\AppData\Local\Temp\ccjVRGue.s:10331  .text.ss5_handler:0000000000000000 ss5_handler
C:\Users\Jay\AppData\Local\Temp\ccjVRGue.s:10607  .text.ss5_handler:00000000000002e8 $d
C:\Users\Jay\AppData\Local\Temp\ccjVRGue.s:10621  .text.ss5_handler:0000000000000314 $t
C:\Users\Jay\AppData\Local\Temp\ccjVRGue.s:10837  .text.ss5_handler:000000000000050c $d
C:\Users\Jay\AppData\Local\Temp\ccjVRGue.s:10851  .text.zaxxon_handler:0000000000000000 $t
C:\Users\Jay\AppData\Local\Temp\ccjVRGue.s:10859  .text.zaxxon_handler:0000000000000000 zaxxon_handler
C:\Users\Jay\AppData\Local\Temp\ccjVRGue.s:11012  .text.zaxxon_handler:0000000000000178 $d
C:\Users\Jay\AppData\Local\Temp\ccjVRGue.s:11024  .text.epyx_handler:0000000000000000 $t
C:\Users\Jay\AppData\Local\Temp\ccjVRGue.s:11032  .text.epyx_handler:0000000000000000 epyx_handler
C:\Users\Jay\AppData\Local\Temp\ccjVRGue.s:11212  .text.epyx_handler:00000000000001bc $d
C:\Users\Jay\AppData\Local\Temp\ccjVRGue.s:11224  .text.dinamic_handler:0000000000000000 $t
ARM GAS  C:\Users\Jay\AppData\Local\Temp\ccjVRGue.s 			page 316


C:\Users\Jay\AppData\Local\Temp\ccjVRGue.s:11232  .text.dinamic_handler:0000000000000000 dinamic_handler
C:\Users\Jay\AppData\Local\Temp\ccjVRGue.s:11380  .text.dinamic_handler:0000000000000178 $d
C:\Users\Jay\AppData\Local\Temp\ccjVRGue.s:11391  .text.comal80_handler:0000000000000000 $t
C:\Users\Jay\AppData\Local\Temp\ccjVRGue.s:11399  .text.comal80_handler:0000000000000000 comal80_handler
C:\Users\Jay\AppData\Local\Temp\ccjVRGue.s:11618  .text.comal80_handler:000000000000021c $d
C:\Users\Jay\AppData\Local\Temp\ccjVRGue.s:11630  .text.simons_basic_handler:0000000000000000 $t
C:\Users\Jay\AppData\Local\Temp\ccjVRGue.s:11638  .text.simons_basic_handler:0000000000000000 simons_basic_handler
C:\Users\Jay\AppData\Local\Temp\ccjVRGue.s:11812  .text.simons_basic_handler:00000000000001a8 $d
C:\Users\Jay\AppData\Local\Temp\ccjVRGue.s:11823  .text.ef_handler:0000000000000000 $t
C:\Users\Jay\AppData\Local\Temp\ccjVRGue.s:11831  .text.ef_handler:0000000000000000 ef_handler
C:\Users\Jay\AppData\Local\Temp\ccjVRGue.s:12114  .text.ef_handler:0000000000000358 $d
C:\Users\Jay\AppData\Local\Temp\ccjVRGue.s:12127  .text.ef_handler:0000000000000388 $t
C:\Users\Jay\AppData\Local\Temp\ccjVRGue.s:12413  .text.ef_handler:0000000000000680 $d
C:\Users\Jay\AppData\Local\Temp\ccjVRGue.s:12424  .text.ef_handler:00000000000006a8 $t
C:\Users\Jay\AppData\Local\Temp\ccjVRGue.s:12677  .text.ef_handler:00000000000009a0 $d
C:\Users\Jay\AppData\Local\Temp\ccjVRGue.s:12688  .text.ef_handler:00000000000009c8 $t
C:\Users\Jay\AppData\Local\Temp\ccjVRGue.s:12771  .text.ef_handler:0000000000000ab4 $d
C:\Users\Jay\AppData\Local\Temp\ccjVRGue.s:12779  .text.ar4x_handler:0000000000000000 $t
C:\Users\Jay\AppData\Local\Temp\ccjVRGue.s:12787  .text.ar4x_handler:0000000000000000 ar4x_handler
C:\Users\Jay\AppData\Local\Temp\ccjVRGue.s:13001  .text.ar4x_handler:000000000000023c $d
C:\Users\Jay\AppData\Local\Temp\ccjVRGue.s:13015  .text.ar4x_handler:0000000000000270 $t
C:\Users\Jay\AppData\Local\Temp\ccjVRGue.s:13303  .text.ar4x_handler:0000000000000568 $d
C:\Users\Jay\AppData\Local\Temp\ccjVRGue.s:13319  .text.ar4x_handler:00000000000005a4 $t
C:\Users\Jay\AppData\Local\Temp\ccjVRGue.s:13420  .text.ar4x_handler:00000000000006b4 $d
C:\Users\Jay\AppData\Local\Temp\ccjVRGue.s:13429  .text.SystemInit:0000000000000000 $t
C:\Users\Jay\AppData\Local\Temp\ccjVRGue.s:13437  .text.SystemInit:0000000000000000 SystemInit
C:\Users\Jay\AppData\Local\Temp\ccjVRGue.s:13517  .text.SystemInit:00000000000000ac $d
C:\Users\Jay\AppData\Local\Temp\ccjVRGue.s:13530  .text.SystemCoreClockUpdate:0000000000000000 $t
C:\Users\Jay\AppData\Local\Temp\ccjVRGue.s:13538  .text.SystemCoreClockUpdate:0000000000000000 SystemCoreClockUpdate
C:\Users\Jay\AppData\Local\Temp\ccjVRGue.s:13646  .text.SystemCoreClockUpdate:000000000000010c $d
C:\Users\Jay\AppData\Local\Temp\ccjVRGue.s:13657  .text.EXTI4_IRQHandler:0000000000000000 $t
C:\Users\Jay\AppData\Local\Temp\ccjVRGue.s:13665  .text.EXTI4_IRQHandler:0000000000000000 EXTI4_IRQHandler
C:\Users\Jay\AppData\Local\Temp\ccjVRGue.s:13686  .text.EXTI4_IRQHandler:0000000000000028 $d
C:\Users\Jay\AppData\Local\Temp\ccjVRGue.s:13689  .text.disk_initialize:0000000000000000 $t
C:\Users\Jay\AppData\Local\Temp\ccjVRGue.s:13697  .text.disk_initialize:0000000000000000 disk_initialize
C:\Users\Jay\AppData\Local\Temp\ccjVRGue.s:14019  .text.disk_initialize:00000000000002fc $d
C:\Users\Jay\AppData\Local\Temp\ccjVRGue.s:14036  .text.disk_initialize:000000000000033c $t
C:\Users\Jay\AppData\Local\Temp\ccjVRGue.s:14102  .text.disk_initialize:00000000000003d8 $d
C:\Users\Jay\AppData\Local\Temp\ccjVRGue.s:14109  .text.disk_status:0000000000000000 $t
C:\Users\Jay\AppData\Local\Temp\ccjVRGue.s:14117  .text.disk_status:0000000000000000 disk_status
C:\Users\Jay\AppData\Local\Temp\ccjVRGue.s:14127  .text.disk_status:0000000000000008 $d
C:\Users\Jay\AppData\Local\Temp\ccjVRGue.s:14130  .text.disk_read:0000000000000000 $t
C:\Users\Jay\AppData\Local\Temp\ccjVRGue.s:14138  .text.disk_read:0000000000000000 disk_read
C:\Users\Jay\AppData\Local\Temp\ccjVRGue.s:14255  .text.disk_read:00000000000000d8 $d
C:\Users\Jay\AppData\Local\Temp\ccjVRGue.s:14264  .text.disk_write:0000000000000000 $t
C:\Users\Jay\AppData\Local\Temp\ccjVRGue.s:14272  .text.disk_write:0000000000000000 disk_write
C:\Users\Jay\AppData\Local\Temp\ccjVRGue.s:14434  .text.disk_write:0000000000000138 $d
C:\Users\Jay\AppData\Local\Temp\ccjVRGue.s:14443  .text.disk_ioctl:0000000000000000 $t
C:\Users\Jay\AppData\Local\Temp\ccjVRGue.s:14451  .text.disk_ioctl:0000000000000000 disk_ioctl
C:\Users\Jay\AppData\Local\Temp\ccjVRGue.s:14469  .text.disk_ioctl:0000000000000014 $d
C:\Users\Jay\AppData\Local\Temp\ccjVRGue.s:14472  .text.usbd_poll:0000000000000000 $t
C:\Users\Jay\AppData\Local\Temp\ccjVRGue.s:14480  .text.usbd_poll:0000000000000000 usbd_poll
C:\Users\Jay\AppData\Local\Temp\ccjVRGue.s:14491  .text.usbd_poll:0000000000000008 $d
C:\Users\Jay\AppData\Local\Temp\ccjVRGue.s:14494  .text.OTG_FS_IRQHandler:0000000000000000 $t
C:\Users\Jay\AppData\Local\Temp\ccjVRGue.s:14502  .text.OTG_FS_IRQHandler:0000000000000000 OTG_FS_IRQHandler
C:\Users\Jay\AppData\Local\Temp\ccjVRGue.s:14514  .text.OTG_FS_IRQHandler:000000000000000c $d
C:\Users\Jay\AppData\Local\Temp\ccjVRGue.s:14518  .text.startup.main:0000000000000000 $t
ARM GAS  C:\Users\Jay\AppData\Local\Temp\ccjVRGue.s 			page 317


C:\Users\Jay\AppData\Local\Temp\ccjVRGue.s:14526  .text.startup.main:0000000000000000 main
C:\Users\Jay\AppData\Local\Temp\ccjVRGue.s:14818  .text.startup.main:0000000000000334 $d
C:\Users\Jay\AppData\Local\Temp\ccjVRGue.s:14849  .text.startup.main:00000000000003ac $t
C:\Users\Jay\AppData\Local\Temp\ccjVRGue.s:14921  .text.startup.main:000000000000043a $d
C:\Users\Jay\AppData\Local\Temp\ccjVRGue.s:14929  .text.startup.main:000000000000044a $t
C:\Users\Jay\AppData\Local\Temp\ccjVRGue.s:15049  .text.startup.main:0000000000000528 $d
C:\Users\Jay\AppData\Local\Temp\ccjVRGue.s:15066  .text.startup.main:0000000000000568 $t
C:\Users\Jay\AppData\Local\Temp\ccjVRGue.s:15385  .text.startup.main:0000000000000854 $d
C:\Users\Jay\AppData\Local\Temp\ccjVRGue.s:15397  .text.startup.main:0000000000000880 $t
C:\Users\Jay\AppData\Local\Temp\ccjVRGue.s:15746  .text.startup.main:0000000000000bb0 $d
C:\Users\Jay\AppData\Local\Temp\ccjVRGue.s:15757  .text.startup.main:0000000000000bd8 $t
C:\Users\Jay\AppData\Local\Temp\ccjVRGue.s:16105  .text.startup.main:0000000000000edc $d
C:\Users\Jay\AppData\Local\Temp\ccjVRGue.s:16119  .text.startup.main:0000000000000f10 $t
C:\Users\Jay\AppData\Local\Temp\ccjVRGue.s:16415  .text.startup.main:00000000000011dc $d
C:\Users\Jay\AppData\Local\Temp\ccjVRGue.s:16442  .text.startup.main:0000000000001244 $t
C:\Users\Jay\AppData\Local\Temp\ccjVRGue.s:16530  .text.startup.main:000000000000130c $d
C:\Users\Jay\AppData\Local\Temp\ccjVRGue.s:16542  .text.startup.main:000000000000133c $t
C:\Users\Jay\AppData\Local\Temp\ccjVRGue.s:16727  .text.startup.main:00000000000014cc $d
C:\Users\Jay\AppData\Local\Temp\ccjVRGue.s:16765  .text.startup.main:0000000000001560 $t
C:\Users\Jay\AppData\Local\Temp\ccjVRGue.s:16813  .text.startup.main:00000000000015cc $d
C:\Users\Jay\AppData\Local\Temp\ccjVRGue.s:17772  .rodata.usbd_otgfs:0000000000000000 usbd_otgfs
C:\Users\Jay\AppData\Local\Temp\ccjVRGue.s:17198  .rodata.OTGPCTL:0000000000000000 OTGPCTL
C:\Users\Jay\AppData\Local\Temp\ccjVRGue.s:17192  .rodata.OTGD:0000000000000000 OTGD
C:\Users\Jay\AppData\Local\Temp\ccjVRGue.s:17186  .rodata.OTG:0000000000000000 OTG
C:\Users\Jay\AppData\Local\Temp\ccjVRGue.s:17165  .rodata.D1CorePrescTable:0000000000000000 D1CorePrescTable
C:\Users\Jay\AppData\Local\Temp\ccjVRGue.s:17023  .data.SystemD2Clock:0000000000000000 SystemD2Clock
C:\Users\Jay\AppData\Local\Temp\ccjVRGue.s:17016  .data.SystemCoreClock:0000000000000000 SystemCoreClock
C:\Users\Jay\AppData\Local\Temp\ccjVRGue.s:16825  .bss.card_info:0000000000000000 $d
C:\Users\Jay\AppData\Local\Temp\ccjVRGue.s:16829  .bss.card_info:0000000000000000 card_info
C:\Users\Jay\AppData\Local\Temp\ccjVRGue.s:16832  .bss.card_rca:0000000000000000 $d
C:\Users\Jay\AppData\Local\Temp\ccjVRGue.s:16836  .bss.card_rca:0000000000000000 card_rca
C:\Users\Jay\AppData\Local\Temp\ccjVRGue.s:16842  .bss.card_type:0000000000000000 card_type
C:\Users\Jay\AppData\Local\Temp\ccjVRGue.s:16843  .bss.card_type:0000000000000000 $d
C:\Users\Jay\AppData\Local\Temp\ccjVRGue.s:16845  .bss.cnt:0000000000000000 $d
C:\Users\Jay\AppData\Local\Temp\ccjVRGue.s:16849  .bss.cnt:0000000000000000 cnt
C:\Users\Jay\AppData\Local\Temp\ccjVRGue.s:16852  .bss.crt_ptr:0000000000000000 $d
C:\Users\Jay\AppData\Local\Temp\ccjVRGue.s:16856  .bss.crt_ptr:0000000000000000 crt_ptr
C:\Users\Jay\AppData\Local\Temp\ccjVRGue.s:16859  .bss.crt_ram_buf:0000000000000000 $d
C:\Users\Jay\AppData\Local\Temp\ccjVRGue.s:16865  .bss.crt_rom_ptr:0000000000000000 $d
C:\Users\Jay\AppData\Local\Temp\ccjVRGue.s:16869  .bss.crt_rom_ptr:0000000000000000 crt_rom_ptr
C:\Users\Jay\AppData\Local\Temp\ccjVRGue.s:16872  .bss.d64_state:0000000000000000 $d
C:\Users\Jay\AppData\Local\Temp\ccjVRGue.s:16876  .bss.d64_state:0000000000000000 d64_state
C:\Users\Jay\AppData\Local\Temp\ccjVRGue.s:16882  .bss.ef3_usb_rx_data:0000000000000000 ef3_usb_rx_data
C:\Users\Jay\AppData\Local\Temp\ccjVRGue.s:16883  .bss.ef3_usb_rx_data:0000000000000000 $d
C:\Users\Jay\AppData\Local\Temp\ccjVRGue.s:16888  .bss.ef3_usb_rx_rdy:0000000000000000 ef3_usb_rx_rdy
C:\Users\Jay\AppData\Local\Temp\ccjVRGue.s:16889  .bss.ef3_usb_rx_rdy:0000000000000000 $d
C:\Users\Jay\AppData\Local\Temp\ccjVRGue.s:16894  .bss.ef3_usb_tx_data:0000000000000000 ef3_usb_tx_data
C:\Users\Jay\AppData\Local\Temp\ccjVRGue.s:16895  .bss.ef3_usb_tx_data:0000000000000000 $d
C:\Users\Jay\AppData\Local\Temp\ccjVRGue.s:16897  .bss.epyx_cycles:0000000000000000 $d
C:\Users\Jay\AppData\Local\Temp\ccjVRGue.s:16901  .bss.epyx_cycles:0000000000000000 epyx_cycles
C:\Users\Jay\AppData\Local\Temp\ccjVRGue.s:16904  .bss.fc3_register:0000000000000000 $d
C:\Users\Jay\AppData\Local\Temp\ccjVRGue.s:16908  .bss.fc3_register:0000000000000000 fc3_register
C:\Users\Jay\AppData\Local\Temp\ccjVRGue.s:16914  .bss.freezer_button:0000000000000000 freezer_button
C:\Users\Jay\AppData\Local\Temp\ccjVRGue.s:16915  .bss.freezer_button:0000000000000000 $d
C:\Users\Jay\AppData\Local\Temp\ccjVRGue.s:16920  .bss.freezer_state:0000000000000000 freezer_state
C:\Users\Jay\AppData\Local\Temp\ccjVRGue.s:16921  .bss.freezer_state:0000000000000000 $d
C:\Users\Jay\AppData\Local\Temp\ccjVRGue.s:16923  .bss.fs:0000000000000000 $d
ARM GAS  C:\Users\Jay\AppData\Local\Temp\ccjVRGue.s 			page 318


C:\Users\Jay\AppData\Local\Temp\ccjVRGue.s:16927  .bss.fs:0000000000000000 fs
C:\Users\Jay\AppData\Local\Temp\ccjVRGue.s:16933  .bss.kcs_register:0000000000000000 kcs_register
C:\Users\Jay\AppData\Local\Temp\ccjVRGue.s:16934  .bss.kcs_register:0000000000000000 $d
C:\Users\Jay\AppData\Local\Temp\ccjVRGue.s:16936  .bss.menu_state:0000000000000000 $d
C:\Users\Jay\AppData\Local\Temp\ccjVRGue.s:16940  .bss.menu_state:0000000000000000 menu_state
C:\Users\Jay\AppData\Local\Temp\ccjVRGue.s:16943  .bss.options_state:0000000000000000 $d
C:\Users\Jay\AppData\Local\Temp\ccjVRGue.s:16947  .bss.options_state:0000000000000000 options_state
C:\Users\Jay\AppData\Local\Temp\ccjVRGue.s:16950  .bss.sd_state:0000000000000000 $d
C:\Users\Jay\AppData\Local\Temp\ccjVRGue.s:16954  .bss.sd_state:0000000000000000 sd_state
C:\Users\Jay\AppData\Local\Temp\ccjVRGue.s:16960  .bss.settings_flags:0000000000000000 settings_flags
C:\Users\Jay\AppData\Local\Temp\ccjVRGue.s:16961  .bss.settings_flags:0000000000000000 $d
C:\Users\Jay\AppData\Local\Temp\ccjVRGue.s:16963  .bss.tmpbuf:0000000000000000 $d
C:\Users\Jay\AppData\Local\Temp\ccjVRGue.s:16967  .bss.tmpbuf:0000000000000000 tmpbuf
C:\Users\Jay\AppData\Local\Temp\ccjVRGue.s:16970  .bss.ubuf:0000000000000000 $d
C:\Users\Jay\AppData\Local\Temp\ccjVRGue.s:16974  .bss.ubuf:0000000000000000 ubuf
C:\Users\Jay\AppData\Local\Temp\ccjVRGue.s:16977  .bss.udev:0000000000000000 $d
C:\Users\Jay\AppData\Local\Temp\ccjVRGue.s:16981  .bss.udev:0000000000000000 udev
C:\Users\Jay\AppData\Local\Temp\ccjVRGue.s:16984  .bss.urx_fifo:0000000000000000 $d
C:\Users\Jay\AppData\Local\Temp\ccjVRGue.s:16988  .bss.urx_fifo:0000000000000000 urx_fifo
C:\Users\Jay\AppData\Local\Temp\ccjVRGue.s:16991  .bss.urx_pos:0000000000000000 $d
C:\Users\Jay\AppData\Local\Temp\ccjVRGue.s:16995  .bss.urx_pos:0000000000000000 urx_pos
C:\Users\Jay\AppData\Local\Temp\ccjVRGue.s:16998  .bss.utx_fifo:0000000000000000 $d
C:\Users\Jay\AppData\Local\Temp\ccjVRGue.s:17002  .bss.utx_fifo:0000000000000000 utx_fifo
C:\Users\Jay\AppData\Local\Temp\ccjVRGue.s:17005  .bss.utx_pos:0000000000000000 $d
C:\Users\Jay\AppData\Local\Temp\ccjVRGue.s:17009  .bss.utx_pos:0000000000000000 utx_pos
C:\Users\Jay\AppData\Local\Temp\ccjVRGue.s:17012  .data.SystemCoreClock:0000000000000000 $d
C:\Users\Jay\AppData\Local\Temp\ccjVRGue.s:17019  .data.SystemD2Clock:0000000000000000 $d
C:\Users\Jay\AppData\Local\Temp\ccjVRGue.s:17026  .data.cdc_line:0000000000000000 $d
C:\Users\Jay\AppData\Local\Temp\ccjVRGue.s:17030  .data.cdc_line:0000000000000000 cdc_line
C:\Users\Jay\AppData\Local\Temp\ccjVRGue.s:17039  .data.dstatus:0000000000000000 dstatus
C:\Users\Jay\AppData\Local\Temp\ccjVRGue.s:17045  .data.ef3_usb_tx_rdy:0000000000000000 ef3_usb_tx_rdy
C:\Users\Jay\AppData\Local\Temp\ccjVRGue.s:17048  .rodata.CSWTCH.501:0000000000000000 $d
C:\Users\Jay\AppData\Local\Temp\ccjVRGue.s:17052  .rodata.CSWTCH.501:0000000000000000 CSWTCH.501
C:\Users\Jay\AppData\Local\Temp\ccjVRGue.s:17087  .rodata.CSWTCH.503:0000000000000000 $d
C:\Users\Jay\AppData\Local\Temp\ccjVRGue.s:17091  .rodata.CSWTCH.503:0000000000000000 CSWTCH.503
C:\Users\Jay\AppData\Local\Temp\ccjVRGue.s:17125  .rodata.CSWTCH.559:0000000000000000 $d
C:\Users\Jay\AppData\Local\Temp\ccjVRGue.s:17129  .rodata.CSWTCH.559:0000000000000000 CSWTCH.559
C:\Users\Jay\AppData\Local\Temp\ccjVRGue.s:17137  .rodata.CSWTCH.560:0000000000000000 $d
C:\Users\Jay\AppData\Local\Temp\ccjVRGue.s:17141  .rodata.CSWTCH.560:0000000000000000 CSWTCH.560
C:\Users\Jay\AppData\Local\Temp\ccjVRGue.s:17149  .rodata.CSWTCH.561:0000000000000000 $d
C:\Users\Jay\AppData\Local\Temp\ccjVRGue.s:17153  .rodata.CSWTCH.561:0000000000000000 CSWTCH.561
C:\Users\Jay\AppData\Local\Temp\ccjVRGue.s:17161  .rodata.D1CorePrescTable:0000000000000000 $d
C:\Users\Jay\AppData\Local\Temp\ccjVRGue.s:17183  .rodata.OTG:0000000000000000 $d
C:\Users\Jay\AppData\Local\Temp\ccjVRGue.s:17189  .rodata.OTGD:0000000000000000 $d
C:\Users\Jay\AppData\Local\Temp\ccjVRGue.s:17195  .rodata.OTGPCTL:0000000000000000 $d
C:\Users\Jay\AppData\Local\Temp\ccjVRGue.s:17201  .rodata.ar4x_mode:0000000000000000 $d
C:\Users\Jay\AppData\Local\Temp\ccjVRGue.s:17205  .rodata.ar4x_mode:0000000000000000 ar4x_mode
C:\Users\Jay\AppData\Local\Temp\ccjVRGue.s:17211  .rodata.auto_boot.str1.4:0000000000000000 $d
C:\Users\Jay\AppData\Local\Temp\ccjVRGue.s:17221  .rodata.c64_send_command.str1.4:0000000000000000 $d
C:\Users\Jay\AppData\Local\Temp\ccjVRGue.s:17225  .rodata.c64_send_text.str1.4:0000000000000000 $d
C:\Users\Jay\AppData\Local\Temp\ccjVRGue.s:17229  .rodata.config_desc:0000000000000000 $d
C:\Users\Jay\AppData\Local\Temp\ccjVRGue.s:17233  .rodata.config_desc:0000000000000000 config_desc
C:\Users\Jay\AppData\Local\Temp\ccjVRGue.s:17305  .rodata.crt_banks:0000000000000000 $d
C:\Users\Jay\AppData\Local\Temp\ccjVRGue.s:17309  .rodata.crt_banks:0000000000000000 crt_banks
C:\Users\Jay\AppData\Local\Temp\ccjVRGue.s:17375  .rodata.crt_ram_banks:0000000000000000 $d
C:\Users\Jay\AppData\Local\Temp\ccjVRGue.s:17379  .rodata.crt_ram_banks:0000000000000000 crt_ram_banks
C:\Users\Jay\AppData\Local\Temp\ccjVRGue.s:17385  .rodata.d64_select.str1.4:0000000000000000 $d
ARM GAS  C:\Users\Jay\AppData\Local\Temp\ccjVRGue.s 			page 319


C:\Users\Jay\AppData\Local\Temp\ccjVRGue.s:17406  .rodata.d64_send_page.str1.4:0000000000000000 $d
C:\Users\Jay\AppData\Local\Temp\ccjVRGue.s:17415  .rodata.d64_track_offset:0000000000000000 $d
C:\Users\Jay\AppData\Local\Temp\ccjVRGue.s:17419  .rodata.d64_track_offset:0000000000000000 d64_track_offset
C:\Users\Jay\AppData\Local\Temp\ccjVRGue.s:17463  .rodata.d64_types:0000000000000000 $d
C:\Users\Jay\AppData\Local\Temp\ccjVRGue.s:17467  .rodata.d64_types:0000000000000000 d64_types
C:\Users\Jay\AppData\Local\Temp\ccjVRGue.s:17477  .rodata.device_desc:0000000000000000 $d
C:\Users\Jay\AppData\Local\Temp\ccjVRGue.s:17481  .rodata.device_desc:0000000000000000 device_desc
C:\Users\Jay\AppData\Local\Temp\ccjVRGue.s:17497  .rodata.dtable:0000000000000000 $d
C:\Users\Jay\AppData\Local\Temp\ccjVRGue.s:17501  .rodata.dtable:0000000000000000 dtable
C:\Users\Jay\AppData\Local\Temp\ccjVRGue.s:17623  .rodata.lang_desc:0000000000000000 lang_desc
C:\Users\Jay\AppData\Local\Temp\ccjVRGue.s:17662  .rodata.manuf_desc_en:0000000000000000 manuf_desc_en
C:\Users\Jay\AppData\Local\Temp\ccjVRGue.s:17670  .rodata.prod_desc_en:0000000000000000 prod_desc_en
C:\Users\Jay\AppData\Local\Temp\ccjVRGue.s:17506  .rodata.ef_mode:0000000000000000 $d
C:\Users\Jay\AppData\Local\Temp\ccjVRGue.s:17510  .rodata.ef_mode:0000000000000000 ef_mode
C:\Users\Jay\AppData\Local\Temp\ccjVRGue.s:17520  .rodata.fc3_mode:0000000000000000 $d
C:\Users\Jay\AppData\Local\Temp\ccjVRGue.s:17524  .rodata.fc3_mode:0000000000000000 fc3_mode
C:\Users\Jay\AppData\Local\Temp\ccjVRGue.s:17534  .rodata.handle_dir_up_command.str1.4:0000000000000000 $d
C:\Users\Jay\AppData\Local\Temp\ccjVRGue.s:17538  .rodata.handle_failed_to_read_sd.str1.4:0000000000000000 $d
C:\Users\Jay\AppData\Local\Temp\ccjVRGue.s:17545  .rodata.handle_file_options.str1.4:0000000000000000 $d
C:\Users\Jay\AppData\Local\Temp\ccjVRGue.s:17555  .rodata.handle_select_command.str1.4:0000000000000000 $d
C:\Users\Jay\AppData\Local\Temp\ccjVRGue.s:17599  .rodata.handle_unsupported_ex.str1.4:0000000000000000 $d
C:\Users\Jay\AppData\Local\Temp\ccjVRGue.s:17603  .rodata.hex:0000000000000000 $d
C:\Users\Jay\AppData\Local\Temp\ccjVRGue.s:17607  .rodata.hex:0000000000000000 hex
C:\Users\Jay\AppData\Local\Temp\ccjVRGue.s:17610  .rodata.kcs_mode:0000000000000000 $d
C:\Users\Jay\AppData\Local\Temp\ccjVRGue.s:17614  .rodata.kcs_mode:0000000000000000 kcs_mode
C:\Users\Jay\AppData\Local\Temp\ccjVRGue.s:17620  .rodata.lang_desc:0000000000000000 $d
C:\Users\Jay\AppData\Local\Temp\ccjVRGue.s:17628  .rodata.main.str1.4:0000000000000000 $d
C:\Users\Jay\AppData\Local\Temp\ccjVRGue.s:17659  .rodata.manuf_desc_en:0000000000000000 $d
C:\Users\Jay\AppData\Local\Temp\ccjVRGue.s:17667  .rodata.prod_desc_en:0000000000000000 $d
C:\Users\Jay\AppData\Local\Temp\ccjVRGue.s:17676  .rodata.sd_send_page.str1.4:0000000000000000 $d
C:\Users\Jay\AppData\Local\Temp\ccjVRGue.s:17686  .rodata.settings_basic_change.str1.4:0000000000000000 $d
C:\Users\Jay\AppData\Local\Temp\ccjVRGue.s:17695  .rodata.settings_save.str1.4:0000000000000000 $d
C:\Users\Jay\AppData\Local\Temp\ccjVRGue.s:17699  .rodata.ss5_mode:0000000000000000 $d
C:\Users\Jay\AppData\Local\Temp\ccjVRGue.s:17703  .rodata.ss5_mode:0000000000000000 ss5_mode
C:\Users\Jay\AppData\Local\Temp\ccjVRGue.s:17713  .rodata.str1.4:0000000000000000 $d
C:\Users\Jay\AppData\Local\Temp\ccjVRGue.s:17764  .rodata.system_restart.str1.4:0000000000000000 $d
C:\Users\Jay\AppData\Local\Temp\ccjVRGue.s:17768  .rodata.usbd_otgfs:0000000000000000 $d
C:\Users\Jay\AppData\Local\Temp\ccjVRGue.s:17787  .sram:0000000000000000 $d
C:\Users\Jay\AppData\Local\Temp\ccjVRGue.s:646    .text.evt_poll:0000000000000041 $d
C:\Users\Jay\AppData\Local\Temp\ccjVRGue.s:646    .text.evt_poll:0000000000000042 $t
C:\Users\Jay\AppData\Local\Temp\ccjVRGue.s:4877   .text.sprint:000000000000005b $d
C:\Users\Jay\AppData\Local\Temp\ccjVRGue.s:4877   .text.sprint:000000000000005c $t

UNDEFINED SYMBOLS
strcmp
f_read
f_open
memset
f_close
memcmp
f_lseek
f_write
f_mount
memmove
f_chdir
f_readdir
f_closedir
ARM GAS  C:\Users\Jay\AppData\Local\Temp\ccjVRGue.s 			page 320


strcpy
memcpy
f_opendir
f_getcwd
strncmp
